ARM GAS  /tmp/ccCKZ4mO.s 			page 1


   1              		.cpu cortex-m7
   2              		.eabi_attribute 27, 1
   3              		.eabi_attribute 28, 1
   4              		.eabi_attribute 20, 1
   5              		.eabi_attribute 21, 1
   6              		.eabi_attribute 23, 3
   7              		.eabi_attribute 24, 1
   8              		.eabi_attribute 25, 1
   9              		.eabi_attribute 26, 1
  10              		.eabi_attribute 30, 2
  11              		.eabi_attribute 34, 1
  12              		.eabi_attribute 18, 4
  13              		.file	"gpio.c"
  14              		.text
  15              	.Ltext0:
  16              		.cfi_sections	.debug_frame
  17              		.section	.text.MX_GPIO_Init,"ax",%progbits
  18              		.align	1
  19              		.p2align 2,,3
  20              		.global	MX_GPIO_Init
  21              		.syntax unified
  22              		.thumb
  23              		.thumb_func
  24              		.fpu fpv4-sp-d16
  26              	MX_GPIO_Init:
  27              	.LFB138:
  28              		.file 1 "Src/gpio.c"
   1:Src/gpio.c    **** /**
   2:Src/gpio.c    ****   ******************************************************************************
   3:Src/gpio.c    ****   * File Name          : gpio.c
   4:Src/gpio.c    ****   * Description        : This file provides code for the configuration
   5:Src/gpio.c    ****   *                      of all used GPIO pins.
   6:Src/gpio.c    ****   ******************************************************************************
   7:Src/gpio.c    ****   ** This notice applies to any and all portions of this file
   8:Src/gpio.c    ****   * that are not between comment pairs USER CODE BEGIN and
   9:Src/gpio.c    ****   * USER CODE END. Other portions of this file, whether 
  10:Src/gpio.c    ****   * inserted by the user or by software development tools
  11:Src/gpio.c    ****   * are owned by their respective copyright owners.
  12:Src/gpio.c    ****   *
  13:Src/gpio.c    ****   * COPYRIGHT(c) 2018 STMicroelectronics
  14:Src/gpio.c    ****   *
  15:Src/gpio.c    ****   * Redistribution and use in source and binary forms, with or without modification,
  16:Src/gpio.c    ****   * are permitted provided that the following conditions are met:
  17:Src/gpio.c    ****   *   1. Redistributions of source code must retain the above copyright notice,
  18:Src/gpio.c    ****   *      this list of conditions and the following disclaimer.
  19:Src/gpio.c    ****   *   2. Redistributions in binary form must reproduce the above copyright notice,
  20:Src/gpio.c    ****   *      this list of conditions and the following disclaimer in the documentation
  21:Src/gpio.c    ****   *      and/or other materials provided with the distribution.
  22:Src/gpio.c    ****   *   3. Neither the name of STMicroelectronics nor the names of its contributors
  23:Src/gpio.c    ****   *      may be used to endorse or promote products derived from this software
  24:Src/gpio.c    ****   *      without specific prior written permission.
  25:Src/gpio.c    ****   *
  26:Src/gpio.c    ****   * THIS SOFTWARE IS PROVIDED BY THE COPYRIGHT HOLDERS AND CONTRIBUTORS "AS IS"
  27:Src/gpio.c    ****   * AND ANY EXPRESS OR IMPLIED WARRANTIES, INCLUDING, BUT NOT LIMITED TO, THE
  28:Src/gpio.c    ****   * IMPLIED WARRANTIES OF MERCHANTABILITY AND FITNESS FOR A PARTICULAR PURPOSE ARE
  29:Src/gpio.c    ****   * DISCLAIMED. IN NO EVENT SHALL THE COPYRIGHT HOLDER OR CONTRIBUTORS BE LIABLE
  30:Src/gpio.c    ****   * FOR ANY DIRECT, INDIRECT, INCIDENTAL, SPECIAL, EXEMPLARY, OR CONSEQUENTIAL
ARM GAS  /tmp/ccCKZ4mO.s 			page 2


  31:Src/gpio.c    ****   * DAMAGES (INCLUDING, BUT NOT LIMITED TO, PROCUREMENT OF SUBSTITUTE GOODS OR
  32:Src/gpio.c    ****   * SERVICES; LOSS OF USE, DATA, OR PROFITS; OR BUSINESS INTERRUPTION) HOWEVER
  33:Src/gpio.c    ****   * CAUSED AND ON ANY THEORY OF LIABILITY, WHETHER IN CONTRACT, STRICT LIABILITY,
  34:Src/gpio.c    ****   * OR TORT (INCLUDING NEGLIGENCE OR OTHERWISE) ARISING IN ANY WAY OUT OF THE USE
  35:Src/gpio.c    ****   * OF THIS SOFTWARE, EVEN IF ADVISED OF THE POSSIBILITY OF SUCH DAMAGE.
  36:Src/gpio.c    ****   *
  37:Src/gpio.c    ****   ******************************************************************************
  38:Src/gpio.c    ****   */
  39:Src/gpio.c    **** 
  40:Src/gpio.c    **** /* Includes ------------------------------------------------------------------*/
  41:Src/gpio.c    **** #include "gpio.h"
  42:Src/gpio.c    **** /* USER CODE BEGIN 0 */
  43:Src/gpio.c    **** 
  44:Src/gpio.c    **** /* USER CODE END 0 */
  45:Src/gpio.c    **** 
  46:Src/gpio.c    **** /*----------------------------------------------------------------------------*/
  47:Src/gpio.c    **** /* Configure GPIO                                                             */
  48:Src/gpio.c    **** /*----------------------------------------------------------------------------*/
  49:Src/gpio.c    **** /* USER CODE BEGIN 1 */
  50:Src/gpio.c    **** 
  51:Src/gpio.c    **** /* USER CODE END 1 */
  52:Src/gpio.c    **** 
  53:Src/gpio.c    **** /** Configure pins as 
  54:Src/gpio.c    ****         * Analog 
  55:Src/gpio.c    ****         * Input 
  56:Src/gpio.c    ****         * Output
  57:Src/gpio.c    ****         * EVENT_OUT
  58:Src/gpio.c    ****         * EXTI
  59:Src/gpio.c    **** */
  60:Src/gpio.c    **** void MX_GPIO_Init(void)
  61:Src/gpio.c    **** {
  29              		.loc 1 61 0
  30              		.cfi_startproc
  31              		@ args = 0, pretend = 0, frame = 56
  32              		@ frame_needed = 0, uses_anonymous_args = 0
  33              	.LBB2:
  62:Src/gpio.c    **** 
  63:Src/gpio.c    ****     GPIO_InitTypeDef GPIO_InitStruct;
  64:Src/gpio.c    **** 
  65:Src/gpio.c    ****     /* GPIO Ports Clock Enable */
  66:Src/gpio.c    ****     __HAL_RCC_GPIOC_CLK_ENABLE();
  34              		.loc 1 66 0
  35 0000 514B     		ldr	r3, .L4
  36              	.LBE2:
  67:Src/gpio.c    ****     __HAL_RCC_GPIOF_CLK_ENABLE();
  68:Src/gpio.c    ****     __HAL_RCC_GPIOH_CLK_ENABLE();
  69:Src/gpio.c    ****     __HAL_RCC_GPIOA_CLK_ENABLE();
  70:Src/gpio.c    ****     __HAL_RCC_GPIOG_CLK_ENABLE();
  71:Src/gpio.c    ****     __HAL_RCC_GPIOE_CLK_ENABLE();
  72:Src/gpio.c    ****     __HAL_RCC_GPIOB_CLK_ENABLE();
  73:Src/gpio.c    ****     __HAL_RCC_GPIOD_CLK_ENABLE();
  74:Src/gpio.c    **** 
  75:Src/gpio.c    ****     /*Configure GPIO pin Output Level */
  76:Src/gpio.c    ****     HAL_GPIO_WritePin(GPIOG, LASER_EN_Pin|STEP4_AI1_Pin|STEP4_AI2_Pin|STEP4_BI2_Pin|STEP3_AI2_Pin|S
  37              		.loc 1 76 0
  38 0002 0022     		movs	r2, #0
  39 0004 4AF20E11 		movw	r1, #41230
ARM GAS  /tmp/ccCKZ4mO.s 			page 3


  61:Src/gpio.c    **** 
  40              		.loc 1 61 0
  41 0008 2DE9F041 		push	{r4, r5, r6, r7, r8, lr}
  42              	.LCFI0:
  43              		.cfi_def_cfa_offset 24
  44              		.cfi_offset 4, -24
  45              		.cfi_offset 5, -20
  46              		.cfi_offset 6, -16
  47              		.cfi_offset 7, -12
  48              		.cfi_offset 8, -8
  49              		.cfi_offset 14, -4
  50              	.LBB3:
  66:Src/gpio.c    ****     __HAL_RCC_GPIOF_CLK_ENABLE();
  51              		.loc 1 66 0
  52 000c 1C6B     		ldr	r4, [r3, #48]
  53              	.LBE3:
  61:Src/gpio.c    **** 
  54              		.loc 1 61 0
  55 000e 8EB0     		sub	sp, sp, #56
  56              	.LCFI1:
  57              		.cfi_def_cfa_offset 80
  77:Src/gpio.c    **** 
  78:Src/gpio.c    ****     /*Configure GPIO pin Output Level */
  79:Src/gpio.c    ****     HAL_GPIO_WritePin(GPIOB, LED3_Pin|SP1_NSS_Pin|STEP1_BI2_Pin|STEP1_AI2_Pin|STEP1_AI1_Pin, GPIO_P
  80:Src/gpio.c    **** 
  81:Src/gpio.c    ****     /*Configure GPIO pin Output Level */
  82:Src/gpio.c    ****     HAL_GPIO_WritePin(GPIOD, STEP2_BI1_Pin|STEP2_BI2_Pin|STEP2_AI2_Pin|STEP1_BI1_Pin
  83:Src/gpio.c    ****                             |STEP2_AI1_Pin|STEP3_BI2_Pin|STEP3_BI1_Pin|GPS_ONOFF_Pin
  84:Src/gpio.c    ****                             |GPS_RPFWRUP_Pin|GPS_RESET_Pin, GPIO_PIN_RESET);
  85:Src/gpio.c    **** 
  86:Src/gpio.c    ****     /*Configure GPIO pin : PtPin */
  87:Src/gpio.c    ****     GPIO_InitStruct.Pin = WKUP_Pin;
  58              		.loc 1 87 0
  59 0010 0126     		movs	r6, #1
  76:Src/gpio.c    **** 
  60              		.loc 1 76 0
  61 0012 DFF84881 		ldr	r8, .L4+20
  62              	.LBB4:
  66:Src/gpio.c    ****     __HAL_RCC_GPIOF_CLK_ENABLE();
  63              		.loc 1 66 0
  64 0016 44F00404 		orr	r4, r4, #4
  65              	.LBE4:
  79:Src/gpio.c    **** 
  66              		.loc 1 79 0
  67 001a 4C4F     		ldr	r7, .L4+4
  82:Src/gpio.c    ****                             |STEP2_AI1_Pin|STEP3_BI2_Pin|STEP3_BI1_Pin|GPS_ONOFF_Pin
  68              		.loc 1 82 0
  69 001c 4C4D     		ldr	r5, .L4+8
  76:Src/gpio.c    **** 
  70              		.loc 1 76 0
  71 001e 4046     		mov	r0, r8
  72              	.LBB5:
  66:Src/gpio.c    ****     __HAL_RCC_GPIOF_CLK_ENABLE();
  73              		.loc 1 66 0
  74 0020 1C63     		str	r4, [r3, #48]
  75 0022 1C6B     		ldr	r4, [r3, #48]
  76 0024 04F00404 		and	r4, r4, #4
ARM GAS  /tmp/ccCKZ4mO.s 			page 4


  77 0028 0194     		str	r4, [sp, #4]
  78 002a 019C     		ldr	r4, [sp, #4]
  79              	.LBE5:
  80              	.LBB6:
  67:Src/gpio.c    ****     __HAL_RCC_GPIOH_CLK_ENABLE();
  81              		.loc 1 67 0
  82 002c 1C6B     		ldr	r4, [r3, #48]
  83 002e 44F02004 		orr	r4, r4, #32
  84 0032 1C63     		str	r4, [r3, #48]
  85 0034 1C6B     		ldr	r4, [r3, #48]
  86 0036 04F02004 		and	r4, r4, #32
  87 003a 0294     		str	r4, [sp, #8]
  88 003c 029C     		ldr	r4, [sp, #8]
  89              	.LBE6:
  90              	.LBB7:
  68:Src/gpio.c    ****     __HAL_RCC_GPIOA_CLK_ENABLE();
  91              		.loc 1 68 0
  92 003e 1C6B     		ldr	r4, [r3, #48]
  93 0040 44F08004 		orr	r4, r4, #128
  94 0044 1C63     		str	r4, [r3, #48]
  95 0046 1C6B     		ldr	r4, [r3, #48]
  96 0048 04F08004 		and	r4, r4, #128
  97 004c 0394     		str	r4, [sp, #12]
  98 004e 039C     		ldr	r4, [sp, #12]
  99              	.LBE7:
 100              	.LBB8:
  69:Src/gpio.c    ****     __HAL_RCC_GPIOG_CLK_ENABLE();
 101              		.loc 1 69 0
 102 0050 1C6B     		ldr	r4, [r3, #48]
 103 0052 3443     		orrs	r4, r4, r6
 104 0054 1C63     		str	r4, [r3, #48]
 105 0056 1C6B     		ldr	r4, [r3, #48]
 106 0058 3440     		ands	r4, r4, r6
 107 005a 0494     		str	r4, [sp, #16]
 108 005c 049C     		ldr	r4, [sp, #16]
 109              	.LBE8:
 110              	.LBB9:
  70:Src/gpio.c    ****     __HAL_RCC_GPIOE_CLK_ENABLE();
 111              		.loc 1 70 0
 112 005e 1C6B     		ldr	r4, [r3, #48]
 113 0060 44F04004 		orr	r4, r4, #64
 114 0064 1C63     		str	r4, [r3, #48]
 115 0066 1C6B     		ldr	r4, [r3, #48]
 116 0068 04F04004 		and	r4, r4, #64
 117 006c 0594     		str	r4, [sp, #20]
 118 006e 059C     		ldr	r4, [sp, #20]
 119              	.LBE9:
 120              	.LBB10:
  71:Src/gpio.c    ****     __HAL_RCC_GPIOB_CLK_ENABLE();
 121              		.loc 1 71 0
 122 0070 1C6B     		ldr	r4, [r3, #48]
 123 0072 44F01004 		orr	r4, r4, #16
 124 0076 1C63     		str	r4, [r3, #48]
 125 0078 1C6B     		ldr	r4, [r3, #48]
 126 007a 04F01004 		and	r4, r4, #16
 127 007e 0694     		str	r4, [sp, #24]
 128 0080 069C     		ldr	r4, [sp, #24]
ARM GAS  /tmp/ccCKZ4mO.s 			page 5


 129              	.LBE10:
 130              	.LBB11:
  72:Src/gpio.c    ****     __HAL_RCC_GPIOD_CLK_ENABLE();
 131              		.loc 1 72 0
 132 0082 1C6B     		ldr	r4, [r3, #48]
 133 0084 44F00204 		orr	r4, r4, #2
 134 0088 1C63     		str	r4, [r3, #48]
 135 008a 1C6B     		ldr	r4, [r3, #48]
 136 008c 04F00204 		and	r4, r4, #2
 137 0090 0794     		str	r4, [sp, #28]
 138 0092 079C     		ldr	r4, [sp, #28]
 139              	.LBE11:
 140              	.LBB12:
  73:Src/gpio.c    **** 
 141              		.loc 1 73 0
 142 0094 1C6B     		ldr	r4, [r3, #48]
 143 0096 44F00804 		orr	r4, r4, #8
 144 009a 1C63     		str	r4, [r3, #48]
 145              	.LBE12:
  88:Src/gpio.c    ****     GPIO_InitStruct.Mode = GPIO_MODE_INPUT;
 146              		.loc 1 88 0
 147 009c 1446     		mov	r4, r2
 148              	.LBB13:
  73:Src/gpio.c    **** 
 149              		.loc 1 73 0
 150 009e 1B6B     		ldr	r3, [r3, #48]
 151 00a0 03F00803 		and	r3, r3, #8
 152 00a4 0893     		str	r3, [sp, #32]
 153 00a6 089B     		ldr	r3, [sp, #32]
 154              	.LBE13:
  76:Src/gpio.c    **** 
 155              		.loc 1 76 0
 156 00a8 FFF7FEFF 		bl	HAL_GPIO_WritePin
 157              	.LVL0:
  79:Src/gpio.c    **** 
 158              		.loc 1 79 0
 159 00ac 3846     		mov	r0, r7
 160 00ae 2246     		mov	r2, r4
 161 00b0 4FF48E51 		mov	r1, #4544
 162 00b4 FFF7FEFF 		bl	HAL_GPIO_WritePin
 163              	.LVL1:
  82:Src/gpio.c    ****                             |STEP2_AI1_Pin|STEP3_BI2_Pin|STEP3_BI1_Pin|GPS_ONOFF_Pin
 164              		.loc 1 82 0
 165 00b8 2246     		mov	r2, r4
 166 00ba 2846     		mov	r0, r5
 167 00bc 4FF63C41 		movw	r1, #64572
 168 00c0 FFF7FEFF 		bl	HAL_GPIO_WritePin
 169              	.LVL2:
  89:Src/gpio.c    ****     GPIO_InitStruct.Pull = GPIO_NOPULL;
  90:Src/gpio.c    ****     HAL_GPIO_Init(WKUP_GPIO_Port, &GPIO_InitStruct);
 170              		.loc 1 90 0
 171 00c4 09A9     		add	r1, sp, #36
 172 00c6 2348     		ldr	r0, .L4+12
  89:Src/gpio.c    ****     GPIO_InitStruct.Pull = GPIO_NOPULL;
 173              		.loc 1 89 0
 174 00c8 0B94     		str	r4, [sp, #44]
  88:Src/gpio.c    ****     GPIO_InitStruct.Pull = GPIO_NOPULL;
ARM GAS  /tmp/ccCKZ4mO.s 			page 6


 175              		.loc 1 88 0
 176 00ca CDE90964 		strd	r6, r4, [sp, #36]
 177              		.loc 1 90 0
 178 00ce FFF7FEFF 		bl	HAL_GPIO_Init
 179              	.LVL3:
  91:Src/gpio.c    **** 
  92:Src/gpio.c    ****     /*Configure GPIO pin : PtPin */
  93:Src/gpio.c    ****     GPIO_InitStruct.Pin = SFP_LOS_Pin;
 180              		.loc 1 93 0
 181 00d2 4FF48053 		mov	r3, #4096
  94:Src/gpio.c    ****     GPIO_InitStruct.Mode = GPIO_MODE_INPUT;
  95:Src/gpio.c    ****     GPIO_InitStruct.Pull = GPIO_NOPULL;
  96:Src/gpio.c    ****     HAL_GPIO_Init(SFP_LOS_GPIO_Port, &GPIO_InitStruct);
 182              		.loc 1 96 0
 183 00d6 09A9     		add	r1, sp, #36
 184 00d8 1F48     		ldr	r0, .L4+16
  93:Src/gpio.c    ****     GPIO_InitStruct.Mode = GPIO_MODE_INPUT;
 185              		.loc 1 93 0
 186 00da 0993     		str	r3, [sp, #36]
  95:Src/gpio.c    ****     HAL_GPIO_Init(SFP_LOS_GPIO_Port, &GPIO_InitStruct);
 187              		.loc 1 95 0
 188 00dc CDE90A44 		strd	r4, r4, [sp, #40]
 189              		.loc 1 96 0
 190 00e0 FFF7FEFF 		bl	HAL_GPIO_Init
 191              	.LVL4:
  97:Src/gpio.c    **** 
  98:Src/gpio.c    ****     /*Configure GPIO pins : PGPin PGPin PGPin PGPin
  99:Src/gpio.c    ****                              PGPin PGPin PGPin */
 100:Src/gpio.c    ****     GPIO_InitStruct.Pin = LASER_EN_Pin|STEP3_AI2_Pin|STEP3_AI1_Pin
 192              		.loc 1 100 0
 193 00e4 4EF20E13 		movw	r3, #57614
 101:Src/gpio.c    ****                           |STEP4_AI1_Pin|STEP4_AI2_Pin|STEP4_BI2_Pin|STEP4_BI1_Pin;
 102:Src/gpio.c    ****     GPIO_InitStruct.Mode = GPIO_MODE_OUTPUT_PP;
 103:Src/gpio.c    ****     GPIO_InitStruct.Pull = GPIO_NOPULL;
 104:Src/gpio.c    ****     GPIO_InitStruct.Speed = GPIO_SPEED_FREQ_LOW;
 105:Src/gpio.c    ****     HAL_GPIO_Init(GPIOG, &GPIO_InitStruct);
 194              		.loc 1 105 0
 195 00e8 4046     		mov	r0, r8
 196 00ea 09A9     		add	r1, sp, #36
 100:Src/gpio.c    ****                           |STEP4_AI1_Pin|STEP4_AI2_Pin|STEP4_BI2_Pin|STEP4_BI1_Pin;
 197              		.loc 1 100 0
 198 00ec 0993     		str	r3, [sp, #36]
 104:Src/gpio.c    ****     HAL_GPIO_Init(GPIOG, &GPIO_InitStruct);
 199              		.loc 1 104 0
 200 00ee 0C94     		str	r4, [sp, #48]
 103:Src/gpio.c    ****     GPIO_InitStruct.Speed = GPIO_SPEED_FREQ_LOW;
 201              		.loc 1 103 0
 202 00f0 CDE90A64 		strd	r6, r4, [sp, #40]
 203              		.loc 1 105 0
 204 00f4 FFF7FEFF 		bl	HAL_GPIO_Init
 205              	.LVL5:
 106:Src/gpio.c    **** 
 107:Src/gpio.c    ****     /*Configure GPIO pins : PBPin PBPin PBPin PBPin */
 108:Src/gpio.c    ****     GPIO_InitStruct.Pin = LED3_Pin|SP1_NSS_Pin|STEP1_BI2_Pin|STEP1_AI2_Pin|STEP1_AI1_Pin;
 206              		.loc 1 108 0
 207 00f8 4FF48E53 		mov	r3, #4544
 109:Src/gpio.c    ****     GPIO_InitStruct.Mode = GPIO_MODE_OUTPUT_PP;
ARM GAS  /tmp/ccCKZ4mO.s 			page 7


 110:Src/gpio.c    ****     GPIO_InitStruct.Pull = GPIO_NOPULL;
 111:Src/gpio.c    ****     GPIO_InitStruct.Speed = GPIO_SPEED_FREQ_LOW;
 112:Src/gpio.c    ****     HAL_GPIO_Init(GPIOB, &GPIO_InitStruct);
 208              		.loc 1 112 0
 209 00fc 3846     		mov	r0, r7
 210 00fe 09A9     		add	r1, sp, #36
 108:Src/gpio.c    ****     GPIO_InitStruct.Mode = GPIO_MODE_OUTPUT_PP;
 211              		.loc 1 108 0
 212 0100 0993     		str	r3, [sp, #36]
 111:Src/gpio.c    ****     HAL_GPIO_Init(GPIOB, &GPIO_InitStruct);
 213              		.loc 1 111 0
 214 0102 0C94     		str	r4, [sp, #48]
 110:Src/gpio.c    ****     GPIO_InitStruct.Speed = GPIO_SPEED_FREQ_LOW;
 215              		.loc 1 110 0
 216 0104 CDE90A64 		strd	r6, r4, [sp, #40]
 217              		.loc 1 112 0
 218 0108 FFF7FEFF 		bl	HAL_GPIO_Init
 219              	.LVL6:
 113:Src/gpio.c    **** 
 114:Src/gpio.c    ****     GPIO_InitStruct.Pin = GPS_RPFWRUP_Pin;
 220              		.loc 1 114 0
 221 010c 0823     		movs	r3, #8
 115:Src/gpio.c    ****     GPIO_InitStruct.Mode = GPIO_MODE_INPUT;
 116:Src/gpio.c    ****     GPIO_InitStruct.Pull = GPIO_NOPULL;
 117:Src/gpio.c    ****     HAL_GPIO_Init(GPS_RPFWRUP_GPIO_Port, &GPIO_InitStruct);
 222              		.loc 1 117 0
 223 010e 09A9     		add	r1, sp, #36
 224 0110 2846     		mov	r0, r5
 114:Src/gpio.c    ****     GPIO_InitStruct.Mode = GPIO_MODE_INPUT;
 225              		.loc 1 114 0
 226 0112 0993     		str	r3, [sp, #36]
 116:Src/gpio.c    ****     HAL_GPIO_Init(GPS_RPFWRUP_GPIO_Port, &GPIO_InitStruct);
 227              		.loc 1 116 0
 228 0114 CDE90A44 		strd	r4, r4, [sp, #40]
 229              		.loc 1 117 0
 230 0118 FFF7FEFF 		bl	HAL_GPIO_Init
 231              	.LVL7:
 118:Src/gpio.c    **** 
 119:Src/gpio.c    ****     /*Configure GPIO pins : PDPin PDPin PDPin PDPin
 120:Src/gpio.c    ****                              PDPin PDPin PDPin PDPin
 121:Src/gpio.c    ****                              PDPin PDPin */
 122:Src/gpio.c    ****     GPIO_InitStruct.Pin = STEP2_BI1_Pin|STEP2_BI2_Pin|STEP2_AI2_Pin|STEP1_BI1_Pin
 232              		.loc 1 122 0
 233 011c 4FF63443 		movw	r3, #64564
 123:Src/gpio.c    ****                             |STEP2_AI1_Pin|STEP3_BI2_Pin|STEP3_BI1_Pin|GPS_ONOFF_Pin
 124:Src/gpio.c    ****                             |GPS_RESET_Pin;
 125:Src/gpio.c    ****     GPIO_InitStruct.Mode = GPIO_MODE_OUTPUT_PP;
 126:Src/gpio.c    ****     GPIO_InitStruct.Pull = GPIO_NOPULL;
 127:Src/gpio.c    ****     GPIO_InitStruct.Speed = GPIO_SPEED_FREQ_LOW;
 128:Src/gpio.c    ****     HAL_GPIO_Init(GPIOD, &GPIO_InitStruct);
 234              		.loc 1 128 0
 235 0120 09A9     		add	r1, sp, #36
 236 0122 2846     		mov	r0, r5
 122:Src/gpio.c    ****                             |STEP2_AI1_Pin|STEP3_BI2_Pin|STEP3_BI1_Pin|GPS_ONOFF_Pin
 237              		.loc 1 122 0
 238 0124 0993     		str	r3, [sp, #36]
 127:Src/gpio.c    ****     HAL_GPIO_Init(GPIOD, &GPIO_InitStruct);
ARM GAS  /tmp/ccCKZ4mO.s 			page 8


 239              		.loc 1 127 0
 240 0126 0C94     		str	r4, [sp, #48]
 126:Src/gpio.c    ****     GPIO_InitStruct.Speed = GPIO_SPEED_FREQ_LOW;
 241              		.loc 1 126 0
 242 0128 CDE90A64 		strd	r6, r4, [sp, #40]
 243              		.loc 1 128 0
 244 012c FFF7FEFF 		bl	HAL_GPIO_Init
 245              	.LVL8:
 129:Src/gpio.c    **** 
 130:Src/gpio.c    ****     /*Configure GPIO pin : PtPin */
 131:Src/gpio.c    ****     GPIO_InitStruct.Pin = BUTTON2_Pin;
 246              		.loc 1 131 0
 247 0130 0223     		movs	r3, #2
 132:Src/gpio.c    ****     GPIO_InitStruct.Mode = GPIO_MODE_INPUT;
 133:Src/gpio.c    ****     GPIO_InitStruct.Pull = GPIO_NOPULL;
 134:Src/gpio.c    ****     HAL_GPIO_Init(BUTTON2_GPIO_Port, &GPIO_InitStruct);
 248              		.loc 1 134 0
 249 0132 09A9     		add	r1, sp, #36
 250 0134 2846     		mov	r0, r5
 131:Src/gpio.c    ****     GPIO_InitStruct.Mode = GPIO_MODE_INPUT;
 251              		.loc 1 131 0
 252 0136 0993     		str	r3, [sp, #36]
 133:Src/gpio.c    ****     HAL_GPIO_Init(BUTTON2_GPIO_Port, &GPIO_InitStruct);
 253              		.loc 1 133 0
 254 0138 CDE90A44 		strd	r4, r4, [sp, #40]
 255              		.loc 1 134 0
 256 013c FFF7FEFF 		bl	HAL_GPIO_Init
 257              	.LVL9:
 135:Src/gpio.c    **** 
 136:Src/gpio.c    **** }
 258              		.loc 1 136 0
 259 0140 0EB0     		add	sp, sp, #56
 260              	.LCFI2:
 261              		.cfi_def_cfa_offset 24
 262              		@ sp needed
 263 0142 BDE8F081 		pop	{r4, r5, r6, r7, r8, pc}
 264              	.L5:
 265 0146 00BF     		.align	2
 266              	.L4:
 267 0148 00380240 		.word	1073887232
 268 014c 00040240 		.word	1073873920
 269 0150 000C0240 		.word	1073875968
 270 0154 00000240 		.word	1073872896
 271 0158 00140240 		.word	1073878016
 272 015c 00180240 		.word	1073879040
 273              		.cfi_endproc
 274              	.LFE138:
 276              		.comm	UpdateFile,4,4
 277              		.comm	SpiRxData,4,4
 278              		.comm	SpiTxData,4,4
 279              		.text
 280              	.Letext0:
 281              		.file 2 "/usr/include/newlib/machine/_default_types.h"
 282              		.file 3 "/usr/include/newlib/sys/lock.h"
 283              		.file 4 "/usr/include/newlib/sys/_types.h"
 284              		.file 5 "/usr/lib/gcc/arm-none-eabi/7.3.1/include/stddef.h"
 285              		.file 6 "/usr/include/newlib/sys/reent.h"
ARM GAS  /tmp/ccCKZ4mO.s 			page 9


 286              		.file 7 "/usr/include/newlib/sys/_stdint.h"
 287              		.file 8 "Inc/main.h"
 288              		.file 9 "Drivers/CMSIS/Include/core_cm7.h"
 289              		.file 10 "Drivers/CMSIS/Device/ST/STM32F7xx/Include/system_stm32f7xx.h"
 290              		.file 11 "Drivers/CMSIS/Device/ST/STM32F7xx/Include/stm32f746xx.h"
 291              		.file 12 "Drivers/STM32F7xx_HAL_Driver/Inc/stm32f7xx_hal_gpio.h"
ARM GAS  /tmp/ccCKZ4mO.s 			page 10

