ARM GAS  /tmp/ccfMVUpg.s 			page 1


   1              		.cpu cortex-m7
   2              		.eabi_attribute 27, 1
   3              		.eabi_attribute 28, 1
   4              		.eabi_attribute 20, 1
   5              		.eabi_attribute 21, 1
   6              		.eabi_attribute 23, 3
   7              		.eabi_attribute 24, 1
   8              		.eabi_attribute 25, 1
   9              		.eabi_attribute 26, 1
  10              		.eabi_attribute 30, 2
  11              		.eabi_attribute 34, 1
  12              		.eabi_attribute 18, 4
  13              		.file	"gps.c"
  14              		.text
  15              	.Ltext0:
  16              		.cfi_sections	.debug_frame
  17              		.section	.text.getGPGLL,"ax",%progbits
  18              		.align	1
  19              		.p2align 2,,3
  20              		.global	getGPGLL
  21              		.syntax unified
  22              		.thumb
  23              		.thumb_func
  24              		.fpu fpv4-sp-d16
  26              	getGPGLL:
  27              	.LFB138:
  28              		.file 1 "Src/gps.c"
   1:Src/gps.c     **** 
   2:Src/gps.c     **** #include "gps.h"
   3:Src/gps.c     **** #include "usart.h"
   4:Src/gps.c     **** #include "gpio.h"
   5:Src/gps.c     **** #include "main.h"
   6:Src/gps.c     **** 
   7:Src/gps.c     **** char rx_data;
   8:Src/gps.c     **** 
   9:Src/gps.c     **** short int gprmc_status = GPS_BUSY;
  10:Src/gps.c     **** short int gprmc_enable = GPS_BUSY;
  11:Src/gps.c     **** 
  12:Src/gps.c     **** short int gpgga_status = GPS_BUSY;
  13:Src/gps.c     **** short int gpgga_enable = GPS_BUSY;
  14:Src/gps.c     **** 
  15:Src/gps.c     **** short int gpgsa_status = GPS_BUSY;
  16:Src/gps.c     **** short int gpgsa_enable = GPS_BUSY;
  17:Src/gps.c     **** 
  18:Src/gps.c     **** short int gpgll_status = GPS_BUSY;
  19:Src/gps.c     **** short int gpgll_enable = GPS_BUSY;
  20:Src/gps.c     **** 
  21:Src/gps.c     **** 
  22:Src/gps.c     **** void getGPGLL()
  23:Src/gps.c     **** {
  29              		.loc 1 23 0
  30              		.cfi_startproc
  31              		@ args = 0, pretend = 0, frame = 0
  32              		@ frame_needed = 0, uses_anonymous_args = 0
  33 0000 F8B5     		push	{r3, r4, r5, r6, r7, lr}
  34              	.LCFI0:
  35              		.cfi_def_cfa_offset 24
ARM GAS  /tmp/ccfMVUpg.s 			page 2


  36              		.cfi_offset 3, -24
  37              		.cfi_offset 4, -20
  38              		.cfi_offset 5, -16
  39              		.cfi_offset 6, -12
  40              		.cfi_offset 7, -8
  41              		.cfi_offset 14, -4
  24:Src/gps.c     **** 
  25:Src/gps.c     ****     static const unsigned char gpgll_header[6] = {'$', 'G', 'P', 'G', 'L', 'L'};
  26:Src/gps.c     ****     static unsigned char gpgll_buffer[100];
  27:Src/gps.c     ****     static int gpgll_index = 0;
  28:Src/gps.c     **** 
  29:Src/gps.c     ****     gpgll_status = GPS_BUSY;
  30:Src/gps.c     **** 
  31:Src/gps.c     ****     switch(gpgll_index)
  42              		.loc 1 31 0
  43 0002 374D     		ldr	r5, .L20
  29:Src/gps.c     **** 
  44              		.loc 1 29 0
  45 0004 0223     		movs	r3, #2
  46 0006 374E     		ldr	r6, .L20+4
  47              		.loc 1 31 0
  48 0008 2968     		ldr	r1, [r5]
  29:Src/gps.c     **** 
  49              		.loc 1 29 0
  50 000a 3380     		strh	r3, [r6]	@ movhi
  51              		.loc 1 31 0
  52 000c 0529     		cmp	r1, #5
  53 000e 36D8     		bhi	.L2
  54 0010 DFE801F0 		tbb	[pc, r1]
  55              	.L4:
  56 0014 08       		.byte	(.L3-.L4)/2
  57 0015 11       		.byte	(.L5-.L4)/2
  58 0016 1A       		.byte	(.L6-.L4)/2
  59 0017 23       		.byte	(.L7-.L4)/2
  60 0018 2C       		.byte	(.L8-.L4)/2
  61 0019 03       		.byte	(.L9-.L4)/2
  62              		.p2align 1
  63              	.L9:
  32:Src/gps.c     ****     {
  33:Src/gps.c     **** 
  34:Src/gps.c     ****     case 0:
  35:Src/gps.c     ****             if(rx_data == gpgll_header[0])
  36:Src/gps.c     ****             {
  37:Src/gps.c     ****                 gpgll_buffer[gpgll_index] = rx_data;
  38:Src/gps.c     ****                 gpgll_index++;
  39:Src/gps.c     ****             }
  40:Src/gps.c     **** 
  41:Src/gps.c     ****             break;
  42:Src/gps.c     **** 
  43:Src/gps.c     ****         case 1:
  44:Src/gps.c     ****             if(rx_data == gpgll_header[1])
  45:Src/gps.c     ****             {
  46:Src/gps.c     ****                 gpgll_buffer[gpgll_index] = rx_data;
  47:Src/gps.c     ****                 gpgll_index++;
  48:Src/gps.c     ****             }
  49:Src/gps.c     **** 
  50:Src/gps.c     ****             break;
ARM GAS  /tmp/ccfMVUpg.s 			page 3


  51:Src/gps.c     ****         case 2:
  52:Src/gps.c     ****             if(rx_data == gpgll_header[2])
  53:Src/gps.c     ****             {
  54:Src/gps.c     ****                 gpgll_buffer[gpgll_index] = rx_data;
  55:Src/gps.c     ****                 gpgll_index++;
  56:Src/gps.c     ****             }
  57:Src/gps.c     **** 
  58:Src/gps.c     ****             break;
  59:Src/gps.c     ****         case 3:
  60:Src/gps.c     ****             if(rx_data == gpgll_header[3])
  61:Src/gps.c     ****             {
  62:Src/gps.c     ****                 gpgll_buffer[gpgll_index] = rx_data;
  63:Src/gps.c     ****                 gpgll_index++;
  64:Src/gps.c     ****             }
  65:Src/gps.c     **** 
  66:Src/gps.c     ****             break;
  67:Src/gps.c     ****         case 4:
  68:Src/gps.c     ****             if(rx_data == gpgll_header[4])
  69:Src/gps.c     ****             {
  70:Src/gps.c     ****                 gpgll_buffer[gpgll_index] = rx_data;
  71:Src/gps.c     ****                 gpgll_index++;
  72:Src/gps.c     ****             }
  73:Src/gps.c     **** 
  74:Src/gps.c     ****             break;
  75:Src/gps.c     ****         case 5:
  76:Src/gps.c     ****             if(rx_data == gpgll_header[5])
  64              		.loc 1 76 0
  65 001a 334B     		ldr	r3, .L20+8
  66 001c 1B78     		ldrb	r3, [r3]	@ zero_extendqisi2
  67 001e 4C2B     		cmp	r3, #76
  68 0020 39D0     		beq	.L18
  69              	.L1:
  77:Src/gps.c     ****             {
  78:Src/gps.c     ****                 gpgll_buffer[gpgll_index] = rx_data;
  79:Src/gps.c     ****                 gpgll_index++;
  80:Src/gps.c     ****             }
  81:Src/gps.c     **** 
  82:Src/gps.c     ****             break;
  83:Src/gps.c     ****         default:
  84:Src/gps.c     **** 
  85:Src/gps.c     **** 
  86:Src/gps.c     ****             if(gpgll_index >= 6 && gpgll_index <= 70)
  87:Src/gps.c     ****             {
  88:Src/gps.c     ****                 if(rx_data == '\n')
  89:Src/gps.c     ****                 {
  90:Src/gps.c     **** 
  91:Src/gps.c     ****                     for(int i=0; i<100; i++)
  92:Src/gps.c     ****                      gpsData.gpgll_body[i] = 0;
  93:Src/gps.c     **** 
  94:Src/gps.c     ****                     for(int i=0; i<gpgll_index; i++)
  95:Src/gps.c     ****                      gpsData.gpgll_body[i] = gpgll_buffer[i];
  96:Src/gps.c     **** 
  97:Src/gps.c     ****                     for(int i=0; i<100; i++)
  98:Src/gps.c     ****                      gpgll_buffer[i] = 0;
  99:Src/gps.c     **** 
 100:Src/gps.c     ****                     gpgll_index = 0;
 101:Src/gps.c     ****                     gpgll_status = GPS_READY;
ARM GAS  /tmp/ccfMVUpg.s 			page 4


 102:Src/gps.c     ****                     gpgll_enable = GPS_READY;
 103:Src/gps.c     **** 
 104:Src/gps.c     ****                 }
 105:Src/gps.c     ****                 else
 106:Src/gps.c     ****                 {
 107:Src/gps.c     ****                     gpgll_buffer[gpgll_index] = rx_data;
 108:Src/gps.c     ****                     gpgll_index ++;
 109:Src/gps.c     ****                 }
 110:Src/gps.c     ****             }
 111:Src/gps.c     ****             break;
 112:Src/gps.c     ****     }
 113:Src/gps.c     **** }
  70              		.loc 1 113 0
  71 0022 F8BD     		pop	{r3, r4, r5, r6, r7, pc}
  72              	.L3:
  35:Src/gps.c     ****             {
  73              		.loc 1 35 0
  74 0024 304B     		ldr	r3, .L20+8
  75 0026 1B78     		ldrb	r3, [r3]	@ zero_extendqisi2
  76 0028 242B     		cmp	r3, #36
  77 002a FAD1     		bne	.L1
  37:Src/gps.c     ****                 gpgll_index++;
  78              		.loc 1 37 0
  79 002c 2F49     		ldr	r1, .L20+12
  38:Src/gps.c     ****             }
  80              		.loc 1 38 0
  81 002e 0122     		movs	r2, #1
  37:Src/gps.c     ****                 gpgll_index++;
  82              		.loc 1 37 0
  83 0030 0B70     		strb	r3, [r1]
  38:Src/gps.c     ****             }
  84              		.loc 1 38 0
  85 0032 2A60     		str	r2, [r5]
  86              		.loc 1 113 0
  87 0034 F8BD     		pop	{r3, r4, r5, r6, r7, pc}
  88              	.L5:
  44:Src/gps.c     ****             {
  89              		.loc 1 44 0
  90 0036 2C4B     		ldr	r3, .L20+8
  91 0038 1B78     		ldrb	r3, [r3]	@ zero_extendqisi2
  92 003a 472B     		cmp	r3, #71
  93 003c F1D1     		bne	.L1
  46:Src/gps.c     ****                 gpgll_index++;
  94              		.loc 1 46 0
  95 003e 2B49     		ldr	r1, .L20+12
  47:Src/gps.c     ****             }
  96              		.loc 1 47 0
  97 0040 0222     		movs	r2, #2
  46:Src/gps.c     ****                 gpgll_index++;
  98              		.loc 1 46 0
  99 0042 4B70     		strb	r3, [r1, #1]
  47:Src/gps.c     ****             }
 100              		.loc 1 47 0
 101 0044 2A60     		str	r2, [r5]
 102              		.loc 1 113 0
 103 0046 F8BD     		pop	{r3, r4, r5, r6, r7, pc}
 104              	.L6:
ARM GAS  /tmp/ccfMVUpg.s 			page 5


  52:Src/gps.c     ****             {
 105              		.loc 1 52 0
 106 0048 274B     		ldr	r3, .L20+8
 107 004a 1B78     		ldrb	r3, [r3]	@ zero_extendqisi2
 108 004c 502B     		cmp	r3, #80
 109 004e E8D1     		bne	.L1
  54:Src/gps.c     ****                 gpgll_index++;
 110              		.loc 1 54 0
 111 0050 2649     		ldr	r1, .L20+12
  55:Src/gps.c     ****             }
 112              		.loc 1 55 0
 113 0052 0322     		movs	r2, #3
  54:Src/gps.c     ****                 gpgll_index++;
 114              		.loc 1 54 0
 115 0054 8B70     		strb	r3, [r1, #2]
  55:Src/gps.c     ****             }
 116              		.loc 1 55 0
 117 0056 2A60     		str	r2, [r5]
 118              		.loc 1 113 0
 119 0058 F8BD     		pop	{r3, r4, r5, r6, r7, pc}
 120              	.L7:
  60:Src/gps.c     ****             {
 121              		.loc 1 60 0
 122 005a 234B     		ldr	r3, .L20+8
 123 005c 1B78     		ldrb	r3, [r3]	@ zero_extendqisi2
 124 005e 472B     		cmp	r3, #71
 125 0060 DFD1     		bne	.L1
  62:Src/gps.c     ****                 gpgll_index++;
 126              		.loc 1 62 0
 127 0062 2249     		ldr	r1, .L20+12
  63:Src/gps.c     ****             }
 128              		.loc 1 63 0
 129 0064 0422     		movs	r2, #4
  62:Src/gps.c     ****                 gpgll_index++;
 130              		.loc 1 62 0
 131 0066 CB70     		strb	r3, [r1, #3]
  63:Src/gps.c     ****             }
 132              		.loc 1 63 0
 133 0068 2A60     		str	r2, [r5]
 134              		.loc 1 113 0
 135 006a F8BD     		pop	{r3, r4, r5, r6, r7, pc}
 136              	.L8:
  68:Src/gps.c     ****             {
 137              		.loc 1 68 0
 138 006c 1E4B     		ldr	r3, .L20+8
 139 006e 1B78     		ldrb	r3, [r3]	@ zero_extendqisi2
 140 0070 4C2B     		cmp	r3, #76
 141 0072 D6D1     		bne	.L1
  70:Src/gps.c     ****                 gpgll_index++;
 142              		.loc 1 70 0
 143 0074 1D49     		ldr	r1, .L20+12
  71:Src/gps.c     ****             }
 144              		.loc 1 71 0
 145 0076 0522     		movs	r2, #5
  70:Src/gps.c     ****                 gpgll_index++;
 146              		.loc 1 70 0
 147 0078 0B71     		strb	r3, [r1, #4]
ARM GAS  /tmp/ccfMVUpg.s 			page 6


  71:Src/gps.c     ****             }
 148              		.loc 1 71 0
 149 007a 2A60     		str	r2, [r5]
 150              		.loc 1 113 0
 151 007c F8BD     		pop	{r3, r4, r5, r6, r7, pc}
 152              	.L2:
  86:Src/gps.c     ****             {
 153              		.loc 1 86 0
 154 007e 8B1F     		subs	r3, r1, #6
 155 0080 402B     		cmp	r3, #64
 156 0082 CED8     		bhi	.L1
  88:Src/gps.c     ****                 {
 157              		.loc 1 88 0
 158 0084 184B     		ldr	r3, .L20+8
 159 0086 1B78     		ldrb	r3, [r3]	@ zero_extendqisi2
 160 0088 0A2B     		cmp	r3, #10
 161 008a 09D0     		beq	.L19
 107:Src/gps.c     ****                     gpgll_index ++;
 162              		.loc 1 107 0
 163 008c 1748     		ldr	r0, .L20+12
 108:Src/gps.c     ****                 }
 164              		.loc 1 108 0
 165 008e 4A1C     		adds	r2, r1, #1
 107:Src/gps.c     ****                     gpgll_index ++;
 166              		.loc 1 107 0
 167 0090 4354     		strb	r3, [r0, r1]
 108:Src/gps.c     ****                 }
 168              		.loc 1 108 0
 169 0092 2A60     		str	r2, [r5]
 170              		.loc 1 113 0
 171 0094 F8BD     		pop	{r3, r4, r5, r6, r7, pc}
 172              	.L18:
  78:Src/gps.c     ****                 gpgll_index++;
 173              		.loc 1 78 0
 174 0096 1549     		ldr	r1, .L20+12
  79:Src/gps.c     ****             }
 175              		.loc 1 79 0
 176 0098 0622     		movs	r2, #6
  78:Src/gps.c     ****                 gpgll_index++;
 177              		.loc 1 78 0
 178 009a 4B71     		strb	r3, [r1, #5]
  79:Src/gps.c     ****             }
 179              		.loc 1 79 0
 180 009c 2A60     		str	r2, [r5]
 181              		.loc 1 113 0
 182 009e F8BD     		pop	{r3, r4, r5, r6, r7, pc}
 183              	.L19:
 184              	.LBB5:
  91:Src/gps.c     ****                      gpsData.gpgll_body[i] = 0;
 185              		.loc 1 91 0
 186 00a0 0023     		movs	r3, #0
 187 00a2 1348     		ldr	r0, .L20+16
  92:Src/gps.c     **** 
 188              		.loc 1 92 0
 189 00a4 1C46     		mov	r4, r3
 190              	.L12:
 191              	.LVL0:
ARM GAS  /tmp/ccfMVUpg.s 			page 7


  92:Src/gps.c     **** 
 192              		.loc 1 92 0 is_stmt 0 discriminator 3
 193 00a6 C218     		adds	r2, r0, r3
  91:Src/gps.c     ****                      gpsData.gpgll_body[i] = 0;
 194              		.loc 1 91 0 is_stmt 1 discriminator 3
 195 00a8 0133     		adds	r3, r3, #1
 196              	.LVL1:
 197 00aa 642B     		cmp	r3, #100
  92:Src/gps.c     **** 
 198              		.loc 1 92 0 discriminator 3
 199 00ac 82F86840 		strb	r4, [r2, #104]
  91:Src/gps.c     ****                      gpsData.gpgll_body[i] = 0;
 200              		.loc 1 91 0 discriminator 3
 201 00b0 F9D1     		bne	.L12
 202 00b2 0E4A     		ldr	r2, .L20+12
 203              	.LBE5:
 204              	.LBB6:
  94:Src/gps.c     ****                      gpsData.gpgll_body[i] = gpgll_buffer[i];
 205              		.loc 1 94 0
 206 00b4 0023     		movs	r3, #0
 207              	.LVL2:
 208              	.L13:
  95:Src/gps.c     **** 
 209              		.loc 1 95 0 discriminator 3
 210 00b6 C418     		adds	r4, r0, r3
  94:Src/gps.c     ****                      gpsData.gpgll_body[i] = gpgll_buffer[i];
 211              		.loc 1 94 0 discriminator 3
 212 00b8 0133     		adds	r3, r3, #1
 213              	.LVL3:
  95:Src/gps.c     **** 
 214              		.loc 1 95 0 discriminator 3
 215 00ba 12F8017B 		ldrb	r7, [r2], #1	@ zero_extendqisi2
  94:Src/gps.c     ****                      gpsData.gpgll_body[i] = gpgll_buffer[i];
 216              		.loc 1 94 0 discriminator 3
 217 00be 9942     		cmp	r1, r3
  95:Src/gps.c     **** 
 218              		.loc 1 95 0 discriminator 3
 219 00c0 84F86870 		strb	r7, [r4, #104]
  94:Src/gps.c     ****                      gpsData.gpgll_body[i] = gpgll_buffer[i];
 220              		.loc 1 94 0 discriminator 3
 221 00c4 F7D1     		bne	.L13
 222 00c6 6422     		movs	r2, #100
 223 00c8 0021     		movs	r1, #0
 224 00ca 0848     		ldr	r0, .L20+12
 225 00cc FFF7FEFF 		bl	memset
 226              	.LVL4:
 227              	.LBE6:
 101:Src/gps.c     ****                     gpgll_enable = GPS_READY;
 228              		.loc 1 101 0
 229 00d0 0123     		movs	r3, #1
 100:Src/gps.c     ****                     gpgll_status = GPS_READY;
 230              		.loc 1 100 0
 231 00d2 0021     		movs	r1, #0
 102:Src/gps.c     **** 
 232              		.loc 1 102 0
 233 00d4 074A     		ldr	r2, .L20+20
 101:Src/gps.c     ****                     gpgll_enable = GPS_READY;
ARM GAS  /tmp/ccfMVUpg.s 			page 8


 234              		.loc 1 101 0
 235 00d6 3380     		strh	r3, [r6]	@ movhi
 100:Src/gps.c     ****                     gpgll_status = GPS_READY;
 236              		.loc 1 100 0
 237 00d8 2960     		str	r1, [r5]
 102:Src/gps.c     **** 
 238              		.loc 1 102 0
 239 00da 1380     		strh	r3, [r2]	@ movhi
 240              		.loc 1 113 0
 241 00dc F8BD     		pop	{r3, r4, r5, r6, r7, pc}
 242              	.L21:
 243 00de 00BF     		.align	2
 244              	.L20:
 245 00e0 00000000 		.word	.LANCHOR1
 246 00e4 00000000 		.word	.LANCHOR0
 247 00e8 00000000 		.word	rx_data
 248 00ec 00000000 		.word	.LANCHOR2
 249 00f0 00000000 		.word	gpsData
 250 00f4 00000000 		.word	.LANCHOR3
 251              		.cfi_endproc
 252              	.LFE138:
 254              		.section	.text.getGPGSA,"ax",%progbits
 255              		.align	1
 256              		.p2align 2,,3
 257              		.global	getGPGSA
 258              		.syntax unified
 259              		.thumb
 260              		.thumb_func
 261              		.fpu fpv4-sp-d16
 263              	getGPGSA:
 264              	.LFB139:
 114:Src/gps.c     **** 
 115:Src/gps.c     **** 
 116:Src/gps.c     **** void getGPGSA()
 117:Src/gps.c     **** {
 265              		.loc 1 117 0
 266              		.cfi_startproc
 267              		@ args = 0, pretend = 0, frame = 0
 268              		@ frame_needed = 0, uses_anonymous_args = 0
 269              		@ link register save eliminated.
 270 0000 F0B4     		push	{r4, r5, r6, r7}
 271              	.LCFI1:
 272              		.cfi_def_cfa_offset 16
 273              		.cfi_offset 4, -16
 274              		.cfi_offset 5, -12
 275              		.cfi_offset 6, -8
 276              		.cfi_offset 7, -4
 118:Src/gps.c     ****     static const unsigned char gpgsa_header[6] = {'$', 'G', 'P', 'G', 'S', 'A'};
 119:Src/gps.c     ****     static volatile unsigned char gpgsa_buffer[100];
 120:Src/gps.c     ****     static int gpgsa_index = 0;
 121:Src/gps.c     **** 
 122:Src/gps.c     ****     gpgsa_status = GPS_BUSY;
 123:Src/gps.c     **** 
 124:Src/gps.c     ****     switch(gpgsa_index)
 277              		.loc 1 124 0
 278 0002 384D     		ldr	r5, .L41
 122:Src/gps.c     **** 
ARM GAS  /tmp/ccfMVUpg.s 			page 9


 279              		.loc 1 122 0
 280 0004 0223     		movs	r3, #2
 281 0006 384E     		ldr	r6, .L41+4
 282              		.loc 1 124 0
 283 0008 2968     		ldr	r1, [r5]
 122:Src/gps.c     **** 
 284              		.loc 1 122 0
 285 000a 3380     		strh	r3, [r6]	@ movhi
 286              		.loc 1 124 0
 287 000c 0529     		cmp	r1, #5
 288 000e 3BD8     		bhi	.L23
 289 0010 DFE801F0 		tbb	[pc, r1]
 290              	.L25:
 291 0014 0D       		.byte	(.L24-.L25)/2
 292 0015 16       		.byte	(.L26-.L25)/2
 293 0016 1F       		.byte	(.L27-.L25)/2
 294 0017 28       		.byte	(.L28-.L25)/2
 295 0018 31       		.byte	(.L29-.L25)/2
 296 0019 03       		.byte	(.L30-.L25)/2
 297              		.p2align 1
 298              	.L30:
 125:Src/gps.c     ****     {
 126:Src/gps.c     **** 
 127:Src/gps.c     ****         case 0:
 128:Src/gps.c     **** 
 129:Src/gps.c     ****             if(rx_data == gpgsa_header[0])
 130:Src/gps.c     ****             {
 131:Src/gps.c     ****                 gpgsa_buffer[gpgsa_index] = rx_data;
 132:Src/gps.c     ****                 gpgsa_index++;
 133:Src/gps.c     ****             }
 134:Src/gps.c     **** 
 135:Src/gps.c     ****             break;
 136:Src/gps.c     **** 
 137:Src/gps.c     ****         case 1:
 138:Src/gps.c     **** 
 139:Src/gps.c     ****             if(rx_data == gpgsa_header[1])
 140:Src/gps.c     ****             {
 141:Src/gps.c     ****                 gpgsa_buffer[gpgsa_index] = rx_data;
 142:Src/gps.c     ****                 gpgsa_index++;
 143:Src/gps.c     ****             }
 144:Src/gps.c     **** 
 145:Src/gps.c     ****             break;
 146:Src/gps.c     ****         case 2:
 147:Src/gps.c     **** 
 148:Src/gps.c     ****             if(rx_data == gpgsa_header[2])
 149:Src/gps.c     ****             {
 150:Src/gps.c     ****                 gpgsa_buffer[gpgsa_index] = rx_data;
 151:Src/gps.c     ****                 gpgsa_index++;
 152:Src/gps.c     ****             }
 153:Src/gps.c     **** 
 154:Src/gps.c     ****             break;
 155:Src/gps.c     ****         case 3:
 156:Src/gps.c     **** 
 157:Src/gps.c     ****             if(rx_data == gpgsa_header[3])
 158:Src/gps.c     ****             {
 159:Src/gps.c     ****                 gpgsa_buffer[gpgsa_index] = rx_data;
 160:Src/gps.c     ****                 gpgsa_index++;
ARM GAS  /tmp/ccfMVUpg.s 			page 10


 161:Src/gps.c     ****             }
 162:Src/gps.c     **** 
 163:Src/gps.c     ****             break;
 164:Src/gps.c     ****         case 4:
 165:Src/gps.c     **** 
 166:Src/gps.c     ****             if(rx_data == gpgsa_header[4])
 167:Src/gps.c     ****             {
 168:Src/gps.c     ****                 gpgsa_buffer[gpgsa_index] = rx_data;
 169:Src/gps.c     ****                 gpgsa_index++;
 170:Src/gps.c     ****             }
 171:Src/gps.c     **** 
 172:Src/gps.c     ****             break;
 173:Src/gps.c     ****         case 5:
 174:Src/gps.c     **** 
 175:Src/gps.c     ****             if(rx_data == gpgsa_header[5])
 299              		.loc 1 175 0
 300 001a 344B     		ldr	r3, .L41+8
 301 001c 1B78     		ldrb	r3, [r3]	@ zero_extendqisi2
 302 001e 412B     		cmp	r3, #65
 303 0020 03D1     		bne	.L22
 176:Src/gps.c     ****             {
 177:Src/gps.c     ****                 gpgsa_buffer[gpgsa_index] = rx_data;
 304              		.loc 1 177 0
 305 0022 3349     		ldr	r1, .L41+12
 178:Src/gps.c     ****                 gpgsa_index++;
 306              		.loc 1 178 0
 307 0024 0622     		movs	r2, #6
 177:Src/gps.c     ****                 gpgsa_index++;
 308              		.loc 1 177 0
 309 0026 4B71     		strb	r3, [r1, #5]
 310              		.loc 1 178 0
 311 0028 2A60     		str	r2, [r5]
 312              	.L22:
 179:Src/gps.c     ****             }
 180:Src/gps.c     **** 
 181:Src/gps.c     ****             break;
 182:Src/gps.c     ****         default:
 183:Src/gps.c     **** 
 184:Src/gps.c     ****             if(gpgsa_index >= 6 && gpgsa_index <= 70)
 185:Src/gps.c     ****             {
 186:Src/gps.c     ****                 if(rx_data == '\n')
 187:Src/gps.c     ****                 {
 188:Src/gps.c     **** 
 189:Src/gps.c     ****                     for(int i=0; i<100; i++)
 190:Src/gps.c     ****                      gpsData.gpgsa_body[i] = 0;
 191:Src/gps.c     **** 
 192:Src/gps.c     ****                     for(int i=0; i<gpgsa_index; i++)
 193:Src/gps.c     ****                      gpsData.gpgsa_body[i] = gpgsa_buffer[i];
 194:Src/gps.c     **** 
 195:Src/gps.c     ****                     for(int i=0; i<100; i++)
 196:Src/gps.c     ****                      gpgsa_buffer[i] = 0;
 197:Src/gps.c     **** 
 198:Src/gps.c     ****                     gpsData.gpgsa_size = gpgsa_index;
 199:Src/gps.c     **** 
 200:Src/gps.c     ****                     gpgsa_index = 0;
 201:Src/gps.c     ****                     gpgsa_status = GPS_READY;
 202:Src/gps.c     ****                     gpgsa_enable = GPS_READY;
ARM GAS  /tmp/ccfMVUpg.s 			page 11


 203:Src/gps.c     **** 
 204:Src/gps.c     ****                 }else
 205:Src/gps.c     ****                 {
 206:Src/gps.c     ****                     gpgsa_buffer[gpgsa_index] = rx_data;
 207:Src/gps.c     ****                     gpgsa_index ++;
 208:Src/gps.c     ****                 }
 209:Src/gps.c     ****             }
 210:Src/gps.c     **** 
 211:Src/gps.c     ****             break;
 212:Src/gps.c     ****     }
 213:Src/gps.c     **** 
 214:Src/gps.c     **** }
 313              		.loc 1 214 0
 314 002a F0BC     		pop	{r4, r5, r6, r7}
 315              	.LCFI2:
 316              		.cfi_remember_state
 317              		.cfi_restore 7
 318              		.cfi_restore 6
 319              		.cfi_restore 5
 320              		.cfi_restore 4
 321              		.cfi_def_cfa_offset 0
 322 002c 7047     		bx	lr
 323              	.L24:
 324              	.LCFI3:
 325              		.cfi_restore_state
 129:Src/gps.c     ****             {
 326              		.loc 1 129 0
 327 002e 2F4B     		ldr	r3, .L41+8
 328 0030 1B78     		ldrb	r3, [r3]	@ zero_extendqisi2
 329 0032 242B     		cmp	r3, #36
 330 0034 F9D1     		bne	.L22
 131:Src/gps.c     ****                 gpgsa_index++;
 331              		.loc 1 131 0
 332 0036 2E49     		ldr	r1, .L41+12
 132:Src/gps.c     ****             }
 333              		.loc 1 132 0
 334 0038 0122     		movs	r2, #1
 131:Src/gps.c     ****                 gpgsa_index++;
 335              		.loc 1 131 0
 336 003a 0B70     		strb	r3, [r1]
 132:Src/gps.c     ****             }
 337              		.loc 1 132 0
 338 003c 2A60     		str	r2, [r5]
 339 003e F4E7     		b	.L22
 340              	.L26:
 139:Src/gps.c     ****             {
 341              		.loc 1 139 0
 342 0040 2A4B     		ldr	r3, .L41+8
 343 0042 1B78     		ldrb	r3, [r3]	@ zero_extendqisi2
 344 0044 472B     		cmp	r3, #71
 345 0046 F0D1     		bne	.L22
 141:Src/gps.c     ****                 gpgsa_index++;
 346              		.loc 1 141 0
 347 0048 2949     		ldr	r1, .L41+12
 142:Src/gps.c     ****             }
 348              		.loc 1 142 0
 349 004a 0222     		movs	r2, #2
ARM GAS  /tmp/ccfMVUpg.s 			page 12


 141:Src/gps.c     ****                 gpgsa_index++;
 350              		.loc 1 141 0
 351 004c 4B70     		strb	r3, [r1, #1]
 142:Src/gps.c     ****             }
 352              		.loc 1 142 0
 353 004e 2A60     		str	r2, [r5]
 354 0050 EBE7     		b	.L22
 355              	.L27:
 148:Src/gps.c     ****             {
 356              		.loc 1 148 0
 357 0052 264B     		ldr	r3, .L41+8
 358 0054 1B78     		ldrb	r3, [r3]	@ zero_extendqisi2
 359 0056 502B     		cmp	r3, #80
 360 0058 E7D1     		bne	.L22
 150:Src/gps.c     ****                 gpgsa_index++;
 361              		.loc 1 150 0
 362 005a 2549     		ldr	r1, .L41+12
 151:Src/gps.c     ****             }
 363              		.loc 1 151 0
 364 005c 0322     		movs	r2, #3
 150:Src/gps.c     ****                 gpgsa_index++;
 365              		.loc 1 150 0
 366 005e 8B70     		strb	r3, [r1, #2]
 151:Src/gps.c     ****             }
 367              		.loc 1 151 0
 368 0060 2A60     		str	r2, [r5]
 369 0062 E2E7     		b	.L22
 370              	.L28:
 157:Src/gps.c     ****             {
 371              		.loc 1 157 0
 372 0064 214B     		ldr	r3, .L41+8
 373 0066 1B78     		ldrb	r3, [r3]	@ zero_extendqisi2
 374 0068 472B     		cmp	r3, #71
 375 006a DED1     		bne	.L22
 159:Src/gps.c     ****                 gpgsa_index++;
 376              		.loc 1 159 0
 377 006c 2049     		ldr	r1, .L41+12
 160:Src/gps.c     ****             }
 378              		.loc 1 160 0
 379 006e 0422     		movs	r2, #4
 159:Src/gps.c     ****                 gpgsa_index++;
 380              		.loc 1 159 0
 381 0070 CB70     		strb	r3, [r1, #3]
 160:Src/gps.c     ****             }
 382              		.loc 1 160 0
 383 0072 2A60     		str	r2, [r5]
 384 0074 D9E7     		b	.L22
 385              	.L29:
 166:Src/gps.c     ****             {
 386              		.loc 1 166 0
 387 0076 1D4B     		ldr	r3, .L41+8
 388 0078 1B78     		ldrb	r3, [r3]	@ zero_extendqisi2
 389 007a 532B     		cmp	r3, #83
 390 007c D5D1     		bne	.L22
 168:Src/gps.c     ****                 gpgsa_index++;
 391              		.loc 1 168 0
 392 007e 1C49     		ldr	r1, .L41+12
ARM GAS  /tmp/ccfMVUpg.s 			page 13


 169:Src/gps.c     ****             }
 393              		.loc 1 169 0
 394 0080 0522     		movs	r2, #5
 168:Src/gps.c     ****                 gpgsa_index++;
 395              		.loc 1 168 0
 396 0082 0B71     		strb	r3, [r1, #4]
 169:Src/gps.c     ****             }
 397              		.loc 1 169 0
 398 0084 2A60     		str	r2, [r5]
 399 0086 D0E7     		b	.L22
 400              	.L23:
 184:Src/gps.c     ****             {
 401              		.loc 1 184 0
 402 0088 8B1F     		subs	r3, r1, #6
 403 008a 402B     		cmp	r3, #64
 404 008c CDD8     		bhi	.L22
 186:Src/gps.c     ****                 {
 405              		.loc 1 186 0
 406 008e 174B     		ldr	r3, .L41+8
 407 0090 1B78     		ldrb	r3, [r3]	@ zero_extendqisi2
 408 0092 0A2B     		cmp	r3, #10
 409 0094 04D0     		beq	.L40
 206:Src/gps.c     ****                     gpgsa_index ++;
 410              		.loc 1 206 0
 411 0096 1648     		ldr	r0, .L41+12
 207:Src/gps.c     ****                 }
 412              		.loc 1 207 0
 413 0098 4A1C     		adds	r2, r1, #1
 206:Src/gps.c     ****                     gpgsa_index ++;
 414              		.loc 1 206 0
 415 009a 4354     		strb	r3, [r0, r1]
 207:Src/gps.c     ****                 }
 416              		.loc 1 207 0
 417 009c 2A60     		str	r2, [r5]
 418              		.loc 1 214 0
 419 009e C4E7     		b	.L22
 420              	.L40:
 421              	.LBB7:
 189:Src/gps.c     ****                      gpsData.gpgsa_body[i] = 0;
 422              		.loc 1 189 0
 423 00a0 0023     		movs	r3, #0
 424 00a2 1448     		ldr	r0, .L41+16
 190:Src/gps.c     **** 
 425              		.loc 1 190 0
 426 00a4 1C46     		mov	r4, r3
 427              	.L33:
 428              	.LVL5:
 190:Src/gps.c     **** 
 429              		.loc 1 190 0 is_stmt 0 discriminator 3
 430 00a6 C218     		adds	r2, r0, r3
 189:Src/gps.c     ****                      gpsData.gpgsa_body[i] = 0;
 431              		.loc 1 189 0 is_stmt 1 discriminator 3
 432 00a8 0133     		adds	r3, r3, #1
 433              	.LVL6:
 434 00aa 642B     		cmp	r3, #100
 190:Src/gps.c     **** 
 435              		.loc 1 190 0 discriminator 3
ARM GAS  /tmp/ccfMVUpg.s 			page 14


 436 00ac 82F8D040 		strb	r4, [r2, #208]
 189:Src/gps.c     ****                      gpsData.gpgsa_body[i] = 0;
 437              		.loc 1 189 0 discriminator 3
 438 00b0 F9D1     		bne	.L33
 439              	.LBE7:
 440              	.LBB8:
 192:Src/gps.c     ****                      gpsData.gpgsa_body[i] = gpgsa_buffer[i];
 441              		.loc 1 192 0
 442 00b2 0024     		movs	r4, #0
 443 00b4 0E4A     		ldr	r2, .L41+12
 444              	.LVL7:
 445              	.L34:
 193:Src/gps.c     **** 
 446              		.loc 1 193 0 discriminator 3
 447 00b6 135D     		ldrb	r3, [r2, r4]	@ zero_extendqisi2
 448 00b8 0719     		adds	r7, r0, r4
 192:Src/gps.c     ****                      gpsData.gpgsa_body[i] = gpgsa_buffer[i];
 449              		.loc 1 192 0 discriminator 3
 450 00ba 0134     		adds	r4, r4, #1
 451              	.LVL8:
 193:Src/gps.c     **** 
 452              		.loc 1 193 0 discriminator 3
 453 00bc DBB2     		uxtb	r3, r3
 192:Src/gps.c     ****                      gpsData.gpgsa_body[i] = gpgsa_buffer[i];
 454              		.loc 1 192 0 discriminator 3
 455 00be A142     		cmp	r1, r4
 193:Src/gps.c     **** 
 456              		.loc 1 193 0 discriminator 3
 457 00c0 87F8D030 		strb	r3, [r7, #208]
 192:Src/gps.c     ****                      gpsData.gpgsa_body[i] = gpgsa_buffer[i];
 458              		.loc 1 192 0 discriminator 3
 459 00c4 F7D1     		bne	.L34
 460              	.LBE8:
 461              	.LBB9:
 195:Src/gps.c     ****                      gpgsa_buffer[i] = 0;
 462              		.loc 1 195 0
 463 00c6 0023     		movs	r3, #0
 196:Src/gps.c     **** 
 464              		.loc 1 196 0
 465 00c8 1946     		mov	r1, r3
 466              	.L35:
 467              	.LVL9:
 196:Src/gps.c     **** 
 468              		.loc 1 196 0 is_stmt 0 discriminator 3
 469 00ca D154     		strb	r1, [r2, r3]
 195:Src/gps.c     ****                      gpgsa_buffer[i] = 0;
 470              		.loc 1 195 0 is_stmt 1 discriminator 3
 471 00cc 0133     		adds	r3, r3, #1
 472              	.LVL10:
 473 00ce 642B     		cmp	r3, #100
 474 00d0 FBD1     		bne	.L35
 475              	.LBE9:
 201:Src/gps.c     ****                     gpgsa_enable = GPS_READY;
 476              		.loc 1 201 0
 477 00d2 0123     		movs	r3, #1
 478              	.LVL11:
 202:Src/gps.c     **** 
ARM GAS  /tmp/ccfMVUpg.s 			page 15


 479              		.loc 1 202 0
 480 00d4 084A     		ldr	r2, .L41+20
 198:Src/gps.c     **** 
 481              		.loc 1 198 0
 482 00d6 C0F83441 		str	r4, [r0, #308]
 200:Src/gps.c     ****                     gpgsa_status = GPS_READY;
 483              		.loc 1 200 0
 484 00da 2960     		str	r1, [r5]
 201:Src/gps.c     ****                     gpgsa_enable = GPS_READY;
 485              		.loc 1 201 0
 486 00dc 3380     		strh	r3, [r6]	@ movhi
 202:Src/gps.c     **** 
 487              		.loc 1 202 0
 488 00de 1380     		strh	r3, [r2]	@ movhi
 489 00e0 A3E7     		b	.L22
 490              	.L42:
 491 00e2 00BF     		.align	2
 492              	.L41:
 493 00e4 00000000 		.word	.LANCHOR5
 494 00e8 00000000 		.word	.LANCHOR4
 495 00ec 00000000 		.word	rx_data
 496 00f0 00000000 		.word	.LANCHOR6
 497 00f4 00000000 		.word	gpsData
 498 00f8 00000000 		.word	.LANCHOR7
 499              		.cfi_endproc
 500              	.LFE139:
 502              		.section	.text.getGPGGA,"ax",%progbits
 503              		.align	1
 504              		.p2align 2,,3
 505              		.global	getGPGGA
 506              		.syntax unified
 507              		.thumb
 508              		.thumb_func
 509              		.fpu fpv4-sp-d16
 511              	getGPGGA:
 512              	.LFB140:
 215:Src/gps.c     **** 
 216:Src/gps.c     **** 
 217:Src/gps.c     **** 
 218:Src/gps.c     **** void getGPGGA()
 219:Src/gps.c     **** {
 513              		.loc 1 219 0
 514              		.cfi_startproc
 515              		@ args = 0, pretend = 0, frame = 0
 516              		@ frame_needed = 0, uses_anonymous_args = 0
 517              		@ link register save eliminated.
 518 0000 70B4     		push	{r4, r5, r6}
 519              	.LCFI4:
 520              		.cfi_def_cfa_offset 12
 521              		.cfi_offset 4, -12
 522              		.cfi_offset 5, -8
 523              		.cfi_offset 6, -4
 220:Src/gps.c     ****     static const unsigned char gpgga_header[6] = {'$', 'G', 'P', 'G', 'G', 'A'};
 221:Src/gps.c     ****     static volatile unsigned char gpgga_buffer[100];
 222:Src/gps.c     ****     static int gpgga_index = 0;
 223:Src/gps.c     **** 
 224:Src/gps.c     ****     gpgga_status = GPS_BUSY;
ARM GAS  /tmp/ccfMVUpg.s 			page 16


 225:Src/gps.c     **** 
 226:Src/gps.c     ****     switch(gpgga_index)
 524              		.loc 1 226 0
 525 0002 354C     		ldr	r4, .L62
 224:Src/gps.c     **** 
 526              		.loc 1 224 0
 527 0004 0223     		movs	r3, #2
 528 0006 354D     		ldr	r5, .L62+4
 529              		.loc 1 226 0
 530 0008 2268     		ldr	r2, [r4]
 224:Src/gps.c     **** 
 531              		.loc 1 224 0
 532 000a 2B80     		strh	r3, [r5]	@ movhi
 533              		.loc 1 226 0
 534 000c 052A     		cmp	r2, #5
 535 000e 3BD8     		bhi	.L44
 536 0010 DFE802F0 		tbb	[pc, r2]
 537              	.L46:
 538 0014 0D       		.byte	(.L45-.L46)/2
 539 0015 16       		.byte	(.L47-.L46)/2
 540 0016 1F       		.byte	(.L48-.L46)/2
 541 0017 28       		.byte	(.L49-.L46)/2
 542 0018 31       		.byte	(.L50-.L46)/2
 543 0019 03       		.byte	(.L51-.L46)/2
 544              		.p2align 1
 545              	.L51:
 227:Src/gps.c     ****     {
 228:Src/gps.c     **** 
 229:Src/gps.c     ****         case 0:
 230:Src/gps.c     **** 
 231:Src/gps.c     ****             if(rx_data == gpgga_header[0])
 232:Src/gps.c     ****             {
 233:Src/gps.c     ****                 gpgga_buffer[gpgga_index] = rx_data;
 234:Src/gps.c     ****                 gpgga_index++;
 235:Src/gps.c     ****             }
 236:Src/gps.c     **** 
 237:Src/gps.c     ****             break;
 238:Src/gps.c     **** 
 239:Src/gps.c     ****         case 1:
 240:Src/gps.c     **** 
 241:Src/gps.c     ****             if(rx_data == gpgga_header[1])
 242:Src/gps.c     ****             {
 243:Src/gps.c     ****                 gpgga_buffer[gpgga_index] = rx_data;
 244:Src/gps.c     ****                 gpgga_index++;
 245:Src/gps.c     ****             }
 246:Src/gps.c     **** 
 247:Src/gps.c     ****             break;
 248:Src/gps.c     ****         case 2:
 249:Src/gps.c     **** 
 250:Src/gps.c     ****             if(rx_data == gpgga_header[2])
 251:Src/gps.c     ****             {
 252:Src/gps.c     ****                 gpgga_buffer[gpgga_index] = rx_data;
 253:Src/gps.c     ****                 gpgga_index++;
 254:Src/gps.c     ****             }
 255:Src/gps.c     **** 
 256:Src/gps.c     ****             break;
 257:Src/gps.c     ****         case 3:
ARM GAS  /tmp/ccfMVUpg.s 			page 17


 258:Src/gps.c     **** 
 259:Src/gps.c     ****             if(rx_data == gpgga_header[3])
 260:Src/gps.c     ****             {
 261:Src/gps.c     ****                 gpgga_buffer[gpgga_index] = rx_data;
 262:Src/gps.c     ****                 gpgga_index++;
 263:Src/gps.c     ****             }
 264:Src/gps.c     **** 
 265:Src/gps.c     ****             break;
 266:Src/gps.c     ****         case 4:
 267:Src/gps.c     **** 
 268:Src/gps.c     ****             if(rx_data == gpgga_header[4])
 269:Src/gps.c     ****             {
 270:Src/gps.c     ****                 gpgga_buffer[gpgga_index] = rx_data;
 271:Src/gps.c     ****                 gpgga_index++;
 272:Src/gps.c     ****             }
 273:Src/gps.c     **** 
 274:Src/gps.c     ****             break;
 275:Src/gps.c     ****         case 5:
 276:Src/gps.c     **** 
 277:Src/gps.c     ****             if(rx_data == gpgga_header[5])
 546              		.loc 1 277 0
 547 001a 314B     		ldr	r3, .L62+8
 548 001c 1B78     		ldrb	r3, [r3]	@ zero_extendqisi2
 549 001e 412B     		cmp	r3, #65
 550 0020 03D1     		bne	.L43
 278:Src/gps.c     ****             {
 279:Src/gps.c     ****                 gpgga_buffer[gpgga_index] = rx_data;
 551              		.loc 1 279 0
 552 0022 3049     		ldr	r1, .L62+12
 280:Src/gps.c     ****                 gpgga_index++;
 553              		.loc 1 280 0
 554 0024 0622     		movs	r2, #6
 279:Src/gps.c     ****                 gpgga_index++;
 555              		.loc 1 279 0
 556 0026 4B71     		strb	r3, [r1, #5]
 557              		.loc 1 280 0
 558 0028 2260     		str	r2, [r4]
 559              	.L43:
 281:Src/gps.c     ****             }
 282:Src/gps.c     **** 
 283:Src/gps.c     ****             break;
 284:Src/gps.c     ****         default:
 285:Src/gps.c     **** 
 286:Src/gps.c     ****             if(gpgga_index >= 6 && gpgga_index <= 70)
 287:Src/gps.c     ****             {
 288:Src/gps.c     ****                 if(rx_data == '\n')
 289:Src/gps.c     ****                 {
 290:Src/gps.c     **** 
 291:Src/gps.c     ****                     for(int i=0; i<100; i++)
 292:Src/gps.c     ****                      gpsData.gpgga_body[i] = 0;
 293:Src/gps.c     **** 
 294:Src/gps.c     ****                     for(int i=0; i<gpgga_index; i++)
 295:Src/gps.c     ****                      gpsData.gpgga_body[i] = gpgga_buffer[i];
 296:Src/gps.c     **** 
 297:Src/gps.c     ****                     for(int i=0; i<100; i++)
 298:Src/gps.c     ****                      gpgga_buffer[i] = 0;
 299:Src/gps.c     **** 
ARM GAS  /tmp/ccfMVUpg.s 			page 18


 300:Src/gps.c     ****                     gpsData.gpgga_size = gpgga_index;
 301:Src/gps.c     **** 
 302:Src/gps.c     ****                     gpgga_index = 0;
 303:Src/gps.c     ****                     gpgga_status = GPS_READY;
 304:Src/gps.c     ****                     gpgga_enable = GPS_READY;
 305:Src/gps.c     **** 
 306:Src/gps.c     ****                 }else
 307:Src/gps.c     ****                 {
 308:Src/gps.c     ****                     gpgga_buffer[gpgga_index] = rx_data;
 309:Src/gps.c     ****                     gpgga_index ++;
 310:Src/gps.c     ****                 }
 311:Src/gps.c     ****             }
 312:Src/gps.c     **** 
 313:Src/gps.c     ****             break;
 314:Src/gps.c     ****     }
 315:Src/gps.c     **** 
 316:Src/gps.c     **** }
 560              		.loc 1 316 0
 561 002a 70BC     		pop	{r4, r5, r6}
 562              	.LCFI5:
 563              		.cfi_remember_state
 564              		.cfi_restore 6
 565              		.cfi_restore 5
 566              		.cfi_restore 4
 567              		.cfi_def_cfa_offset 0
 568 002c 7047     		bx	lr
 569              	.L45:
 570              	.LCFI6:
 571              		.cfi_restore_state
 231:Src/gps.c     ****             {
 572              		.loc 1 231 0
 573 002e 2C4B     		ldr	r3, .L62+8
 574 0030 1B78     		ldrb	r3, [r3]	@ zero_extendqisi2
 575 0032 242B     		cmp	r3, #36
 576 0034 F9D1     		bne	.L43
 233:Src/gps.c     ****                 gpgga_index++;
 577              		.loc 1 233 0
 578 0036 2B49     		ldr	r1, .L62+12
 234:Src/gps.c     ****             }
 579              		.loc 1 234 0
 580 0038 0122     		movs	r2, #1
 233:Src/gps.c     ****                 gpgga_index++;
 581              		.loc 1 233 0
 582 003a 0B70     		strb	r3, [r1]
 234:Src/gps.c     ****             }
 583              		.loc 1 234 0
 584 003c 2260     		str	r2, [r4]
 585 003e F4E7     		b	.L43
 586              	.L47:
 241:Src/gps.c     ****             {
 587              		.loc 1 241 0
 588 0040 274B     		ldr	r3, .L62+8
 589 0042 1B78     		ldrb	r3, [r3]	@ zero_extendqisi2
 590 0044 472B     		cmp	r3, #71
 591 0046 F0D1     		bne	.L43
 243:Src/gps.c     ****                 gpgga_index++;
 592              		.loc 1 243 0
ARM GAS  /tmp/ccfMVUpg.s 			page 19


 593 0048 2649     		ldr	r1, .L62+12
 244:Src/gps.c     ****             }
 594              		.loc 1 244 0
 595 004a 0222     		movs	r2, #2
 243:Src/gps.c     ****                 gpgga_index++;
 596              		.loc 1 243 0
 597 004c 4B70     		strb	r3, [r1, #1]
 244:Src/gps.c     ****             }
 598              		.loc 1 244 0
 599 004e 2260     		str	r2, [r4]
 600 0050 EBE7     		b	.L43
 601              	.L48:
 250:Src/gps.c     ****             {
 602              		.loc 1 250 0
 603 0052 234B     		ldr	r3, .L62+8
 604 0054 1B78     		ldrb	r3, [r3]	@ zero_extendqisi2
 605 0056 502B     		cmp	r3, #80
 606 0058 E7D1     		bne	.L43
 252:Src/gps.c     ****                 gpgga_index++;
 607              		.loc 1 252 0
 608 005a 2249     		ldr	r1, .L62+12
 253:Src/gps.c     ****             }
 609              		.loc 1 253 0
 610 005c 0322     		movs	r2, #3
 252:Src/gps.c     ****                 gpgga_index++;
 611              		.loc 1 252 0
 612 005e 8B70     		strb	r3, [r1, #2]
 253:Src/gps.c     ****             }
 613              		.loc 1 253 0
 614 0060 2260     		str	r2, [r4]
 615 0062 E2E7     		b	.L43
 616              	.L49:
 259:Src/gps.c     ****             {
 617              		.loc 1 259 0
 618 0064 1E4B     		ldr	r3, .L62+8
 619 0066 1B78     		ldrb	r3, [r3]	@ zero_extendqisi2
 620 0068 472B     		cmp	r3, #71
 621 006a DED1     		bne	.L43
 261:Src/gps.c     ****                 gpgga_index++;
 622              		.loc 1 261 0
 623 006c 1D49     		ldr	r1, .L62+12
 262:Src/gps.c     ****             }
 624              		.loc 1 262 0
 625 006e 0422     		movs	r2, #4
 261:Src/gps.c     ****                 gpgga_index++;
 626              		.loc 1 261 0
 627 0070 CB70     		strb	r3, [r1, #3]
 262:Src/gps.c     ****             }
 628              		.loc 1 262 0
 629 0072 2260     		str	r2, [r4]
 630 0074 D9E7     		b	.L43
 631              	.L50:
 268:Src/gps.c     ****             {
 632              		.loc 1 268 0
 633 0076 1A4B     		ldr	r3, .L62+8
 634 0078 1B78     		ldrb	r3, [r3]	@ zero_extendqisi2
 635 007a 472B     		cmp	r3, #71
ARM GAS  /tmp/ccfMVUpg.s 			page 20


 636 007c D5D1     		bne	.L43
 270:Src/gps.c     ****                 gpgga_index++;
 637              		.loc 1 270 0
 638 007e 1949     		ldr	r1, .L62+12
 271:Src/gps.c     ****             }
 639              		.loc 1 271 0
 640 0080 0522     		movs	r2, #5
 270:Src/gps.c     ****                 gpgga_index++;
 641              		.loc 1 270 0
 642 0082 0B71     		strb	r3, [r1, #4]
 271:Src/gps.c     ****             }
 643              		.loc 1 271 0
 644 0084 2260     		str	r2, [r4]
 645 0086 D0E7     		b	.L43
 646              	.L44:
 286:Src/gps.c     ****             {
 647              		.loc 1 286 0
 648 0088 931F     		subs	r3, r2, #6
 649 008a 402B     		cmp	r3, #64
 650 008c CDD8     		bhi	.L43
 288:Src/gps.c     ****                 {
 651              		.loc 1 288 0
 652 008e 144B     		ldr	r3, .L62+8
 653 0090 1B78     		ldrb	r3, [r3]	@ zero_extendqisi2
 654 0092 0A2B     		cmp	r3, #10
 655 0094 04D0     		beq	.L61
 308:Src/gps.c     ****                     gpgga_index ++;
 656              		.loc 1 308 0
 657 0096 1348     		ldr	r0, .L62+12
 309:Src/gps.c     ****                 }
 658              		.loc 1 309 0
 659 0098 511C     		adds	r1, r2, #1
 308:Src/gps.c     ****                     gpgga_index ++;
 660              		.loc 1 308 0
 661 009a 8354     		strb	r3, [r0, r2]
 309:Src/gps.c     ****                 }
 662              		.loc 1 309 0
 663 009c 2160     		str	r1, [r4]
 664              		.loc 1 316 0
 665 009e C4E7     		b	.L43
 666              	.L61:
 667              	.LBB10:
 291:Src/gps.c     ****                      gpsData.gpgga_body[i] = 0;
 668              		.loc 1 291 0
 669 00a0 0023     		movs	r3, #0
 670 00a2 1149     		ldr	r1, .L62+16
 292:Src/gps.c     **** 
 671              		.loc 1 292 0
 672 00a4 1846     		mov	r0, r3
 673              	.L54:
 674              	.LVL12:
 292:Src/gps.c     **** 
 675              		.loc 1 292 0 is_stmt 0 discriminator 3
 676 00a6 C854     		strb	r0, [r1, r3]
 291:Src/gps.c     ****                      gpsData.gpgga_body[i] = 0;
 677              		.loc 1 291 0 is_stmt 1 discriminator 3
 678 00a8 0133     		adds	r3, r3, #1
ARM GAS  /tmp/ccfMVUpg.s 			page 21


 679              	.LVL13:
 680 00aa 642B     		cmp	r3, #100
 681 00ac FBD1     		bne	.L54
 682              	.LBE10:
 683              	.LBB11:
 294:Src/gps.c     ****                      gpsData.gpgga_body[i] = gpgga_buffer[i];
 684              		.loc 1 294 0
 685 00ae 0026     		movs	r6, #0
 686 00b0 0C48     		ldr	r0, .L62+12
 687              	.LVL14:
 688              	.L55:
 295:Src/gps.c     **** 
 689              		.loc 1 295 0 discriminator 3
 690 00b2 835D     		ldrb	r3, [r0, r6]	@ zero_extendqisi2
 691 00b4 DBB2     		uxtb	r3, r3
 692 00b6 8B55     		strb	r3, [r1, r6]
 294:Src/gps.c     ****                      gpsData.gpgga_body[i] = gpgga_buffer[i];
 693              		.loc 1 294 0 discriminator 3
 694 00b8 0136     		adds	r6, r6, #1
 695              	.LVL15:
 696 00ba B242     		cmp	r2, r6
 697 00bc F9D1     		bne	.L55
 698              	.LBE11:
 699              	.LBB12:
 297:Src/gps.c     ****                      gpgga_buffer[i] = 0;
 700              		.loc 1 297 0
 701 00be 0023     		movs	r3, #0
 298:Src/gps.c     **** 
 702              		.loc 1 298 0
 703 00c0 1A46     		mov	r2, r3
 704              	.L56:
 705              	.LVL16:
 298:Src/gps.c     **** 
 706              		.loc 1 298 0 is_stmt 0 discriminator 3
 707 00c2 C254     		strb	r2, [r0, r3]
 297:Src/gps.c     ****                      gpgga_buffer[i] = 0;
 708              		.loc 1 297 0 is_stmt 1 discriminator 3
 709 00c4 0133     		adds	r3, r3, #1
 710              	.LVL17:
 711 00c6 642B     		cmp	r3, #100
 712 00c8 FBD1     		bne	.L56
 713              	.LBE12:
 303:Src/gps.c     ****                     gpgga_enable = GPS_READY;
 714              		.loc 1 303 0
 715 00ca 0123     		movs	r3, #1
 716              	.LVL18:
 300:Src/gps.c     **** 
 717              		.loc 1 300 0
 718 00cc 4E66     		str	r6, [r1, #100]
 304:Src/gps.c     **** 
 719              		.loc 1 304 0
 720 00ce 0749     		ldr	r1, .L62+20
 302:Src/gps.c     ****                     gpgga_status = GPS_READY;
 721              		.loc 1 302 0
 722 00d0 2260     		str	r2, [r4]
 303:Src/gps.c     ****                     gpgga_enable = GPS_READY;
 723              		.loc 1 303 0
ARM GAS  /tmp/ccfMVUpg.s 			page 22


 724 00d2 2B80     		strh	r3, [r5]	@ movhi
 304:Src/gps.c     **** 
 725              		.loc 1 304 0
 726 00d4 0B80     		strh	r3, [r1]	@ movhi
 727 00d6 A8E7     		b	.L43
 728              	.L63:
 729              		.align	2
 730              	.L62:
 731 00d8 00000000 		.word	.LANCHOR9
 732 00dc 00000000 		.word	.LANCHOR8
 733 00e0 00000000 		.word	rx_data
 734 00e4 00000000 		.word	.LANCHOR10
 735 00e8 00000000 		.word	gpsData
 736 00ec 00000000 		.word	.LANCHOR11
 737              		.cfi_endproc
 738              	.LFE140:
 740              		.section	.text.getGPRMC,"ax",%progbits
 741              		.align	1
 742              		.p2align 2,,3
 743              		.global	getGPRMC
 744              		.syntax unified
 745              		.thumb
 746              		.thumb_func
 747              		.fpu fpv4-sp-d16
 749              	getGPRMC:
 750              	.LFB141:
 317:Src/gps.c     **** 
 318:Src/gps.c     **** 
 319:Src/gps.c     **** 
 320:Src/gps.c     **** void getGPRMC()
 321:Src/gps.c     **** {
 751              		.loc 1 321 0
 752              		.cfi_startproc
 753              		@ args = 0, pretend = 0, frame = 0
 754              		@ frame_needed = 0, uses_anonymous_args = 0
 755 0000 F8B5     		push	{r3, r4, r5, r6, r7, lr}
 756              	.LCFI7:
 757              		.cfi_def_cfa_offset 24
 758              		.cfi_offset 3, -24
 759              		.cfi_offset 4, -20
 760              		.cfi_offset 5, -16
 761              		.cfi_offset 6, -12
 762              		.cfi_offset 7, -8
 763              		.cfi_offset 14, -4
 322:Src/gps.c     **** 
 323:Src/gps.c     ****     static const unsigned char gprmc_header[6] = {'$', 'G', 'P', 'R', 'M', 'C'};
 324:Src/gps.c     ****     static unsigned char gprmc_buffer[100];
 325:Src/gps.c     ****     static int gprmc_index = 0;
 326:Src/gps.c     **** 
 327:Src/gps.c     ****     gprmc_status = GPS_BUSY;
 328:Src/gps.c     **** 
 329:Src/gps.c     ****     switch(gprmc_index)
 764              		.loc 1 329 0
 765 0002 374D     		ldr	r5, .L82
 327:Src/gps.c     **** 
 766              		.loc 1 327 0
 767 0004 0223     		movs	r3, #2
ARM GAS  /tmp/ccfMVUpg.s 			page 23


 768 0006 374E     		ldr	r6, .L82+4
 769              		.loc 1 329 0
 770 0008 2968     		ldr	r1, [r5]
 327:Src/gps.c     **** 
 771              		.loc 1 327 0
 772 000a 3380     		strh	r3, [r6]	@ movhi
 773              		.loc 1 329 0
 774 000c 0529     		cmp	r1, #5
 775 000e 36D8     		bhi	.L65
 776 0010 DFE801F0 		tbb	[pc, r1]
 777              	.L67:
 778 0014 08       		.byte	(.L66-.L67)/2
 779 0015 11       		.byte	(.L68-.L67)/2
 780 0016 1A       		.byte	(.L69-.L67)/2
 781 0017 23       		.byte	(.L70-.L67)/2
 782 0018 2C       		.byte	(.L71-.L67)/2
 783 0019 03       		.byte	(.L72-.L67)/2
 784              		.p2align 1
 785              	.L72:
 330:Src/gps.c     ****     {
 331:Src/gps.c     **** 
 332:Src/gps.c     ****         case 0:
 333:Src/gps.c     ****             if(rx_data == gprmc_header[0])
 334:Src/gps.c     ****             {
 335:Src/gps.c     ****                 gprmc_buffer[gprmc_index] = rx_data;
 336:Src/gps.c     ****                 gprmc_index++;
 337:Src/gps.c     ****             }
 338:Src/gps.c     **** 
 339:Src/gps.c     ****             break;
 340:Src/gps.c     **** 
 341:Src/gps.c     ****         case 1:
 342:Src/gps.c     ****             if(rx_data == gprmc_header[1])
 343:Src/gps.c     ****             {
 344:Src/gps.c     ****                 gprmc_buffer[gprmc_index] = rx_data;
 345:Src/gps.c     ****                 gprmc_index++;
 346:Src/gps.c     ****             }
 347:Src/gps.c     **** 
 348:Src/gps.c     ****             break;
 349:Src/gps.c     ****         case 2:
 350:Src/gps.c     ****             if(rx_data == gprmc_header[2])
 351:Src/gps.c     ****             {
 352:Src/gps.c     ****                 gprmc_buffer[gprmc_index] = rx_data;
 353:Src/gps.c     ****                 gprmc_index++;
 354:Src/gps.c     ****             }
 355:Src/gps.c     **** 
 356:Src/gps.c     ****             break;
 357:Src/gps.c     ****         case 3:
 358:Src/gps.c     ****             if(rx_data == gprmc_header[3])
 359:Src/gps.c     ****             {
 360:Src/gps.c     ****                 gprmc_buffer[gprmc_index] = rx_data;
 361:Src/gps.c     ****                 gprmc_index++;
 362:Src/gps.c     ****             }
 363:Src/gps.c     **** 
 364:Src/gps.c     ****             break;
 365:Src/gps.c     ****         case 4:
 366:Src/gps.c     ****             if(rx_data == gprmc_header[4])
 367:Src/gps.c     ****             {
ARM GAS  /tmp/ccfMVUpg.s 			page 24


 368:Src/gps.c     ****                 gprmc_buffer[gprmc_index] = rx_data;
 369:Src/gps.c     ****                 gprmc_index++;
 370:Src/gps.c     ****             }
 371:Src/gps.c     **** 
 372:Src/gps.c     ****             break;
 373:Src/gps.c     ****         case 5:
 374:Src/gps.c     ****             if(rx_data == gprmc_header[5])
 786              		.loc 1 374 0
 787 001a 334B     		ldr	r3, .L82+8
 788 001c 1B78     		ldrb	r3, [r3]	@ zero_extendqisi2
 789 001e 432B     		cmp	r3, #67
 790 0020 39D0     		beq	.L80
 791              	.L64:
 375:Src/gps.c     ****             {
 376:Src/gps.c     ****                 gprmc_buffer[gprmc_index] = rx_data;
 377:Src/gps.c     ****                 gprmc_index++;
 378:Src/gps.c     ****             }
 379:Src/gps.c     **** 
 380:Src/gps.c     ****             break;
 381:Src/gps.c     ****         default:
 382:Src/gps.c     **** 
 383:Src/gps.c     **** 
 384:Src/gps.c     ****             if(gprmc_index >= 6 && gprmc_index <= 70)
 385:Src/gps.c     ****             {
 386:Src/gps.c     ****                 if(rx_data == '\n')
 387:Src/gps.c     ****                 {
 388:Src/gps.c     **** 
 389:Src/gps.c     ****                     for(int i=0; i<100; i++)
 390:Src/gps.c     ****                      gpsData.gprmc_body[i] = 0;
 391:Src/gps.c     **** 
 392:Src/gps.c     ****                     for(int i=0; i<gprmc_index; i++)
 393:Src/gps.c     ****                      gpsData.gprmc_body[i] = gprmc_buffer[i];
 394:Src/gps.c     **** 
 395:Src/gps.c     ****                     for(int i=0; i<100; i++)
 396:Src/gps.c     ****                      gprmc_buffer[i] = 0;
 397:Src/gps.c     **** 
 398:Src/gps.c     ****                     gprmc_index = 0;
 399:Src/gps.c     ****                     gprmc_status = GPS_READY;
 400:Src/gps.c     ****                     gprmc_enable = GPS_READY;
 401:Src/gps.c     **** 
 402:Src/gps.c     ****                 }
 403:Src/gps.c     ****                 else
 404:Src/gps.c     ****                 {
 405:Src/gps.c     ****                     gprmc_buffer[gprmc_index] = rx_data;
 406:Src/gps.c     ****                     gprmc_index ++;
 407:Src/gps.c     ****                 }
 408:Src/gps.c     ****             }
 409:Src/gps.c     ****             break;
 410:Src/gps.c     ****     }
 411:Src/gps.c     **** }
 792              		.loc 1 411 0
 793 0022 F8BD     		pop	{r3, r4, r5, r6, r7, pc}
 794              	.L66:
 333:Src/gps.c     ****             {
 795              		.loc 1 333 0
 796 0024 304B     		ldr	r3, .L82+8
 797 0026 1B78     		ldrb	r3, [r3]	@ zero_extendqisi2
ARM GAS  /tmp/ccfMVUpg.s 			page 25


 798 0028 242B     		cmp	r3, #36
 799 002a FAD1     		bne	.L64
 335:Src/gps.c     ****                 gprmc_index++;
 800              		.loc 1 335 0
 801 002c 2F49     		ldr	r1, .L82+12
 336:Src/gps.c     ****             }
 802              		.loc 1 336 0
 803 002e 0122     		movs	r2, #1
 335:Src/gps.c     ****                 gprmc_index++;
 804              		.loc 1 335 0
 805 0030 0B70     		strb	r3, [r1]
 336:Src/gps.c     ****             }
 806              		.loc 1 336 0
 807 0032 2A60     		str	r2, [r5]
 808              		.loc 1 411 0
 809 0034 F8BD     		pop	{r3, r4, r5, r6, r7, pc}
 810              	.L68:
 342:Src/gps.c     ****             {
 811              		.loc 1 342 0
 812 0036 2C4B     		ldr	r3, .L82+8
 813 0038 1B78     		ldrb	r3, [r3]	@ zero_extendqisi2
 814 003a 472B     		cmp	r3, #71
 815 003c F1D1     		bne	.L64
 344:Src/gps.c     ****                 gprmc_index++;
 816              		.loc 1 344 0
 817 003e 2B49     		ldr	r1, .L82+12
 345:Src/gps.c     ****             }
 818              		.loc 1 345 0
 819 0040 0222     		movs	r2, #2
 344:Src/gps.c     ****                 gprmc_index++;
 820              		.loc 1 344 0
 821 0042 4B70     		strb	r3, [r1, #1]
 345:Src/gps.c     ****             }
 822              		.loc 1 345 0
 823 0044 2A60     		str	r2, [r5]
 824              		.loc 1 411 0
 825 0046 F8BD     		pop	{r3, r4, r5, r6, r7, pc}
 826              	.L69:
 350:Src/gps.c     ****             {
 827              		.loc 1 350 0
 828 0048 274B     		ldr	r3, .L82+8
 829 004a 1B78     		ldrb	r3, [r3]	@ zero_extendqisi2
 830 004c 502B     		cmp	r3, #80
 831 004e E8D1     		bne	.L64
 352:Src/gps.c     ****                 gprmc_index++;
 832              		.loc 1 352 0
 833 0050 2649     		ldr	r1, .L82+12
 353:Src/gps.c     ****             }
 834              		.loc 1 353 0
 835 0052 0322     		movs	r2, #3
 352:Src/gps.c     ****                 gprmc_index++;
 836              		.loc 1 352 0
 837 0054 8B70     		strb	r3, [r1, #2]
 353:Src/gps.c     ****             }
 838              		.loc 1 353 0
 839 0056 2A60     		str	r2, [r5]
 840              		.loc 1 411 0
ARM GAS  /tmp/ccfMVUpg.s 			page 26


 841 0058 F8BD     		pop	{r3, r4, r5, r6, r7, pc}
 842              	.L70:
 358:Src/gps.c     ****             {
 843              		.loc 1 358 0
 844 005a 234B     		ldr	r3, .L82+8
 845 005c 1B78     		ldrb	r3, [r3]	@ zero_extendqisi2
 846 005e 522B     		cmp	r3, #82
 847 0060 DFD1     		bne	.L64
 360:Src/gps.c     ****                 gprmc_index++;
 848              		.loc 1 360 0
 849 0062 2249     		ldr	r1, .L82+12
 361:Src/gps.c     ****             }
 850              		.loc 1 361 0
 851 0064 0422     		movs	r2, #4
 360:Src/gps.c     ****                 gprmc_index++;
 852              		.loc 1 360 0
 853 0066 CB70     		strb	r3, [r1, #3]
 361:Src/gps.c     ****             }
 854              		.loc 1 361 0
 855 0068 2A60     		str	r2, [r5]
 856              		.loc 1 411 0
 857 006a F8BD     		pop	{r3, r4, r5, r6, r7, pc}
 858              	.L71:
 366:Src/gps.c     ****             {
 859              		.loc 1 366 0
 860 006c 1E4B     		ldr	r3, .L82+8
 861 006e 1B78     		ldrb	r3, [r3]	@ zero_extendqisi2
 862 0070 4D2B     		cmp	r3, #77
 863 0072 D6D1     		bne	.L64
 368:Src/gps.c     ****                 gprmc_index++;
 864              		.loc 1 368 0
 865 0074 1D49     		ldr	r1, .L82+12
 369:Src/gps.c     ****             }
 866              		.loc 1 369 0
 867 0076 0522     		movs	r2, #5
 368:Src/gps.c     ****                 gprmc_index++;
 868              		.loc 1 368 0
 869 0078 0B71     		strb	r3, [r1, #4]
 369:Src/gps.c     ****             }
 870              		.loc 1 369 0
 871 007a 2A60     		str	r2, [r5]
 872              		.loc 1 411 0
 873 007c F8BD     		pop	{r3, r4, r5, r6, r7, pc}
 874              	.L65:
 384:Src/gps.c     ****             {
 875              		.loc 1 384 0
 876 007e 8B1F     		subs	r3, r1, #6
 877 0080 402B     		cmp	r3, #64
 878 0082 CED8     		bhi	.L64
 386:Src/gps.c     ****                 {
 879              		.loc 1 386 0
 880 0084 184B     		ldr	r3, .L82+8
 881 0086 1B78     		ldrb	r3, [r3]	@ zero_extendqisi2
 882 0088 0A2B     		cmp	r3, #10
 883 008a 09D0     		beq	.L81
 405:Src/gps.c     ****                     gprmc_index ++;
 884              		.loc 1 405 0
ARM GAS  /tmp/ccfMVUpg.s 			page 27


 885 008c 1748     		ldr	r0, .L82+12
 406:Src/gps.c     ****                 }
 886              		.loc 1 406 0
 887 008e 4A1C     		adds	r2, r1, #1
 405:Src/gps.c     ****                     gprmc_index ++;
 888              		.loc 1 405 0
 889 0090 4354     		strb	r3, [r0, r1]
 406:Src/gps.c     ****                 }
 890              		.loc 1 406 0
 891 0092 2A60     		str	r2, [r5]
 892              		.loc 1 411 0
 893 0094 F8BD     		pop	{r3, r4, r5, r6, r7, pc}
 894              	.L80:
 376:Src/gps.c     ****                 gprmc_index++;
 895              		.loc 1 376 0
 896 0096 1549     		ldr	r1, .L82+12
 377:Src/gps.c     ****             }
 897              		.loc 1 377 0
 898 0098 0622     		movs	r2, #6
 376:Src/gps.c     ****                 gprmc_index++;
 899              		.loc 1 376 0
 900 009a 4B71     		strb	r3, [r1, #5]
 377:Src/gps.c     ****             }
 901              		.loc 1 377 0
 902 009c 2A60     		str	r2, [r5]
 903              		.loc 1 411 0
 904 009e F8BD     		pop	{r3, r4, r5, r6, r7, pc}
 905              	.L81:
 906              	.LBB13:
 389:Src/gps.c     ****                      gpsData.gprmc_body[i] = 0;
 907              		.loc 1 389 0
 908 00a0 0023     		movs	r3, #0
 909 00a2 1348     		ldr	r0, .L82+16
 390:Src/gps.c     **** 
 910              		.loc 1 390 0
 911 00a4 1C46     		mov	r4, r3
 912              	.L75:
 913              	.LVL19:
 390:Src/gps.c     **** 
 914              		.loc 1 390 0 is_stmt 0 discriminator 3
 915 00a6 C218     		adds	r2, r0, r3
 389:Src/gps.c     ****                      gpsData.gprmc_body[i] = 0;
 916              		.loc 1 389 0 is_stmt 1 discriminator 3
 917 00a8 0133     		adds	r3, r3, #1
 918              	.LVL20:
 919 00aa 642B     		cmp	r3, #100
 390:Src/gps.c     **** 
 920              		.loc 1 390 0 discriminator 3
 921 00ac 82F83841 		strb	r4, [r2, #312]
 389:Src/gps.c     ****                      gpsData.gprmc_body[i] = 0;
 922              		.loc 1 389 0 discriminator 3
 923 00b0 F9D1     		bne	.L75
 924 00b2 0E4A     		ldr	r2, .L82+12
 925              	.LBE13:
 926              	.LBB14:
 392:Src/gps.c     ****                      gpsData.gprmc_body[i] = gprmc_buffer[i];
 927              		.loc 1 392 0
ARM GAS  /tmp/ccfMVUpg.s 			page 28


 928 00b4 0023     		movs	r3, #0
 929              	.LVL21:
 930              	.L76:
 393:Src/gps.c     **** 
 931              		.loc 1 393 0 discriminator 3
 932 00b6 C418     		adds	r4, r0, r3
 392:Src/gps.c     ****                      gpsData.gprmc_body[i] = gprmc_buffer[i];
 933              		.loc 1 392 0 discriminator 3
 934 00b8 0133     		adds	r3, r3, #1
 935              	.LVL22:
 393:Src/gps.c     **** 
 936              		.loc 1 393 0 discriminator 3
 937 00ba 12F8017B 		ldrb	r7, [r2], #1	@ zero_extendqisi2
 392:Src/gps.c     ****                      gpsData.gprmc_body[i] = gprmc_buffer[i];
 938              		.loc 1 392 0 discriminator 3
 939 00be 9942     		cmp	r1, r3
 393:Src/gps.c     **** 
 940              		.loc 1 393 0 discriminator 3
 941 00c0 84F83871 		strb	r7, [r4, #312]
 392:Src/gps.c     ****                      gpsData.gprmc_body[i] = gprmc_buffer[i];
 942              		.loc 1 392 0 discriminator 3
 943 00c4 F7D1     		bne	.L76
 944 00c6 6422     		movs	r2, #100
 945 00c8 0021     		movs	r1, #0
 946 00ca 0848     		ldr	r0, .L82+12
 947 00cc FFF7FEFF 		bl	memset
 948              	.LVL23:
 949              	.LBE14:
 399:Src/gps.c     ****                     gprmc_enable = GPS_READY;
 950              		.loc 1 399 0
 951 00d0 0123     		movs	r3, #1
 398:Src/gps.c     ****                     gprmc_status = GPS_READY;
 952              		.loc 1 398 0
 953 00d2 0021     		movs	r1, #0
 400:Src/gps.c     **** 
 954              		.loc 1 400 0
 955 00d4 074A     		ldr	r2, .L82+20
 399:Src/gps.c     ****                     gprmc_enable = GPS_READY;
 956              		.loc 1 399 0
 957 00d6 3380     		strh	r3, [r6]	@ movhi
 398:Src/gps.c     ****                     gprmc_status = GPS_READY;
 958              		.loc 1 398 0
 959 00d8 2960     		str	r1, [r5]
 400:Src/gps.c     **** 
 960              		.loc 1 400 0
 961 00da 1380     		strh	r3, [r2]	@ movhi
 962              		.loc 1 411 0
 963 00dc F8BD     		pop	{r3, r4, r5, r6, r7, pc}
 964              	.L83:
 965 00de 00BF     		.align	2
 966              	.L82:
 967 00e0 00000000 		.word	.LANCHOR13
 968 00e4 00000000 		.word	.LANCHOR12
 969 00e8 00000000 		.word	rx_data
 970 00ec 00000000 		.word	.LANCHOR14
 971 00f0 00000000 		.word	gpsData
 972 00f4 00000000 		.word	.LANCHOR15
ARM GAS  /tmp/ccfMVUpg.s 			page 29


 973              		.cfi_endproc
 974              	.LFE141:
 976              		.section	.text.gpsInit,"ax",%progbits
 977              		.align	1
 978              		.p2align 2,,3
 979              		.global	gpsInit
 980              		.syntax unified
 981              		.thumb
 982              		.thumb_func
 983              		.fpu fpv4-sp-d16
 985              	gpsInit:
 986              	.LFB142:
 412:Src/gps.c     **** 
 413:Src/gps.c     **** 
 414:Src/gps.c     **** 
 415:Src/gps.c     **** void gpsInit()
 416:Src/gps.c     **** {
 987              		.loc 1 416 0
 988              		.cfi_startproc
 989              		@ args = 0, pretend = 0, frame = 0
 990              		@ frame_needed = 0, uses_anonymous_args = 0
 991 0000 38B5     		push	{r3, r4, r5, lr}
 992              	.LCFI8:
 993              		.cfi_def_cfa_offset 16
 994              		.cfi_offset 3, -16
 995              		.cfi_offset 4, -12
 996              		.cfi_offset 5, -8
 997              		.cfi_offset 14, -4
 417:Src/gps.c     **** 
 418:Src/gps.c     ****     GPIO_PinState gps_state;
 419:Src/gps.c     **** 
 420:Src/gps.c     ****     HAL_UART_Receive_IT(&huart4, (uint8_t *)&rx_data, 1);
 998              		.loc 1 420 0
 999 0002 0122     		movs	r2, #1
 1000 0004 1849     		ldr	r1, .L89
 1001 0006 1948     		ldr	r0, .L89+4
 421:Src/gps.c     **** 
 422:Src/gps.c     ****     do
 423:Src/gps.c     ****     {
 424:Src/gps.c     **** 
 425:Src/gps.c     ****         HAL_GPIO_WritePin(GPS_ONOFF_GPIO_Port, GPS_ONOFF_Pin, GPIO_PIN_SET);
 1002              		.loc 1 425 0
 1003 0008 194C     		ldr	r4, .L89+8
 420:Src/gps.c     **** 
 1004              		.loc 1 420 0
 1005 000a FFF7FEFF 		bl	HAL_UART_Receive_IT
 1006              	.LVL24:
 1007              	.L85:
 1008              		.loc 1 425 0 discriminator 1
 1009 000e 0122     		movs	r2, #1
 1010 0010 0421     		movs	r1, #4
 1011 0012 2046     		mov	r0, r4
 1012 0014 FFF7FEFF 		bl	HAL_GPIO_WritePin
 1013              	.LVL25:
 426:Src/gps.c     ****         HAL_Delay(100);
 1014              		.loc 1 426 0 discriminator 1
 1015 0018 6420     		movs	r0, #100
ARM GAS  /tmp/ccfMVUpg.s 			page 30


 1016 001a FFF7FEFF 		bl	HAL_Delay
 1017              	.LVL26:
 427:Src/gps.c     ****         HAL_GPIO_WritePin(GPS_ONOFF_GPIO_Port, GPS_ONOFF_Pin, GPIO_PIN_RESET);
 1018              		.loc 1 427 0 discriminator 1
 1019 001e 0022     		movs	r2, #0
 1020 0020 0421     		movs	r1, #4
 1021 0022 2046     		mov	r0, r4
 1022 0024 FFF7FEFF 		bl	HAL_GPIO_WritePin
 1023              	.LVL27:
 428:Src/gps.c     ****         HAL_Delay(100);
 1024              		.loc 1 428 0 discriminator 1
 1025 0028 6420     		movs	r0, #100
 1026 002a FFF7FEFF 		bl	HAL_Delay
 1027              	.LVL28:
 429:Src/gps.c     ****         HAL_GPIO_WritePin(GPS_ONOFF_GPIO_Port, GPS_ONOFF_Pin, GPIO_PIN_SET);
 1028              		.loc 1 429 0 discriminator 1
 1029 002e 0122     		movs	r2, #1
 1030 0030 0421     		movs	r1, #4
 1031 0032 2046     		mov	r0, r4
 1032 0034 FFF7FEFF 		bl	HAL_GPIO_WritePin
 1033              	.LVL29:
 430:Src/gps.c     ****         HAL_Delay(100);
 1034              		.loc 1 430 0 discriminator 1
 1035 0038 6420     		movs	r0, #100
 1036 003a FFF7FEFF 		bl	HAL_Delay
 1037              	.LVL30:
 431:Src/gps.c     ****         HAL_GPIO_WritePin(GPS_ONOFF_GPIO_Port, GPS_ONOFF_Pin, GPIO_PIN_RESET);
 1038              		.loc 1 431 0 discriminator 1
 1039 003e 0022     		movs	r2, #0
 1040 0040 0421     		movs	r1, #4
 1041 0042 2046     		mov	r0, r4
 1042 0044 FFF7FEFF 		bl	HAL_GPIO_WritePin
 1043              	.LVL31:
 432:Src/gps.c     **** 
 433:Src/gps.c     ****         HAL_Delay(2000);
 1044              		.loc 1 433 0 discriminator 1
 1045 0048 4FF4FA60 		mov	r0, #2000
 1046 004c FFF7FEFF 		bl	HAL_Delay
 1047              	.LVL32:
 434:Src/gps.c     **** 
 435:Src/gps.c     ****         gps_state = HAL_GPIO_ReadPin(GPS_RPFWRUP_GPIO_Port, GPS_RPFWRUP_Pin);
 1048              		.loc 1 435 0 discriminator 1
 1049 0050 0821     		movs	r1, #8
 1050 0052 2046     		mov	r0, r4
 1051 0054 FFF7FEFF 		bl	HAL_GPIO_ReadPin
 1052              	.LVL33:
 1053 0058 0546     		mov	r5, r0
 1054              	.LVL34:
 436:Src/gps.c     **** 
 437:Src/gps.c     ****         _Event_Handler("GPS_Initializing...");
 1055              		.loc 1 437 0 discriminator 1
 1056 005a 0648     		ldr	r0, .L89+12
 1057 005c FFF7FEFF 		bl	_Event_Handler
 1058              	.LVL35:
 438:Src/gps.c     **** 
 439:Src/gps.c     ****     }while(gps_state == 0);
 1059              		.loc 1 439 0 discriminator 1
ARM GAS  /tmp/ccfMVUpg.s 			page 31


 1060 0060 002D     		cmp	r5, #0
 1061 0062 D4D0     		beq	.L85
 440:Src/gps.c     **** }
 1062              		.loc 1 440 0
 1063 0064 38BD     		pop	{r3, r4, r5, pc}
 1064              	.LVL36:
 1065              	.L90:
 1066 0066 00BF     		.align	2
 1067              	.L89:
 1068 0068 00000000 		.word	rx_data
 1069 006c 00000000 		.word	huart4
 1070 0070 000C0240 		.word	1073875968
 1071 0074 00000000 		.word	.LC0
 1072              		.cfi_endproc
 1073              	.LFE142:
 1075              		.section	.text.receiveGpsData,"ax",%progbits
 1076              		.align	1
 1077              		.p2align 2,,3
 1078              		.global	receiveGpsData
 1079              		.syntax unified
 1080              		.thumb
 1081              		.thumb_func
 1082              		.fpu fpv4-sp-d16
 1084              	receiveGpsData:
 1085              	.LFB143:
 441:Src/gps.c     **** 
 442:Src/gps.c     **** 
 443:Src/gps.c     **** void receiveGpsData()
 444:Src/gps.c     **** {
 1086              		.loc 1 444 0
 1087              		.cfi_startproc
 1088              		@ args = 0, pretend = 0, frame = 0
 1089              		@ frame_needed = 0, uses_anonymous_args = 0
 1090 0000 2DE9F843 		push	{r3, r4, r5, r6, r7, r8, r9, lr}
 1091              	.LCFI9:
 1092              		.cfi_def_cfa_offset 32
 1093              		.cfi_offset 3, -32
 1094              		.cfi_offset 4, -28
 1095              		.cfi_offset 5, -24
 1096              		.cfi_offset 6, -20
 1097              		.cfi_offset 7, -16
 1098              		.cfi_offset 8, -12
 1099              		.cfi_offset 9, -8
 1100              		.cfi_offset 14, -4
 445:Src/gps.c     **** 
 446:Src/gps.c     ****       if(gprmc_enable != GPS_READY)
 1101              		.loc 1 446 0
 1102 0004 574C     		ldr	r4, .L127
 1103 0006 B4F90030 		ldrsh	r3, [r4]
 1104 000a 012B     		cmp	r3, #1
 1105 000c 01D0     		beq	.L92
 447:Src/gps.c     ****         getGPRMC();
 1106              		.loc 1 447 0
 1107 000e FFF7FEFF 		bl	getGPRMC
 1108              	.LVL37:
 1109              	.L92:
 448:Src/gps.c     **** 
ARM GAS  /tmp/ccfMVUpg.s 			page 32


 449:Src/gps.c     ****       if(gpgga_enable != GPS_READY)
 1110              		.loc 1 449 0
 1111 0012 554D     		ldr	r5, .L127+4
 1112 0014 B5F90030 		ldrsh	r3, [r5]
 1113 0018 012B     		cmp	r3, #1
 1114 001a 01D0     		beq	.L93
 450:Src/gps.c     ****         getGPGGA();
 1115              		.loc 1 450 0
 1116 001c FFF7FEFF 		bl	getGPGGA
 1117              	.LVL38:
 1118              	.L93:
 451:Src/gps.c     **** 
 452:Src/gps.c     ****       if(gpgsa_enable != GPS_READY)
 1119              		.loc 1 452 0
 1120 0020 524E     		ldr	r6, .L127+8
 1121 0022 B6F90030 		ldrsh	r3, [r6]
 1122 0026 012B     		cmp	r3, #1
 1123 0028 01D0     		beq	.L94
 453:Src/gps.c     ****         getGPGSA();
 1124              		.loc 1 453 0
 1125 002a FFF7FEFF 		bl	getGPGSA
 1126              	.LVL39:
 1127              	.L94:
 454:Src/gps.c     **** 
 455:Src/gps.c     ****       if(gpgll_enable != GPS_READY)
 1128              		.loc 1 455 0
 1129 002e 504F     		ldr	r7, .L127+12
 1130 0030 B7F90030 		ldrsh	r3, [r7]
 1131 0034 012B     		cmp	r3, #1
 1132 0036 11D1     		bne	.L124
 1133              	.L95:
 456:Src/gps.c     ****         getGPGLL();
 457:Src/gps.c     **** 
 458:Src/gps.c     ****       if(gprmc_enable != GPS_READY || gpgga_enable != GPS_READY
 1134              		.loc 1 458 0
 1135 0038 B4F90020 		ldrsh	r2, [r4]
 1136 003c 012A     		cmp	r2, #1
 1137 003e 03D1     		bne	.L107
 1138              		.loc 1 458 0 is_stmt 0 discriminator 1
 1139 0040 B5F90020 		ldrsh	r2, [r5]
 1140 0044 012A     		cmp	r2, #1
 1141 0046 19D0     		beq	.L125
 1142              	.L107:
 459:Src/gps.c     ****               || gpgsa_enable != GPS_READY || gpgll_enable != GPS_READY)
 460:Src/gps.c     ****       {
 461:Src/gps.c     ****           rx_data=0;
 1143              		.loc 1 461 0 is_stmt 1
 1144 0048 4A4B     		ldr	r3, .L127+16
 1145 004a 0024     		movs	r4, #0
 462:Src/gps.c     ****           HAL_UART_Receive_IT(&huart4, (uint8_t *)&rx_data, 1);
 1146              		.loc 1 462 0
 1147 004c 0122     		movs	r2, #1
 1148 004e 4A48     		ldr	r0, .L127+20
 1149 0050 1946     		mov	r1, r3
 461:Src/gps.c     ****           HAL_UART_Receive_IT(&huart4, (uint8_t *)&rx_data, 1);
 1150              		.loc 1 461 0
 1151 0052 1C70     		strb	r4, [r3]
ARM GAS  /tmp/ccfMVUpg.s 			page 33


 463:Src/gps.c     ****       }
 464:Src/gps.c     **** 
 465:Src/gps.c     **** }
 1152              		.loc 1 465 0
 1153 0054 BDE8F843 		pop	{r3, r4, r5, r6, r7, r8, r9, lr}
 1154              	.LCFI10:
 1155              		.cfi_remember_state
 1156              		.cfi_restore 14
 1157              		.cfi_restore 9
 1158              		.cfi_restore 8
 1159              		.cfi_restore 7
 1160              		.cfi_restore 6
 1161              		.cfi_restore 5
 1162              		.cfi_restore 4
 1163              		.cfi_restore 3
 1164              		.cfi_def_cfa_offset 0
 462:Src/gps.c     ****       }
 1165              		.loc 1 462 0
 1166 0058 FFF7FEBF 		b	HAL_UART_Receive_IT
 1167              	.LVL40:
 1168              	.L124:
 1169              	.LCFI11:
 1170              		.cfi_restore_state
 1171              	.LBB20:
 1172              	.LBB21:
  31:Src/gps.c     ****     {
 1173              		.loc 1 31 0
 1174 005c DFF82481 		ldr	r8, .L127+32
  29:Src/gps.c     **** 
 1175              		.loc 1 29 0
 1176 0060 0222     		movs	r2, #2
 1177 0062 DFF82491 		ldr	r9, .L127+36
  31:Src/gps.c     ****     {
 1178              		.loc 1 31 0
 1179 0066 D8F80010 		ldr	r1, [r8]
  29:Src/gps.c     **** 
 1180              		.loc 1 29 0
 1181 006a A9F80020 		strh	r2, [r9]	@ movhi
  31:Src/gps.c     ****     {
 1182              		.loc 1 31 0
 1183 006e 0529     		cmp	r1, #5
 1184 0070 48D8     		bhi	.L96
 1185 0072 DFE801F0 		tbb	[pc, r1]
 1186              	.L98:
 1187 0076 3D       		.byte	(.L97-.L98)/2
 1188 0077 33       		.byte	(.L99-.L98)/2
 1189 0078 29       		.byte	(.L100-.L98)/2
 1190 0079 1F       		.byte	(.L101-.L98)/2
 1191 007a 15       		.byte	(.L102-.L98)/2
 1192 007b 0B       		.byte	(.L103-.L98)/2
 1193              		.p2align 1
 1194              	.L125:
 1195              	.LBE21:
 1196              	.LBE20:
 459:Src/gps.c     ****       {
 1197              		.loc 1 459 0
 1198 007c B6F90020 		ldrsh	r2, [r6]
ARM GAS  /tmp/ccfMVUpg.s 			page 34


 1199 0080 012A     		cmp	r2, #1
 1200 0082 E1D1     		bne	.L107
 459:Src/gps.c     ****       {
 1201              		.loc 1 459 0 is_stmt 0 discriminator 1
 1202 0084 012B     		cmp	r3, #1
 1203 0086 DFD1     		bne	.L107
 1204              		.loc 1 465 0 is_stmt 1
 1205 0088 BDE8F883 		pop	{r3, r4, r5, r6, r7, r8, r9, pc}
 1206              	.L103:
 1207              	.LBB25:
 1208              	.LBB24:
  76:Src/gps.c     ****             {
 1209              		.loc 1 76 0
 1210 008c 394A     		ldr	r2, .L127+16
 1211 008e 1278     		ldrb	r2, [r2]	@ zero_extendqisi2
 1212 0090 4C2A     		cmp	r2, #76
 1213 0092 D1D1     		bne	.L95
  78:Src/gps.c     ****                 gpgll_index++;
 1214              		.loc 1 78 0
 1215 0094 3948     		ldr	r0, .L127+24
  79:Src/gps.c     ****             }
 1216              		.loc 1 79 0
 1217 0096 0621     		movs	r1, #6
  78:Src/gps.c     ****                 gpgll_index++;
 1218              		.loc 1 78 0
 1219 0098 4271     		strb	r2, [r0, #5]
  79:Src/gps.c     ****             }
 1220              		.loc 1 79 0
 1221 009a C8F80010 		str	r1, [r8]
 1222 009e CBE7     		b	.L95
 1223              	.L102:
  68:Src/gps.c     ****             {
 1224              		.loc 1 68 0
 1225 00a0 344A     		ldr	r2, .L127+16
 1226 00a2 1278     		ldrb	r2, [r2]	@ zero_extendqisi2
 1227 00a4 4C2A     		cmp	r2, #76
 1228 00a6 C7D1     		bne	.L95
  70:Src/gps.c     ****                 gpgll_index++;
 1229              		.loc 1 70 0
 1230 00a8 3448     		ldr	r0, .L127+24
  71:Src/gps.c     ****             }
 1231              		.loc 1 71 0
 1232 00aa 0521     		movs	r1, #5
  70:Src/gps.c     ****                 gpgll_index++;
 1233              		.loc 1 70 0
 1234 00ac 0271     		strb	r2, [r0, #4]
  71:Src/gps.c     ****             }
 1235              		.loc 1 71 0
 1236 00ae C8F80010 		str	r1, [r8]
 1237 00b2 C1E7     		b	.L95
 1238              	.L101:
  60:Src/gps.c     ****             {
 1239              		.loc 1 60 0
 1240 00b4 2F4A     		ldr	r2, .L127+16
 1241 00b6 1278     		ldrb	r2, [r2]	@ zero_extendqisi2
 1242 00b8 472A     		cmp	r2, #71
 1243 00ba BDD1     		bne	.L95
ARM GAS  /tmp/ccfMVUpg.s 			page 35


  62:Src/gps.c     ****                 gpgll_index++;
 1244              		.loc 1 62 0
 1245 00bc 2F48     		ldr	r0, .L127+24
  63:Src/gps.c     ****             }
 1246              		.loc 1 63 0
 1247 00be 0421     		movs	r1, #4
  62:Src/gps.c     ****                 gpgll_index++;
 1248              		.loc 1 62 0
 1249 00c0 C270     		strb	r2, [r0, #3]
  63:Src/gps.c     ****             }
 1250              		.loc 1 63 0
 1251 00c2 C8F80010 		str	r1, [r8]
 1252 00c6 B7E7     		b	.L95
 1253              	.L100:
  52:Src/gps.c     ****             {
 1254              		.loc 1 52 0
 1255 00c8 2A4A     		ldr	r2, .L127+16
 1256 00ca 1278     		ldrb	r2, [r2]	@ zero_extendqisi2
 1257 00cc 502A     		cmp	r2, #80
 1258 00ce B3D1     		bne	.L95
  54:Src/gps.c     ****                 gpgll_index++;
 1259              		.loc 1 54 0
 1260 00d0 2A48     		ldr	r0, .L127+24
  55:Src/gps.c     ****             }
 1261              		.loc 1 55 0
 1262 00d2 0321     		movs	r1, #3
  54:Src/gps.c     ****                 gpgll_index++;
 1263              		.loc 1 54 0
 1264 00d4 8270     		strb	r2, [r0, #2]
  55:Src/gps.c     ****             }
 1265              		.loc 1 55 0
 1266 00d6 C8F80010 		str	r1, [r8]
 1267 00da ADE7     		b	.L95
 1268              	.L99:
  44:Src/gps.c     ****             {
 1269              		.loc 1 44 0
 1270 00dc 254A     		ldr	r2, .L127+16
 1271 00de 1278     		ldrb	r2, [r2]	@ zero_extendqisi2
 1272 00e0 472A     		cmp	r2, #71
 1273 00e2 A9D1     		bne	.L95
  46:Src/gps.c     ****                 gpgll_index++;
 1274              		.loc 1 46 0
 1275 00e4 2548     		ldr	r0, .L127+24
  47:Src/gps.c     ****             }
 1276              		.loc 1 47 0
 1277 00e6 0221     		movs	r1, #2
  46:Src/gps.c     ****                 gpgll_index++;
 1278              		.loc 1 46 0
 1279 00e8 4270     		strb	r2, [r0, #1]
  47:Src/gps.c     ****             }
 1280              		.loc 1 47 0
 1281 00ea C8F80010 		str	r1, [r8]
 1282 00ee A3E7     		b	.L95
 1283              	.L97:
  35:Src/gps.c     ****             {
 1284              		.loc 1 35 0
 1285 00f0 204A     		ldr	r2, .L127+16
ARM GAS  /tmp/ccfMVUpg.s 			page 36


 1286 00f2 1278     		ldrb	r2, [r2]	@ zero_extendqisi2
 1287 00f4 242A     		cmp	r2, #36
 1288 00f6 9FD1     		bne	.L95
  37:Src/gps.c     ****                 gpgll_index++;
 1289              		.loc 1 37 0
 1290 00f8 2048     		ldr	r0, .L127+24
  38:Src/gps.c     ****             }
 1291              		.loc 1 38 0
 1292 00fa 0121     		movs	r1, #1
  37:Src/gps.c     ****                 gpgll_index++;
 1293              		.loc 1 37 0
 1294 00fc 0270     		strb	r2, [r0]
  38:Src/gps.c     ****             }
 1295              		.loc 1 38 0
 1296 00fe C8F80010 		str	r1, [r8]
 1297 0102 99E7     		b	.L95
 1298              	.L96:
  86:Src/gps.c     ****             {
 1299              		.loc 1 86 0
 1300 0104 8A1F     		subs	r2, r1, #6
 1301 0106 402A     		cmp	r2, #64
 1302 0108 96D8     		bhi	.L95
  88:Src/gps.c     ****                 {
 1303              		.loc 1 88 0
 1304 010a 1A4A     		ldr	r2, .L127+16
 1305 010c 1278     		ldrb	r2, [r2]	@ zero_extendqisi2
 1306 010e 0A2A     		cmp	r2, #10
 1307 0110 05D0     		beq	.L126
 107:Src/gps.c     ****                     gpgll_index ++;
 1308              		.loc 1 107 0
 1309 0112 1A4F     		ldr	r7, .L127+24
 108:Src/gps.c     ****                 }
 1310              		.loc 1 108 0
 1311 0114 481C     		adds	r0, r1, #1
 107:Src/gps.c     ****                     gpgll_index ++;
 1312              		.loc 1 107 0
 1313 0116 7A54     		strb	r2, [r7, r1]
 108:Src/gps.c     ****                 }
 1314              		.loc 1 108 0
 1315 0118 C8F80000 		str	r0, [r8]
 1316 011c 8CE7     		b	.L95
 1317              	.L126:
 1318              	.LBB22:
  91:Src/gps.c     ****                      gpsData.gpgll_body[i] = 0;
 1319              		.loc 1 91 0
 1320 011e 0023     		movs	r3, #0
 1321 0120 1748     		ldr	r0, .L127+28
  92:Src/gps.c     **** 
 1322              		.loc 1 92 0
 1323 0122 9C46     		mov	ip, r3
 1324              	.L105:
 1325              	.LVL41:
 1326 0124 C218     		adds	r2, r0, r3
  91:Src/gps.c     ****                      gpsData.gpgll_body[i] = 0;
 1327              		.loc 1 91 0
 1328 0126 0133     		adds	r3, r3, #1
 1329              	.LVL42:
ARM GAS  /tmp/ccfMVUpg.s 			page 37


 1330 0128 642B     		cmp	r3, #100
  92:Src/gps.c     **** 
 1331              		.loc 1 92 0
 1332 012a 82F868C0 		strb	ip, [r2, #104]
  91:Src/gps.c     ****                      gpsData.gpgll_body[i] = 0;
 1333              		.loc 1 91 0
 1334 012e F9D1     		bne	.L105
 1335 0130 124A     		ldr	r2, .L127+24
 1336              	.LBE22:
 1337              	.LBB23:
  94:Src/gps.c     ****                      gpsData.gpgll_body[i] = gpgll_buffer[i];
 1338              		.loc 1 94 0
 1339 0132 0023     		movs	r3, #0
 1340              	.LVL43:
 1341              	.L106:
  95:Src/gps.c     **** 
 1342              		.loc 1 95 0
 1343 0134 00EB030C 		add	ip, r0, r3
  94:Src/gps.c     ****                      gpsData.gpgll_body[i] = gpgll_buffer[i];
 1344              		.loc 1 94 0
 1345 0138 0133     		adds	r3, r3, #1
 1346              	.LVL44:
  95:Src/gps.c     **** 
 1347              		.loc 1 95 0
 1348 013a 12F801EB 		ldrb	lr, [r2], #1	@ zero_extendqisi2
  94:Src/gps.c     ****                      gpsData.gpgll_body[i] = gpgll_buffer[i];
 1349              		.loc 1 94 0
 1350 013e 9942     		cmp	r1, r3
  95:Src/gps.c     **** 
 1351              		.loc 1 95 0
 1352 0140 8CF868E0 		strb	lr, [ip, #104]
  94:Src/gps.c     ****                      gpsData.gpgll_body[i] = gpgll_buffer[i];
 1353              		.loc 1 94 0
 1354 0144 F6D1     		bne	.L106
 1355 0146 6422     		movs	r2, #100
 1356 0148 0021     		movs	r1, #0
 1357 014a 0C48     		ldr	r0, .L127+24
 1358 014c FFF7FEFF 		bl	memset
 1359              	.LVL45:
 1360              	.LBE23:
 101:Src/gps.c     ****                     gpgll_enable = GPS_READY;
 1361              		.loc 1 101 0
 1362 0150 0122     		movs	r2, #1
 100:Src/gps.c     ****                     gpgll_status = GPS_READY;
 1363              		.loc 1 100 0
 1364 0152 0023     		movs	r3, #0
 101:Src/gps.c     ****                     gpgll_enable = GPS_READY;
 1365              		.loc 1 101 0
 1366 0154 A9F80020 		strh	r2, [r9]	@ movhi
 100:Src/gps.c     ****                     gpgll_status = GPS_READY;
 1367              		.loc 1 100 0
 1368 0158 C8F80030 		str	r3, [r8]
 102:Src/gps.c     **** 
 1369              		.loc 1 102 0
 1370 015c 1346     		mov	r3, r2
 1371 015e 3A80     		strh	r2, [r7]	@ movhi
 1372 0160 6AE7     		b	.L95
ARM GAS  /tmp/ccfMVUpg.s 			page 38


 1373              	.L128:
 1374 0162 00BF     		.align	2
 1375              	.L127:
 1376 0164 00000000 		.word	.LANCHOR15
 1377 0168 00000000 		.word	.LANCHOR11
 1378 016c 00000000 		.word	.LANCHOR7
 1379 0170 00000000 		.word	.LANCHOR3
 1380 0174 00000000 		.word	rx_data
 1381 0178 00000000 		.word	huart4
 1382 017c 00000000 		.word	.LANCHOR2
 1383 0180 00000000 		.word	gpsData
 1384 0184 00000000 		.word	.LANCHOR1
 1385 0188 00000000 		.word	.LANCHOR0
 1386              	.LBE24:
 1387              	.LBE25:
 1388              		.cfi_endproc
 1389              	.LFE143:
 1391              		.section	.text.enableGps,"ax",%progbits
 1392              		.align	1
 1393              		.p2align 2,,3
 1394              		.global	enableGps
 1395              		.syntax unified
 1396              		.thumb
 1397              		.thumb_func
 1398              		.fpu fpv4-sp-d16
 1400              	enableGps:
 1401              	.LFB144:
 466:Src/gps.c     **** 
 467:Src/gps.c     **** 
 468:Src/gps.c     **** void enableGps()
 469:Src/gps.c     **** {
 1402              		.loc 1 469 0
 1403              		.cfi_startproc
 1404              		@ args = 0, pretend = 0, frame = 0
 1405              		@ frame_needed = 0, uses_anonymous_args = 0
 1406              		@ link register save eliminated.
 1407 0000 30B4     		push	{r4, r5}
 1408              	.LCFI12:
 1409              		.cfi_def_cfa_offset 8
 1410              		.cfi_offset 4, -8
 1411              		.cfi_offset 5, -4
 470:Src/gps.c     **** 
 471:Src/gps.c     ****     gprmc_enable = GPS_BUSY;
 1412              		.loc 1 471 0
 1413 0002 0223     		movs	r3, #2
 1414 0004 0649     		ldr	r1, .L131
 472:Src/gps.c     ****     gpgga_enable = GPS_BUSY;
 1415              		.loc 1 472 0
 1416 0006 0748     		ldr	r0, .L131+4
 473:Src/gps.c     ****     gpgsa_enable = GPS_BUSY;
 474:Src/gps.c     ****     gpgll_enable = GPS_BUSY;
 475:Src/gps.c     **** 
 476:Src/gps.c     ****     HAL_UART_Receive_IT(&huart4, (uint8_t *)&rx_data, 1);
 1417              		.loc 1 476 0
 1418 0008 0122     		movs	r2, #1
 473:Src/gps.c     ****     gpgsa_enable = GPS_BUSY;
 1419              		.loc 1 473 0
ARM GAS  /tmp/ccfMVUpg.s 			page 39


 1420 000a 074D     		ldr	r5, .L131+8
 474:Src/gps.c     **** 
 1421              		.loc 1 474 0
 1422 000c 074C     		ldr	r4, .L131+12
 471:Src/gps.c     ****     gpgga_enable = GPS_BUSY;
 1423              		.loc 1 471 0
 1424 000e 0B80     		strh	r3, [r1]	@ movhi
 472:Src/gps.c     ****     gpgsa_enable = GPS_BUSY;
 1425              		.loc 1 472 0
 1426 0010 0380     		strh	r3, [r0]	@ movhi
 473:Src/gps.c     ****     gpgll_enable = GPS_BUSY;
 1427              		.loc 1 473 0
 1428 0012 2B80     		strh	r3, [r5]	@ movhi
 474:Src/gps.c     **** 
 1429              		.loc 1 474 0
 1430 0014 2380     		strh	r3, [r4]	@ movhi
 1431              		.loc 1 476 0
 1432 0016 0649     		ldr	r1, .L131+16
 1433 0018 0648     		ldr	r0, .L131+20
 477:Src/gps.c     **** 
 478:Src/gps.c     **** }
 1434              		.loc 1 478 0
 1435 001a 30BC     		pop	{r4, r5}
 1436              	.LCFI13:
 1437              		.cfi_restore 5
 1438              		.cfi_restore 4
 1439              		.cfi_def_cfa_offset 0
 476:Src/gps.c     **** 
 1440              		.loc 1 476 0
 1441 001c FFF7FEBF 		b	HAL_UART_Receive_IT
 1442              	.LVL46:
 1443              	.L132:
 1444              		.align	2
 1445              	.L131:
 1446 0020 00000000 		.word	.LANCHOR15
 1447 0024 00000000 		.word	.LANCHOR11
 1448 0028 00000000 		.word	.LANCHOR7
 1449 002c 00000000 		.word	.LANCHOR3
 1450 0030 00000000 		.word	rx_data
 1451 0034 00000000 		.word	huart4
 1452              		.cfi_endproc
 1453              	.LFE144:
 1455              		.section	.text.checkGpsData,"ax",%progbits
 1456              		.align	1
 1457              		.p2align 2,,3
 1458              		.global	checkGpsData
 1459              		.syntax unified
 1460              		.thumb
 1461              		.thumb_func
 1462              		.fpu fpv4-sp-d16
 1464              	checkGpsData:
 1465              	.LFB145:
 479:Src/gps.c     **** 
 480:Src/gps.c     **** int checkGpsData()
 481:Src/gps.c     **** {
 1466              		.loc 1 481 0
 1467              		.cfi_startproc
ARM GAS  /tmp/ccfMVUpg.s 			page 40


 1468              		@ args = 0, pretend = 0, frame = 0
 1469              		@ frame_needed = 0, uses_anonymous_args = 0
 1470              		@ link register save eliminated.
 482:Src/gps.c     ****     if(gprmc_status == GPS_READY && gpgga_status == GPS_READY
 1471              		.loc 1 482 0
 1472 0000 0C4B     		ldr	r3, .L139
 1473 0002 B3F90030 		ldrsh	r3, [r3]
 1474 0006 012B     		cmp	r3, #1
 1475 0008 11D1     		bne	.L137
 1476              		.loc 1 482 0 is_stmt 0 discriminator 1
 1477 000a 0B4B     		ldr	r3, .L139+4
 1478 000c B3F90030 		ldrsh	r3, [r3]
 1479 0010 012B     		cmp	r3, #1
 1480 0012 0CD1     		bne	.L137
 483:Src/gps.c     ****             && gpgsa_status == GPS_READY && gpgll_status == GPS_READY)
 1481              		.loc 1 483 0 is_stmt 1
 1482 0014 094B     		ldr	r3, .L139+8
 1483 0016 B3F90030 		ldrsh	r3, [r3]
 1484 001a 012B     		cmp	r3, #1
 1485 001c 07D1     		bne	.L137
 1486              		.loc 1 483 0 is_stmt 0 discriminator 1
 1487 001e 084B     		ldr	r3, .L139+12
 1488 0020 B3F90030 		ldrsh	r3, [r3]
 1489 0024 012B     		cmp	r3, #1
 484:Src/gps.c     ****         return GPS_READY;
 1490              		.loc 1 484 0 is_stmt 1 discriminator 1
 1491 0026 14BF     		ite	ne
 1492 0028 0220     		movne	r0, #2
 1493 002a 0120     		moveq	r0, #1
 1494 002c 7047     		bx	lr
 1495              	.L137:
 485:Src/gps.c     ****     else
 486:Src/gps.c     ****         return GPS_BUSY;
 1496              		.loc 1 486 0
 1497 002e 0220     		movs	r0, #2
 487:Src/gps.c     **** }
 1498              		.loc 1 487 0
 1499 0030 7047     		bx	lr
 1500              	.L140:
 1501 0032 00BF     		.align	2
 1502              	.L139:
 1503 0034 00000000 		.word	.LANCHOR12
 1504 0038 00000000 		.word	.LANCHOR8
 1505 003c 00000000 		.word	.LANCHOR4
 1506 0040 00000000 		.word	.LANCHOR0
 1507              		.cfi_endproc
 1508              	.LFE145:
 1510              		.global	gpgll_enable
 1511              		.global	gpgll_status
 1512              		.global	gpgsa_enable
 1513              		.global	gpgsa_status
 1514              		.global	gpgga_enable
 1515              		.global	gpgga_status
 1516              		.global	gprmc_enable
 1517              		.global	gprmc_status
 1518              		.comm	rx_data,1,1
 1519              		.comm	gpsData,416,4
ARM GAS  /tmp/ccfMVUpg.s 			page 41


 1520              		.comm	UpdateFile,4,4
 1521              		.comm	SpiRxData,4,4
 1522              		.comm	SpiTxData,4,4
 1523              		.section	.bss.gpgga_buffer.10114,"aw",%nobits
 1524              		.align	2
 1525              		.set	.LANCHOR10,. + 0
 1528              	gpgga_buffer.10114:
 1529 0000 00000000 		.space	100
 1529      00000000 
 1529      00000000 
 1529      00000000 
 1529      00000000 
 1530              		.section	.bss.gpgga_index.10115,"aw",%nobits
 1531              		.align	2
 1532              		.set	.LANCHOR9,. + 0
 1535              	gpgga_index.10115:
 1536 0000 00000000 		.space	4
 1537              		.section	.bss.gpgll_buffer.10064,"aw",%nobits
 1538              		.align	2
 1539              		.set	.LANCHOR2,. + 0
 1542              	gpgll_buffer.10064:
 1543 0000 00000000 		.space	100
 1543      00000000 
 1543      00000000 
 1543      00000000 
 1543      00000000 
 1544              		.section	.bss.gpgll_index.10065,"aw",%nobits
 1545              		.align	2
 1546              		.set	.LANCHOR1,. + 0
 1549              	gpgll_index.10065:
 1550 0000 00000000 		.space	4
 1551              		.section	.bss.gpgsa_buffer.10089,"aw",%nobits
 1552              		.align	2
 1553              		.set	.LANCHOR6,. + 0
 1556              	gpgsa_buffer.10089:
 1557 0000 00000000 		.space	100
 1557      00000000 
 1557      00000000 
 1557      00000000 
 1557      00000000 
 1558              		.section	.bss.gpgsa_index.10090,"aw",%nobits
 1559              		.align	2
 1560              		.set	.LANCHOR5,. + 0
 1563              	gpgsa_index.10090:
 1564 0000 00000000 		.space	4
 1565              		.section	.bss.gprmc_buffer.10139,"aw",%nobits
 1566              		.align	2
 1567              		.set	.LANCHOR14,. + 0
 1570              	gprmc_buffer.10139:
 1571 0000 00000000 		.space	100
 1571      00000000 
 1571      00000000 
 1571      00000000 
 1571      00000000 
 1572              		.section	.bss.gprmc_index.10140,"aw",%nobits
 1573              		.align	2
 1574              		.set	.LANCHOR13,. + 0
ARM GAS  /tmp/ccfMVUpg.s 			page 42


 1577              	gprmc_index.10140:
 1578 0000 00000000 		.space	4
 1579              		.section	.data.gpgga_enable,"aw",%progbits
 1580              		.align	1
 1581              		.set	.LANCHOR11,. + 0
 1584              	gpgga_enable:
 1585 0000 0200     		.short	2
 1586              		.section	.data.gpgga_status,"aw",%progbits
 1587              		.align	1
 1588              		.set	.LANCHOR8,. + 0
 1591              	gpgga_status:
 1592 0000 0200     		.short	2
 1593              		.section	.data.gpgll_enable,"aw",%progbits
 1594              		.align	1
 1595              		.set	.LANCHOR3,. + 0
 1598              	gpgll_enable:
 1599 0000 0200     		.short	2
 1600              		.section	.data.gpgll_status,"aw",%progbits
 1601              		.align	1
 1602              		.set	.LANCHOR0,. + 0
 1605              	gpgll_status:
 1606 0000 0200     		.short	2
 1607              		.section	.data.gpgsa_enable,"aw",%progbits
 1608              		.align	1
 1609              		.set	.LANCHOR7,. + 0
 1612              	gpgsa_enable:
 1613 0000 0200     		.short	2
 1614              		.section	.data.gpgsa_status,"aw",%progbits
 1615              		.align	1
 1616              		.set	.LANCHOR4,. + 0
 1619              	gpgsa_status:
 1620 0000 0200     		.short	2
 1621              		.section	.data.gprmc_enable,"aw",%progbits
 1622              		.align	1
 1623              		.set	.LANCHOR15,. + 0
 1626              	gprmc_enable:
 1627 0000 0200     		.short	2
 1628              		.section	.data.gprmc_status,"aw",%progbits
 1629              		.align	1
 1630              		.set	.LANCHOR12,. + 0
 1633              	gprmc_status:
 1634 0000 0200     		.short	2
 1635              		.section	.rodata.gpsInit.str1.4,"aMS",%progbits,1
 1636              		.align	2
 1637              	.LC0:
 1638 0000 4750535F 		.ascii	"GPS_Initializing...\000"
 1638      496E6974 
 1638      69616C69 
 1638      7A696E67 
 1638      2E2E2E00 
 1639              		.text
 1640              	.Letext0:
 1641              		.file 2 "/usr/include/newlib/machine/_default_types.h"
 1642              		.file 3 "/usr/include/newlib/sys/lock.h"
 1643              		.file 4 "/usr/include/newlib/sys/_types.h"
 1644              		.file 5 "/usr/lib/gcc/arm-none-eabi/7.3.1/include/stddef.h"
 1645              		.file 6 "/usr/include/newlib/sys/reent.h"
ARM GAS  /tmp/ccfMVUpg.s 			page 43


 1646              		.file 7 "/usr/include/newlib/sys/_stdint.h"
 1647              		.file 8 "Inc/main.h"
 1648              		.file 9 "Drivers/CMSIS/Include/core_cm7.h"
 1649              		.file 10 "Drivers/CMSIS/Device/ST/STM32F7xx/Include/system_stm32f7xx.h"
 1650              		.file 11 "Drivers/CMSIS/Device/ST/STM32F7xx/Include/stm32f746xx.h"
 1651              		.file 12 "Drivers/STM32F7xx_HAL_Driver/Inc/stm32f7xx_hal_def.h"
 1652              		.file 13 "Drivers/STM32F7xx_HAL_Driver/Inc/stm32f7xx_hal_gpio.h"
 1653              		.file 14 "Drivers/STM32F7xx_HAL_Driver/Inc/stm32f7xx_hal_dma.h"
 1654              		.file 15 "Drivers/STM32F7xx_HAL_Driver/Inc/stm32f7xx_hal_uart.h"
 1655              		.file 16 "Inc/gps.h"
 1656              		.file 17 "Inc/usart.h"
 1657              		.file 18 "Drivers/STM32F7xx_HAL_Driver/Inc/stm32f7xx_hal.h"
 1658              		.file 19 "<built-in>"
ARM GAS  /tmp/ccfMVUpg.s 			page 44


DEFINED SYMBOLS
                            *ABS*:0000000000000000 gps.c
     /tmp/ccfMVUpg.s:18     .text.getGPGLL:0000000000000000 $t
     /tmp/ccfMVUpg.s:26     .text.getGPGLL:0000000000000000 getGPGLL
     /tmp/ccfMVUpg.s:56     .text.getGPGLL:0000000000000014 $d
     /tmp/ccfMVUpg.s:62     .text.getGPGLL:000000000000001a $t
     /tmp/ccfMVUpg.s:245    .text.getGPGLL:00000000000000e0 $d
                            *COM*:0000000000000001 rx_data
                            *COM*:00000000000001a0 gpsData
     /tmp/ccfMVUpg.s:255    .text.getGPGSA:0000000000000000 $t
     /tmp/ccfMVUpg.s:263    .text.getGPGSA:0000000000000000 getGPGSA
     /tmp/ccfMVUpg.s:291    .text.getGPGSA:0000000000000014 $d
     /tmp/ccfMVUpg.s:297    .text.getGPGSA:000000000000001a $t
     /tmp/ccfMVUpg.s:493    .text.getGPGSA:00000000000000e4 $d
     /tmp/ccfMVUpg.s:503    .text.getGPGGA:0000000000000000 $t
     /tmp/ccfMVUpg.s:511    .text.getGPGGA:0000000000000000 getGPGGA
     /tmp/ccfMVUpg.s:538    .text.getGPGGA:0000000000000014 $d
     /tmp/ccfMVUpg.s:544    .text.getGPGGA:000000000000001a $t
     /tmp/ccfMVUpg.s:731    .text.getGPGGA:00000000000000d8 $d
     /tmp/ccfMVUpg.s:741    .text.getGPRMC:0000000000000000 $t
     /tmp/ccfMVUpg.s:749    .text.getGPRMC:0000000000000000 getGPRMC
     /tmp/ccfMVUpg.s:778    .text.getGPRMC:0000000000000014 $d
     /tmp/ccfMVUpg.s:784    .text.getGPRMC:000000000000001a $t
     /tmp/ccfMVUpg.s:967    .text.getGPRMC:00000000000000e0 $d
     /tmp/ccfMVUpg.s:977    .text.gpsInit:0000000000000000 $t
     /tmp/ccfMVUpg.s:985    .text.gpsInit:0000000000000000 gpsInit
     /tmp/ccfMVUpg.s:1068   .text.gpsInit:0000000000000068 $d
     /tmp/ccfMVUpg.s:1076   .text.receiveGpsData:0000000000000000 $t
     /tmp/ccfMVUpg.s:1084   .text.receiveGpsData:0000000000000000 receiveGpsData
     /tmp/ccfMVUpg.s:1187   .text.receiveGpsData:0000000000000076 $d
     /tmp/ccfMVUpg.s:1193   .text.receiveGpsData:000000000000007c $t
     /tmp/ccfMVUpg.s:1376   .text.receiveGpsData:0000000000000164 $d
     /tmp/ccfMVUpg.s:1392   .text.enableGps:0000000000000000 $t
     /tmp/ccfMVUpg.s:1400   .text.enableGps:0000000000000000 enableGps
     /tmp/ccfMVUpg.s:1446   .text.enableGps:0000000000000020 $d
     /tmp/ccfMVUpg.s:1456   .text.checkGpsData:0000000000000000 $t
     /tmp/ccfMVUpg.s:1464   .text.checkGpsData:0000000000000000 checkGpsData
     /tmp/ccfMVUpg.s:1503   .text.checkGpsData:0000000000000034 $d
     /tmp/ccfMVUpg.s:1598   .data.gpgll_enable:0000000000000000 gpgll_enable
     /tmp/ccfMVUpg.s:1605   .data.gpgll_status:0000000000000000 gpgll_status
     /tmp/ccfMVUpg.s:1612   .data.gpgsa_enable:0000000000000000 gpgsa_enable
     /tmp/ccfMVUpg.s:1619   .data.gpgsa_status:0000000000000000 gpgsa_status
     /tmp/ccfMVUpg.s:1584   .data.gpgga_enable:0000000000000000 gpgga_enable
     /tmp/ccfMVUpg.s:1591   .data.gpgga_status:0000000000000000 gpgga_status
     /tmp/ccfMVUpg.s:1626   .data.gprmc_enable:0000000000000000 gprmc_enable
     /tmp/ccfMVUpg.s:1633   .data.gprmc_status:0000000000000000 gprmc_status
                            *COM*:0000000000000004 UpdateFile
                            *COM*:0000000000000004 SpiRxData
                            *COM*:0000000000000004 SpiTxData
     /tmp/ccfMVUpg.s:1524   .bss.gpgga_buffer.10114:0000000000000000 $d
     /tmp/ccfMVUpg.s:1528   .bss.gpgga_buffer.10114:0000000000000000 gpgga_buffer.10114
     /tmp/ccfMVUpg.s:1531   .bss.gpgga_index.10115:0000000000000000 $d
     /tmp/ccfMVUpg.s:1535   .bss.gpgga_index.10115:0000000000000000 gpgga_index.10115
     /tmp/ccfMVUpg.s:1538   .bss.gpgll_buffer.10064:0000000000000000 $d
     /tmp/ccfMVUpg.s:1542   .bss.gpgll_buffer.10064:0000000000000000 gpgll_buffer.10064
     /tmp/ccfMVUpg.s:1545   .bss.gpgll_index.10065:0000000000000000 $d
     /tmp/ccfMVUpg.s:1549   .bss.gpgll_index.10065:0000000000000000 gpgll_index.10065
ARM GAS  /tmp/ccfMVUpg.s 			page 45


     /tmp/ccfMVUpg.s:1552   .bss.gpgsa_buffer.10089:0000000000000000 $d
     /tmp/ccfMVUpg.s:1556   .bss.gpgsa_buffer.10089:0000000000000000 gpgsa_buffer.10089
     /tmp/ccfMVUpg.s:1559   .bss.gpgsa_index.10090:0000000000000000 $d
     /tmp/ccfMVUpg.s:1563   .bss.gpgsa_index.10090:0000000000000000 gpgsa_index.10090
     /tmp/ccfMVUpg.s:1566   .bss.gprmc_buffer.10139:0000000000000000 $d
     /tmp/ccfMVUpg.s:1570   .bss.gprmc_buffer.10139:0000000000000000 gprmc_buffer.10139
     /tmp/ccfMVUpg.s:1573   .bss.gprmc_index.10140:0000000000000000 $d
     /tmp/ccfMVUpg.s:1577   .bss.gprmc_index.10140:0000000000000000 gprmc_index.10140
     /tmp/ccfMVUpg.s:1580   .data.gpgga_enable:0000000000000000 $d
     /tmp/ccfMVUpg.s:1587   .data.gpgga_status:0000000000000000 $d
     /tmp/ccfMVUpg.s:1594   .data.gpgll_enable:0000000000000000 $d
     /tmp/ccfMVUpg.s:1601   .data.gpgll_status:0000000000000000 $d
     /tmp/ccfMVUpg.s:1608   .data.gpgsa_enable:0000000000000000 $d
     /tmp/ccfMVUpg.s:1615   .data.gpgsa_status:0000000000000000 $d
     /tmp/ccfMVUpg.s:1622   .data.gprmc_enable:0000000000000000 $d
     /tmp/ccfMVUpg.s:1629   .data.gprmc_status:0000000000000000 $d
     /tmp/ccfMVUpg.s:1636   .rodata.gpsInit.str1.4:0000000000000000 $d

UNDEFINED SYMBOLS
memset
HAL_UART_Receive_IT
HAL_GPIO_WritePin
HAL_Delay
HAL_GPIO_ReadPin
_Event_Handler
huart4
