ARM GAS  /tmp/ccpLg1DU.s 			page 1


   1              		.cpu cortex-m7
   2              		.eabi_attribute 27, 1
   3              		.eabi_attribute 28, 1
   4              		.eabi_attribute 20, 1
   5              		.eabi_attribute 21, 1
   6              		.eabi_attribute 23, 3
   7              		.eabi_attribute 24, 1
   8              		.eabi_attribute 25, 1
   9              		.eabi_attribute 26, 1
  10              		.eabi_attribute 30, 2
  11              		.eabi_attribute 34, 1
  12              		.eabi_attribute 18, 4
  13              		.file	"i2c.c"
  14              		.text
  15              	.Ltext0:
  16              		.cfi_sections	.debug_frame
  17              		.section	.text.MX_I2C1_Init,"ax",%progbits
  18              		.align	1
  19              		.p2align 2,,3
  20              		.global	MX_I2C1_Init
  21              		.syntax unified
  22              		.thumb
  23              		.thumb_func
  24              		.fpu fpv4-sp-d16
  26              	MX_I2C1_Init:
  27              	.LFB138:
  28              		.file 1 "Src/i2c.c"
   1:Src/i2c.c     **** /**
   2:Src/i2c.c     ****   ******************************************************************************
   3:Src/i2c.c     ****   * File Name          : I2C.c
   4:Src/i2c.c     ****   * Description        : This file provides code for the configuration
   5:Src/i2c.c     ****   *                      of the I2C instances.
   6:Src/i2c.c     ****   ******************************************************************************
   7:Src/i2c.c     ****   ** This notice applies to any and all portions of this file
   8:Src/i2c.c     ****   * that are not between comment pairs USER CODE BEGIN and
   9:Src/i2c.c     ****   * USER CODE END. Other portions of this file, whether 
  10:Src/i2c.c     ****   * inserted by the user or by software development tools
  11:Src/i2c.c     ****   * are owned by their respective copyright owners.
  12:Src/i2c.c     ****   *
  13:Src/i2c.c     ****   * COPYRIGHT(c) 2018 STMicroelectronics
  14:Src/i2c.c     ****   *
  15:Src/i2c.c     ****   * Redistribution and use in source and binary forms, with or without modification,
  16:Src/i2c.c     ****   * are permitted provided that the following conditions are met:
  17:Src/i2c.c     ****   *   1. Redistributions of source code must retain the above copyright notice,
  18:Src/i2c.c     ****   *      this list of conditions and the following disclaimer.
  19:Src/i2c.c     ****   *   2. Redistributions in binary form must reproduce the above copyright notice,
  20:Src/i2c.c     ****   *      this list of conditions and the following disclaimer in the documentation
  21:Src/i2c.c     ****   *      and/or other materials provided with the distribution.
  22:Src/i2c.c     ****   *   3. Neither the name of STMicroelectronics nor the names of its contributors
  23:Src/i2c.c     ****   *      may be used to endorse or promote products derived from this software
  24:Src/i2c.c     ****   *      without specific prior written permission.
  25:Src/i2c.c     ****   *
  26:Src/i2c.c     ****   * THIS SOFTWARE IS PROVIDED BY THE COPYRIGHT HOLDERS AND CONTRIBUTORS "AS IS"
  27:Src/i2c.c     ****   * AND ANY EXPRESS OR IMPLIED WARRANTIES, INCLUDING, BUT NOT LIMITED TO, THE
  28:Src/i2c.c     ****   * IMPLIED WARRANTIES OF MERCHANTABILITY AND FITNESS FOR A PARTICULAR PURPOSE ARE
  29:Src/i2c.c     ****   * DISCLAIMED. IN NO EVENT SHALL THE COPYRIGHT HOLDER OR CONTRIBUTORS BE LIABLE
  30:Src/i2c.c     ****   * FOR ANY DIRECT, INDIRECT, INCIDENTAL, SPECIAL, EXEMPLARY, OR CONSEQUENTIAL
ARM GAS  /tmp/ccpLg1DU.s 			page 2


  31:Src/i2c.c     ****   * DAMAGES (INCLUDING, BUT NOT LIMITED TO, PROCUREMENT OF SUBSTITUTE GOODS OR
  32:Src/i2c.c     ****   * SERVICES; LOSS OF USE, DATA, OR PROFITS; OR BUSINESS INTERRUPTION) HOWEVER
  33:Src/i2c.c     ****   * CAUSED AND ON ANY THEORY OF LIABILITY, WHETHER IN CONTRACT, STRICT LIABILITY,
  34:Src/i2c.c     ****   * OR TORT (INCLUDING NEGLIGENCE OR OTHERWISE) ARISING IN ANY WAY OUT OF THE USE
  35:Src/i2c.c     ****   * OF THIS SOFTWARE, EVEN IF ADVISED OF THE POSSIBILITY OF SUCH DAMAGE.
  36:Src/i2c.c     ****   *
  37:Src/i2c.c     ****   ******************************************************************************
  38:Src/i2c.c     ****   */
  39:Src/i2c.c     **** 
  40:Src/i2c.c     **** /* Includes ------------------------------------------------------------------*/
  41:Src/i2c.c     **** #include "i2c.h"
  42:Src/i2c.c     **** 
  43:Src/i2c.c     **** #include "gpio.h"
  44:Src/i2c.c     **** 
  45:Src/i2c.c     **** /* USER CODE BEGIN 0 */
  46:Src/i2c.c     **** 
  47:Src/i2c.c     **** /* USER CODE END 0 */
  48:Src/i2c.c     **** 
  49:Src/i2c.c     **** I2C_HandleTypeDef hi2c1;
  50:Src/i2c.c     **** I2C_HandleTypeDef hi2c2;
  51:Src/i2c.c     **** I2C_HandleTypeDef hi2c3;
  52:Src/i2c.c     **** I2C_HandleTypeDef hi2c4;
  53:Src/i2c.c     **** 
  54:Src/i2c.c     **** /* I2C1 init function */
  55:Src/i2c.c     **** void MX_I2C1_Init(void)
  56:Src/i2c.c     **** {
  29              		.loc 1 56 0
  30              		.cfi_startproc
  31              		@ args = 0, pretend = 0, frame = 0
  32              		@ frame_needed = 0, uses_anonymous_args = 0
  33 0000 38B5     		push	{r3, r4, r5, lr}
  34              	.LCFI0:
  35              		.cfi_def_cfa_offset 16
  36              		.cfi_offset 3, -16
  37              		.cfi_offset 4, -12
  38              		.cfi_offset 5, -8
  39              		.cfi_offset 14, -4
  57:Src/i2c.c     **** 
  58:Src/i2c.c     ****   hi2c1.Instance = I2C1;
  40              		.loc 1 58 0
  41 0002 164B     		ldr	r3, .L16
  59:Src/i2c.c     ****   hi2c1.Init.Timing = 0xF000FFFF;
  60:Src/i2c.c     ****   hi2c1.Init.OwnAddress1 = 0;
  42              		.loc 1 60 0
  43 0004 0022     		movs	r2, #0
  61:Src/i2c.c     ****   hi2c1.Init.AddressingMode = I2C_ADDRESSINGMODE_7BIT;
  44              		.loc 1 61 0
  45 0006 0121     		movs	r1, #1
  58:Src/i2c.c     ****   hi2c1.Init.Timing = 0xF000FFFF;
  46              		.loc 1 58 0
  47 0008 154D     		ldr	r5, .L16+4
  59:Src/i2c.c     ****   hi2c1.Init.Timing = 0xF000FFFF;
  48              		.loc 1 59 0
  49 000a 164C     		ldr	r4, .L16+8
  62:Src/i2c.c     ****   hi2c1.Init.DualAddressMode = I2C_DUALADDRESS_DISABLE;
  63:Src/i2c.c     ****   hi2c1.Init.OwnAddress2 = 0;
  64:Src/i2c.c     ****   hi2c1.Init.OwnAddress2Masks = I2C_OA2_NOMASK;
ARM GAS  /tmp/ccpLg1DU.s 			page 3


  65:Src/i2c.c     ****   hi2c1.Init.GeneralCallMode = I2C_GENERALCALL_DISABLE;
  66:Src/i2c.c     ****   hi2c1.Init.NoStretchMode = I2C_NOSTRETCH_DISABLE;
  67:Src/i2c.c     ****   if (HAL_I2C_Init(&hi2c1) != HAL_OK)
  50              		.loc 1 67 0
  51 000c 1846     		mov	r0, r3
  66:Src/i2c.c     ****   if (HAL_I2C_Init(&hi2c1) != HAL_OK)
  52              		.loc 1 66 0
  53 000e 1A62     		str	r2, [r3, #32]
  59:Src/i2c.c     ****   hi2c1.Init.OwnAddress1 = 0;
  54              		.loc 1 59 0
  55 0010 C3E90054 		strd	r5, r4, [r3]
  60:Src/i2c.c     ****   hi2c1.Init.AddressingMode = I2C_ADDRESSINGMODE_7BIT;
  56              		.loc 1 60 0
  57 0014 C3E90221 		strd	r2, r1, [r3, #8]
  63:Src/i2c.c     ****   hi2c1.Init.OwnAddress2Masks = I2C_OA2_NOMASK;
  58              		.loc 1 63 0
  59 0018 C3E90422 		strd	r2, r2, [r3, #16]
  65:Src/i2c.c     ****   hi2c1.Init.NoStretchMode = I2C_NOSTRETCH_DISABLE;
  60              		.loc 1 65 0
  61 001c C3E90622 		strd	r2, r2, [r3, #24]
  62              		.loc 1 67 0
  63 0020 FFF7FEFF 		bl	HAL_I2C_Init
  64              	.LVL0:
  65 0024 A8B9     		cbnz	r0, .L13
  66              	.L2:
  68:Src/i2c.c     ****   {
  69:Src/i2c.c     ****     _Error_Handler(__FILE__, __LINE__);
  70:Src/i2c.c     ****   }
  71:Src/i2c.c     **** 
  72:Src/i2c.c     ****     /**Configure Analogue filter 
  73:Src/i2c.c     ****     */
  74:Src/i2c.c     ****   if (HAL_I2CEx_ConfigAnalogFilter(&hi2c1, I2C_ANALOGFILTER_ENABLE) != HAL_OK)
  67              		.loc 1 74 0
  68 0026 0021     		movs	r1, #0
  69 0028 0C48     		ldr	r0, .L16
  70 002a FFF7FEFF 		bl	HAL_I2CEx_ConfigAnalogFilter
  71              	.LVL1:
  72 002e 58B9     		cbnz	r0, .L14
  73              	.L3:
  75:Src/i2c.c     ****   {
  76:Src/i2c.c     ****     _Error_Handler(__FILE__, __LINE__);
  77:Src/i2c.c     ****   }
  78:Src/i2c.c     **** 
  79:Src/i2c.c     ****     /**Configure Digital filter 
  80:Src/i2c.c     ****     */
  81:Src/i2c.c     ****   if (HAL_I2CEx_ConfigDigitalFilter(&hi2c1, 0) != HAL_OK)
  74              		.loc 1 81 0
  75 0030 0021     		movs	r1, #0
  76 0032 0A48     		ldr	r0, .L16
  77 0034 FFF7FEFF 		bl	HAL_I2CEx_ConfigDigitalFilter
  78              	.LVL2:
  79 0038 00B9     		cbnz	r0, .L15
  82:Src/i2c.c     ****   {
  83:Src/i2c.c     ****     _Error_Handler(__FILE__, __LINE__);
  84:Src/i2c.c     ****   }
  85:Src/i2c.c     **** 
  86:Src/i2c.c     **** }
ARM GAS  /tmp/ccpLg1DU.s 			page 4


  80              		.loc 1 86 0
  81 003a 38BD     		pop	{r3, r4, r5, pc}
  82              	.L15:
  83:Src/i2c.c     ****   }
  83              		.loc 1 83 0
  84 003c 5321     		movs	r1, #83
  85 003e 0A48     		ldr	r0, .L16+12
  86              		.loc 1 86 0
  87 0040 BDE83840 		pop	{r3, r4, r5, lr}
  88              	.LCFI1:
  89              		.cfi_remember_state
  90              		.cfi_restore 14
  91              		.cfi_restore 5
  92              		.cfi_restore 4
  93              		.cfi_restore 3
  94              		.cfi_def_cfa_offset 0
  83:Src/i2c.c     ****   }
  95              		.loc 1 83 0
  96 0044 FFF7FEBF 		b	_Error_Handler
  97              	.LVL3:
  98              	.L14:
  99              	.LCFI2:
 100              		.cfi_restore_state
  76:Src/i2c.c     ****   }
 101              		.loc 1 76 0
 102 0048 4C21     		movs	r1, #76
 103 004a 0748     		ldr	r0, .L16+12
 104 004c FFF7FEFF 		bl	_Error_Handler
 105              	.LVL4:
 106 0050 EEE7     		b	.L3
 107              	.L13:
  69:Src/i2c.c     ****   }
 108              		.loc 1 69 0
 109 0052 4521     		movs	r1, #69
 110 0054 0448     		ldr	r0, .L16+12
 111 0056 FFF7FEFF 		bl	_Error_Handler
 112              	.LVL5:
 113 005a E4E7     		b	.L2
 114              	.L17:
 115              		.align	2
 116              	.L16:
 117 005c 00000000 		.word	hi2c1
 118 0060 00540040 		.word	1073763328
 119 0064 FFFF00F0 		.word	-268369921
 120 0068 00000000 		.word	.LC0
 121              		.cfi_endproc
 122              	.LFE138:
 124              		.section	.text.MX_I2C2_Init,"ax",%progbits
 125              		.align	1
 126              		.p2align 2,,3
 127              		.global	MX_I2C2_Init
 128              		.syntax unified
 129              		.thumb
 130              		.thumb_func
 131              		.fpu fpv4-sp-d16
 133              	MX_I2C2_Init:
 134              	.LFB139:
ARM GAS  /tmp/ccpLg1DU.s 			page 5


  87:Src/i2c.c     **** /* I2C2 init function */
  88:Src/i2c.c     **** void MX_I2C2_Init(void)
  89:Src/i2c.c     **** {
 135              		.loc 1 89 0
 136              		.cfi_startproc
 137              		@ args = 0, pretend = 0, frame = 0
 138              		@ frame_needed = 0, uses_anonymous_args = 0
 139 0000 38B5     		push	{r3, r4, r5, lr}
 140              	.LCFI3:
 141              		.cfi_def_cfa_offset 16
 142              		.cfi_offset 3, -16
 143              		.cfi_offset 4, -12
 144              		.cfi_offset 5, -8
 145              		.cfi_offset 14, -4
  90:Src/i2c.c     **** 
  91:Src/i2c.c     ****     hi2c2.Instance = I2C2;
 146              		.loc 1 91 0
 147 0002 164B     		ldr	r3, .L32
  92:Src/i2c.c     ****     hi2c2.Init.Timing = 0x20404768;
  93:Src/i2c.c     ****     hi2c2.Init.OwnAddress1 = 0;
 148              		.loc 1 93 0
 149 0004 0022     		movs	r2, #0
  94:Src/i2c.c     ****     hi2c2.Init.AddressingMode = I2C_ADDRESSINGMODE_7BIT;
 150              		.loc 1 94 0
 151 0006 0121     		movs	r1, #1
  91:Src/i2c.c     ****     hi2c2.Init.Timing = 0x20404768;
 152              		.loc 1 91 0
 153 0008 154D     		ldr	r5, .L32+4
  92:Src/i2c.c     ****     hi2c2.Init.Timing = 0x20404768;
 154              		.loc 1 92 0
 155 000a 164C     		ldr	r4, .L32+8
  95:Src/i2c.c     ****     hi2c2.Init.DualAddressMode = I2C_DUALADDRESS_DISABLE;
  96:Src/i2c.c     ****     hi2c2.Init.OwnAddress2 = 0;
  97:Src/i2c.c     ****     hi2c2.Init.OwnAddress2Masks = I2C_OA2_NOMASK;
  98:Src/i2c.c     ****     hi2c2.Init.GeneralCallMode = I2C_GENERALCALL_DISABLE;
  99:Src/i2c.c     ****     hi2c2.Init.NoStretchMode = I2C_NOSTRETCH_DISABLE;
 100:Src/i2c.c     ****     if (HAL_I2C_Init(&hi2c2) != HAL_OK)
 156              		.loc 1 100 0
 157 000c 1846     		mov	r0, r3
  99:Src/i2c.c     ****     if (HAL_I2C_Init(&hi2c2) != HAL_OK)
 158              		.loc 1 99 0
 159 000e 1A62     		str	r2, [r3, #32]
  92:Src/i2c.c     ****     hi2c2.Init.OwnAddress1 = 0;
 160              		.loc 1 92 0
 161 0010 C3E90054 		strd	r5, r4, [r3]
  93:Src/i2c.c     ****     hi2c2.Init.AddressingMode = I2C_ADDRESSINGMODE_7BIT;
 162              		.loc 1 93 0
 163 0014 C3E90221 		strd	r2, r1, [r3, #8]
  96:Src/i2c.c     ****     hi2c2.Init.OwnAddress2Masks = I2C_OA2_NOMASK;
 164              		.loc 1 96 0
 165 0018 C3E90422 		strd	r2, r2, [r3, #16]
  98:Src/i2c.c     ****     hi2c2.Init.NoStretchMode = I2C_NOSTRETCH_DISABLE;
 166              		.loc 1 98 0
 167 001c C3E90622 		strd	r2, r2, [r3, #24]
 168              		.loc 1 100 0
 169 0020 FFF7FEFF 		bl	HAL_I2C_Init
 170              	.LVL6:
ARM GAS  /tmp/ccpLg1DU.s 			page 6


 171 0024 A8B9     		cbnz	r0, .L29
 172              	.L19:
 101:Src/i2c.c     ****     {
 102:Src/i2c.c     ****       _Error_Handler(__FILE__, __LINE__);
 103:Src/i2c.c     ****     }
 104:Src/i2c.c     **** 
 105:Src/i2c.c     ****       /**Configure Analogue filter
 106:Src/i2c.c     ****       */
 107:Src/i2c.c     ****     if (HAL_I2CEx_ConfigAnalogFilter(&hi2c2, I2C_ANALOGFILTER_ENABLE) != HAL_OK)
 173              		.loc 1 107 0
 174 0026 0021     		movs	r1, #0
 175 0028 0C48     		ldr	r0, .L32
 176 002a FFF7FEFF 		bl	HAL_I2CEx_ConfigAnalogFilter
 177              	.LVL7:
 178 002e 58B9     		cbnz	r0, .L30
 179              	.L20:
 108:Src/i2c.c     ****     {
 109:Src/i2c.c     ****       _Error_Handler(__FILE__, __LINE__);
 110:Src/i2c.c     ****     }
 111:Src/i2c.c     **** 
 112:Src/i2c.c     ****       /**Configure Digital filter
 113:Src/i2c.c     ****       */
 114:Src/i2c.c     ****     if (HAL_I2CEx_ConfigDigitalFilter(&hi2c2, 0) != HAL_OK)
 180              		.loc 1 114 0
 181 0030 0021     		movs	r1, #0
 182 0032 0A48     		ldr	r0, .L32
 183 0034 FFF7FEFF 		bl	HAL_I2CEx_ConfigDigitalFilter
 184              	.LVL8:
 185 0038 00B9     		cbnz	r0, .L31
 115:Src/i2c.c     ****     {
 116:Src/i2c.c     ****       _Error_Handler(__FILE__, __LINE__);
 117:Src/i2c.c     ****     }
 118:Src/i2c.c     **** 
 119:Src/i2c.c     **** }
 186              		.loc 1 119 0
 187 003a 38BD     		pop	{r3, r4, r5, pc}
 188              	.L31:
 116:Src/i2c.c     ****     }
 189              		.loc 1 116 0
 190 003c 7421     		movs	r1, #116
 191 003e 0A48     		ldr	r0, .L32+12
 192              		.loc 1 119 0
 193 0040 BDE83840 		pop	{r3, r4, r5, lr}
 194              	.LCFI4:
 195              		.cfi_remember_state
 196              		.cfi_restore 14
 197              		.cfi_restore 5
 198              		.cfi_restore 4
 199              		.cfi_restore 3
 200              		.cfi_def_cfa_offset 0
 116:Src/i2c.c     ****     }
 201              		.loc 1 116 0
 202 0044 FFF7FEBF 		b	_Error_Handler
 203              	.LVL9:
 204              	.L30:
 205              	.LCFI5:
 206              		.cfi_restore_state
ARM GAS  /tmp/ccpLg1DU.s 			page 7


 109:Src/i2c.c     ****     }
 207              		.loc 1 109 0
 208 0048 6D21     		movs	r1, #109
 209 004a 0748     		ldr	r0, .L32+12
 210 004c FFF7FEFF 		bl	_Error_Handler
 211              	.LVL10:
 212 0050 EEE7     		b	.L20
 213              	.L29:
 102:Src/i2c.c     ****     }
 214              		.loc 1 102 0
 215 0052 6621     		movs	r1, #102
 216 0054 0448     		ldr	r0, .L32+12
 217 0056 FFF7FEFF 		bl	_Error_Handler
 218              	.LVL11:
 219 005a E4E7     		b	.L19
 220              	.L33:
 221              		.align	2
 222              	.L32:
 223 005c 00000000 		.word	hi2c2
 224 0060 00580040 		.word	1073764352
 225 0064 68474020 		.word	541083496
 226 0068 00000000 		.word	.LC0
 227              		.cfi_endproc
 228              	.LFE139:
 230              		.section	.text.MX_I2C3_Init,"ax",%progbits
 231              		.align	1
 232              		.p2align 2,,3
 233              		.global	MX_I2C3_Init
 234              		.syntax unified
 235              		.thumb
 236              		.thumb_func
 237              		.fpu fpv4-sp-d16
 239              	MX_I2C3_Init:
 240              	.LFB140:
 120:Src/i2c.c     **** /* I2C3 init function */
 121:Src/i2c.c     **** void MX_I2C3_Init(void)
 122:Src/i2c.c     **** {
 241              		.loc 1 122 0
 242              		.cfi_startproc
 243              		@ args = 0, pretend = 0, frame = 0
 244              		@ frame_needed = 0, uses_anonymous_args = 0
 245 0000 38B5     		push	{r3, r4, r5, lr}
 246              	.LCFI6:
 247              		.cfi_def_cfa_offset 16
 248              		.cfi_offset 3, -16
 249              		.cfi_offset 4, -12
 250              		.cfi_offset 5, -8
 251              		.cfi_offset 14, -4
 123:Src/i2c.c     **** 
 124:Src/i2c.c     ****   hi2c3.Instance = I2C3;
 252              		.loc 1 124 0
 253 0002 164B     		ldr	r3, .L48
 125:Src/i2c.c     ****   hi2c3.Init.Timing = 0x20404768;
 126:Src/i2c.c     ****   hi2c3.Init.OwnAddress1 = 0;
 254              		.loc 1 126 0
 255 0004 0022     		movs	r2, #0
 127:Src/i2c.c     ****   hi2c3.Init.AddressingMode = I2C_ADDRESSINGMODE_7BIT;
ARM GAS  /tmp/ccpLg1DU.s 			page 8


 256              		.loc 1 127 0
 257 0006 0121     		movs	r1, #1
 124:Src/i2c.c     ****   hi2c3.Init.Timing = 0x20404768;
 258              		.loc 1 124 0
 259 0008 154D     		ldr	r5, .L48+4
 125:Src/i2c.c     ****   hi2c3.Init.Timing = 0x20404768;
 260              		.loc 1 125 0
 261 000a 164C     		ldr	r4, .L48+8
 128:Src/i2c.c     ****   hi2c3.Init.DualAddressMode = I2C_DUALADDRESS_DISABLE;
 129:Src/i2c.c     ****   hi2c3.Init.OwnAddress2 = 0;
 130:Src/i2c.c     ****   hi2c3.Init.OwnAddress2Masks = I2C_OA2_NOMASK;
 131:Src/i2c.c     ****   hi2c3.Init.GeneralCallMode = I2C_GENERALCALL_DISABLE;
 132:Src/i2c.c     ****   hi2c3.Init.NoStretchMode = I2C_NOSTRETCH_DISABLE;
 133:Src/i2c.c     ****   if (HAL_I2C_Init(&hi2c3) != HAL_OK)
 262              		.loc 1 133 0
 263 000c 1846     		mov	r0, r3
 132:Src/i2c.c     ****   if (HAL_I2C_Init(&hi2c3) != HAL_OK)
 264              		.loc 1 132 0
 265 000e 1A62     		str	r2, [r3, #32]
 125:Src/i2c.c     ****   hi2c3.Init.OwnAddress1 = 0;
 266              		.loc 1 125 0
 267 0010 C3E90054 		strd	r5, r4, [r3]
 126:Src/i2c.c     ****   hi2c3.Init.AddressingMode = I2C_ADDRESSINGMODE_7BIT;
 268              		.loc 1 126 0
 269 0014 C3E90221 		strd	r2, r1, [r3, #8]
 129:Src/i2c.c     ****   hi2c3.Init.OwnAddress2Masks = I2C_OA2_NOMASK;
 270              		.loc 1 129 0
 271 0018 C3E90422 		strd	r2, r2, [r3, #16]
 131:Src/i2c.c     ****   hi2c3.Init.NoStretchMode = I2C_NOSTRETCH_DISABLE;
 272              		.loc 1 131 0
 273 001c C3E90622 		strd	r2, r2, [r3, #24]
 274              		.loc 1 133 0
 275 0020 FFF7FEFF 		bl	HAL_I2C_Init
 276              	.LVL12:
 277 0024 A8B9     		cbnz	r0, .L45
 278              	.L35:
 134:Src/i2c.c     ****   {
 135:Src/i2c.c     ****     _Error_Handler(__FILE__, __LINE__);
 136:Src/i2c.c     ****   }
 137:Src/i2c.c     **** 
 138:Src/i2c.c     ****     /**Configure Analogue filter 
 139:Src/i2c.c     ****     */
 140:Src/i2c.c     ****   if (HAL_I2CEx_ConfigAnalogFilter(&hi2c3, I2C_ANALOGFILTER_ENABLE) != HAL_OK)
 279              		.loc 1 140 0
 280 0026 0021     		movs	r1, #0
 281 0028 0C48     		ldr	r0, .L48
 282 002a FFF7FEFF 		bl	HAL_I2CEx_ConfigAnalogFilter
 283              	.LVL13:
 284 002e 58B9     		cbnz	r0, .L46
 285              	.L36:
 141:Src/i2c.c     ****   {
 142:Src/i2c.c     ****     _Error_Handler(__FILE__, __LINE__);
 143:Src/i2c.c     ****   }
 144:Src/i2c.c     **** 
 145:Src/i2c.c     ****     /**Configure Digital filter 
 146:Src/i2c.c     ****     */
 147:Src/i2c.c     ****   if (HAL_I2CEx_ConfigDigitalFilter(&hi2c3, 0) != HAL_OK)
ARM GAS  /tmp/ccpLg1DU.s 			page 9


 286              		.loc 1 147 0
 287 0030 0021     		movs	r1, #0
 288 0032 0A48     		ldr	r0, .L48
 289 0034 FFF7FEFF 		bl	HAL_I2CEx_ConfigDigitalFilter
 290              	.LVL14:
 291 0038 00B9     		cbnz	r0, .L47
 148:Src/i2c.c     ****   {
 149:Src/i2c.c     ****     _Error_Handler(__FILE__, __LINE__);
 150:Src/i2c.c     ****   }
 151:Src/i2c.c     **** 
 152:Src/i2c.c     **** }
 292              		.loc 1 152 0
 293 003a 38BD     		pop	{r3, r4, r5, pc}
 294              	.L47:
 149:Src/i2c.c     ****   }
 295              		.loc 1 149 0
 296 003c 9521     		movs	r1, #149
 297 003e 0A48     		ldr	r0, .L48+12
 298              		.loc 1 152 0
 299 0040 BDE83840 		pop	{r3, r4, r5, lr}
 300              	.LCFI7:
 301              		.cfi_remember_state
 302              		.cfi_restore 14
 303              		.cfi_restore 5
 304              		.cfi_restore 4
 305              		.cfi_restore 3
 306              		.cfi_def_cfa_offset 0
 149:Src/i2c.c     ****   }
 307              		.loc 1 149 0
 308 0044 FFF7FEBF 		b	_Error_Handler
 309              	.LVL15:
 310              	.L46:
 311              	.LCFI8:
 312              		.cfi_restore_state
 142:Src/i2c.c     ****   }
 313              		.loc 1 142 0
 314 0048 8E21     		movs	r1, #142
 315 004a 0748     		ldr	r0, .L48+12
 316 004c FFF7FEFF 		bl	_Error_Handler
 317              	.LVL16:
 318 0050 EEE7     		b	.L36
 319              	.L45:
 135:Src/i2c.c     ****   }
 320              		.loc 1 135 0
 321 0052 8721     		movs	r1, #135
 322 0054 0448     		ldr	r0, .L48+12
 323 0056 FFF7FEFF 		bl	_Error_Handler
 324              	.LVL17:
 325 005a E4E7     		b	.L35
 326              	.L49:
 327              		.align	2
 328              	.L48:
 329 005c 00000000 		.word	hi2c3
 330 0060 005C0040 		.word	1073765376
 331 0064 68474020 		.word	541083496
 332 0068 00000000 		.word	.LC0
 333              		.cfi_endproc
ARM GAS  /tmp/ccpLg1DU.s 			page 10


 334              	.LFE140:
 336              		.section	.text.MX_I2C4_Init,"ax",%progbits
 337              		.align	1
 338              		.p2align 2,,3
 339              		.global	MX_I2C4_Init
 340              		.syntax unified
 341              		.thumb
 342              		.thumb_func
 343              		.fpu fpv4-sp-d16
 345              	MX_I2C4_Init:
 346              	.LFB141:
 153:Src/i2c.c     **** /* I2C4 init function */
 154:Src/i2c.c     **** void MX_I2C4_Init(void)
 155:Src/i2c.c     **** {
 347              		.loc 1 155 0
 348              		.cfi_startproc
 349              		@ args = 0, pretend = 0, frame = 0
 350              		@ frame_needed = 0, uses_anonymous_args = 0
 351 0000 38B5     		push	{r3, r4, r5, lr}
 352              	.LCFI9:
 353              		.cfi_def_cfa_offset 16
 354              		.cfi_offset 3, -16
 355              		.cfi_offset 4, -12
 356              		.cfi_offset 5, -8
 357              		.cfi_offset 14, -4
 156:Src/i2c.c     **** 
 157:Src/i2c.c     ****     hi2c4.Instance = I2C4;
 358              		.loc 1 157 0
 359 0002 164B     		ldr	r3, .L64
 158:Src/i2c.c     ****     hi2c4.Init.Timing = 0xF000FFFF;
 159:Src/i2c.c     ****     hi2c4.Init.OwnAddress1 = 0;
 360              		.loc 1 159 0
 361 0004 0022     		movs	r2, #0
 160:Src/i2c.c     ****     hi2c4.Init.AddressingMode = I2C_ADDRESSINGMODE_7BIT;
 362              		.loc 1 160 0
 363 0006 0121     		movs	r1, #1
 157:Src/i2c.c     ****     hi2c4.Init.Timing = 0xF000FFFF;
 364              		.loc 1 157 0
 365 0008 154D     		ldr	r5, .L64+4
 158:Src/i2c.c     ****     hi2c4.Init.Timing = 0xF000FFFF;
 366              		.loc 1 158 0
 367 000a 164C     		ldr	r4, .L64+8
 161:Src/i2c.c     ****     hi2c4.Init.DualAddressMode = I2C_DUALADDRESS_DISABLE;
 162:Src/i2c.c     ****     hi2c4.Init.OwnAddress2 = 0;
 163:Src/i2c.c     ****     hi2c4.Init.OwnAddress2Masks = I2C_OA2_NOMASK;
 164:Src/i2c.c     ****     hi2c4.Init.GeneralCallMode = I2C_GENERALCALL_DISABLE;
 165:Src/i2c.c     ****     hi2c4.Init.NoStretchMode = I2C_NOSTRETCH_DISABLE;
 166:Src/i2c.c     ****     if (HAL_I2C_Init(&hi2c4) != HAL_OK)
 368              		.loc 1 166 0
 369 000c 1846     		mov	r0, r3
 165:Src/i2c.c     ****     if (HAL_I2C_Init(&hi2c4) != HAL_OK)
 370              		.loc 1 165 0
 371 000e 1A62     		str	r2, [r3, #32]
 158:Src/i2c.c     ****     hi2c4.Init.OwnAddress1 = 0;
 372              		.loc 1 158 0
 373 0010 C3E90054 		strd	r5, r4, [r3]
 159:Src/i2c.c     ****     hi2c4.Init.AddressingMode = I2C_ADDRESSINGMODE_7BIT;
ARM GAS  /tmp/ccpLg1DU.s 			page 11


 374              		.loc 1 159 0
 375 0014 C3E90221 		strd	r2, r1, [r3, #8]
 162:Src/i2c.c     ****     hi2c4.Init.OwnAddress2Masks = I2C_OA2_NOMASK;
 376              		.loc 1 162 0
 377 0018 C3E90422 		strd	r2, r2, [r3, #16]
 164:Src/i2c.c     ****     hi2c4.Init.NoStretchMode = I2C_NOSTRETCH_DISABLE;
 378              		.loc 1 164 0
 379 001c C3E90622 		strd	r2, r2, [r3, #24]
 380              		.loc 1 166 0
 381 0020 FFF7FEFF 		bl	HAL_I2C_Init
 382              	.LVL18:
 383 0024 A8B9     		cbnz	r0, .L61
 384              	.L51:
 167:Src/i2c.c     ****     {
 168:Src/i2c.c     ****       _Error_Handler(__FILE__, __LINE__);
 169:Src/i2c.c     ****     }
 170:Src/i2c.c     **** 
 171:Src/i2c.c     ****       /**Configure Analogue filter
 172:Src/i2c.c     ****       */
 173:Src/i2c.c     ****     if (HAL_I2CEx_ConfigAnalogFilter(&hi2c4, I2C_ANALOGFILTER_ENABLE) != HAL_OK)
 385              		.loc 1 173 0
 386 0026 0021     		movs	r1, #0
 387 0028 0C48     		ldr	r0, .L64
 388 002a FFF7FEFF 		bl	HAL_I2CEx_ConfigAnalogFilter
 389              	.LVL19:
 390 002e 58B9     		cbnz	r0, .L62
 391              	.L52:
 174:Src/i2c.c     ****     {
 175:Src/i2c.c     ****       _Error_Handler(__FILE__, __LINE__);
 176:Src/i2c.c     ****     }
 177:Src/i2c.c     **** 
 178:Src/i2c.c     ****       /**Configure Digital filter
 179:Src/i2c.c     ****       */
 180:Src/i2c.c     ****     if (HAL_I2CEx_ConfigDigitalFilter(&hi2c4, 0) != HAL_OK)
 392              		.loc 1 180 0
 393 0030 0021     		movs	r1, #0
 394 0032 0A48     		ldr	r0, .L64
 395 0034 FFF7FEFF 		bl	HAL_I2CEx_ConfigDigitalFilter
 396              	.LVL20:
 397 0038 00B9     		cbnz	r0, .L63
 181:Src/i2c.c     ****     {
 182:Src/i2c.c     ****       _Error_Handler(__FILE__, __LINE__);
 183:Src/i2c.c     ****     }
 184:Src/i2c.c     **** 
 185:Src/i2c.c     **** }
 398              		.loc 1 185 0
 399 003a 38BD     		pop	{r3, r4, r5, pc}
 400              	.L63:
 182:Src/i2c.c     ****     }
 401              		.loc 1 182 0
 402 003c B621     		movs	r1, #182
 403 003e 0A48     		ldr	r0, .L64+12
 404              		.loc 1 185 0
 405 0040 BDE83840 		pop	{r3, r4, r5, lr}
 406              	.LCFI10:
 407              		.cfi_remember_state
 408              		.cfi_restore 14
ARM GAS  /tmp/ccpLg1DU.s 			page 12


 409              		.cfi_restore 5
 410              		.cfi_restore 4
 411              		.cfi_restore 3
 412              		.cfi_def_cfa_offset 0
 182:Src/i2c.c     ****     }
 413              		.loc 1 182 0
 414 0044 FFF7FEBF 		b	_Error_Handler
 415              	.LVL21:
 416              	.L62:
 417              	.LCFI11:
 418              		.cfi_restore_state
 175:Src/i2c.c     ****     }
 419              		.loc 1 175 0
 420 0048 AF21     		movs	r1, #175
 421 004a 0748     		ldr	r0, .L64+12
 422 004c FFF7FEFF 		bl	_Error_Handler
 423              	.LVL22:
 424 0050 EEE7     		b	.L52
 425              	.L61:
 168:Src/i2c.c     ****     }
 426              		.loc 1 168 0
 427 0052 A821     		movs	r1, #168
 428 0054 0448     		ldr	r0, .L64+12
 429 0056 FFF7FEFF 		bl	_Error_Handler
 430              	.LVL23:
 431 005a E4E7     		b	.L51
 432              	.L65:
 433              		.align	2
 434              	.L64:
 435 005c 00000000 		.word	hi2c4
 436 0060 00600040 		.word	1073766400
 437 0064 FFFF00F0 		.word	-268369921
 438 0068 00000000 		.word	.LC0
 439              		.cfi_endproc
 440              	.LFE141:
 442              		.section	.text.HAL_I2C_MspInit,"ax",%progbits
 443              		.align	1
 444              		.p2align 2,,3
 445              		.global	HAL_I2C_MspInit
 446              		.syntax unified
 447              		.thumb
 448              		.thumb_func
 449              		.fpu fpv4-sp-d16
 451              	HAL_I2C_MspInit:
 452              	.LFB142:
 186:Src/i2c.c     **** 
 187:Src/i2c.c     **** void HAL_I2C_MspInit(I2C_HandleTypeDef* i2cHandle)
 188:Src/i2c.c     **** {
 453              		.loc 1 188 0
 454              		.cfi_startproc
 455              		@ args = 0, pretend = 0, frame = 40
 456              		@ frame_needed = 0, uses_anonymous_args = 0
 457              	.LVL24:
 189:Src/i2c.c     **** 
 190:Src/i2c.c     ****   GPIO_InitTypeDef GPIO_InitStruct;
 191:Src/i2c.c     ****   if(i2cHandle->Instance==I2C1)
 458              		.loc 1 191 0
ARM GAS  /tmp/ccpLg1DU.s 			page 13


 459 0000 0368     		ldr	r3, [r0]
 460 0002 454A     		ldr	r2, .L76
 461 0004 9342     		cmp	r3, r2
 188:Src/i2c.c     **** 
 462              		.loc 1 188 0
 463 0006 F0B5     		push	{r4, r5, r6, r7, lr}
 464              	.LCFI12:
 465              		.cfi_def_cfa_offset 20
 466              		.cfi_offset 4, -20
 467              		.cfi_offset 5, -16
 468              		.cfi_offset 6, -12
 469              		.cfi_offset 7, -8
 470              		.cfi_offset 14, -4
 471 0008 8BB0     		sub	sp, sp, #44
 472              	.LCFI13:
 473              		.cfi_def_cfa_offset 64
 474              		.loc 1 191 0
 475 000a 25D0     		beq	.L72
 192:Src/i2c.c     ****   {
 193:Src/i2c.c     ****   /* USER CODE BEGIN I2C1_MspInit 0 */
 194:Src/i2c.c     **** 
 195:Src/i2c.c     ****   /* USER CODE END I2C1_MspInit 0 */
 196:Src/i2c.c     ****   
 197:Src/i2c.c     ****     /**I2C1 GPIO Configuration    
 198:Src/i2c.c     ****     PB8     ------> I2C1_SCL
 199:Src/i2c.c     ****     PB9     ------> I2C1_SDA 
 200:Src/i2c.c     ****     */
 201:Src/i2c.c     ****     GPIO_InitStruct.Pin = GPIO_PIN_8|GPIO_PIN_9;
 202:Src/i2c.c     ****     GPIO_InitStruct.Mode = GPIO_MODE_AF_OD;
 203:Src/i2c.c     ****     GPIO_InitStruct.Pull = GPIO_PULLUP;
 204:Src/i2c.c     ****     GPIO_InitStruct.Speed = GPIO_SPEED_FREQ_VERY_HIGH;
 205:Src/i2c.c     ****     GPIO_InitStruct.Alternate = GPIO_AF4_I2C1;
 206:Src/i2c.c     ****     HAL_GPIO_Init(GPIOB, &GPIO_InitStruct);
 207:Src/i2c.c     **** 
 208:Src/i2c.c     ****     /* I2C1 clock enable */
 209:Src/i2c.c     ****     __HAL_RCC_I2C1_CLK_ENABLE();
 210:Src/i2c.c     ****   /* USER CODE BEGIN I2C1_MspInit 1 */
 211:Src/i2c.c     **** 
 212:Src/i2c.c     ****   /* USER CODE END I2C1_MspInit 1 */
 213:Src/i2c.c     ****   }
 214:Src/i2c.c     ****   else if(i2cHandle->Instance==I2C2)
 476              		.loc 1 214 0
 477 000c 434A     		ldr	r2, .L76+4
 478 000e 9342     		cmp	r3, r2
 479 0010 3DD0     		beq	.L73
 215:Src/i2c.c     ****   {
 216:Src/i2c.c     ****   /* USER CODE BEGIN I2C2_MspInit 0 */
 217:Src/i2c.c     **** 
 218:Src/i2c.c     ****   /* USER CODE END I2C2_MspInit 0 */
 219:Src/i2c.c     ****   
 220:Src/i2c.c     ****     /**I2C2 GPIO Configuration    
 221:Src/i2c.c     ****     PB10     ------> I2C2_SCL
 222:Src/i2c.c     ****     PB11     ------> I2C2_SDA 
 223:Src/i2c.c     ****     */
 224:Src/i2c.c     ****     GPIO_InitStruct.Pin = GPIO_PIN_10|GPIO_PIN_11;
 225:Src/i2c.c     ****     GPIO_InitStruct.Mode = GPIO_MODE_AF_OD;
 226:Src/i2c.c     ****     GPIO_InitStruct.Pull = GPIO_PULLUP;
ARM GAS  /tmp/ccpLg1DU.s 			page 14


 227:Src/i2c.c     ****     GPIO_InitStruct.Speed = GPIO_SPEED_FREQ_VERY_HIGH;
 228:Src/i2c.c     ****     GPIO_InitStruct.Alternate = GPIO_AF4_I2C2;
 229:Src/i2c.c     ****     HAL_GPIO_Init(GPIOB, &GPIO_InitStruct);
 230:Src/i2c.c     **** 
 231:Src/i2c.c     ****     /* I2C2 clock enable */
 232:Src/i2c.c     ****     __HAL_RCC_I2C2_CLK_ENABLE();
 233:Src/i2c.c     ****   /* USER CODE BEGIN I2C2_MspInit 1 */
 234:Src/i2c.c     **** 
 235:Src/i2c.c     ****   /* USER CODE END I2C2_MspInit 1 */
 236:Src/i2c.c     ****   }
 237:Src/i2c.c     ****   else if(i2cHandle->Instance==I2C3)
 480              		.loc 1 237 0
 481 0012 434A     		ldr	r2, .L76+8
 482 0014 9342     		cmp	r3, r2
 483 0016 58D0     		beq	.L74
 238:Src/i2c.c     ****   {
 239:Src/i2c.c     ****   /* USER CODE BEGIN I2C3_MspInit 0 */
 240:Src/i2c.c     **** 
 241:Src/i2c.c     ****   /* USER CODE END I2C3_MspInit 0 */
 242:Src/i2c.c     ****   
 243:Src/i2c.c     ****     /**I2C3 GPIO Configuration    
 244:Src/i2c.c     ****     PC9     ------> I2C3_SDA
 245:Src/i2c.c     ****     PA8     ------> I2C3_SCL 
 246:Src/i2c.c     ****     */
 247:Src/i2c.c     ****     GPIO_InitStruct.Pin = GPIO_PIN_9;
 248:Src/i2c.c     ****     GPIO_InitStruct.Mode = GPIO_MODE_AF_OD;
 249:Src/i2c.c     ****     GPIO_InitStruct.Pull = GPIO_PULLUP;
 250:Src/i2c.c     ****     GPIO_InitStruct.Speed = GPIO_SPEED_FREQ_VERY_HIGH;
 251:Src/i2c.c     ****     GPIO_InitStruct.Alternate = GPIO_AF4_I2C3;
 252:Src/i2c.c     ****     HAL_GPIO_Init(GPIOC, &GPIO_InitStruct);
 253:Src/i2c.c     **** 
 254:Src/i2c.c     ****     GPIO_InitStruct.Pin = GPIO_PIN_8;
 255:Src/i2c.c     ****     GPIO_InitStruct.Mode = GPIO_MODE_AF_OD;
 256:Src/i2c.c     ****     GPIO_InitStruct.Pull = GPIO_PULLUP;
 257:Src/i2c.c     ****     GPIO_InitStruct.Speed = GPIO_SPEED_FREQ_VERY_HIGH;
 258:Src/i2c.c     ****     GPIO_InitStruct.Alternate = GPIO_AF4_I2C3;
 259:Src/i2c.c     ****     HAL_GPIO_Init(GPIOA, &GPIO_InitStruct);
 260:Src/i2c.c     **** 
 261:Src/i2c.c     ****     /* I2C3 clock enable */
 262:Src/i2c.c     ****     __HAL_RCC_I2C3_CLK_ENABLE();
 263:Src/i2c.c     ****   /* USER CODE BEGIN I2C3_MspInit 1 */
 264:Src/i2c.c     **** 
 265:Src/i2c.c     ****   /* USER CODE END I2C3_MspInit 1 */
 266:Src/i2c.c     ****   }
 267:Src/i2c.c     ****   else if(i2cHandle->Instance==I2C4)
 484              		.loc 1 267 0
 485 0018 424A     		ldr	r2, .L76+12
 486 001a 9342     		cmp	r3, r2
 487 001c 01D0     		beq	.L75
 268:Src/i2c.c     ****   {
 269:Src/i2c.c     ****   /* USER CODE BEGIN I2C4_MspInit 0 */
 270:Src/i2c.c     **** 
 271:Src/i2c.c     ****   /* USER CODE END I2C4_MspInit 0 */
 272:Src/i2c.c     ****   
 273:Src/i2c.c     ****     /**I2C4 GPIO Configuration    
 274:Src/i2c.c     ****     PF14     ------> I2C4_SCL
 275:Src/i2c.c     ****     PF15     ------> I2C4_SDA 
ARM GAS  /tmp/ccpLg1DU.s 			page 15


 276:Src/i2c.c     ****     */
 277:Src/i2c.c     ****     GPIO_InitStruct.Pin = GPIO_PIN_14|GPIO_PIN_15;
 278:Src/i2c.c     ****     GPIO_InitStruct.Mode = GPIO_MODE_AF_OD;
 279:Src/i2c.c     ****     GPIO_InitStruct.Pull = GPIO_PULLUP;
 280:Src/i2c.c     ****     GPIO_InitStruct.Speed = GPIO_SPEED_FREQ_VERY_HIGH;
 281:Src/i2c.c     ****     GPIO_InitStruct.Alternate = GPIO_AF4_I2C4;
 282:Src/i2c.c     ****     HAL_GPIO_Init(GPIOF, &GPIO_InitStruct);
 283:Src/i2c.c     **** 
 284:Src/i2c.c     ****     /* I2C4 clock enable */
 285:Src/i2c.c     ****     __HAL_RCC_I2C4_CLK_ENABLE();
 286:Src/i2c.c     ****   /* USER CODE BEGIN I2C4_MspInit 1 */
 287:Src/i2c.c     **** 
 288:Src/i2c.c     ****   /* USER CODE END I2C4_MspInit 1 */
 289:Src/i2c.c     ****   }
 290:Src/i2c.c     **** }
 488              		.loc 1 290 0
 489 001e 0BB0     		add	sp, sp, #44
 490              	.LCFI14:
 491              		.cfi_remember_state
 492              		.cfi_def_cfa_offset 20
 493              		@ sp needed
 494 0020 F0BD     		pop	{r4, r5, r6, r7, pc}
 495              	.L75:
 496              	.LCFI15:
 497              		.cfi_restore_state
 277:Src/i2c.c     ****     GPIO_InitStruct.Mode = GPIO_MODE_AF_OD;
 498              		.loc 1 277 0
 499 0022 4FF44040 		mov	r0, #49152
 500              	.LVL25:
 280:Src/i2c.c     ****     GPIO_InitStruct.Alternate = GPIO_AF4_I2C4;
 501              		.loc 1 280 0
 502 0026 0322     		movs	r2, #3
 281:Src/i2c.c     ****     HAL_GPIO_Init(GPIOF, &GPIO_InitStruct);
 503              		.loc 1 281 0
 504 0028 0423     		movs	r3, #4
 278:Src/i2c.c     ****     GPIO_InitStruct.Pull = GPIO_PULLUP;
 505              		.loc 1 278 0
 506 002a 1225     		movs	r5, #18
 279:Src/i2c.c     ****     GPIO_InitStruct.Speed = GPIO_SPEED_FREQ_VERY_HIGH;
 507              		.loc 1 279 0
 508 002c 0124     		movs	r4, #1
 277:Src/i2c.c     ****     GPIO_InitStruct.Mode = GPIO_MODE_AF_OD;
 509              		.loc 1 277 0
 510 002e 0590     		str	r0, [sp, #20]
 282:Src/i2c.c     **** 
 511              		.loc 1 282 0
 512 0030 05A9     		add	r1, sp, #20
 513 0032 3D48     		ldr	r0, .L76+16
 281:Src/i2c.c     ****     HAL_GPIO_Init(GPIOF, &GPIO_InitStruct);
 514              		.loc 1 281 0
 515 0034 CDE90823 		strd	r2, r3, [sp, #32]
 279:Src/i2c.c     ****     GPIO_InitStruct.Speed = GPIO_SPEED_FREQ_VERY_HIGH;
 516              		.loc 1 279 0
 517 0038 CDE90654 		strd	r5, r4, [sp, #24]
 282:Src/i2c.c     **** 
 518              		.loc 1 282 0
 519 003c FFF7FEFF 		bl	HAL_GPIO_Init
ARM GAS  /tmp/ccpLg1DU.s 			page 16


 520              	.LVL26:
 521              	.LBB2:
 285:Src/i2c.c     ****   /* USER CODE BEGIN I2C4_MspInit 1 */
 522              		.loc 1 285 0
 523 0040 3A4B     		ldr	r3, .L76+20
 524 0042 1A6C     		ldr	r2, [r3, #64]
 525 0044 42F08072 		orr	r2, r2, #16777216
 526 0048 1A64     		str	r2, [r3, #64]
 527 004a 1B6C     		ldr	r3, [r3, #64]
 528 004c 03F08073 		and	r3, r3, #16777216
 529 0050 0493     		str	r3, [sp, #16]
 530 0052 049B     		ldr	r3, [sp, #16]
 531              	.LBE2:
 532              		.loc 1 290 0
 533 0054 0BB0     		add	sp, sp, #44
 534              	.LCFI16:
 535              		.cfi_remember_state
 536              		.cfi_def_cfa_offset 20
 537              		@ sp needed
 538 0056 F0BD     		pop	{r4, r5, r6, r7, pc}
 539              	.LVL27:
 540              	.L72:
 541              	.LCFI17:
 542              		.cfi_restore_state
 201:Src/i2c.c     ****     GPIO_InitStruct.Mode = GPIO_MODE_AF_OD;
 543              		.loc 1 201 0
 544 0058 4FF44070 		mov	r0, #768
 545              	.LVL28:
 204:Src/i2c.c     ****     GPIO_InitStruct.Alternate = GPIO_AF4_I2C1;
 546              		.loc 1 204 0
 547 005c 0322     		movs	r2, #3
 205:Src/i2c.c     ****     HAL_GPIO_Init(GPIOB, &GPIO_InitStruct);
 548              		.loc 1 205 0
 549 005e 0423     		movs	r3, #4
 202:Src/i2c.c     ****     GPIO_InitStruct.Pull = GPIO_PULLUP;
 550              		.loc 1 202 0
 551 0060 1225     		movs	r5, #18
 203:Src/i2c.c     ****     GPIO_InitStruct.Speed = GPIO_SPEED_FREQ_VERY_HIGH;
 552              		.loc 1 203 0
 553 0062 0124     		movs	r4, #1
 201:Src/i2c.c     ****     GPIO_InitStruct.Mode = GPIO_MODE_AF_OD;
 554              		.loc 1 201 0
 555 0064 0590     		str	r0, [sp, #20]
 206:Src/i2c.c     **** 
 556              		.loc 1 206 0
 557 0066 05A9     		add	r1, sp, #20
 558 0068 3148     		ldr	r0, .L76+24
 205:Src/i2c.c     ****     HAL_GPIO_Init(GPIOB, &GPIO_InitStruct);
 559              		.loc 1 205 0
 560 006a CDE90823 		strd	r2, r3, [sp, #32]
 203:Src/i2c.c     ****     GPIO_InitStruct.Speed = GPIO_SPEED_FREQ_VERY_HIGH;
 561              		.loc 1 203 0
 562 006e CDE90654 		strd	r5, r4, [sp, #24]
 206:Src/i2c.c     **** 
 563              		.loc 1 206 0
 564 0072 FFF7FEFF 		bl	HAL_GPIO_Init
 565              	.LVL29:
ARM GAS  /tmp/ccpLg1DU.s 			page 17


 566              	.LBB3:
 209:Src/i2c.c     ****   /* USER CODE BEGIN I2C1_MspInit 1 */
 567              		.loc 1 209 0
 568 0076 2D4B     		ldr	r3, .L76+20
 569 0078 1A6C     		ldr	r2, [r3, #64]
 570 007a 42F40012 		orr	r2, r2, #2097152
 571 007e 1A64     		str	r2, [r3, #64]
 572 0080 1B6C     		ldr	r3, [r3, #64]
 573 0082 03F40013 		and	r3, r3, #2097152
 574 0086 0193     		str	r3, [sp, #4]
 575 0088 019B     		ldr	r3, [sp, #4]
 576              	.LBE3:
 577              		.loc 1 290 0
 578 008a 0BB0     		add	sp, sp, #44
 579              	.LCFI18:
 580              		.cfi_remember_state
 581              		.cfi_def_cfa_offset 20
 582              		@ sp needed
 583 008c F0BD     		pop	{r4, r5, r6, r7, pc}
 584              	.LVL30:
 585              	.L73:
 586              	.LCFI19:
 587              		.cfi_restore_state
 224:Src/i2c.c     ****     GPIO_InitStruct.Mode = GPIO_MODE_AF_OD;
 588              		.loc 1 224 0
 589 008e 4FF44060 		mov	r0, #3072
 590              	.LVL31:
 227:Src/i2c.c     ****     GPIO_InitStruct.Alternate = GPIO_AF4_I2C2;
 591              		.loc 1 227 0
 592 0092 0322     		movs	r2, #3
 228:Src/i2c.c     ****     HAL_GPIO_Init(GPIOB, &GPIO_InitStruct);
 593              		.loc 1 228 0
 594 0094 0423     		movs	r3, #4
 225:Src/i2c.c     ****     GPIO_InitStruct.Pull = GPIO_PULLUP;
 595              		.loc 1 225 0
 596 0096 1225     		movs	r5, #18
 224:Src/i2c.c     ****     GPIO_InitStruct.Mode = GPIO_MODE_AF_OD;
 597              		.loc 1 224 0
 598 0098 0590     		str	r0, [sp, #20]
 229:Src/i2c.c     **** 
 599              		.loc 1 229 0
 600 009a 00F18040 		add	r0, r0, #1073741824
 226:Src/i2c.c     ****     GPIO_InitStruct.Speed = GPIO_SPEED_FREQ_VERY_HIGH;
 601              		.loc 1 226 0
 602 009e 0124     		movs	r4, #1
 229:Src/i2c.c     **** 
 603              		.loc 1 229 0
 604 00a0 05A9     		add	r1, sp, #20
 605 00a2 00F5FC30 		add	r0, r0, #129024
 228:Src/i2c.c     ****     HAL_GPIO_Init(GPIOB, &GPIO_InitStruct);
 606              		.loc 1 228 0
 607 00a6 CDE90823 		strd	r2, r3, [sp, #32]
 226:Src/i2c.c     ****     GPIO_InitStruct.Speed = GPIO_SPEED_FREQ_VERY_HIGH;
 608              		.loc 1 226 0
 609 00aa CDE90654 		strd	r5, r4, [sp, #24]
 229:Src/i2c.c     **** 
 610              		.loc 1 229 0
ARM GAS  /tmp/ccpLg1DU.s 			page 18


 611 00ae FFF7FEFF 		bl	HAL_GPIO_Init
 612              	.LVL32:
 613              	.LBB4:
 232:Src/i2c.c     ****   /* USER CODE BEGIN I2C2_MspInit 1 */
 614              		.loc 1 232 0
 615 00b2 1E4B     		ldr	r3, .L76+20
 616 00b4 1A6C     		ldr	r2, [r3, #64]
 617 00b6 42F48002 		orr	r2, r2, #4194304
 618 00ba 1A64     		str	r2, [r3, #64]
 619 00bc 1B6C     		ldr	r3, [r3, #64]
 620 00be 03F48003 		and	r3, r3, #4194304
 621 00c2 0293     		str	r3, [sp, #8]
 622 00c4 029B     		ldr	r3, [sp, #8]
 623              	.LBE4:
 624              		.loc 1 290 0
 625 00c6 0BB0     		add	sp, sp, #44
 626              	.LCFI20:
 627              		.cfi_remember_state
 628              		.cfi_def_cfa_offset 20
 629              		@ sp needed
 630 00c8 F0BD     		pop	{r4, r5, r6, r7, pc}
 631              	.LVL33:
 632              	.L74:
 633              	.LCFI21:
 634              		.cfi_restore_state
 247:Src/i2c.c     ****     GPIO_InitStruct.Mode = GPIO_MODE_AF_OD;
 635              		.loc 1 247 0
 636 00ca 4FF40073 		mov	r3, #512
 248:Src/i2c.c     ****     GPIO_InitStruct.Pull = GPIO_PULLUP;
 637              		.loc 1 248 0
 638 00ce 1227     		movs	r7, #18
 249:Src/i2c.c     ****     GPIO_InitStruct.Speed = GPIO_SPEED_FREQ_VERY_HIGH;
 639              		.loc 1 249 0
 640 00d0 0126     		movs	r6, #1
 250:Src/i2c.c     ****     GPIO_InitStruct.Alternate = GPIO_AF4_I2C3;
 641              		.loc 1 250 0
 642 00d2 0325     		movs	r5, #3
 251:Src/i2c.c     ****     HAL_GPIO_Init(GPIOC, &GPIO_InitStruct);
 643              		.loc 1 251 0
 644 00d4 0424     		movs	r4, #4
 252:Src/i2c.c     **** 
 645              		.loc 1 252 0
 646 00d6 05A9     		add	r1, sp, #20
 647 00d8 1648     		ldr	r0, .L76+28
 648              	.LVL34:
 251:Src/i2c.c     ****     HAL_GPIO_Init(GPIOC, &GPIO_InitStruct);
 649              		.loc 1 251 0
 650 00da 0994     		str	r4, [sp, #36]
 248:Src/i2c.c     ****     GPIO_InitStruct.Pull = GPIO_PULLUP;
 651              		.loc 1 248 0
 652 00dc CDE90537 		strd	r3, r7, [sp, #20]
 250:Src/i2c.c     ****     GPIO_InitStruct.Alternate = GPIO_AF4_I2C3;
 653              		.loc 1 250 0
 654 00e0 CDE90765 		strd	r6, r5, [sp, #28]
 252:Src/i2c.c     **** 
 655              		.loc 1 252 0
 656 00e4 FFF7FEFF 		bl	HAL_GPIO_Init
ARM GAS  /tmp/ccpLg1DU.s 			page 19


 657              	.LVL35:
 254:Src/i2c.c     ****     GPIO_InitStruct.Mode = GPIO_MODE_AF_OD;
 658              		.loc 1 254 0
 659 00e8 4FF48073 		mov	r3, #256
 259:Src/i2c.c     **** 
 660              		.loc 1 259 0
 661 00ec 05A9     		add	r1, sp, #20
 662 00ee 1248     		ldr	r0, .L76+32
 254:Src/i2c.c     ****     GPIO_InitStruct.Mode = GPIO_MODE_AF_OD;
 663              		.loc 1 254 0
 664 00f0 0593     		str	r3, [sp, #20]
 256:Src/i2c.c     ****     GPIO_InitStruct.Speed = GPIO_SPEED_FREQ_VERY_HIGH;
 665              		.loc 1 256 0
 666 00f2 CDE90676 		strd	r7, r6, [sp, #24]
 258:Src/i2c.c     ****     HAL_GPIO_Init(GPIOA, &GPIO_InitStruct);
 667              		.loc 1 258 0
 668 00f6 CDE90854 		strd	r5, r4, [sp, #32]
 259:Src/i2c.c     **** 
 669              		.loc 1 259 0
 670 00fa FFF7FEFF 		bl	HAL_GPIO_Init
 671              	.LVL36:
 672              	.LBB5:
 262:Src/i2c.c     ****   /* USER CODE BEGIN I2C3_MspInit 1 */
 673              		.loc 1 262 0
 674 00fe 0B4B     		ldr	r3, .L76+20
 675 0100 1A6C     		ldr	r2, [r3, #64]
 676 0102 42F40002 		orr	r2, r2, #8388608
 677 0106 1A64     		str	r2, [r3, #64]
 678 0108 1B6C     		ldr	r3, [r3, #64]
 679 010a 03F40003 		and	r3, r3, #8388608
 680 010e 0393     		str	r3, [sp, #12]
 681 0110 039B     		ldr	r3, [sp, #12]
 682              	.LBE5:
 683              		.loc 1 290 0
 684 0112 0BB0     		add	sp, sp, #44
 685              	.LCFI22:
 686              		.cfi_def_cfa_offset 20
 687              		@ sp needed
 688 0114 F0BD     		pop	{r4, r5, r6, r7, pc}
 689              	.L77:
 690 0116 00BF     		.align	2
 691              	.L76:
 692 0118 00540040 		.word	1073763328
 693 011c 00580040 		.word	1073764352
 694 0120 005C0040 		.word	1073765376
 695 0124 00600040 		.word	1073766400
 696 0128 00140240 		.word	1073878016
 697 012c 00380240 		.word	1073887232
 698 0130 00040240 		.word	1073873920
 699 0134 00080240 		.word	1073874944
 700 0138 00000240 		.word	1073872896
 701              		.cfi_endproc
 702              	.LFE142:
 704              		.section	.text.HAL_I2C_MspDeInit,"ax",%progbits
 705              		.align	1
 706              		.p2align 2,,3
 707              		.global	HAL_I2C_MspDeInit
ARM GAS  /tmp/ccpLg1DU.s 			page 20


 708              		.syntax unified
 709              		.thumb
 710              		.thumb_func
 711              		.fpu fpv4-sp-d16
 713              	HAL_I2C_MspDeInit:
 714              	.LFB143:
 291:Src/i2c.c     **** 
 292:Src/i2c.c     **** void HAL_I2C_MspDeInit(I2C_HandleTypeDef* i2cHandle)
 293:Src/i2c.c     **** {
 715              		.loc 1 293 0
 716              		.cfi_startproc
 717              		@ args = 0, pretend = 0, frame = 0
 718              		@ frame_needed = 0, uses_anonymous_args = 0
 719              	.LVL37:
 720 0000 08B5     		push	{r3, lr}
 721              	.LCFI23:
 722              		.cfi_def_cfa_offset 8
 723              		.cfi_offset 3, -8
 724              		.cfi_offset 14, -4
 294:Src/i2c.c     **** 
 295:Src/i2c.c     ****   if(i2cHandle->Instance==I2C1)
 725              		.loc 1 295 0
 726 0002 234A     		ldr	r2, .L88
 727 0004 0368     		ldr	r3, [r0]
 728 0006 9342     		cmp	r3, r2
 729 0008 16D0     		beq	.L84
 296:Src/i2c.c     ****   {
 297:Src/i2c.c     ****   /* USER CODE BEGIN I2C1_MspDeInit 0 */
 298:Src/i2c.c     **** 
 299:Src/i2c.c     ****   /* USER CODE END I2C1_MspDeInit 0 */
 300:Src/i2c.c     ****     /* Peripheral clock disable */
 301:Src/i2c.c     ****     __HAL_RCC_I2C1_CLK_DISABLE();
 302:Src/i2c.c     ****   
 303:Src/i2c.c     ****     /**I2C1 GPIO Configuration    
 304:Src/i2c.c     ****     PB8     ------> I2C1_SCL
 305:Src/i2c.c     ****     PB9     ------> I2C1_SDA 
 306:Src/i2c.c     ****     */
 307:Src/i2c.c     ****     HAL_GPIO_DeInit(GPIOB, GPIO_PIN_8|GPIO_PIN_9);
 308:Src/i2c.c     **** 
 309:Src/i2c.c     ****   /* USER CODE BEGIN I2C1_MspDeInit 1 */
 310:Src/i2c.c     **** 
 311:Src/i2c.c     ****   /* USER CODE END I2C1_MspDeInit 1 */
 312:Src/i2c.c     ****   }
 313:Src/i2c.c     ****   else if(i2cHandle->Instance==I2C2)
 730              		.loc 1 313 0
 731 000a 224A     		ldr	r2, .L88+4
 732 000c 9342     		cmp	r3, r2
 733 000e 20D0     		beq	.L85
 314:Src/i2c.c     ****   {
 315:Src/i2c.c     ****   /* USER CODE BEGIN I2C2_MspDeInit 0 */
 316:Src/i2c.c     **** 
 317:Src/i2c.c     ****   /* USER CODE END I2C2_MspDeInit 0 */
 318:Src/i2c.c     ****     /* Peripheral clock disable */
 319:Src/i2c.c     ****     __HAL_RCC_I2C2_CLK_DISABLE();
 320:Src/i2c.c     ****   
 321:Src/i2c.c     ****     /**I2C2 GPIO Configuration    
 322:Src/i2c.c     ****     PB10     ------> I2C2_SCL
ARM GAS  /tmp/ccpLg1DU.s 			page 21


 323:Src/i2c.c     ****     PB11     ------> I2C2_SDA 
 324:Src/i2c.c     ****     */
 325:Src/i2c.c     ****     HAL_GPIO_DeInit(GPIOB, GPIO_PIN_10|GPIO_PIN_11);
 326:Src/i2c.c     **** 
 327:Src/i2c.c     ****   /* USER CODE BEGIN I2C2_MspDeInit 1 */
 328:Src/i2c.c     **** 
 329:Src/i2c.c     ****   /* USER CODE END I2C2_MspDeInit 1 */
 330:Src/i2c.c     ****   }
 331:Src/i2c.c     ****   else if(i2cHandle->Instance==I2C3)
 734              		.loc 1 331 0
 735 0010 214A     		ldr	r2, .L88+8
 736 0012 9342     		cmp	r3, r2
 737 0014 2AD0     		beq	.L86
 332:Src/i2c.c     ****   {
 333:Src/i2c.c     ****   /* USER CODE BEGIN I2C3_MspDeInit 0 */
 334:Src/i2c.c     **** 
 335:Src/i2c.c     ****   /* USER CODE END I2C3_MspDeInit 0 */
 336:Src/i2c.c     ****     /* Peripheral clock disable */
 337:Src/i2c.c     ****     __HAL_RCC_I2C3_CLK_DISABLE();
 338:Src/i2c.c     ****   
 339:Src/i2c.c     ****     /**I2C3 GPIO Configuration    
 340:Src/i2c.c     ****     PC9     ------> I2C3_SDA
 341:Src/i2c.c     ****     PA8     ------> I2C3_SCL 
 342:Src/i2c.c     ****     */
 343:Src/i2c.c     ****     HAL_GPIO_DeInit(GPIOC, GPIO_PIN_9);
 344:Src/i2c.c     **** 
 345:Src/i2c.c     ****     HAL_GPIO_DeInit(GPIOA, GPIO_PIN_8);
 346:Src/i2c.c     **** 
 347:Src/i2c.c     ****   /* USER CODE BEGIN I2C3_MspDeInit 1 */
 348:Src/i2c.c     **** 
 349:Src/i2c.c     ****   /* USER CODE END I2C3_MspDeInit 1 */
 350:Src/i2c.c     ****   }
 351:Src/i2c.c     ****   else if(i2cHandle->Instance==I2C4)
 738              		.loc 1 351 0
 739 0016 214A     		ldr	r2, .L88+12
 740 0018 9342     		cmp	r3, r2
 741 001a 00D0     		beq	.L87
 352:Src/i2c.c     ****   {
 353:Src/i2c.c     ****   /* USER CODE BEGIN I2C4_MspDeInit 0 */
 354:Src/i2c.c     **** 
 355:Src/i2c.c     ****   /* USER CODE END I2C4_MspDeInit 0 */
 356:Src/i2c.c     ****     /* Peripheral clock disable */
 357:Src/i2c.c     ****     __HAL_RCC_I2C4_CLK_DISABLE();
 358:Src/i2c.c     ****   
 359:Src/i2c.c     ****     /**I2C4 GPIO Configuration    
 360:Src/i2c.c     ****     PF14     ------> I2C4_SCL
 361:Src/i2c.c     ****     PF15     ------> I2C4_SDA 
 362:Src/i2c.c     ****     */
 363:Src/i2c.c     ****     HAL_GPIO_DeInit(GPIOF, GPIO_PIN_14|GPIO_PIN_15);
 364:Src/i2c.c     **** 
 365:Src/i2c.c     ****   /* USER CODE BEGIN I2C4_MspDeInit 1 */
 366:Src/i2c.c     **** 
 367:Src/i2c.c     ****   /* USER CODE END I2C4_MspDeInit 1 */
 368:Src/i2c.c     ****   }
 369:Src/i2c.c     **** } 
 742              		.loc 1 369 0
 743 001c 08BD     		pop	{r3, pc}
ARM GAS  /tmp/ccpLg1DU.s 			page 22


 744              	.L87:
 357:Src/i2c.c     ****   
 745              		.loc 1 357 0
 746 001e 02F5EC32 		add	r2, r2, #120832
 363:Src/i2c.c     **** 
 747              		.loc 1 363 0
 748 0022 4FF44041 		mov	r1, #49152
 749 0026 1E48     		ldr	r0, .L88+16
 750              	.LVL38:
 357:Src/i2c.c     ****   
 751              		.loc 1 357 0
 752 0028 136C     		ldr	r3, [r2, #64]
 753 002a 23F08073 		bic	r3, r3, #16777216
 754 002e 1364     		str	r3, [r2, #64]
 755              		.loc 1 369 0
 756 0030 BDE80840 		pop	{r3, lr}
 757              	.LCFI24:
 758              		.cfi_remember_state
 759              		.cfi_restore 14
 760              		.cfi_restore 3
 761              		.cfi_def_cfa_offset 0
 363:Src/i2c.c     **** 
 762              		.loc 1 363 0
 763 0034 FFF7FEBF 		b	HAL_GPIO_DeInit
 764              	.LVL39:
 765              	.L84:
 766              	.LCFI25:
 767              		.cfi_restore_state
 301:Src/i2c.c     ****   
 768              		.loc 1 301 0
 769 0038 02F5F232 		add	r2, r2, #123904
 307:Src/i2c.c     **** 
 770              		.loc 1 307 0
 771 003c 4FF44071 		mov	r1, #768
 772 0040 1848     		ldr	r0, .L88+20
 773              	.LVL40:
 301:Src/i2c.c     ****   
 774              		.loc 1 301 0
 775 0042 136C     		ldr	r3, [r2, #64]
 776 0044 23F40013 		bic	r3, r3, #2097152
 777 0048 1364     		str	r3, [r2, #64]
 778              		.loc 1 369 0
 779 004a BDE80840 		pop	{r3, lr}
 780              	.LCFI26:
 781              		.cfi_remember_state
 782              		.cfi_restore 14
 783              		.cfi_restore 3
 784              		.cfi_def_cfa_offset 0
 307:Src/i2c.c     **** 
 785              		.loc 1 307 0
 786 004e FFF7FEBF 		b	HAL_GPIO_DeInit
 787              	.LVL41:
 788              	.L85:
 789              	.LCFI27:
 790              		.cfi_restore_state
 319:Src/i2c.c     ****   
 791              		.loc 1 319 0
ARM GAS  /tmp/ccpLg1DU.s 			page 23


 792 0052 02F5F032 		add	r2, r2, #122880
 325:Src/i2c.c     **** 
 793              		.loc 1 325 0
 794 0056 4FF44061 		mov	r1, #3072
 795 005a 1248     		ldr	r0, .L88+20
 796              	.LVL42:
 319:Src/i2c.c     ****   
 797              		.loc 1 319 0
 798 005c 136C     		ldr	r3, [r2, #64]
 799 005e 23F48003 		bic	r3, r3, #4194304
 800 0062 1364     		str	r3, [r2, #64]
 801              		.loc 1 369 0
 802 0064 BDE80840 		pop	{r3, lr}
 803              	.LCFI28:
 804              		.cfi_remember_state
 805              		.cfi_restore 14
 806              		.cfi_restore 3
 807              		.cfi_def_cfa_offset 0
 325:Src/i2c.c     **** 
 808              		.loc 1 325 0
 809 0068 FFF7FEBF 		b	HAL_GPIO_DeInit
 810              	.LVL43:
 811              	.L86:
 812              	.LCFI29:
 813              		.cfi_restore_state
 337:Src/i2c.c     ****   
 814              		.loc 1 337 0
 815 006c 02F5EE32 		add	r2, r2, #121856
 343:Src/i2c.c     **** 
 816              		.loc 1 343 0
 817 0070 4FF40071 		mov	r1, #512
 818 0074 0C48     		ldr	r0, .L88+24
 819              	.LVL44:
 337:Src/i2c.c     ****   
 820              		.loc 1 337 0
 821 0076 136C     		ldr	r3, [r2, #64]
 822 0078 23F40003 		bic	r3, r3, #8388608
 823 007c 1364     		str	r3, [r2, #64]
 343:Src/i2c.c     **** 
 824              		.loc 1 343 0
 825 007e FFF7FEFF 		bl	HAL_GPIO_DeInit
 826              	.LVL45:
 345:Src/i2c.c     **** 
 827              		.loc 1 345 0
 828 0082 4FF48071 		mov	r1, #256
 829 0086 0948     		ldr	r0, .L88+28
 830              		.loc 1 369 0
 831 0088 BDE80840 		pop	{r3, lr}
 832              	.LCFI30:
 833              		.cfi_restore 14
 834              		.cfi_restore 3
 835              		.cfi_def_cfa_offset 0
 345:Src/i2c.c     **** 
 836              		.loc 1 345 0
 837 008c FFF7FEBF 		b	HAL_GPIO_DeInit
 838              	.LVL46:
 839              	.L89:
ARM GAS  /tmp/ccpLg1DU.s 			page 24


 840              		.align	2
 841              	.L88:
 842 0090 00540040 		.word	1073763328
 843 0094 00580040 		.word	1073764352
 844 0098 005C0040 		.word	1073765376
 845 009c 00600040 		.word	1073766400
 846 00a0 00140240 		.word	1073878016
 847 00a4 00040240 		.word	1073873920
 848 00a8 00080240 		.word	1073874944
 849 00ac 00000240 		.word	1073872896
 850              		.cfi_endproc
 851              	.LFE143:
 853              		.comm	hi2c4,76,4
 854              		.comm	hi2c3,76,4
 855              		.comm	hi2c2,76,4
 856              		.comm	hi2c1,76,4
 857              		.comm	UpdateFile,4,4
 858              		.comm	SpiRxData,4,4
 859              		.comm	SpiTxData,4,4
 860              		.section	.rodata.MX_I2C1_Init.str1.4,"aMS",%progbits,1
 861              		.align	2
 862              	.LC0:
 863 0000 5372632F 		.ascii	"Src/i2c.c\000"
 863      6932632E 
 863      6300
 864              		.text
 865              	.Letext0:
 866              		.file 2 "/usr/include/newlib/machine/_default_types.h"
 867              		.file 3 "/usr/include/newlib/sys/lock.h"
 868              		.file 4 "/usr/include/newlib/sys/_types.h"
 869              		.file 5 "/usr/lib/gcc/arm-none-eabi/7.3.1/include/stddef.h"
 870              		.file 6 "/usr/include/newlib/sys/reent.h"
 871              		.file 7 "/usr/include/newlib/sys/_stdint.h"
 872              		.file 8 "Inc/main.h"
 873              		.file 9 "Drivers/CMSIS/Include/core_cm7.h"
 874              		.file 10 "Drivers/CMSIS/Device/ST/STM32F7xx/Include/system_stm32f7xx.h"
 875              		.file 11 "Drivers/CMSIS/Device/ST/STM32F7xx/Include/stm32f746xx.h"
 876              		.file 12 "Drivers/STM32F7xx_HAL_Driver/Inc/stm32f7xx_hal_def.h"
 877              		.file 13 "Drivers/STM32F7xx_HAL_Driver/Inc/stm32f7xx_hal_gpio.h"
 878              		.file 14 "Drivers/STM32F7xx_HAL_Driver/Inc/stm32f7xx_hal_dma.h"
 879              		.file 15 "Drivers/STM32F7xx_HAL_Driver/Inc/stm32f7xx_hal_i2c.h"
 880              		.file 16 "Inc/i2c.h"
 881              		.file 17 "Drivers/STM32F7xx_HAL_Driver/Inc/stm32f7xx_hal_i2c_ex.h"
ARM GAS  /tmp/ccpLg1DU.s 			page 25

