ARM GAS  /tmp/ccF5IAnw.s 			page 1


   1              		.cpu cortex-m7
   2              		.eabi_attribute 27, 1
   3              		.eabi_attribute 28, 1
   4              		.eabi_attribute 20, 1
   5              		.eabi_attribute 21, 1
   6              		.eabi_attribute 23, 3
   7              		.eabi_attribute 24, 1
   8              		.eabi_attribute 25, 1
   9              		.eabi_attribute 26, 1
  10              		.eabi_attribute 30, 6
  11              		.eabi_attribute 34, 1
  12              		.eabi_attribute 18, 4
  13              		.file	"rtc.c"
  14              		.text
  15              	.Ltext0:
  16              		.cfi_sections	.debug_frame
  17              		.comm	hrtc,32,4
  18              		.section	.rodata
  19              		.align	2
  20              	.LC0:
  21 0000 5372632F 		.ascii	"Src/rtc.c\000"
  21      7274632E 
  21      6300
  22              		.section	.text.MX_RTC_Init,"ax",%progbits
  23              		.align	1
  24              		.global	MX_RTC_Init
  25              		.syntax unified
  26              		.thumb
  27              		.thumb_func
  28              		.fpu fpv4-sp-d16
  30              	MX_RTC_Init:
  31              	.LFB136:
  32              		.file 1 "Src/rtc.c"
   1:Src/rtc.c     **** /**
   2:Src/rtc.c     ****   ******************************************************************************
   3:Src/rtc.c     ****   * File Name          : RTC.c
   4:Src/rtc.c     ****   * Description        : This file provides code for the configuration
   5:Src/rtc.c     ****   *                      of the RTC instances.
   6:Src/rtc.c     ****   ******************************************************************************
   7:Src/rtc.c     ****   ** This notice applies to any and all portions of this file
   8:Src/rtc.c     ****   * that are not between comment pairs USER CODE BEGIN and
   9:Src/rtc.c     ****   * USER CODE END. Other portions of this file, whether 
  10:Src/rtc.c     ****   * inserted by the user or by software development tools
  11:Src/rtc.c     ****   * are owned by their respective copyright owners.
  12:Src/rtc.c     ****   *
  13:Src/rtc.c     ****   * COPYRIGHT(c) 2018 STMicroelectronics
  14:Src/rtc.c     ****   *
  15:Src/rtc.c     ****   * Redistribution and use in source and binary forms, with or without modification,
  16:Src/rtc.c     ****   * are permitted provided that the following conditions are met:
  17:Src/rtc.c     ****   *   1. Redistributions of source code must retain the above copyright notice,
  18:Src/rtc.c     ****   *      this list of conditions and the following disclaimer.
  19:Src/rtc.c     ****   *   2. Redistributions in binary form must reproduce the above copyright notice,
  20:Src/rtc.c     ****   *      this list of conditions and the following disclaimer in the documentation
  21:Src/rtc.c     ****   *      and/or other materials provided with the distribution.
  22:Src/rtc.c     ****   *   3. Neither the name of STMicroelectronics nor the names of its contributors
  23:Src/rtc.c     ****   *      may be used to endorse or promote products derived from this software
  24:Src/rtc.c     ****   *      without specific prior written permission.
ARM GAS  /tmp/ccF5IAnw.s 			page 2


  25:Src/rtc.c     ****   *
  26:Src/rtc.c     ****   * THIS SOFTWARE IS PROVIDED BY THE COPYRIGHT HOLDERS AND CONTRIBUTORS "AS IS"
  27:Src/rtc.c     ****   * AND ANY EXPRESS OR IMPLIED WARRANTIES, INCLUDING, BUT NOT LIMITED TO, THE
  28:Src/rtc.c     ****   * IMPLIED WARRANTIES OF MERCHANTABILITY AND FITNESS FOR A PARTICULAR PURPOSE ARE
  29:Src/rtc.c     ****   * DISCLAIMED. IN NO EVENT SHALL THE COPYRIGHT HOLDER OR CONTRIBUTORS BE LIABLE
  30:Src/rtc.c     ****   * FOR ANY DIRECT, INDIRECT, INCIDENTAL, SPECIAL, EXEMPLARY, OR CONSEQUENTIAL
  31:Src/rtc.c     ****   * DAMAGES (INCLUDING, BUT NOT LIMITED TO, PROCUREMENT OF SUBSTITUTE GOODS OR
  32:Src/rtc.c     ****   * SERVICES; LOSS OF USE, DATA, OR PROFITS; OR BUSINESS INTERRUPTION) HOWEVER
  33:Src/rtc.c     ****   * CAUSED AND ON ANY THEORY OF LIABILITY, WHETHER IN CONTRACT, STRICT LIABILITY,
  34:Src/rtc.c     ****   * OR TORT (INCLUDING NEGLIGENCE OR OTHERWISE) ARISING IN ANY WAY OUT OF THE USE
  35:Src/rtc.c     ****   * OF THIS SOFTWARE, EVEN IF ADVISED OF THE POSSIBILITY OF SUCH DAMAGE.
  36:Src/rtc.c     ****   *
  37:Src/rtc.c     ****   ******************************************************************************
  38:Src/rtc.c     ****   */
  39:Src/rtc.c     **** 
  40:Src/rtc.c     **** /* Includes ------------------------------------------------------------------*/
  41:Src/rtc.c     **** #include "rtc.h"
  42:Src/rtc.c     **** 
  43:Src/rtc.c     **** /* USER CODE BEGIN 0 */
  44:Src/rtc.c     **** 
  45:Src/rtc.c     **** /* USER CODE END 0 */
  46:Src/rtc.c     **** 
  47:Src/rtc.c     **** RTC_HandleTypeDef hrtc;
  48:Src/rtc.c     **** 
  49:Src/rtc.c     **** /* RTC init function */
  50:Src/rtc.c     **** void MX_RTC_Init(void)
  51:Src/rtc.c     **** {
  33              		.loc 1 51 0
  34              		.cfi_startproc
  35              		@ args = 0, pretend = 0, frame = 0
  36              		@ frame_needed = 1, uses_anonymous_args = 0
  37 0000 80B5     		push	{r7, lr}
  38              	.LCFI0:
  39              		.cfi_def_cfa_offset 8
  40              		.cfi_offset 7, -8
  41              		.cfi_offset 14, -4
  42 0002 00AF     		add	r7, sp, #0
  43              	.LCFI1:
  44              		.cfi_def_cfa_register 7
  52:Src/rtc.c     **** 
  53:Src/rtc.c     ****     /**Initialize RTC Only 
  54:Src/rtc.c     ****     */
  55:Src/rtc.c     ****   hrtc.Instance = RTC;
  45              		.loc 1 55 0
  46 0004 104B     		ldr	r3, .L4
  47 0006 114A     		ldr	r2, .L4+4
  48 0008 1A60     		str	r2, [r3]
  56:Src/rtc.c     ****   hrtc.Init.HourFormat = RTC_HOURFORMAT_24;
  49              		.loc 1 56 0
  50 000a 0F4B     		ldr	r3, .L4
  51 000c 0022     		movs	r2, #0
  52 000e 5A60     		str	r2, [r3, #4]
  57:Src/rtc.c     ****   hrtc.Init.AsynchPrediv = 127;
  53              		.loc 1 57 0
  54 0010 0D4B     		ldr	r3, .L4
  55 0012 7F22     		movs	r2, #127
  56 0014 9A60     		str	r2, [r3, #8]
ARM GAS  /tmp/ccF5IAnw.s 			page 3


  58:Src/rtc.c     ****   hrtc.Init.SynchPrediv = 255;
  57              		.loc 1 58 0
  58 0016 0C4B     		ldr	r3, .L4
  59 0018 FF22     		movs	r2, #255
  60 001a DA60     		str	r2, [r3, #12]
  59:Src/rtc.c     ****   hrtc.Init.OutPut = RTC_OUTPUT_DISABLE;
  61              		.loc 1 59 0
  62 001c 0A4B     		ldr	r3, .L4
  63 001e 0022     		movs	r2, #0
  64 0020 1A61     		str	r2, [r3, #16]
  60:Src/rtc.c     ****   hrtc.Init.OutPutPolarity = RTC_OUTPUT_POLARITY_HIGH;
  65              		.loc 1 60 0
  66 0022 094B     		ldr	r3, .L4
  67 0024 0022     		movs	r2, #0
  68 0026 5A61     		str	r2, [r3, #20]
  61:Src/rtc.c     ****   hrtc.Init.OutPutType = RTC_OUTPUT_TYPE_OPENDRAIN;
  69              		.loc 1 61 0
  70 0028 074B     		ldr	r3, .L4
  71 002a 0022     		movs	r2, #0
  72 002c 9A61     		str	r2, [r3, #24]
  62:Src/rtc.c     ****   if (HAL_RTC_Init(&hrtc) != HAL_OK)
  73              		.loc 1 62 0
  74 002e 0648     		ldr	r0, .L4
  75 0030 FFF7FEFF 		bl	HAL_RTC_Init
  76 0034 0346     		mov	r3, r0
  77 0036 002B     		cmp	r3, #0
  78 0038 03D0     		beq	.L3
  63:Src/rtc.c     ****   {
  64:Src/rtc.c     ****     _Error_Handler(__FILE__, __LINE__);
  79              		.loc 1 64 0
  80 003a 4021     		movs	r1, #64
  81 003c 0448     		ldr	r0, .L4+8
  82 003e FFF7FEFF 		bl	_Error_Handler
  83              	.L3:
  65:Src/rtc.c     ****   }
  66:Src/rtc.c     **** 
  67:Src/rtc.c     **** }
  84              		.loc 1 67 0
  85 0042 00BF     		nop
  86 0044 80BD     		pop	{r7, pc}
  87              	.L5:
  88 0046 00BF     		.align	2
  89              	.L4:
  90 0048 00000000 		.word	hrtc
  91 004c 00280040 		.word	1073752064
  92 0050 00000000 		.word	.LC0
  93              		.cfi_endproc
  94              	.LFE136:
  96              		.section	.text.HAL_RTC_MspInit,"ax",%progbits
  97              		.align	1
  98              		.global	HAL_RTC_MspInit
  99              		.syntax unified
 100              		.thumb
 101              		.thumb_func
 102              		.fpu fpv4-sp-d16
 104              	HAL_RTC_MspInit:
 105              	.LFB137:
ARM GAS  /tmp/ccF5IAnw.s 			page 4


  68:Src/rtc.c     **** 
  69:Src/rtc.c     **** void HAL_RTC_MspInit(RTC_HandleTypeDef* rtcHandle)
  70:Src/rtc.c     **** {
 106              		.loc 1 70 0
 107              		.cfi_startproc
 108              		@ args = 0, pretend = 0, frame = 8
 109              		@ frame_needed = 1, uses_anonymous_args = 0
 110              		@ link register save eliminated.
 111 0000 80B4     		push	{r7}
 112              	.LCFI2:
 113              		.cfi_def_cfa_offset 4
 114              		.cfi_offset 7, -4
 115 0002 83B0     		sub	sp, sp, #12
 116              	.LCFI3:
 117              		.cfi_def_cfa_offset 16
 118 0004 00AF     		add	r7, sp, #0
 119              	.LCFI4:
 120              		.cfi_def_cfa_register 7
 121 0006 7860     		str	r0, [r7, #4]
  71:Src/rtc.c     **** 
  72:Src/rtc.c     ****   if(rtcHandle->Instance==RTC)
 122              		.loc 1 72 0
 123 0008 7B68     		ldr	r3, [r7, #4]
 124 000a 1B68     		ldr	r3, [r3]
 125 000c 074A     		ldr	r2, .L9
 126 000e 9342     		cmp	r3, r2
 127 0010 05D1     		bne	.L8
  73:Src/rtc.c     ****   {
  74:Src/rtc.c     ****   /* USER CODE BEGIN RTC_MspInit 0 */
  75:Src/rtc.c     **** 
  76:Src/rtc.c     ****   /* USER CODE END RTC_MspInit 0 */
  77:Src/rtc.c     ****     /* RTC clock enable */
  78:Src/rtc.c     ****     __HAL_RCC_RTC_ENABLE();
 128              		.loc 1 78 0
 129 0012 074A     		ldr	r2, .L9+4
 130 0014 064B     		ldr	r3, .L9+4
 131 0016 1B6F     		ldr	r3, [r3, #112]
 132 0018 43F40043 		orr	r3, r3, #32768
 133 001c 1367     		str	r3, [r2, #112]
 134              	.L8:
  79:Src/rtc.c     ****   /* USER CODE BEGIN RTC_MspInit 1 */
  80:Src/rtc.c     **** 
  81:Src/rtc.c     ****   /* USER CODE END RTC_MspInit 1 */
  82:Src/rtc.c     ****   }
  83:Src/rtc.c     **** }
 135              		.loc 1 83 0
 136 001e 00BF     		nop
 137 0020 0C37     		adds	r7, r7, #12
 138              	.LCFI5:
 139              		.cfi_def_cfa_offset 4
 140 0022 BD46     		mov	sp, r7
 141              	.LCFI6:
 142              		.cfi_def_cfa_register 13
 143              		@ sp needed
 144 0024 5DF8047B 		ldr	r7, [sp], #4
 145              	.LCFI7:
 146              		.cfi_restore 7
ARM GAS  /tmp/ccF5IAnw.s 			page 5


 147              		.cfi_def_cfa_offset 0
 148 0028 7047     		bx	lr
 149              	.L10:
 150 002a 00BF     		.align	2
 151              	.L9:
 152 002c 00280040 		.word	1073752064
 153 0030 00380240 		.word	1073887232
 154              		.cfi_endproc
 155              	.LFE137:
 157              		.section	.text.HAL_RTC_MspDeInit,"ax",%progbits
 158              		.align	1
 159              		.global	HAL_RTC_MspDeInit
 160              		.syntax unified
 161              		.thumb
 162              		.thumb_func
 163              		.fpu fpv4-sp-d16
 165              	HAL_RTC_MspDeInit:
 166              	.LFB138:
  84:Src/rtc.c     **** 
  85:Src/rtc.c     **** void HAL_RTC_MspDeInit(RTC_HandleTypeDef* rtcHandle)
  86:Src/rtc.c     **** {
 167              		.loc 1 86 0
 168              		.cfi_startproc
 169              		@ args = 0, pretend = 0, frame = 8
 170              		@ frame_needed = 1, uses_anonymous_args = 0
 171              		@ link register save eliminated.
 172 0000 80B4     		push	{r7}
 173              	.LCFI8:
 174              		.cfi_def_cfa_offset 4
 175              		.cfi_offset 7, -4
 176 0002 83B0     		sub	sp, sp, #12
 177              	.LCFI9:
 178              		.cfi_def_cfa_offset 16
 179 0004 00AF     		add	r7, sp, #0
 180              	.LCFI10:
 181              		.cfi_def_cfa_register 7
 182 0006 7860     		str	r0, [r7, #4]
  87:Src/rtc.c     **** 
  88:Src/rtc.c     ****   if(rtcHandle->Instance==RTC)
 183              		.loc 1 88 0
 184 0008 7B68     		ldr	r3, [r7, #4]
 185 000a 1B68     		ldr	r3, [r3]
 186 000c 074A     		ldr	r2, .L14
 187 000e 9342     		cmp	r3, r2
 188 0010 05D1     		bne	.L13
  89:Src/rtc.c     ****   {
  90:Src/rtc.c     ****   /* USER CODE BEGIN RTC_MspDeInit 0 */
  91:Src/rtc.c     **** 
  92:Src/rtc.c     ****   /* USER CODE END RTC_MspDeInit 0 */
  93:Src/rtc.c     ****     /* Peripheral clock disable */
  94:Src/rtc.c     ****     __HAL_RCC_RTC_DISABLE();
 189              		.loc 1 94 0
 190 0012 074A     		ldr	r2, .L14+4
 191 0014 064B     		ldr	r3, .L14+4
 192 0016 1B6F     		ldr	r3, [r3, #112]
 193 0018 23F40043 		bic	r3, r3, #32768
 194 001c 1367     		str	r3, [r2, #112]
ARM GAS  /tmp/ccF5IAnw.s 			page 6


 195              	.L13:
  95:Src/rtc.c     ****   /* USER CODE BEGIN RTC_MspDeInit 1 */
  96:Src/rtc.c     **** 
  97:Src/rtc.c     ****   /* USER CODE END RTC_MspDeInit 1 */
  98:Src/rtc.c     ****   }
  99:Src/rtc.c     **** } 
 196              		.loc 1 99 0
 197 001e 00BF     		nop
 198 0020 0C37     		adds	r7, r7, #12
 199              	.LCFI11:
 200              		.cfi_def_cfa_offset 4
 201 0022 BD46     		mov	sp, r7
 202              	.LCFI12:
 203              		.cfi_def_cfa_register 13
 204              		@ sp needed
 205 0024 5DF8047B 		ldr	r7, [sp], #4
 206              	.LCFI13:
 207              		.cfi_restore 7
 208              		.cfi_def_cfa_offset 0
 209 0028 7047     		bx	lr
 210              	.L15:
 211 002a 00BF     		.align	2
 212              	.L14:
 213 002c 00280040 		.word	1073752064
 214 0030 00380240 		.word	1073887232
 215              		.cfi_endproc
 216              	.LFE138:
 218              		.text
 219              	.Letext0:
 220              		.file 2 "/usr/include/newlib/machine/_default_types.h"
 221              		.file 3 "/usr/include/newlib/sys/_stdint.h"
 222              		.file 4 "Drivers/CMSIS/Include/core_cm7.h"
 223              		.file 5 "Drivers/CMSIS/Device/ST/STM32F7xx/Include/system_stm32f7xx.h"
 224              		.file 6 "Drivers/CMSIS/Device/ST/STM32F7xx/Include/stm32f746xx.h"
 225              		.file 7 "/usr/include/newlib/sys/lock.h"
 226              		.file 8 "/usr/include/newlib/sys/_types.h"
 227              		.file 9 "/usr/lib/gcc/arm-none-eabi/6.3.1/include/stddef.h"
 228              		.file 10 "/usr/include/newlib/sys/reent.h"
 229              		.file 11 "Drivers/STM32F7xx_HAL_Driver/Inc/stm32f7xx_hal_def.h"
 230              		.file 12 "Drivers/STM32F7xx_HAL_Driver/Inc/stm32f7xx_hal_rtc.h"
 231              		.file 13 "Inc/rtc.h"
ARM GAS  /tmp/ccF5IAnw.s 			page 7


DEFINED SYMBOLS
                            *ABS*:0000000000000000 rtc.c
                            *COM*:0000000000000020 hrtc
     /tmp/ccF5IAnw.s:19     .rodata:0000000000000000 $d
     /tmp/ccF5IAnw.s:23     .text.MX_RTC_Init:0000000000000000 $t
     /tmp/ccF5IAnw.s:30     .text.MX_RTC_Init:0000000000000000 MX_RTC_Init
     /tmp/ccF5IAnw.s:90     .text.MX_RTC_Init:0000000000000048 $d
     /tmp/ccF5IAnw.s:97     .text.HAL_RTC_MspInit:0000000000000000 $t
     /tmp/ccF5IAnw.s:104    .text.HAL_RTC_MspInit:0000000000000000 HAL_RTC_MspInit
     /tmp/ccF5IAnw.s:152    .text.HAL_RTC_MspInit:000000000000002c $d
     /tmp/ccF5IAnw.s:158    .text.HAL_RTC_MspDeInit:0000000000000000 $t
     /tmp/ccF5IAnw.s:165    .text.HAL_RTC_MspDeInit:0000000000000000 HAL_RTC_MspDeInit
     /tmp/ccF5IAnw.s:213    .text.HAL_RTC_MspDeInit:000000000000002c $d
                     .debug_frame:0000000000000010 $d

UNDEFINED SYMBOLS
HAL_RTC_Init
_Error_Handler
