ARM GAS  /tmp/ccdraBPx.s 			page 1


   1              		.cpu cortex-m7
   2              		.eabi_attribute 27, 1
   3              		.eabi_attribute 28, 1
   4              		.eabi_attribute 20, 1
   5              		.eabi_attribute 21, 1
   6              		.eabi_attribute 23, 3
   7              		.eabi_attribute 24, 1
   8              		.eabi_attribute 25, 1
   9              		.eabi_attribute 26, 1
  10              		.eabi_attribute 30, 2
  11              		.eabi_attribute 34, 1
  12              		.eabi_attribute 18, 4
  13              		.file	"stm32f7xx_hal_tim_ex.c"
  14              		.text
  15              	.Ltext0:
  16              		.cfi_sections	.debug_frame
  17              		.section	.text.HAL_TIMEx_HallSensor_MspInit,"ax",%progbits
  18              		.align	1
  19              		.p2align 2,,3
  20              		.weak	HAL_TIMEx_HallSensor_MspInit
  21              		.syntax unified
  22              		.thumb
  23              		.thumb_func
  24              		.fpu fpv4-sp-d16
  26              	HAL_TIMEx_HallSensor_MspInit:
  27              	.LFB140:
  28              		.file 1 "Drivers/STM32F7xx_HAL_Driver/Src/stm32f7xx_hal_tim_ex.c"
   1:Drivers/STM32F7xx_HAL_Driver/Src/stm32f7xx_hal_tim_ex.c **** /**
   2:Drivers/STM32F7xx_HAL_Driver/Src/stm32f7xx_hal_tim_ex.c ****   ******************************************************************************
   3:Drivers/STM32F7xx_HAL_Driver/Src/stm32f7xx_hal_tim_ex.c ****   * @file    stm32f7xx_hal_tim_ex.c
   4:Drivers/STM32F7xx_HAL_Driver/Src/stm32f7xx_hal_tim_ex.c ****   * @author  MCD Application Team
   5:Drivers/STM32F7xx_HAL_Driver/Src/stm32f7xx_hal_tim_ex.c ****   * @brief   TIM HAL module driver.
   6:Drivers/STM32F7xx_HAL_Driver/Src/stm32f7xx_hal_tim_ex.c ****   *          This file provides firmware functions to manage the following 
   7:Drivers/STM32F7xx_HAL_Driver/Src/stm32f7xx_hal_tim_ex.c ****   *          functionalities of the Timer extension peripheral:
   8:Drivers/STM32F7xx_HAL_Driver/Src/stm32f7xx_hal_tim_ex.c ****   *           + Time Hall Sensor Interface Initialization
   9:Drivers/STM32F7xx_HAL_Driver/Src/stm32f7xx_hal_tim_ex.c ****   *           + Time Hall Sensor Interface Start
  10:Drivers/STM32F7xx_HAL_Driver/Src/stm32f7xx_hal_tim_ex.c ****   *           + Time Complementary signal bread and dead time configuration  
  11:Drivers/STM32F7xx_HAL_Driver/Src/stm32f7xx_hal_tim_ex.c ****   *           + Time Master and Slave synchronization configuration
  12:Drivers/STM32F7xx_HAL_Driver/Src/stm32f7xx_hal_tim_ex.c ****   *           + Time Output Compare/PWM Channel Configuration (for channels 5 and 6)
  13:Drivers/STM32F7xx_HAL_Driver/Src/stm32f7xx_hal_tim_ex.c ****   *           + Time OCRef clear configuration
  14:Drivers/STM32F7xx_HAL_Driver/Src/stm32f7xx_hal_tim_ex.c ****   *           + Timer remapping capabilities configuration  
  15:Drivers/STM32F7xx_HAL_Driver/Src/stm32f7xx_hal_tim_ex.c ****   @verbatim 
  16:Drivers/STM32F7xx_HAL_Driver/Src/stm32f7xx_hal_tim_ex.c ****   ==============================================================================
  17:Drivers/STM32F7xx_HAL_Driver/Src/stm32f7xx_hal_tim_ex.c ****                       ##### TIMER Extended features #####
  18:Drivers/STM32F7xx_HAL_Driver/Src/stm32f7xx_hal_tim_ex.c ****   ==============================================================================
  19:Drivers/STM32F7xx_HAL_Driver/Src/stm32f7xx_hal_tim_ex.c ****   [..] 
  20:Drivers/STM32F7xx_HAL_Driver/Src/stm32f7xx_hal_tim_ex.c ****     The Timer Extension features include: 
  21:Drivers/STM32F7xx_HAL_Driver/Src/stm32f7xx_hal_tim_ex.c ****     (#) Complementary outputs with programmable dead-time for :
  22:Drivers/STM32F7xx_HAL_Driver/Src/stm32f7xx_hal_tim_ex.c ****         (++) Input Capture
  23:Drivers/STM32F7xx_HAL_Driver/Src/stm32f7xx_hal_tim_ex.c ****         (++) Output Compare
  24:Drivers/STM32F7xx_HAL_Driver/Src/stm32f7xx_hal_tim_ex.c ****         (++) PWM generation (Edge and Center-aligned Mode)
  25:Drivers/STM32F7xx_HAL_Driver/Src/stm32f7xx_hal_tim_ex.c ****         (++) One-pulse mode output
  26:Drivers/STM32F7xx_HAL_Driver/Src/stm32f7xx_hal_tim_ex.c ****     (#) Synchronization circuit to control the timer with external signals and to 
  27:Drivers/STM32F7xx_HAL_Driver/Src/stm32f7xx_hal_tim_ex.c ****         interconnect several timers together.
  28:Drivers/STM32F7xx_HAL_Driver/Src/stm32f7xx_hal_tim_ex.c ****     (#) Break input to put the timer output signals in reset state or in a known state.
  29:Drivers/STM32F7xx_HAL_Driver/Src/stm32f7xx_hal_tim_ex.c ****     (#) Supports incremental (quadrature) encoder and hall-sensor circuitry for 
  30:Drivers/STM32F7xx_HAL_Driver/Src/stm32f7xx_hal_tim_ex.c ****         positioning purposes                
ARM GAS  /tmp/ccdraBPx.s 			page 2


  31:Drivers/STM32F7xx_HAL_Driver/Src/stm32f7xx_hal_tim_ex.c ****    
  32:Drivers/STM32F7xx_HAL_Driver/Src/stm32f7xx_hal_tim_ex.c ****                         ##### How to use this driver #####
  33:Drivers/STM32F7xx_HAL_Driver/Src/stm32f7xx_hal_tim_ex.c ****   ==============================================================================
  34:Drivers/STM32F7xx_HAL_Driver/Src/stm32f7xx_hal_tim_ex.c ****   [..]
  35:Drivers/STM32F7xx_HAL_Driver/Src/stm32f7xx_hal_tim_ex.c ****      (#) Initialize the TIM low level resources by implementing the following functions 
  36:Drivers/STM32F7xx_HAL_Driver/Src/stm32f7xx_hal_tim_ex.c ****          depending from feature used :
  37:Drivers/STM32F7xx_HAL_Driver/Src/stm32f7xx_hal_tim_ex.c ****            (++) Complementary Output Compare : HAL_TIM_OC_MspInit()
  38:Drivers/STM32F7xx_HAL_Driver/Src/stm32f7xx_hal_tim_ex.c ****            (++) Complementary PWM generation : HAL_TIM_PWM_MspInit()
  39:Drivers/STM32F7xx_HAL_Driver/Src/stm32f7xx_hal_tim_ex.c ****            (++) Complementary One-pulse mode output : HAL_TIM_OnePulse_MspInit()
  40:Drivers/STM32F7xx_HAL_Driver/Src/stm32f7xx_hal_tim_ex.c ****            (++) Hall Sensor output : HAL_TIM_HallSensor_MspInit()
  41:Drivers/STM32F7xx_HAL_Driver/Src/stm32f7xx_hal_tim_ex.c ****            
  42:Drivers/STM32F7xx_HAL_Driver/Src/stm32f7xx_hal_tim_ex.c ****      (#) Initialize the TIM low level resources :
  43:Drivers/STM32F7xx_HAL_Driver/Src/stm32f7xx_hal_tim_ex.c ****         (##) Enable the TIM interface clock using __HAL_RCC_TIMx_CLK_ENABLE(); 
  44:Drivers/STM32F7xx_HAL_Driver/Src/stm32f7xx_hal_tim_ex.c ****         (##) TIM pins configuration
  45:Drivers/STM32F7xx_HAL_Driver/Src/stm32f7xx_hal_tim_ex.c ****             (+++) Enable the clock for the TIM GPIOs using the following function:
  46:Drivers/STM32F7xx_HAL_Driver/Src/stm32f7xx_hal_tim_ex.c ****                   __HAL_RCC_GPIOx_CLK_ENABLE();   
  47:Drivers/STM32F7xx_HAL_Driver/Src/stm32f7xx_hal_tim_ex.c ****             (+++) Configure these TIM pins in Alternate function mode using HAL_GPIO_Init();  
  48:Drivers/STM32F7xx_HAL_Driver/Src/stm32f7xx_hal_tim_ex.c **** 
  49:Drivers/STM32F7xx_HAL_Driver/Src/stm32f7xx_hal_tim_ex.c ****      (#) The external Clock can be configured, if needed (the default clock is the 
  50:Drivers/STM32F7xx_HAL_Driver/Src/stm32f7xx_hal_tim_ex.c ****          internal clock from the APBx), using the following function:
  51:Drivers/STM32F7xx_HAL_Driver/Src/stm32f7xx_hal_tim_ex.c ****          HAL_TIM_ConfigClockSource, the clock configuration should be done before 
  52:Drivers/STM32F7xx_HAL_Driver/Src/stm32f7xx_hal_tim_ex.c ****          any start function.
  53:Drivers/STM32F7xx_HAL_Driver/Src/stm32f7xx_hal_tim_ex.c ****   
  54:Drivers/STM32F7xx_HAL_Driver/Src/stm32f7xx_hal_tim_ex.c ****     (#) Configure the TIM in the desired functioning mode using one of the 
  55:Drivers/STM32F7xx_HAL_Driver/Src/stm32f7xx_hal_tim_ex.c ****         initialization function of this driver:
  56:Drivers/STM32F7xx_HAL_Driver/Src/stm32f7xx_hal_tim_ex.c ****         (++) HAL_TIMEx_HallSensor_Init and HAL_TIMEx_ConfigCommutationEvent: to use the 
  57:Drivers/STM32F7xx_HAL_Driver/Src/stm32f7xx_hal_tim_ex.c ****              Timer Hall Sensor Interface and the commutation event with the corresponding 
  58:Drivers/STM32F7xx_HAL_Driver/Src/stm32f7xx_hal_tim_ex.c ****              Interrupt and DMA request if needed (Note that One Timer is used to interface 
  59:Drivers/STM32F7xx_HAL_Driver/Src/stm32f7xx_hal_tim_ex.c ****              with the Hall sensor Interface and another Timer should be used to use 
  60:Drivers/STM32F7xx_HAL_Driver/Src/stm32f7xx_hal_tim_ex.c ****              the commutation event).
  61:Drivers/STM32F7xx_HAL_Driver/Src/stm32f7xx_hal_tim_ex.c **** 
  62:Drivers/STM32F7xx_HAL_Driver/Src/stm32f7xx_hal_tim_ex.c ****     (#) Activate the TIM peripheral using one of the start functions: 
  63:Drivers/STM32F7xx_HAL_Driver/Src/stm32f7xx_hal_tim_ex.c ****            (++) Complementary Output Compare : HAL_TIMEx_OCN_Start(), HAL_TIMEx_OCN_Start_DMA(), HA
  64:Drivers/STM32F7xx_HAL_Driver/Src/stm32f7xx_hal_tim_ex.c ****            (++) Complementary PWM generation : HAL_TIMEx_PWMN_Start(), HAL_TIMEx_PWMN_Start_DMA(), 
  65:Drivers/STM32F7xx_HAL_Driver/Src/stm32f7xx_hal_tim_ex.c ****            (++) Complementary One-pulse mode output : HAL_TIMEx_OnePulseN_Start(), HAL_TIMEx_OnePul
  66:Drivers/STM32F7xx_HAL_Driver/Src/stm32f7xx_hal_tim_ex.c ****            (++) Hall Sensor output : HAL_TIMEx_HallSensor_Start(), HAL_TIMEx_HallSensor_Start_DMA()
  67:Drivers/STM32F7xx_HAL_Driver/Src/stm32f7xx_hal_tim_ex.c **** 
  68:Drivers/STM32F7xx_HAL_Driver/Src/stm32f7xx_hal_tim_ex.c ****   
  69:Drivers/STM32F7xx_HAL_Driver/Src/stm32f7xx_hal_tim_ex.c ****   @endverbatim
  70:Drivers/STM32F7xx_HAL_Driver/Src/stm32f7xx_hal_tim_ex.c ****   ******************************************************************************
  71:Drivers/STM32F7xx_HAL_Driver/Src/stm32f7xx_hal_tim_ex.c ****   * @attention
  72:Drivers/STM32F7xx_HAL_Driver/Src/stm32f7xx_hal_tim_ex.c ****   *
  73:Drivers/STM32F7xx_HAL_Driver/Src/stm32f7xx_hal_tim_ex.c ****   * <h2><center>&copy; COPYRIGHT(c) 2017 STMicroelectronics</center></h2>
  74:Drivers/STM32F7xx_HAL_Driver/Src/stm32f7xx_hal_tim_ex.c ****   *
  75:Drivers/STM32F7xx_HAL_Driver/Src/stm32f7xx_hal_tim_ex.c ****   * Redistribution and use in source and binary forms, with or without modification,
  76:Drivers/STM32F7xx_HAL_Driver/Src/stm32f7xx_hal_tim_ex.c ****   * are permitted provided that the following conditions are met:
  77:Drivers/STM32F7xx_HAL_Driver/Src/stm32f7xx_hal_tim_ex.c ****   *   1. Redistributions of source code must retain the above copyright notice,
  78:Drivers/STM32F7xx_HAL_Driver/Src/stm32f7xx_hal_tim_ex.c ****   *      this list of conditions and the following disclaimer.
  79:Drivers/STM32F7xx_HAL_Driver/Src/stm32f7xx_hal_tim_ex.c ****   *   2. Redistributions in binary form must reproduce the above copyright notice,
  80:Drivers/STM32F7xx_HAL_Driver/Src/stm32f7xx_hal_tim_ex.c ****   *      this list of conditions and the following disclaimer in the documentation
  81:Drivers/STM32F7xx_HAL_Driver/Src/stm32f7xx_hal_tim_ex.c ****   *      and/or other materials provided with the distribution.
  82:Drivers/STM32F7xx_HAL_Driver/Src/stm32f7xx_hal_tim_ex.c ****   *   3. Neither the name of STMicroelectronics nor the names of its contributors
  83:Drivers/STM32F7xx_HAL_Driver/Src/stm32f7xx_hal_tim_ex.c ****   *      may be used to endorse or promote products derived from this software
  84:Drivers/STM32F7xx_HAL_Driver/Src/stm32f7xx_hal_tim_ex.c ****   *      without specific prior written permission.
  85:Drivers/STM32F7xx_HAL_Driver/Src/stm32f7xx_hal_tim_ex.c ****   *
  86:Drivers/STM32F7xx_HAL_Driver/Src/stm32f7xx_hal_tim_ex.c ****   * THIS SOFTWARE IS PROVIDED BY THE COPYRIGHT HOLDERS AND CONTRIBUTORS "AS IS"
  87:Drivers/STM32F7xx_HAL_Driver/Src/stm32f7xx_hal_tim_ex.c ****   * AND ANY EXPRESS OR IMPLIED WARRANTIES, INCLUDING, BUT NOT LIMITED TO, THE
ARM GAS  /tmp/ccdraBPx.s 			page 3


  88:Drivers/STM32F7xx_HAL_Driver/Src/stm32f7xx_hal_tim_ex.c ****   * IMPLIED WARRANTIES OF MERCHANTABILITY AND FITNESS FOR A PARTICULAR PURPOSE ARE
  89:Drivers/STM32F7xx_HAL_Driver/Src/stm32f7xx_hal_tim_ex.c ****   * DISCLAIMED. IN NO EVENT SHALL THE COPYRIGHT HOLDER OR CONTRIBUTORS BE LIABLE
  90:Drivers/STM32F7xx_HAL_Driver/Src/stm32f7xx_hal_tim_ex.c ****   * FOR ANY DIRECT, INDIRECT, INCIDENTAL, SPECIAL, EXEMPLARY, OR CONSEQUENTIAL
  91:Drivers/STM32F7xx_HAL_Driver/Src/stm32f7xx_hal_tim_ex.c ****   * DAMAGES (INCLUDING, BUT NOT LIMITED TO, PROCUREMENT OF SUBSTITUTE GOODS OR
  92:Drivers/STM32F7xx_HAL_Driver/Src/stm32f7xx_hal_tim_ex.c ****   * SERVICES; LOSS OF USE, DATA, OR PROFITS; OR BUSINESS INTERRUPTION) HOWEVER
  93:Drivers/STM32F7xx_HAL_Driver/Src/stm32f7xx_hal_tim_ex.c ****   * CAUSED AND ON ANY THEORY OF LIABILITY, WHETHER IN CONTRACT, STRICT LIABILITY,
  94:Drivers/STM32F7xx_HAL_Driver/Src/stm32f7xx_hal_tim_ex.c ****   * OR TORT (INCLUDING NEGLIGENCE OR OTHERWISE) ARISING IN ANY WAY OUT OF THE USE
  95:Drivers/STM32F7xx_HAL_Driver/Src/stm32f7xx_hal_tim_ex.c ****   * OF THIS SOFTWARE, EVEN IF ADVISED OF THE POSSIBILITY OF SUCH DAMAGE.
  96:Drivers/STM32F7xx_HAL_Driver/Src/stm32f7xx_hal_tim_ex.c ****   *
  97:Drivers/STM32F7xx_HAL_Driver/Src/stm32f7xx_hal_tim_ex.c ****   ******************************************************************************
  98:Drivers/STM32F7xx_HAL_Driver/Src/stm32f7xx_hal_tim_ex.c ****   */ 
  99:Drivers/STM32F7xx_HAL_Driver/Src/stm32f7xx_hal_tim_ex.c **** 
 100:Drivers/STM32F7xx_HAL_Driver/Src/stm32f7xx_hal_tim_ex.c **** /* Includes ------------------------------------------------------------------*/
 101:Drivers/STM32F7xx_HAL_Driver/Src/stm32f7xx_hal_tim_ex.c **** #include "stm32f7xx_hal.h"
 102:Drivers/STM32F7xx_HAL_Driver/Src/stm32f7xx_hal_tim_ex.c **** 
 103:Drivers/STM32F7xx_HAL_Driver/Src/stm32f7xx_hal_tim_ex.c **** /** @addtogroup STM32F7xx_HAL_Driver
 104:Drivers/STM32F7xx_HAL_Driver/Src/stm32f7xx_hal_tim_ex.c ****   * @{
 105:Drivers/STM32F7xx_HAL_Driver/Src/stm32f7xx_hal_tim_ex.c ****   */
 106:Drivers/STM32F7xx_HAL_Driver/Src/stm32f7xx_hal_tim_ex.c **** 
 107:Drivers/STM32F7xx_HAL_Driver/Src/stm32f7xx_hal_tim_ex.c **** /** @defgroup TIMEx TIMEx
 108:Drivers/STM32F7xx_HAL_Driver/Src/stm32f7xx_hal_tim_ex.c ****   * @brief TIM Extended HAL module driver
 109:Drivers/STM32F7xx_HAL_Driver/Src/stm32f7xx_hal_tim_ex.c ****   * @{
 110:Drivers/STM32F7xx_HAL_Driver/Src/stm32f7xx_hal_tim_ex.c ****   */
 111:Drivers/STM32F7xx_HAL_Driver/Src/stm32f7xx_hal_tim_ex.c **** 
 112:Drivers/STM32F7xx_HAL_Driver/Src/stm32f7xx_hal_tim_ex.c **** #ifdef HAL_TIM_MODULE_ENABLED
 113:Drivers/STM32F7xx_HAL_Driver/Src/stm32f7xx_hal_tim_ex.c **** 
 114:Drivers/STM32F7xx_HAL_Driver/Src/stm32f7xx_hal_tim_ex.c **** /* Private typedef -----------------------------------------------------------*/
 115:Drivers/STM32F7xx_HAL_Driver/Src/stm32f7xx_hal_tim_ex.c **** /* Private define ------------------------------------------------------------*/
 116:Drivers/STM32F7xx_HAL_Driver/Src/stm32f7xx_hal_tim_ex.c **** #define BDTR_BKF_SHIFT  (16)
 117:Drivers/STM32F7xx_HAL_Driver/Src/stm32f7xx_hal_tim_ex.c **** #define BDTR_BK2F_SHIFT (20)
 118:Drivers/STM32F7xx_HAL_Driver/Src/stm32f7xx_hal_tim_ex.c **** /* Private macro -------------------------------------------------------------*/
 119:Drivers/STM32F7xx_HAL_Driver/Src/stm32f7xx_hal_tim_ex.c **** /* Private variables ---------------------------------------------------------*/
 120:Drivers/STM32F7xx_HAL_Driver/Src/stm32f7xx_hal_tim_ex.c **** /* Private function prototypes -----------------------------------------------*/
 121:Drivers/STM32F7xx_HAL_Driver/Src/stm32f7xx_hal_tim_ex.c **** /** @addtogroup TIMEx_Private_Functions
 122:Drivers/STM32F7xx_HAL_Driver/Src/stm32f7xx_hal_tim_ex.c ****   * @{
 123:Drivers/STM32F7xx_HAL_Driver/Src/stm32f7xx_hal_tim_ex.c ****   */
 124:Drivers/STM32F7xx_HAL_Driver/Src/stm32f7xx_hal_tim_ex.c **** static void TIM_CCxNChannelCmd(TIM_TypeDef* TIMx, uint32_t Channel, uint32_t ChannelNState);  
 125:Drivers/STM32F7xx_HAL_Driver/Src/stm32f7xx_hal_tim_ex.c **** static void TIM_OC5_SetConfig(TIM_TypeDef *TIMx, TIM_OC_InitTypeDef *OC_Config);
 126:Drivers/STM32F7xx_HAL_Driver/Src/stm32f7xx_hal_tim_ex.c **** static void TIM_OC6_SetConfig(TIM_TypeDef *TIMx, TIM_OC_InitTypeDef *OC_Config);
 127:Drivers/STM32F7xx_HAL_Driver/Src/stm32f7xx_hal_tim_ex.c **** /**
 128:Drivers/STM32F7xx_HAL_Driver/Src/stm32f7xx_hal_tim_ex.c ****   * @}
 129:Drivers/STM32F7xx_HAL_Driver/Src/stm32f7xx_hal_tim_ex.c ****   */
 130:Drivers/STM32F7xx_HAL_Driver/Src/stm32f7xx_hal_tim_ex.c **** /* Private functions ---------------------------------------------------------*/
 131:Drivers/STM32F7xx_HAL_Driver/Src/stm32f7xx_hal_tim_ex.c **** 
 132:Drivers/STM32F7xx_HAL_Driver/Src/stm32f7xx_hal_tim_ex.c **** /** @defgroup TIMEx_Exported_Functions TIMEx Exported Functions
 133:Drivers/STM32F7xx_HAL_Driver/Src/stm32f7xx_hal_tim_ex.c ****   * @{
 134:Drivers/STM32F7xx_HAL_Driver/Src/stm32f7xx_hal_tim_ex.c ****   */
 135:Drivers/STM32F7xx_HAL_Driver/Src/stm32f7xx_hal_tim_ex.c **** 
 136:Drivers/STM32F7xx_HAL_Driver/Src/stm32f7xx_hal_tim_ex.c **** /** @defgroup TIMEx_Exported_Functions_Group1 Extended Timer Hall Sensor functions
 137:Drivers/STM32F7xx_HAL_Driver/Src/stm32f7xx_hal_tim_ex.c ****  *  @brief    Timer Hall Sensor functions 
 138:Drivers/STM32F7xx_HAL_Driver/Src/stm32f7xx_hal_tim_ex.c ****  *
 139:Drivers/STM32F7xx_HAL_Driver/Src/stm32f7xx_hal_tim_ex.c **** @verbatim    
 140:Drivers/STM32F7xx_HAL_Driver/Src/stm32f7xx_hal_tim_ex.c ****   ==============================================================================
 141:Drivers/STM32F7xx_HAL_Driver/Src/stm32f7xx_hal_tim_ex.c ****                       ##### Timer Hall Sensor functions #####
 142:Drivers/STM32F7xx_HAL_Driver/Src/stm32f7xx_hal_tim_ex.c ****   ==============================================================================
 143:Drivers/STM32F7xx_HAL_Driver/Src/stm32f7xx_hal_tim_ex.c ****   [..]  
 144:Drivers/STM32F7xx_HAL_Driver/Src/stm32f7xx_hal_tim_ex.c ****     This section provides functions allowing to:
ARM GAS  /tmp/ccdraBPx.s 			page 4


 145:Drivers/STM32F7xx_HAL_Driver/Src/stm32f7xx_hal_tim_ex.c ****     (+) Initialize and configure TIM HAL Sensor. 
 146:Drivers/STM32F7xx_HAL_Driver/Src/stm32f7xx_hal_tim_ex.c ****     (+) De-initialize TIM HAL Sensor.
 147:Drivers/STM32F7xx_HAL_Driver/Src/stm32f7xx_hal_tim_ex.c ****     (+) Start the Hall Sensor Interface.
 148:Drivers/STM32F7xx_HAL_Driver/Src/stm32f7xx_hal_tim_ex.c ****     (+) Stop the Hall Sensor Interface.
 149:Drivers/STM32F7xx_HAL_Driver/Src/stm32f7xx_hal_tim_ex.c ****     (+) Start the Hall Sensor Interface and enable interrupts.
 150:Drivers/STM32F7xx_HAL_Driver/Src/stm32f7xx_hal_tim_ex.c ****     (+) Stop the Hall Sensor Interface and disable interrupts.
 151:Drivers/STM32F7xx_HAL_Driver/Src/stm32f7xx_hal_tim_ex.c ****     (+) Start the Hall Sensor Interface and enable DMA transfers.
 152:Drivers/STM32F7xx_HAL_Driver/Src/stm32f7xx_hal_tim_ex.c ****     (+) Stop the Hall Sensor Interface and disable DMA transfers.
 153:Drivers/STM32F7xx_HAL_Driver/Src/stm32f7xx_hal_tim_ex.c ****  
 154:Drivers/STM32F7xx_HAL_Driver/Src/stm32f7xx_hal_tim_ex.c **** @endverbatim
 155:Drivers/STM32F7xx_HAL_Driver/Src/stm32f7xx_hal_tim_ex.c ****   * @{
 156:Drivers/STM32F7xx_HAL_Driver/Src/stm32f7xx_hal_tim_ex.c ****   */
 157:Drivers/STM32F7xx_HAL_Driver/Src/stm32f7xx_hal_tim_ex.c **** /**
 158:Drivers/STM32F7xx_HAL_Driver/Src/stm32f7xx_hal_tim_ex.c ****   * @brief  Initializes the TIM Hall Sensor Interface and create the associated handle.
 159:Drivers/STM32F7xx_HAL_Driver/Src/stm32f7xx_hal_tim_ex.c ****   * @param  htim pointer to a TIM_HandleTypeDef structure that contains
 160:Drivers/STM32F7xx_HAL_Driver/Src/stm32f7xx_hal_tim_ex.c ****   *                the configuration information for TIM module.
 161:Drivers/STM32F7xx_HAL_Driver/Src/stm32f7xx_hal_tim_ex.c ****   * @param  sConfig TIM Hall Sensor configuration structure
 162:Drivers/STM32F7xx_HAL_Driver/Src/stm32f7xx_hal_tim_ex.c ****   * @retval HAL status
 163:Drivers/STM32F7xx_HAL_Driver/Src/stm32f7xx_hal_tim_ex.c ****   */
 164:Drivers/STM32F7xx_HAL_Driver/Src/stm32f7xx_hal_tim_ex.c **** HAL_StatusTypeDef HAL_TIMEx_HallSensor_Init(TIM_HandleTypeDef *htim, TIM_HallSensor_InitTypeDef* sC
 165:Drivers/STM32F7xx_HAL_Driver/Src/stm32f7xx_hal_tim_ex.c **** {
 166:Drivers/STM32F7xx_HAL_Driver/Src/stm32f7xx_hal_tim_ex.c ****   TIM_OC_InitTypeDef OC_Config;
 167:Drivers/STM32F7xx_HAL_Driver/Src/stm32f7xx_hal_tim_ex.c ****     
 168:Drivers/STM32F7xx_HAL_Driver/Src/stm32f7xx_hal_tim_ex.c ****   /* Check the TIM handle allocation */
 169:Drivers/STM32F7xx_HAL_Driver/Src/stm32f7xx_hal_tim_ex.c ****   if(htim == NULL)
 170:Drivers/STM32F7xx_HAL_Driver/Src/stm32f7xx_hal_tim_ex.c ****   {
 171:Drivers/STM32F7xx_HAL_Driver/Src/stm32f7xx_hal_tim_ex.c ****     return HAL_ERROR;
 172:Drivers/STM32F7xx_HAL_Driver/Src/stm32f7xx_hal_tim_ex.c ****   }
 173:Drivers/STM32F7xx_HAL_Driver/Src/stm32f7xx_hal_tim_ex.c ****   
 174:Drivers/STM32F7xx_HAL_Driver/Src/stm32f7xx_hal_tim_ex.c ****   assert_param(IS_TIM_XOR_INSTANCE(htim->Instance));
 175:Drivers/STM32F7xx_HAL_Driver/Src/stm32f7xx_hal_tim_ex.c ****   assert_param(IS_TIM_COUNTER_MODE(htim->Init.CounterMode));
 176:Drivers/STM32F7xx_HAL_Driver/Src/stm32f7xx_hal_tim_ex.c ****   assert_param(IS_TIM_CLOCKDIVISION_DIV(htim->Init.ClockDivision));
 177:Drivers/STM32F7xx_HAL_Driver/Src/stm32f7xx_hal_tim_ex.c ****   assert_param(IS_TIM_AUTORELOAD_PRELOAD(htim->Init.AutoReloadPreload));
 178:Drivers/STM32F7xx_HAL_Driver/Src/stm32f7xx_hal_tim_ex.c ****   assert_param(IS_TIM_IC_POLARITY(sConfig->IC1Polarity));
 179:Drivers/STM32F7xx_HAL_Driver/Src/stm32f7xx_hal_tim_ex.c ****   assert_param(IS_TIM_IC_PRESCALER(sConfig->IC1Prescaler));
 180:Drivers/STM32F7xx_HAL_Driver/Src/stm32f7xx_hal_tim_ex.c ****   assert_param(IS_TIM_IC_FILTER(sConfig->IC1Filter));
 181:Drivers/STM32F7xx_HAL_Driver/Src/stm32f7xx_hal_tim_ex.c **** 
 182:Drivers/STM32F7xx_HAL_Driver/Src/stm32f7xx_hal_tim_ex.c ****   if(htim->State == HAL_TIM_STATE_RESET)
 183:Drivers/STM32F7xx_HAL_Driver/Src/stm32f7xx_hal_tim_ex.c ****   {
 184:Drivers/STM32F7xx_HAL_Driver/Src/stm32f7xx_hal_tim_ex.c ****     /* Allocate lock resource and initialize it */
 185:Drivers/STM32F7xx_HAL_Driver/Src/stm32f7xx_hal_tim_ex.c ****     htim->Lock = HAL_UNLOCKED;
 186:Drivers/STM32F7xx_HAL_Driver/Src/stm32f7xx_hal_tim_ex.c **** 
 187:Drivers/STM32F7xx_HAL_Driver/Src/stm32f7xx_hal_tim_ex.c **** #if (USE_HAL_TIM_REGISTER_CALLBACKS == 1)
 188:Drivers/STM32F7xx_HAL_Driver/Src/stm32f7xx_hal_tim_ex.c ****     /* Reset interrupt callbacks to legacy week callbacks */
 189:Drivers/STM32F7xx_HAL_Driver/Src/stm32f7xx_hal_tim_ex.c ****     TIM_ResetCallback(htim);
 190:Drivers/STM32F7xx_HAL_Driver/Src/stm32f7xx_hal_tim_ex.c **** 
 191:Drivers/STM32F7xx_HAL_Driver/Src/stm32f7xx_hal_tim_ex.c ****     if(htim->HallSensor_MspInitCallback == NULL)
 192:Drivers/STM32F7xx_HAL_Driver/Src/stm32f7xx_hal_tim_ex.c ****     {
 193:Drivers/STM32F7xx_HAL_Driver/Src/stm32f7xx_hal_tim_ex.c ****       htim->HallSensor_MspInitCallback = HAL_TIMEx_HallSensor_MspInit;
 194:Drivers/STM32F7xx_HAL_Driver/Src/stm32f7xx_hal_tim_ex.c ****     }
 195:Drivers/STM32F7xx_HAL_Driver/Src/stm32f7xx_hal_tim_ex.c ****     /* Init the low level hardware : GPIO, CLOCK, NVIC */
 196:Drivers/STM32F7xx_HAL_Driver/Src/stm32f7xx_hal_tim_ex.c ****     htim->HallSensor_MspInitCallback(htim);
 197:Drivers/STM32F7xx_HAL_Driver/Src/stm32f7xx_hal_tim_ex.c **** #else
 198:Drivers/STM32F7xx_HAL_Driver/Src/stm32f7xx_hal_tim_ex.c ****     /* Init the low level hardware : GPIO, CLOCK, NVIC and DMA */
 199:Drivers/STM32F7xx_HAL_Driver/Src/stm32f7xx_hal_tim_ex.c ****     HAL_TIMEx_HallSensor_MspInit(htim);
 200:Drivers/STM32F7xx_HAL_Driver/Src/stm32f7xx_hal_tim_ex.c **** #endif /* USE_HAL_TIM_REGISTER_CALLBACKS */
 201:Drivers/STM32F7xx_HAL_Driver/Src/stm32f7xx_hal_tim_ex.c ****   }
ARM GAS  /tmp/ccdraBPx.s 			page 5


 202:Drivers/STM32F7xx_HAL_Driver/Src/stm32f7xx_hal_tim_ex.c **** 
 203:Drivers/STM32F7xx_HAL_Driver/Src/stm32f7xx_hal_tim_ex.c ****   /* Set the TIM state */
 204:Drivers/STM32F7xx_HAL_Driver/Src/stm32f7xx_hal_tim_ex.c ****   htim->State= HAL_TIM_STATE_BUSY;
 205:Drivers/STM32F7xx_HAL_Driver/Src/stm32f7xx_hal_tim_ex.c **** 
 206:Drivers/STM32F7xx_HAL_Driver/Src/stm32f7xx_hal_tim_ex.c ****   /* Configure the Time base in the Encoder Mode */
 207:Drivers/STM32F7xx_HAL_Driver/Src/stm32f7xx_hal_tim_ex.c ****   TIM_Base_SetConfig(htim->Instance, &htim->Init);
 208:Drivers/STM32F7xx_HAL_Driver/Src/stm32f7xx_hal_tim_ex.c ****   
 209:Drivers/STM32F7xx_HAL_Driver/Src/stm32f7xx_hal_tim_ex.c ****   /* Configure the Channel 1 as Input Channel to interface with the three Outputs of the  Hall sens
 210:Drivers/STM32F7xx_HAL_Driver/Src/stm32f7xx_hal_tim_ex.c ****   TIM_TI1_SetConfig(htim->Instance, sConfig->IC1Polarity, TIM_ICSELECTION_TRC, sConfig->IC1Filter);
 211:Drivers/STM32F7xx_HAL_Driver/Src/stm32f7xx_hal_tim_ex.c ****   
 212:Drivers/STM32F7xx_HAL_Driver/Src/stm32f7xx_hal_tim_ex.c ****   /* Reset the IC1PSC Bits */
 213:Drivers/STM32F7xx_HAL_Driver/Src/stm32f7xx_hal_tim_ex.c ****   htim->Instance->CCMR1 &= ~TIM_CCMR1_IC1PSC;
 214:Drivers/STM32F7xx_HAL_Driver/Src/stm32f7xx_hal_tim_ex.c ****   /* Set the IC1PSC value */
 215:Drivers/STM32F7xx_HAL_Driver/Src/stm32f7xx_hal_tim_ex.c ****   htim->Instance->CCMR1 |= sConfig->IC1Prescaler;
 216:Drivers/STM32F7xx_HAL_Driver/Src/stm32f7xx_hal_tim_ex.c ****   
 217:Drivers/STM32F7xx_HAL_Driver/Src/stm32f7xx_hal_tim_ex.c ****   /* Enable the Hall sensor interface (XOR function of the three inputs) */
 218:Drivers/STM32F7xx_HAL_Driver/Src/stm32f7xx_hal_tim_ex.c ****   htim->Instance->CR2 |= TIM_CR2_TI1S;
 219:Drivers/STM32F7xx_HAL_Driver/Src/stm32f7xx_hal_tim_ex.c ****   
 220:Drivers/STM32F7xx_HAL_Driver/Src/stm32f7xx_hal_tim_ex.c ****   /* Select the TIM_TS_TI1F_ED signal as Input trigger for the TIM */
 221:Drivers/STM32F7xx_HAL_Driver/Src/stm32f7xx_hal_tim_ex.c ****   htim->Instance->SMCR &= ~TIM_SMCR_TS;
 222:Drivers/STM32F7xx_HAL_Driver/Src/stm32f7xx_hal_tim_ex.c ****   htim->Instance->SMCR |= TIM_TS_TI1F_ED;
 223:Drivers/STM32F7xx_HAL_Driver/Src/stm32f7xx_hal_tim_ex.c ****   
 224:Drivers/STM32F7xx_HAL_Driver/Src/stm32f7xx_hal_tim_ex.c ****   /* Use the TIM_TS_TI1F_ED signal to reset the TIM counter each edge detection */  
 225:Drivers/STM32F7xx_HAL_Driver/Src/stm32f7xx_hal_tim_ex.c ****   htim->Instance->SMCR &= ~TIM_SMCR_SMS;
 226:Drivers/STM32F7xx_HAL_Driver/Src/stm32f7xx_hal_tim_ex.c ****   htim->Instance->SMCR |= TIM_SLAVEMODE_RESET;
 227:Drivers/STM32F7xx_HAL_Driver/Src/stm32f7xx_hal_tim_ex.c ****   
 228:Drivers/STM32F7xx_HAL_Driver/Src/stm32f7xx_hal_tim_ex.c ****   /* Program channel 2 in PWM 2 mode with the desired Commutation_Delay*/
 229:Drivers/STM32F7xx_HAL_Driver/Src/stm32f7xx_hal_tim_ex.c ****   OC_Config.OCFastMode = TIM_OCFAST_DISABLE;
 230:Drivers/STM32F7xx_HAL_Driver/Src/stm32f7xx_hal_tim_ex.c ****   OC_Config.OCIdleState = TIM_OCIDLESTATE_RESET;
 231:Drivers/STM32F7xx_HAL_Driver/Src/stm32f7xx_hal_tim_ex.c ****   OC_Config.OCMode = TIM_OCMODE_PWM2;
 232:Drivers/STM32F7xx_HAL_Driver/Src/stm32f7xx_hal_tim_ex.c ****   OC_Config.OCNIdleState = TIM_OCNIDLESTATE_RESET;
 233:Drivers/STM32F7xx_HAL_Driver/Src/stm32f7xx_hal_tim_ex.c ****   OC_Config.OCNPolarity = TIM_OCNPOLARITY_HIGH;
 234:Drivers/STM32F7xx_HAL_Driver/Src/stm32f7xx_hal_tim_ex.c ****   OC_Config.OCPolarity = TIM_OCPOLARITY_HIGH;
 235:Drivers/STM32F7xx_HAL_Driver/Src/stm32f7xx_hal_tim_ex.c ****   OC_Config.Pulse = sConfig->Commutation_Delay; 
 236:Drivers/STM32F7xx_HAL_Driver/Src/stm32f7xx_hal_tim_ex.c ****     
 237:Drivers/STM32F7xx_HAL_Driver/Src/stm32f7xx_hal_tim_ex.c ****   TIM_OC2_SetConfig(htim->Instance, &OC_Config);
 238:Drivers/STM32F7xx_HAL_Driver/Src/stm32f7xx_hal_tim_ex.c ****   
 239:Drivers/STM32F7xx_HAL_Driver/Src/stm32f7xx_hal_tim_ex.c ****   /* Select OC2REF as trigger output on TRGO: write the MMS bits in the TIMx_CR2
 240:Drivers/STM32F7xx_HAL_Driver/Src/stm32f7xx_hal_tim_ex.c ****     register to 101 */
 241:Drivers/STM32F7xx_HAL_Driver/Src/stm32f7xx_hal_tim_ex.c ****   htim->Instance->CR2 &= ~TIM_CR2_MMS;
 242:Drivers/STM32F7xx_HAL_Driver/Src/stm32f7xx_hal_tim_ex.c ****   htim->Instance->CR2 |= TIM_TRGO_OC2REF; 
 243:Drivers/STM32F7xx_HAL_Driver/Src/stm32f7xx_hal_tim_ex.c ****   
 244:Drivers/STM32F7xx_HAL_Driver/Src/stm32f7xx_hal_tim_ex.c ****   /* Initialize the TIM state*/
 245:Drivers/STM32F7xx_HAL_Driver/Src/stm32f7xx_hal_tim_ex.c ****   htim->State= HAL_TIM_STATE_READY;
 246:Drivers/STM32F7xx_HAL_Driver/Src/stm32f7xx_hal_tim_ex.c **** 
 247:Drivers/STM32F7xx_HAL_Driver/Src/stm32f7xx_hal_tim_ex.c ****   return HAL_OK;
 248:Drivers/STM32F7xx_HAL_Driver/Src/stm32f7xx_hal_tim_ex.c **** }
 249:Drivers/STM32F7xx_HAL_Driver/Src/stm32f7xx_hal_tim_ex.c **** 
 250:Drivers/STM32F7xx_HAL_Driver/Src/stm32f7xx_hal_tim_ex.c **** /**
 251:Drivers/STM32F7xx_HAL_Driver/Src/stm32f7xx_hal_tim_ex.c ****   * @brief  DeInitializes the TIM Hall Sensor interface  
 252:Drivers/STM32F7xx_HAL_Driver/Src/stm32f7xx_hal_tim_ex.c ****   * @param  htim pointer to a TIM_HandleTypeDef structure that contains
 253:Drivers/STM32F7xx_HAL_Driver/Src/stm32f7xx_hal_tim_ex.c ****   *                the configuration information for TIM module.
 254:Drivers/STM32F7xx_HAL_Driver/Src/stm32f7xx_hal_tim_ex.c ****   * @retval HAL status
 255:Drivers/STM32F7xx_HAL_Driver/Src/stm32f7xx_hal_tim_ex.c ****   */
 256:Drivers/STM32F7xx_HAL_Driver/Src/stm32f7xx_hal_tim_ex.c **** HAL_StatusTypeDef HAL_TIMEx_HallSensor_DeInit(TIM_HandleTypeDef *htim)
 257:Drivers/STM32F7xx_HAL_Driver/Src/stm32f7xx_hal_tim_ex.c **** {
 258:Drivers/STM32F7xx_HAL_Driver/Src/stm32f7xx_hal_tim_ex.c ****   /* Check the parameters */
ARM GAS  /tmp/ccdraBPx.s 			page 6


 259:Drivers/STM32F7xx_HAL_Driver/Src/stm32f7xx_hal_tim_ex.c ****   assert_param(IS_TIM_INSTANCE(htim->Instance));
 260:Drivers/STM32F7xx_HAL_Driver/Src/stm32f7xx_hal_tim_ex.c **** 
 261:Drivers/STM32F7xx_HAL_Driver/Src/stm32f7xx_hal_tim_ex.c ****   htim->State = HAL_TIM_STATE_BUSY;
 262:Drivers/STM32F7xx_HAL_Driver/Src/stm32f7xx_hal_tim_ex.c ****   
 263:Drivers/STM32F7xx_HAL_Driver/Src/stm32f7xx_hal_tim_ex.c ****   /* Disable the TIM Peripheral Clock */
 264:Drivers/STM32F7xx_HAL_Driver/Src/stm32f7xx_hal_tim_ex.c ****   __HAL_TIM_DISABLE(htim);
 265:Drivers/STM32F7xx_HAL_Driver/Src/stm32f7xx_hal_tim_ex.c **** 
 266:Drivers/STM32F7xx_HAL_Driver/Src/stm32f7xx_hal_tim_ex.c **** #if (USE_HAL_TIM_REGISTER_CALLBACKS == 1)
 267:Drivers/STM32F7xx_HAL_Driver/Src/stm32f7xx_hal_tim_ex.c ****   if(htim->HallSensor_MspDeInitCallback == NULL)
 268:Drivers/STM32F7xx_HAL_Driver/Src/stm32f7xx_hal_tim_ex.c ****   {
 269:Drivers/STM32F7xx_HAL_Driver/Src/stm32f7xx_hal_tim_ex.c ****     htim->HallSensor_MspDeInitCallback = HAL_TIMEx_HallSensor_MspDeInit;
 270:Drivers/STM32F7xx_HAL_Driver/Src/stm32f7xx_hal_tim_ex.c ****   }
 271:Drivers/STM32F7xx_HAL_Driver/Src/stm32f7xx_hal_tim_ex.c ****   /* DeInit the low level hardware */
 272:Drivers/STM32F7xx_HAL_Driver/Src/stm32f7xx_hal_tim_ex.c ****   htim->HallSensor_MspDeInitCallback(htim);
 273:Drivers/STM32F7xx_HAL_Driver/Src/stm32f7xx_hal_tim_ex.c **** #else
 274:Drivers/STM32F7xx_HAL_Driver/Src/stm32f7xx_hal_tim_ex.c ****   /* DeInit the low level hardware: GPIO, CLOCK, NVIC */
 275:Drivers/STM32F7xx_HAL_Driver/Src/stm32f7xx_hal_tim_ex.c ****   HAL_TIMEx_HallSensor_MspDeInit(htim);
 276:Drivers/STM32F7xx_HAL_Driver/Src/stm32f7xx_hal_tim_ex.c **** #endif /* USE_HAL_TIM_REGISTER_CALLBACKS */
 277:Drivers/STM32F7xx_HAL_Driver/Src/stm32f7xx_hal_tim_ex.c **** 
 278:Drivers/STM32F7xx_HAL_Driver/Src/stm32f7xx_hal_tim_ex.c ****   /* Change TIM state */  
 279:Drivers/STM32F7xx_HAL_Driver/Src/stm32f7xx_hal_tim_ex.c ****   htim->State = HAL_TIM_STATE_RESET; 
 280:Drivers/STM32F7xx_HAL_Driver/Src/stm32f7xx_hal_tim_ex.c **** 
 281:Drivers/STM32F7xx_HAL_Driver/Src/stm32f7xx_hal_tim_ex.c ****   /* Release Lock */
 282:Drivers/STM32F7xx_HAL_Driver/Src/stm32f7xx_hal_tim_ex.c ****   __HAL_UNLOCK(htim);
 283:Drivers/STM32F7xx_HAL_Driver/Src/stm32f7xx_hal_tim_ex.c **** 
 284:Drivers/STM32F7xx_HAL_Driver/Src/stm32f7xx_hal_tim_ex.c ****   return HAL_OK;
 285:Drivers/STM32F7xx_HAL_Driver/Src/stm32f7xx_hal_tim_ex.c **** }
 286:Drivers/STM32F7xx_HAL_Driver/Src/stm32f7xx_hal_tim_ex.c **** 
 287:Drivers/STM32F7xx_HAL_Driver/Src/stm32f7xx_hal_tim_ex.c **** /**
 288:Drivers/STM32F7xx_HAL_Driver/Src/stm32f7xx_hal_tim_ex.c ****   * @brief  Initializes the TIM Hall Sensor MSP.
 289:Drivers/STM32F7xx_HAL_Driver/Src/stm32f7xx_hal_tim_ex.c ****   * @param  htim pointer to a TIM_HandleTypeDef structure that contains
 290:Drivers/STM32F7xx_HAL_Driver/Src/stm32f7xx_hal_tim_ex.c ****   *                the configuration information for TIM module.
 291:Drivers/STM32F7xx_HAL_Driver/Src/stm32f7xx_hal_tim_ex.c ****   * @retval None
 292:Drivers/STM32F7xx_HAL_Driver/Src/stm32f7xx_hal_tim_ex.c ****   */
 293:Drivers/STM32F7xx_HAL_Driver/Src/stm32f7xx_hal_tim_ex.c **** __weak void HAL_TIMEx_HallSensor_MspInit(TIM_HandleTypeDef *htim)
 294:Drivers/STM32F7xx_HAL_Driver/Src/stm32f7xx_hal_tim_ex.c **** {
  29              		.loc 1 294 0
  30              		.cfi_startproc
  31              		@ args = 0, pretend = 0, frame = 0
  32              		@ frame_needed = 0, uses_anonymous_args = 0
  33              		@ link register save eliminated.
  34              	.LVL0:
 295:Drivers/STM32F7xx_HAL_Driver/Src/stm32f7xx_hal_tim_ex.c ****   /* Prevent unused argument(s) compilation warning */
 296:Drivers/STM32F7xx_HAL_Driver/Src/stm32f7xx_hal_tim_ex.c ****   UNUSED(htim);
 297:Drivers/STM32F7xx_HAL_Driver/Src/stm32f7xx_hal_tim_ex.c ****  
 298:Drivers/STM32F7xx_HAL_Driver/Src/stm32f7xx_hal_tim_ex.c ****   /* NOTE : This function Should not be modified, when the callback is needed,
 299:Drivers/STM32F7xx_HAL_Driver/Src/stm32f7xx_hal_tim_ex.c ****             the HAL_TIMEx_HallSensor_MspInit could be implemented in the user file
 300:Drivers/STM32F7xx_HAL_Driver/Src/stm32f7xx_hal_tim_ex.c ****    */
 301:Drivers/STM32F7xx_HAL_Driver/Src/stm32f7xx_hal_tim_ex.c **** }
  35              		.loc 1 301 0
  36 0000 7047     		bx	lr
  37              		.cfi_endproc
  38              	.LFE140:
  40 0002 00BF     		.section	.text.HAL_TIMEx_HallSensor_Init,"ax",%progbits
  41              		.align	1
  42              		.p2align 2,,3
  43              		.global	HAL_TIMEx_HallSensor_Init
ARM GAS  /tmp/ccdraBPx.s 			page 7


  44              		.syntax unified
  45              		.thumb
  46              		.thumb_func
  47              		.fpu fpv4-sp-d16
  49              	HAL_TIMEx_HallSensor_Init:
  50              	.LFB138:
 165:Drivers/STM32F7xx_HAL_Driver/Src/stm32f7xx_hal_tim_ex.c ****   TIM_OC_InitTypeDef OC_Config;
  51              		.loc 1 165 0
  52              		.cfi_startproc
  53              		@ args = 0, pretend = 0, frame = 32
  54              		@ frame_needed = 0, uses_anonymous_args = 0
  55              	.LVL1:
 169:Drivers/STM32F7xx_HAL_Driver/Src/stm32f7xx_hal_tim_ex.c ****   {
  56              		.loc 1 169 0
  57 0000 0028     		cmp	r0, #0
  58 0002 57D0     		beq	.L6
 182:Drivers/STM32F7xx_HAL_Driver/Src/stm32f7xx_hal_tim_ex.c ****   {
  59              		.loc 1 182 0
  60 0004 90F83D30 		ldrb	r3, [r0, #61]	@ zero_extendqisi2
 165:Drivers/STM32F7xx_HAL_Driver/Src/stm32f7xx_hal_tim_ex.c ****   TIM_OC_InitTypeDef OC_Config;
  61              		.loc 1 165 0
  62 0008 F0B5     		push	{r4, r5, r6, r7, lr}
  63              	.LCFI0:
  64              		.cfi_def_cfa_offset 20
  65              		.cfi_offset 4, -20
  66              		.cfi_offset 5, -16
  67              		.cfi_offset 6, -12
  68              		.cfi_offset 7, -8
  69              		.cfi_offset 14, -4
 182:Drivers/STM32F7xx_HAL_Driver/Src/stm32f7xx_hal_tim_ex.c ****   {
  70              		.loc 1 182 0
  71 000a 03F0FF02 		and	r2, r3, #255
 165:Drivers/STM32F7xx_HAL_Driver/Src/stm32f7xx_hal_tim_ex.c ****   TIM_OC_InitTypeDef OC_Config;
  72              		.loc 1 165 0
  73 000e 89B0     		sub	sp, sp, #36
  74              	.LCFI1:
  75              		.cfi_def_cfa_offset 56
  76 0010 0446     		mov	r4, r0
  77 0012 0E46     		mov	r6, r1
 182:Drivers/STM32F7xx_HAL_Driver/Src/stm32f7xx_hal_tim_ex.c ****   {
  78              		.loc 1 182 0
  79 0014 002B     		cmp	r3, #0
  80 0016 48D0     		beq	.L11
  81              	.LVL2:
  82              	.L5:
 204:Drivers/STM32F7xx_HAL_Driver/Src/stm32f7xx_hal_tim_ex.c **** 
  83              		.loc 1 204 0
  84 0018 0223     		movs	r3, #2
 207:Drivers/STM32F7xx_HAL_Driver/Src/stm32f7xx_hal_tim_ex.c ****   
  85              		.loc 1 207 0
  86 001a 211D     		adds	r1, r4, #4
  87 001c 2068     		ldr	r0, [r4]
 229:Drivers/STM32F7xx_HAL_Driver/Src/stm32f7xx_hal_tim_ex.c ****   OC_Config.OCIdleState = TIM_OCIDLESTATE_RESET;
  88              		.loc 1 229 0
  89 001e 0025     		movs	r5, #0
 204:Drivers/STM32F7xx_HAL_Driver/Src/stm32f7xx_hal_tim_ex.c **** 
  90              		.loc 1 204 0
ARM GAS  /tmp/ccdraBPx.s 			page 8


  91 0020 84F83D30 		strb	r3, [r4, #61]
 207:Drivers/STM32F7xx_HAL_Driver/Src/stm32f7xx_hal_tim_ex.c ****   
  92              		.loc 1 207 0
  93 0024 FFF7FEFF 		bl	TIM_Base_SetConfig
  94              	.LVL3:
 210:Drivers/STM32F7xx_HAL_Driver/Src/stm32f7xx_hal_tim_ex.c ****   
  95              		.loc 1 210 0
  96 0028 B368     		ldr	r3, [r6, #8]
  97 002a 3168     		ldr	r1, [r6]
  98 002c 0322     		movs	r2, #3
  99 002e 2068     		ldr	r0, [r4]
 100 0030 FFF7FEFF 		bl	TIM_TI1_SetConfig
 101              	.LVL4:
 213:Drivers/STM32F7xx_HAL_Driver/Src/stm32f7xx_hal_tim_ex.c ****   /* Set the IC1PSC value */
 102              		.loc 1 213 0
 103 0034 2368     		ldr	r3, [r4]
 215:Drivers/STM32F7xx_HAL_Driver/Src/stm32f7xx_hal_tim_ex.c ****   
 104              		.loc 1 215 0
 105 0036 D6F804C0 		ldr	ip, [r6, #4]
 231:Drivers/STM32F7xx_HAL_Driver/Src/stm32f7xx_hal_tim_ex.c ****   OC_Config.OCNIdleState = TIM_OCNIDLESTATE_RESET;
 106              		.loc 1 231 0
 107 003a 7022     		movs	r2, #112
 213:Drivers/STM32F7xx_HAL_Driver/Src/stm32f7xx_hal_tim_ex.c ****   /* Set the IC1PSC value */
 108              		.loc 1 213 0
 109 003c 9969     		ldr	r1, [r3, #24]
 237:Drivers/STM32F7xx_HAL_Driver/Src/stm32f7xx_hal_tim_ex.c ****   
 110              		.loc 1 237 0
 111 003e 1846     		mov	r0, r3
 235:Drivers/STM32F7xx_HAL_Driver/Src/stm32f7xx_hal_tim_ex.c ****     
 112              		.loc 1 235 0
 113 0040 F768     		ldr	r7, [r6, #12]
 213:Drivers/STM32F7xx_HAL_Driver/Src/stm32f7xx_hal_tim_ex.c ****   /* Set the IC1PSC value */
 114              		.loc 1 213 0
 115 0042 21F00C01 		bic	r1, r1, #12
 231:Drivers/STM32F7xx_HAL_Driver/Src/stm32f7xx_hal_tim_ex.c ****   OC_Config.OCNIdleState = TIM_OCNIDLESTATE_RESET;
 116              		.loc 1 231 0
 117 0046 0192     		str	r2, [sp, #4]
 225:Drivers/STM32F7xx_HAL_Driver/Src/stm32f7xx_hal_tim_ex.c ****   htim->Instance->SMCR |= TIM_SLAVEMODE_RESET;
 118              		.loc 1 225 0
 119 0048 1B4A     		ldr	r2, .L12
 213:Drivers/STM32F7xx_HAL_Driver/Src/stm32f7xx_hal_tim_ex.c ****   /* Set the IC1PSC value */
 120              		.loc 1 213 0
 121 004a 9961     		str	r1, [r3, #24]
 237:Drivers/STM32F7xx_HAL_Driver/Src/stm32f7xx_hal_tim_ex.c ****   
 122              		.loc 1 237 0
 123 004c 01A9     		add	r1, sp, #4
 215:Drivers/STM32F7xx_HAL_Driver/Src/stm32f7xx_hal_tim_ex.c ****   
 124              		.loc 1 215 0
 125 004e 9E69     		ldr	r6, [r3, #24]
 126              	.LVL5:
 127 0050 46EA0C06 		orr	r6, r6, ip
 128 0054 9E61     		str	r6, [r3, #24]
 218:Drivers/STM32F7xx_HAL_Driver/Src/stm32f7xx_hal_tim_ex.c ****   
 129              		.loc 1 218 0
 130 0056 5E68     		ldr	r6, [r3, #4]
 131 0058 46F08006 		orr	r6, r6, #128
 132 005c 5E60     		str	r6, [r3, #4]
ARM GAS  /tmp/ccdraBPx.s 			page 9


 221:Drivers/STM32F7xx_HAL_Driver/Src/stm32f7xx_hal_tim_ex.c ****   htim->Instance->SMCR |= TIM_TS_TI1F_ED;
 133              		.loc 1 221 0
 134 005e 9E68     		ldr	r6, [r3, #8]
 235:Drivers/STM32F7xx_HAL_Driver/Src/stm32f7xx_hal_tim_ex.c ****     
 135              		.loc 1 235 0
 136 0060 0297     		str	r7, [sp, #8]
 221:Drivers/STM32F7xx_HAL_Driver/Src/stm32f7xx_hal_tim_ex.c ****   htim->Instance->SMCR |= TIM_TS_TI1F_ED;
 137              		.loc 1 221 0
 138 0062 26F07006 		bic	r6, r6, #112
 139 0066 9E60     		str	r6, [r3, #8]
 222:Drivers/STM32F7xx_HAL_Driver/Src/stm32f7xx_hal_tim_ex.c ****   
 140              		.loc 1 222 0
 141 0068 9E68     		ldr	r6, [r3, #8]
 142 006a 46F04006 		orr	r6, r6, #64
 143 006e 9E60     		str	r6, [r3, #8]
 225:Drivers/STM32F7xx_HAL_Driver/Src/stm32f7xx_hal_tim_ex.c ****   htim->Instance->SMCR |= TIM_SLAVEMODE_RESET;
 144              		.loc 1 225 0
 145 0070 9E68     		ldr	r6, [r3, #8]
 146 0072 3240     		ands	r2, r2, r6
 147 0074 9A60     		str	r2, [r3, #8]
 226:Drivers/STM32F7xx_HAL_Driver/Src/stm32f7xx_hal_tim_ex.c ****   
 148              		.loc 1 226 0
 149 0076 9A68     		ldr	r2, [r3, #8]
 150 0078 42F00402 		orr	r2, r2, #4
 151 007c 9A60     		str	r2, [r3, #8]
 232:Drivers/STM32F7xx_HAL_Driver/Src/stm32f7xx_hal_tim_ex.c ****   OC_Config.OCNPolarity = TIM_OCNPOLARITY_HIGH;
 152              		.loc 1 232 0
 153 007e 0795     		str	r5, [sp, #28]
 230:Drivers/STM32F7xx_HAL_Driver/Src/stm32f7xx_hal_tim_ex.c ****   OC_Config.OCMode = TIM_OCMODE_PWM2;
 154              		.loc 1 230 0
 155 0080 CDE90555 		strd	r5, r5, [sp, #20]
 234:Drivers/STM32F7xx_HAL_Driver/Src/stm32f7xx_hal_tim_ex.c ****   OC_Config.Pulse = sConfig->Commutation_Delay; 
 156              		.loc 1 234 0
 157 0084 CDE90355 		strd	r5, r5, [sp, #12]
 237:Drivers/STM32F7xx_HAL_Driver/Src/stm32f7xx_hal_tim_ex.c ****   
 158              		.loc 1 237 0
 159 0088 FFF7FEFF 		bl	TIM_OC2_SetConfig
 160              	.LVL6:
 241:Drivers/STM32F7xx_HAL_Driver/Src/stm32f7xx_hal_tim_ex.c ****   htim->Instance->CR2 |= TIM_TRGO_OC2REF; 
 161              		.loc 1 241 0
 162 008c 2368     		ldr	r3, [r4]
 245:Drivers/STM32F7xx_HAL_Driver/Src/stm32f7xx_hal_tim_ex.c **** 
 163              		.loc 1 245 0
 164 008e 0121     		movs	r1, #1
 247:Drivers/STM32F7xx_HAL_Driver/Src/stm32f7xx_hal_tim_ex.c **** }
 165              		.loc 1 247 0
 166 0090 2846     		mov	r0, r5
 241:Drivers/STM32F7xx_HAL_Driver/Src/stm32f7xx_hal_tim_ex.c ****   htim->Instance->CR2 |= TIM_TRGO_OC2REF; 
 167              		.loc 1 241 0
 168 0092 5A68     		ldr	r2, [r3, #4]
 169 0094 22F07002 		bic	r2, r2, #112
 170 0098 5A60     		str	r2, [r3, #4]
 242:Drivers/STM32F7xx_HAL_Driver/Src/stm32f7xx_hal_tim_ex.c ****   
 171              		.loc 1 242 0
 172 009a 5A68     		ldr	r2, [r3, #4]
 173 009c 42F05002 		orr	r2, r2, #80
 174 00a0 5A60     		str	r2, [r3, #4]
ARM GAS  /tmp/ccdraBPx.s 			page 10


 245:Drivers/STM32F7xx_HAL_Driver/Src/stm32f7xx_hal_tim_ex.c **** 
 175              		.loc 1 245 0
 176 00a2 84F83D10 		strb	r1, [r4, #61]
 248:Drivers/STM32F7xx_HAL_Driver/Src/stm32f7xx_hal_tim_ex.c **** 
 177              		.loc 1 248 0
 178 00a6 09B0     		add	sp, sp, #36
 179              	.LCFI2:
 180              		.cfi_remember_state
 181              		.cfi_def_cfa_offset 20
 182              		@ sp needed
 183 00a8 F0BD     		pop	{r4, r5, r6, r7, pc}
 184              	.LVL7:
 185              	.L11:
 186              	.LCFI3:
 187              		.cfi_restore_state
 185:Drivers/STM32F7xx_HAL_Driver/Src/stm32f7xx_hal_tim_ex.c **** 
 188              		.loc 1 185 0
 189 00aa 80F83C20 		strb	r2, [r0, #60]
 199:Drivers/STM32F7xx_HAL_Driver/Src/stm32f7xx_hal_tim_ex.c **** #endif /* USE_HAL_TIM_REGISTER_CALLBACKS */
 190              		.loc 1 199 0
 191 00ae FFF7FEFF 		bl	HAL_TIMEx_HallSensor_MspInit
 192              	.LVL8:
 193 00b2 B1E7     		b	.L5
 194              	.LVL9:
 195              	.L6:
 196              	.LCFI4:
 197              		.cfi_def_cfa_offset 0
 198              		.cfi_restore 4
 199              		.cfi_restore 5
 200              		.cfi_restore 6
 201              		.cfi_restore 7
 202              		.cfi_restore 14
 171:Drivers/STM32F7xx_HAL_Driver/Src/stm32f7xx_hal_tim_ex.c ****   }
 203              		.loc 1 171 0
 204 00b4 0120     		movs	r0, #1
 205              	.LVL10:
 248:Drivers/STM32F7xx_HAL_Driver/Src/stm32f7xx_hal_tim_ex.c **** 
 206              		.loc 1 248 0
 207 00b6 7047     		bx	lr
 208              	.L13:
 209              		.align	2
 210              	.L12:
 211 00b8 F8FFFEFF 		.word	-65544
 212              		.cfi_endproc
 213              	.LFE138:
 215              		.section	.text.HAL_TIMEx_HallSensor_MspDeInit,"ax",%progbits
 216              		.align	1
 217              		.p2align 2,,3
 218              		.weak	HAL_TIMEx_HallSensor_MspDeInit
 219              		.syntax unified
 220              		.thumb
 221              		.thumb_func
 222              		.fpu fpv4-sp-d16
 224              	HAL_TIMEx_HallSensor_MspDeInit:
 225              	.LFB182:
 226              		.cfi_startproc
 227              		@ args = 0, pretend = 0, frame = 0
ARM GAS  /tmp/ccdraBPx.s 			page 11


 228              		@ frame_needed = 0, uses_anonymous_args = 0
 229              		@ link register save eliminated.
 230 0000 7047     		bx	lr
 231              		.cfi_endproc
 232              	.LFE182:
 234 0002 00BF     		.section	.text.HAL_TIMEx_HallSensor_DeInit,"ax",%progbits
 235              		.align	1
 236              		.p2align 2,,3
 237              		.global	HAL_TIMEx_HallSensor_DeInit
 238              		.syntax unified
 239              		.thumb
 240              		.thumb_func
 241              		.fpu fpv4-sp-d16
 243              	HAL_TIMEx_HallSensor_DeInit:
 244              	.LFB139:
 257:Drivers/STM32F7xx_HAL_Driver/Src/stm32f7xx_hal_tim_ex.c ****   /* Check the parameters */
 245              		.loc 1 257 0
 246              		.cfi_startproc
 247              		@ args = 0, pretend = 0, frame = 0
 248              		@ frame_needed = 0, uses_anonymous_args = 0
 249              	.LVL11:
 261:Drivers/STM32F7xx_HAL_Driver/Src/stm32f7xx_hal_tim_ex.c ****   
 250              		.loc 1 261 0
 251 0000 0221     		movs	r1, #2
 264:Drivers/STM32F7xx_HAL_Driver/Src/stm32f7xx_hal_tim_ex.c **** 
 252              		.loc 1 264 0
 253 0002 0368     		ldr	r3, [r0]
 254 0004 41F21112 		movw	r2, #4369
 257:Drivers/STM32F7xx_HAL_Driver/Src/stm32f7xx_hal_tim_ex.c ****   /* Check the parameters */
 255              		.loc 1 257 0
 256 0008 10B5     		push	{r4, lr}
 257              	.LCFI5:
 258              		.cfi_def_cfa_offset 8
 259              		.cfi_offset 4, -8
 260              		.cfi_offset 14, -4
 261:Drivers/STM32F7xx_HAL_Driver/Src/stm32f7xx_hal_tim_ex.c ****   
 261              		.loc 1 261 0
 262 000a 80F83D10 		strb	r1, [r0, #61]
 257:Drivers/STM32F7xx_HAL_Driver/Src/stm32f7xx_hal_tim_ex.c ****   /* Check the parameters */
 263              		.loc 1 257 0
 264 000e 0446     		mov	r4, r0
 264:Drivers/STM32F7xx_HAL_Driver/Src/stm32f7xx_hal_tim_ex.c **** 
 265              		.loc 1 264 0
 266 0010 196A     		ldr	r1, [r3, #32]
 267 0012 1142     		tst	r1, r2
 268 0014 08D1     		bne	.L16
 264:Drivers/STM32F7xx_HAL_Driver/Src/stm32f7xx_hal_tim_ex.c **** 
 269              		.loc 1 264 0 is_stmt 0 discriminator 1
 270 0016 196A     		ldr	r1, [r3, #32]
 271 0018 40F24442 		movw	r2, #1092
 272 001c 1142     		tst	r1, r2
 273 001e 03D1     		bne	.L16
 264:Drivers/STM32F7xx_HAL_Driver/Src/stm32f7xx_hal_tim_ex.c **** 
 274              		.loc 1 264 0 discriminator 2
 275 0020 1A68     		ldr	r2, [r3]
 276 0022 22F00102 		bic	r2, r2, #1
 277 0026 1A60     		str	r2, [r3]
ARM GAS  /tmp/ccdraBPx.s 			page 12


 278              	.L16:
 275:Drivers/STM32F7xx_HAL_Driver/Src/stm32f7xx_hal_tim_ex.c **** #endif /* USE_HAL_TIM_REGISTER_CALLBACKS */
 279              		.loc 1 275 0 is_stmt 1
 280 0028 2046     		mov	r0, r4
 281              	.LVL12:
 282 002a FFF7FEFF 		bl	HAL_TIMEx_HallSensor_MspDeInit
 283              	.LVL13:
 279:Drivers/STM32F7xx_HAL_Driver/Src/stm32f7xx_hal_tim_ex.c **** 
 284              		.loc 1 279 0
 285 002e 0023     		movs	r3, #0
 286 0030 84F83D30 		strb	r3, [r4, #61]
 285:Drivers/STM32F7xx_HAL_Driver/Src/stm32f7xx_hal_tim_ex.c **** 
 287              		.loc 1 285 0
 288 0034 1846     		mov	r0, r3
 282:Drivers/STM32F7xx_HAL_Driver/Src/stm32f7xx_hal_tim_ex.c **** 
 289              		.loc 1 282 0
 290 0036 84F83C30 		strb	r3, [r4, #60]
 285:Drivers/STM32F7xx_HAL_Driver/Src/stm32f7xx_hal_tim_ex.c **** 
 291              		.loc 1 285 0
 292 003a 10BD     		pop	{r4, pc}
 293              		.cfi_endproc
 294              	.LFE139:
 296              		.section	.text.HAL_TIMEx_HallSensor_Start,"ax",%progbits
 297              		.align	1
 298              		.p2align 2,,3
 299              		.global	HAL_TIMEx_HallSensor_Start
 300              		.syntax unified
 301              		.thumb
 302              		.thumb_func
 303              		.fpu fpv4-sp-d16
 305              	HAL_TIMEx_HallSensor_Start:
 306              	.LFB142:
 302:Drivers/STM32F7xx_HAL_Driver/Src/stm32f7xx_hal_tim_ex.c **** 
 303:Drivers/STM32F7xx_HAL_Driver/Src/stm32f7xx_hal_tim_ex.c **** /**
 304:Drivers/STM32F7xx_HAL_Driver/Src/stm32f7xx_hal_tim_ex.c ****   * @brief  DeInitializes TIM Hall Sensor MSP.
 305:Drivers/STM32F7xx_HAL_Driver/Src/stm32f7xx_hal_tim_ex.c ****   * @param  htim pointer to a TIM_HandleTypeDef structure that contains
 306:Drivers/STM32F7xx_HAL_Driver/Src/stm32f7xx_hal_tim_ex.c ****   *                the configuration information for TIM module.
 307:Drivers/STM32F7xx_HAL_Driver/Src/stm32f7xx_hal_tim_ex.c ****   * @retval None
 308:Drivers/STM32F7xx_HAL_Driver/Src/stm32f7xx_hal_tim_ex.c ****   */
 309:Drivers/STM32F7xx_HAL_Driver/Src/stm32f7xx_hal_tim_ex.c **** __weak void HAL_TIMEx_HallSensor_MspDeInit(TIM_HandleTypeDef *htim)
 310:Drivers/STM32F7xx_HAL_Driver/Src/stm32f7xx_hal_tim_ex.c **** {
 311:Drivers/STM32F7xx_HAL_Driver/Src/stm32f7xx_hal_tim_ex.c ****   /* Prevent unused argument(s) compilation warning */
 312:Drivers/STM32F7xx_HAL_Driver/Src/stm32f7xx_hal_tim_ex.c ****   UNUSED(htim);
 313:Drivers/STM32F7xx_HAL_Driver/Src/stm32f7xx_hal_tim_ex.c ****  
 314:Drivers/STM32F7xx_HAL_Driver/Src/stm32f7xx_hal_tim_ex.c ****   /* NOTE : This function Should not be modified, when the callback is needed,
 315:Drivers/STM32F7xx_HAL_Driver/Src/stm32f7xx_hal_tim_ex.c ****             the HAL_TIMEx_HallSensor_MspDeInit could be implemented in the user file
 316:Drivers/STM32F7xx_HAL_Driver/Src/stm32f7xx_hal_tim_ex.c ****    */
 317:Drivers/STM32F7xx_HAL_Driver/Src/stm32f7xx_hal_tim_ex.c **** }
 318:Drivers/STM32F7xx_HAL_Driver/Src/stm32f7xx_hal_tim_ex.c **** 
 319:Drivers/STM32F7xx_HAL_Driver/Src/stm32f7xx_hal_tim_ex.c **** /**
 320:Drivers/STM32F7xx_HAL_Driver/Src/stm32f7xx_hal_tim_ex.c ****   * @brief  Starts the TIM Hall Sensor Interface.
 321:Drivers/STM32F7xx_HAL_Driver/Src/stm32f7xx_hal_tim_ex.c ****   * @param  htim pointer to a TIM_HandleTypeDef structure that contains
 322:Drivers/STM32F7xx_HAL_Driver/Src/stm32f7xx_hal_tim_ex.c ****   *                the configuration information for TIM module.
 323:Drivers/STM32F7xx_HAL_Driver/Src/stm32f7xx_hal_tim_ex.c ****   * @retval HAL status
 324:Drivers/STM32F7xx_HAL_Driver/Src/stm32f7xx_hal_tim_ex.c ****   */
 325:Drivers/STM32F7xx_HAL_Driver/Src/stm32f7xx_hal_tim_ex.c **** HAL_StatusTypeDef HAL_TIMEx_HallSensor_Start(TIM_HandleTypeDef *htim)
 326:Drivers/STM32F7xx_HAL_Driver/Src/stm32f7xx_hal_tim_ex.c **** {
ARM GAS  /tmp/ccdraBPx.s 			page 13


 307              		.loc 1 326 0
 308              		.cfi_startproc
 309              		@ args = 0, pretend = 0, frame = 0
 310              		@ frame_needed = 0, uses_anonymous_args = 0
 311              	.LVL14:
 312 0000 10B5     		push	{r4, lr}
 313              	.LCFI6:
 314              		.cfi_def_cfa_offset 8
 315              		.cfi_offset 4, -8
 316              		.cfi_offset 14, -4
 317              		.loc 1 326 0
 318 0002 0446     		mov	r4, r0
 327:Drivers/STM32F7xx_HAL_Driver/Src/stm32f7xx_hal_tim_ex.c ****   /* Check the parameters */
 328:Drivers/STM32F7xx_HAL_Driver/Src/stm32f7xx_hal_tim_ex.c ****   assert_param(IS_TIM_XOR_INSTANCE(htim->Instance));
 329:Drivers/STM32F7xx_HAL_Driver/Src/stm32f7xx_hal_tim_ex.c ****   
 330:Drivers/STM32F7xx_HAL_Driver/Src/stm32f7xx_hal_tim_ex.c ****   /* Enable the Input Capture channels 1
 331:Drivers/STM32F7xx_HAL_Driver/Src/stm32f7xx_hal_tim_ex.c ****     (in the Hall Sensor Interface the Three possible channels that can be used are TIM_CHANNEL_1, T
 332:Drivers/STM32F7xx_HAL_Driver/Src/stm32f7xx_hal_tim_ex.c ****   TIM_CCxChannelCmd(htim->Instance, TIM_CHANNEL_1, TIM_CCx_ENABLE); 
 319              		.loc 1 332 0
 320 0004 0122     		movs	r2, #1
 321 0006 0021     		movs	r1, #0
 322 0008 0068     		ldr	r0, [r0]
 323              	.LVL15:
 324 000a FFF7FEFF 		bl	TIM_CCxChannelCmd
 325              	.LVL16:
 333:Drivers/STM32F7xx_HAL_Driver/Src/stm32f7xx_hal_tim_ex.c ****   
 334:Drivers/STM32F7xx_HAL_Driver/Src/stm32f7xx_hal_tim_ex.c ****   /* Enable the Peripheral */
 335:Drivers/STM32F7xx_HAL_Driver/Src/stm32f7xx_hal_tim_ex.c ****   __HAL_TIM_ENABLE(htim);
 326              		.loc 1 335 0
 327 000e 2268     		ldr	r2, [r4]
 336:Drivers/STM32F7xx_HAL_Driver/Src/stm32f7xx_hal_tim_ex.c ****   
 337:Drivers/STM32F7xx_HAL_Driver/Src/stm32f7xx_hal_tim_ex.c ****   /* Return function status */
 338:Drivers/STM32F7xx_HAL_Driver/Src/stm32f7xx_hal_tim_ex.c ****   return HAL_OK;
 339:Drivers/STM32F7xx_HAL_Driver/Src/stm32f7xx_hal_tim_ex.c **** }
 328              		.loc 1 339 0
 329 0010 0020     		movs	r0, #0
 335:Drivers/STM32F7xx_HAL_Driver/Src/stm32f7xx_hal_tim_ex.c ****   
 330              		.loc 1 335 0
 331 0012 1368     		ldr	r3, [r2]
 332 0014 43F00103 		orr	r3, r3, #1
 333 0018 1360     		str	r3, [r2]
 334              		.loc 1 339 0
 335 001a 10BD     		pop	{r4, pc}
 336              		.cfi_endproc
 337              	.LFE142:
 339              		.section	.text.HAL_TIMEx_HallSensor_Stop,"ax",%progbits
 340              		.align	1
 341              		.p2align 2,,3
 342              		.global	HAL_TIMEx_HallSensor_Stop
 343              		.syntax unified
 344              		.thumb
 345              		.thumb_func
 346              		.fpu fpv4-sp-d16
 348              	HAL_TIMEx_HallSensor_Stop:
 349              	.LFB143:
 340:Drivers/STM32F7xx_HAL_Driver/Src/stm32f7xx_hal_tim_ex.c **** 
 341:Drivers/STM32F7xx_HAL_Driver/Src/stm32f7xx_hal_tim_ex.c **** /**
ARM GAS  /tmp/ccdraBPx.s 			page 14


 342:Drivers/STM32F7xx_HAL_Driver/Src/stm32f7xx_hal_tim_ex.c ****   * @brief  Stops the TIM Hall sensor Interface.
 343:Drivers/STM32F7xx_HAL_Driver/Src/stm32f7xx_hal_tim_ex.c ****   * @param  htim pointer to a TIM_HandleTypeDef structure that contains
 344:Drivers/STM32F7xx_HAL_Driver/Src/stm32f7xx_hal_tim_ex.c ****   *                the configuration information for TIM module.
 345:Drivers/STM32F7xx_HAL_Driver/Src/stm32f7xx_hal_tim_ex.c ****   * @retval HAL status
 346:Drivers/STM32F7xx_HAL_Driver/Src/stm32f7xx_hal_tim_ex.c ****   */
 347:Drivers/STM32F7xx_HAL_Driver/Src/stm32f7xx_hal_tim_ex.c **** HAL_StatusTypeDef HAL_TIMEx_HallSensor_Stop(TIM_HandleTypeDef *htim)
 348:Drivers/STM32F7xx_HAL_Driver/Src/stm32f7xx_hal_tim_ex.c **** {
 350              		.loc 1 348 0
 351              		.cfi_startproc
 352              		@ args = 0, pretend = 0, frame = 0
 353              		@ frame_needed = 0, uses_anonymous_args = 0
 354              	.LVL17:
 349:Drivers/STM32F7xx_HAL_Driver/Src/stm32f7xx_hal_tim_ex.c ****   /* Check the parameters */
 350:Drivers/STM32F7xx_HAL_Driver/Src/stm32f7xx_hal_tim_ex.c ****   assert_param(IS_TIM_XOR_INSTANCE(htim->Instance));
 351:Drivers/STM32F7xx_HAL_Driver/Src/stm32f7xx_hal_tim_ex.c ****   
 352:Drivers/STM32F7xx_HAL_Driver/Src/stm32f7xx_hal_tim_ex.c ****   /* Disable the Input Capture channels 1, 2 and 3
 353:Drivers/STM32F7xx_HAL_Driver/Src/stm32f7xx_hal_tim_ex.c ****     (in the Hall Sensor Interface the Three possible channels that can be used are TIM_CHANNEL_1, T
 354:Drivers/STM32F7xx_HAL_Driver/Src/stm32f7xx_hal_tim_ex.c ****   TIM_CCxChannelCmd(htim->Instance, TIM_CHANNEL_1, TIM_CCx_DISABLE); 
 355              		.loc 1 354 0
 356 0000 0022     		movs	r2, #0
 348:Drivers/STM32F7xx_HAL_Driver/Src/stm32f7xx_hal_tim_ex.c ****   /* Check the parameters */
 357              		.loc 1 348 0
 358 0002 10B5     		push	{r4, lr}
 359              	.LCFI7:
 360              		.cfi_def_cfa_offset 8
 361              		.cfi_offset 4, -8
 362              		.cfi_offset 14, -4
 348:Drivers/STM32F7xx_HAL_Driver/Src/stm32f7xx_hal_tim_ex.c ****   /* Check the parameters */
 363              		.loc 1 348 0
 364 0004 0446     		mov	r4, r0
 365              		.loc 1 354 0
 366 0006 1146     		mov	r1, r2
 367 0008 0068     		ldr	r0, [r0]
 368              	.LVL18:
 369 000a FFF7FEFF 		bl	TIM_CCxChannelCmd
 370              	.LVL19:
 355:Drivers/STM32F7xx_HAL_Driver/Src/stm32f7xx_hal_tim_ex.c **** 
 356:Drivers/STM32F7xx_HAL_Driver/Src/stm32f7xx_hal_tim_ex.c ****   /* Disable the Peripheral */
 357:Drivers/STM32F7xx_HAL_Driver/Src/stm32f7xx_hal_tim_ex.c ****   __HAL_TIM_DISABLE(htim);
 371              		.loc 1 357 0
 372 000e 2368     		ldr	r3, [r4]
 373 0010 41F21112 		movw	r2, #4369
 374 0014 196A     		ldr	r1, [r3, #32]
 375 0016 1142     		tst	r1, r2
 376 0018 08D1     		bne	.L21
 377              		.loc 1 357 0 is_stmt 0 discriminator 1
 378 001a 196A     		ldr	r1, [r3, #32]
 379 001c 40F24442 		movw	r2, #1092
 380 0020 1142     		tst	r1, r2
 381 0022 03D1     		bne	.L21
 382              		.loc 1 357 0 discriminator 2
 383 0024 1A68     		ldr	r2, [r3]
 384 0026 22F00102 		bic	r2, r2, #1
 385 002a 1A60     		str	r2, [r3]
 386              	.L21:
 358:Drivers/STM32F7xx_HAL_Driver/Src/stm32f7xx_hal_tim_ex.c ****   
 359:Drivers/STM32F7xx_HAL_Driver/Src/stm32f7xx_hal_tim_ex.c ****   /* Return function status */
ARM GAS  /tmp/ccdraBPx.s 			page 15


 360:Drivers/STM32F7xx_HAL_Driver/Src/stm32f7xx_hal_tim_ex.c ****   return HAL_OK;
 361:Drivers/STM32F7xx_HAL_Driver/Src/stm32f7xx_hal_tim_ex.c **** }
 387              		.loc 1 361 0 is_stmt 1
 388 002c 0020     		movs	r0, #0
 389 002e 10BD     		pop	{r4, pc}
 390              		.cfi_endproc
 391              	.LFE143:
 393              		.section	.text.HAL_TIMEx_HallSensor_Start_IT,"ax",%progbits
 394              		.align	1
 395              		.p2align 2,,3
 396              		.global	HAL_TIMEx_HallSensor_Start_IT
 397              		.syntax unified
 398              		.thumb
 399              		.thumb_func
 400              		.fpu fpv4-sp-d16
 402              	HAL_TIMEx_HallSensor_Start_IT:
 403              	.LFB144:
 362:Drivers/STM32F7xx_HAL_Driver/Src/stm32f7xx_hal_tim_ex.c **** 
 363:Drivers/STM32F7xx_HAL_Driver/Src/stm32f7xx_hal_tim_ex.c **** /**
 364:Drivers/STM32F7xx_HAL_Driver/Src/stm32f7xx_hal_tim_ex.c ****   * @brief  Starts the TIM Hall Sensor Interface in interrupt mode.
 365:Drivers/STM32F7xx_HAL_Driver/Src/stm32f7xx_hal_tim_ex.c ****   * @param  htim pointer to a TIM_HandleTypeDef structure that contains
 366:Drivers/STM32F7xx_HAL_Driver/Src/stm32f7xx_hal_tim_ex.c ****   *                the configuration information for TIM module.
 367:Drivers/STM32F7xx_HAL_Driver/Src/stm32f7xx_hal_tim_ex.c ****   * @retval HAL status
 368:Drivers/STM32F7xx_HAL_Driver/Src/stm32f7xx_hal_tim_ex.c ****   */
 369:Drivers/STM32F7xx_HAL_Driver/Src/stm32f7xx_hal_tim_ex.c **** HAL_StatusTypeDef HAL_TIMEx_HallSensor_Start_IT(TIM_HandleTypeDef *htim)
 370:Drivers/STM32F7xx_HAL_Driver/Src/stm32f7xx_hal_tim_ex.c **** { 
 404              		.loc 1 370 0
 405              		.cfi_startproc
 406              		@ args = 0, pretend = 0, frame = 0
 407              		@ frame_needed = 0, uses_anonymous_args = 0
 408              	.LVL20:
 409 0000 38B5     		push	{r3, r4, r5, lr}
 410              	.LCFI8:
 411              		.cfi_def_cfa_offset 16
 412              		.cfi_offset 3, -16
 413              		.cfi_offset 4, -12
 414              		.cfi_offset 5, -8
 415              		.cfi_offset 14, -4
 371:Drivers/STM32F7xx_HAL_Driver/Src/stm32f7xx_hal_tim_ex.c ****   /* Check the parameters */
 372:Drivers/STM32F7xx_HAL_Driver/Src/stm32f7xx_hal_tim_ex.c ****   assert_param(IS_TIM_XOR_INSTANCE(htim->Instance));
 373:Drivers/STM32F7xx_HAL_Driver/Src/stm32f7xx_hal_tim_ex.c ****   
 374:Drivers/STM32F7xx_HAL_Driver/Src/stm32f7xx_hal_tim_ex.c ****   /* Enable the capture compare Interrupts 1 event */
 375:Drivers/STM32F7xx_HAL_Driver/Src/stm32f7xx_hal_tim_ex.c ****   __HAL_TIM_ENABLE_IT(htim, TIM_IT_CC1);
 416              		.loc 1 375 0
 417 0002 0368     		ldr	r3, [r0]
 370:Drivers/STM32F7xx_HAL_Driver/Src/stm32f7xx_hal_tim_ex.c ****   /* Check the parameters */
 418              		.loc 1 370 0
 419 0004 0546     		mov	r5, r0
 376:Drivers/STM32F7xx_HAL_Driver/Src/stm32f7xx_hal_tim_ex.c ****   
 377:Drivers/STM32F7xx_HAL_Driver/Src/stm32f7xx_hal_tim_ex.c ****   /* Enable the Input Capture channels 1
 378:Drivers/STM32F7xx_HAL_Driver/Src/stm32f7xx_hal_tim_ex.c ****     (in the Hall Sensor Interface the Three possible channels that can be used are TIM_CHANNEL_1, T
 379:Drivers/STM32F7xx_HAL_Driver/Src/stm32f7xx_hal_tim_ex.c ****   TIM_CCxChannelCmd(htim->Instance, TIM_CHANNEL_1, TIM_CCx_ENABLE);  
 420              		.loc 1 379 0
 421 0006 0122     		movs	r2, #1
 422 0008 0021     		movs	r1, #0
 375:Drivers/STM32F7xx_HAL_Driver/Src/stm32f7xx_hal_tim_ex.c ****   
 423              		.loc 1 375 0
ARM GAS  /tmp/ccdraBPx.s 			page 16


 424 000a DC68     		ldr	r4, [r3, #12]
 425              		.loc 1 379 0
 426 000c 1846     		mov	r0, r3
 427              	.LVL21:
 375:Drivers/STM32F7xx_HAL_Driver/Src/stm32f7xx_hal_tim_ex.c ****   
 428              		.loc 1 375 0
 429 000e 44F00204 		orr	r4, r4, #2
 430 0012 DC60     		str	r4, [r3, #12]
 431              		.loc 1 379 0
 432 0014 FFF7FEFF 		bl	TIM_CCxChannelCmd
 433              	.LVL22:
 380:Drivers/STM32F7xx_HAL_Driver/Src/stm32f7xx_hal_tim_ex.c ****   
 381:Drivers/STM32F7xx_HAL_Driver/Src/stm32f7xx_hal_tim_ex.c ****   /* Enable the Peripheral */
 382:Drivers/STM32F7xx_HAL_Driver/Src/stm32f7xx_hal_tim_ex.c ****   __HAL_TIM_ENABLE(htim);
 434              		.loc 1 382 0
 435 0018 2A68     		ldr	r2, [r5]
 383:Drivers/STM32F7xx_HAL_Driver/Src/stm32f7xx_hal_tim_ex.c ****   
 384:Drivers/STM32F7xx_HAL_Driver/Src/stm32f7xx_hal_tim_ex.c ****   /* Return function status */
 385:Drivers/STM32F7xx_HAL_Driver/Src/stm32f7xx_hal_tim_ex.c ****   return HAL_OK;
 386:Drivers/STM32F7xx_HAL_Driver/Src/stm32f7xx_hal_tim_ex.c **** }
 436              		.loc 1 386 0
 437 001a 0020     		movs	r0, #0
 382:Drivers/STM32F7xx_HAL_Driver/Src/stm32f7xx_hal_tim_ex.c ****   
 438              		.loc 1 382 0
 439 001c 1368     		ldr	r3, [r2]
 440 001e 43F00103 		orr	r3, r3, #1
 441 0022 1360     		str	r3, [r2]
 442              		.loc 1 386 0
 443 0024 38BD     		pop	{r3, r4, r5, pc}
 444              		.cfi_endproc
 445              	.LFE144:
 447 0026 00BF     		.section	.text.HAL_TIMEx_HallSensor_Stop_IT,"ax",%progbits
 448              		.align	1
 449              		.p2align 2,,3
 450              		.global	HAL_TIMEx_HallSensor_Stop_IT
 451              		.syntax unified
 452              		.thumb
 453              		.thumb_func
 454              		.fpu fpv4-sp-d16
 456              	HAL_TIMEx_HallSensor_Stop_IT:
 457              	.LFB145:
 387:Drivers/STM32F7xx_HAL_Driver/Src/stm32f7xx_hal_tim_ex.c **** 
 388:Drivers/STM32F7xx_HAL_Driver/Src/stm32f7xx_hal_tim_ex.c **** /**
 389:Drivers/STM32F7xx_HAL_Driver/Src/stm32f7xx_hal_tim_ex.c ****   * @brief  Stops the TIM Hall Sensor Interface in interrupt mode.
 390:Drivers/STM32F7xx_HAL_Driver/Src/stm32f7xx_hal_tim_ex.c ****   * @param  htim pointer to a TIM_HandleTypeDef structure that contains
 391:Drivers/STM32F7xx_HAL_Driver/Src/stm32f7xx_hal_tim_ex.c ****   *                the configuration information for TIM module.
 392:Drivers/STM32F7xx_HAL_Driver/Src/stm32f7xx_hal_tim_ex.c ****   * @retval HAL status
 393:Drivers/STM32F7xx_HAL_Driver/Src/stm32f7xx_hal_tim_ex.c ****   */
 394:Drivers/STM32F7xx_HAL_Driver/Src/stm32f7xx_hal_tim_ex.c **** HAL_StatusTypeDef HAL_TIMEx_HallSensor_Stop_IT(TIM_HandleTypeDef *htim)
 395:Drivers/STM32F7xx_HAL_Driver/Src/stm32f7xx_hal_tim_ex.c **** {
 458              		.loc 1 395 0
 459              		.cfi_startproc
 460              		@ args = 0, pretend = 0, frame = 0
 461              		@ frame_needed = 0, uses_anonymous_args = 0
 462              	.LVL23:
 396:Drivers/STM32F7xx_HAL_Driver/Src/stm32f7xx_hal_tim_ex.c ****   /* Check the parameters */
 397:Drivers/STM32F7xx_HAL_Driver/Src/stm32f7xx_hal_tim_ex.c ****   assert_param(IS_TIM_XOR_INSTANCE(htim->Instance));
ARM GAS  /tmp/ccdraBPx.s 			page 17


 398:Drivers/STM32F7xx_HAL_Driver/Src/stm32f7xx_hal_tim_ex.c ****   
 399:Drivers/STM32F7xx_HAL_Driver/Src/stm32f7xx_hal_tim_ex.c ****   /* Disable the Input Capture channels 1
 400:Drivers/STM32F7xx_HAL_Driver/Src/stm32f7xx_hal_tim_ex.c ****     (in the Hall Sensor Interface the Three possible channels that can be used are TIM_CHANNEL_1, T
 401:Drivers/STM32F7xx_HAL_Driver/Src/stm32f7xx_hal_tim_ex.c ****   TIM_CCxChannelCmd(htim->Instance, TIM_CHANNEL_1, TIM_CCx_DISABLE); 
 463              		.loc 1 401 0
 464 0000 0022     		movs	r2, #0
 395:Drivers/STM32F7xx_HAL_Driver/Src/stm32f7xx_hal_tim_ex.c ****   /* Check the parameters */
 465              		.loc 1 395 0
 466 0002 10B5     		push	{r4, lr}
 467              	.LCFI9:
 468              		.cfi_def_cfa_offset 8
 469              		.cfi_offset 4, -8
 470              		.cfi_offset 14, -4
 395:Drivers/STM32F7xx_HAL_Driver/Src/stm32f7xx_hal_tim_ex.c ****   /* Check the parameters */
 471              		.loc 1 395 0
 472 0004 0446     		mov	r4, r0
 473              		.loc 1 401 0
 474 0006 1146     		mov	r1, r2
 475 0008 0068     		ldr	r0, [r0]
 476              	.LVL24:
 477 000a FFF7FEFF 		bl	TIM_CCxChannelCmd
 478              	.LVL25:
 402:Drivers/STM32F7xx_HAL_Driver/Src/stm32f7xx_hal_tim_ex.c ****   
 403:Drivers/STM32F7xx_HAL_Driver/Src/stm32f7xx_hal_tim_ex.c ****   /* Disable the capture compare Interrupts event */
 404:Drivers/STM32F7xx_HAL_Driver/Src/stm32f7xx_hal_tim_ex.c ****   __HAL_TIM_DISABLE_IT(htim, TIM_IT_CC1);
 479              		.loc 1 404 0
 480 000e 2368     		ldr	r3, [r4]
 405:Drivers/STM32F7xx_HAL_Driver/Src/stm32f7xx_hal_tim_ex.c ****   
 406:Drivers/STM32F7xx_HAL_Driver/Src/stm32f7xx_hal_tim_ex.c ****   /* Disable the Peripheral */
 407:Drivers/STM32F7xx_HAL_Driver/Src/stm32f7xx_hal_tim_ex.c ****   __HAL_TIM_DISABLE(htim);
 481              		.loc 1 407 0
 482 0010 41F21111 		movw	r1, #4369
 404:Drivers/STM32F7xx_HAL_Driver/Src/stm32f7xx_hal_tim_ex.c ****   
 483              		.loc 1 404 0
 484 0014 DA68     		ldr	r2, [r3, #12]
 485 0016 22F00202 		bic	r2, r2, #2
 486 001a DA60     		str	r2, [r3, #12]
 487              		.loc 1 407 0
 488 001c 1A6A     		ldr	r2, [r3, #32]
 489 001e 0A42     		tst	r2, r1
 490 0020 08D1     		bne	.L26
 491              		.loc 1 407 0 is_stmt 0 discriminator 1
 492 0022 196A     		ldr	r1, [r3, #32]
 493 0024 40F24442 		movw	r2, #1092
 494 0028 1142     		tst	r1, r2
 495 002a 03D1     		bne	.L26
 496              		.loc 1 407 0 discriminator 2
 497 002c 1A68     		ldr	r2, [r3]
 498 002e 22F00102 		bic	r2, r2, #1
 499 0032 1A60     		str	r2, [r3]
 500              	.L26:
 408:Drivers/STM32F7xx_HAL_Driver/Src/stm32f7xx_hal_tim_ex.c ****   
 409:Drivers/STM32F7xx_HAL_Driver/Src/stm32f7xx_hal_tim_ex.c ****   /* Return function status */
 410:Drivers/STM32F7xx_HAL_Driver/Src/stm32f7xx_hal_tim_ex.c ****   return HAL_OK;
 411:Drivers/STM32F7xx_HAL_Driver/Src/stm32f7xx_hal_tim_ex.c **** }
 501              		.loc 1 411 0 is_stmt 1
 502 0034 0020     		movs	r0, #0
ARM GAS  /tmp/ccdraBPx.s 			page 18


 503 0036 10BD     		pop	{r4, pc}
 504              		.cfi_endproc
 505              	.LFE145:
 507              		.section	.text.HAL_TIMEx_HallSensor_Start_DMA,"ax",%progbits
 508              		.align	1
 509              		.p2align 2,,3
 510              		.global	HAL_TIMEx_HallSensor_Start_DMA
 511              		.syntax unified
 512              		.thumb
 513              		.thumb_func
 514              		.fpu fpv4-sp-d16
 516              	HAL_TIMEx_HallSensor_Start_DMA:
 517              	.LFB146:
 412:Drivers/STM32F7xx_HAL_Driver/Src/stm32f7xx_hal_tim_ex.c **** 
 413:Drivers/STM32F7xx_HAL_Driver/Src/stm32f7xx_hal_tim_ex.c **** /**
 414:Drivers/STM32F7xx_HAL_Driver/Src/stm32f7xx_hal_tim_ex.c ****   * @brief  Starts the TIM Hall Sensor Interface in DMA mode.
 415:Drivers/STM32F7xx_HAL_Driver/Src/stm32f7xx_hal_tim_ex.c ****   * @param  htim pointer to a TIM_HandleTypeDef structure that contains
 416:Drivers/STM32F7xx_HAL_Driver/Src/stm32f7xx_hal_tim_ex.c ****   *                the configuration information for TIM module.
 417:Drivers/STM32F7xx_HAL_Driver/Src/stm32f7xx_hal_tim_ex.c ****   * @param  pData The destination Buffer address.
 418:Drivers/STM32F7xx_HAL_Driver/Src/stm32f7xx_hal_tim_ex.c ****   * @param  Length The length of data to be transferred from TIM peripheral to memory.
 419:Drivers/STM32F7xx_HAL_Driver/Src/stm32f7xx_hal_tim_ex.c ****   * @retval HAL status
 420:Drivers/STM32F7xx_HAL_Driver/Src/stm32f7xx_hal_tim_ex.c ****   */
 421:Drivers/STM32F7xx_HAL_Driver/Src/stm32f7xx_hal_tim_ex.c **** HAL_StatusTypeDef HAL_TIMEx_HallSensor_Start_DMA(TIM_HandleTypeDef *htim, uint32_t *pData, uint16_t
 422:Drivers/STM32F7xx_HAL_Driver/Src/stm32f7xx_hal_tim_ex.c **** {
 518              		.loc 1 422 0
 519              		.cfi_startproc
 520              		@ args = 0, pretend = 0, frame = 0
 521              		@ frame_needed = 0, uses_anonymous_args = 0
 522              	.LVL26:
 523 0000 F8B5     		push	{r3, r4, r5, r6, r7, lr}
 524              	.LCFI10:
 525              		.cfi_def_cfa_offset 24
 526              		.cfi_offset 3, -24
 527              		.cfi_offset 4, -20
 528              		.cfi_offset 5, -16
 529              		.cfi_offset 6, -12
 530              		.cfi_offset 7, -8
 531              		.cfi_offset 14, -4
 423:Drivers/STM32F7xx_HAL_Driver/Src/stm32f7xx_hal_tim_ex.c ****   /* Check the parameters */
 424:Drivers/STM32F7xx_HAL_Driver/Src/stm32f7xx_hal_tim_ex.c ****   assert_param(IS_TIM_XOR_INSTANCE(htim->Instance));
 425:Drivers/STM32F7xx_HAL_Driver/Src/stm32f7xx_hal_tim_ex.c ****   
 426:Drivers/STM32F7xx_HAL_Driver/Src/stm32f7xx_hal_tim_ex.c ****    if((htim->State == HAL_TIM_STATE_BUSY))
 532              		.loc 1 426 0
 533 0002 90F83D40 		ldrb	r4, [r0, #61]	@ zero_extendqisi2
 534 0006 E4B2     		uxtb	r4, r4
 535 0008 022C     		cmp	r4, #2
 536 000a 06D0     		beq	.L33
 427:Drivers/STM32F7xx_HAL_Driver/Src/stm32f7xx_hal_tim_ex.c ****   {
 428:Drivers/STM32F7xx_HAL_Driver/Src/stm32f7xx_hal_tim_ex.c ****      return HAL_BUSY;
 429:Drivers/STM32F7xx_HAL_Driver/Src/stm32f7xx_hal_tim_ex.c ****   }
 430:Drivers/STM32F7xx_HAL_Driver/Src/stm32f7xx_hal_tim_ex.c ****   else if((htim->State == HAL_TIM_STATE_READY))
 537              		.loc 1 430 0
 538 000c 90F83D40 		ldrb	r4, [r0, #61]	@ zero_extendqisi2
 539 0010 E4B2     		uxtb	r4, r4
 540 0012 012C     		cmp	r4, #1
 541 0014 06D1     		bne	.L30
 431:Drivers/STM32F7xx_HAL_Driver/Src/stm32f7xx_hal_tim_ex.c ****   {
ARM GAS  /tmp/ccdraBPx.s 			page 19


 432:Drivers/STM32F7xx_HAL_Driver/Src/stm32f7xx_hal_tim_ex.c ****     if(((uint32_t)pData == 0 ) && (Length > 0)) 
 542              		.loc 1 432 0
 543 0016 11B9     		cbnz	r1, .L34
 544 0018 0AB1     		cbz	r2, .L34
 545              	.L33:
 433:Drivers/STM32F7xx_HAL_Driver/Src/stm32f7xx_hal_tim_ex.c ****     {
 434:Drivers/STM32F7xx_HAL_Driver/Src/stm32f7xx_hal_tim_ex.c ****       return HAL_ERROR;                                    
 546              		.loc 1 434 0
 547 001a 2046     		mov	r0, r4
 548              	.LVL27:
 435:Drivers/STM32F7xx_HAL_Driver/Src/stm32f7xx_hal_tim_ex.c ****     }
 436:Drivers/STM32F7xx_HAL_Driver/Src/stm32f7xx_hal_tim_ex.c ****     else
 437:Drivers/STM32F7xx_HAL_Driver/Src/stm32f7xx_hal_tim_ex.c ****     {
 438:Drivers/STM32F7xx_HAL_Driver/Src/stm32f7xx_hal_tim_ex.c ****       htim->State = HAL_TIM_STATE_BUSY;
 439:Drivers/STM32F7xx_HAL_Driver/Src/stm32f7xx_hal_tim_ex.c ****     }
 440:Drivers/STM32F7xx_HAL_Driver/Src/stm32f7xx_hal_tim_ex.c ****   }
 441:Drivers/STM32F7xx_HAL_Driver/Src/stm32f7xx_hal_tim_ex.c ****   /* Enable the Input Capture channels 1
 442:Drivers/STM32F7xx_HAL_Driver/Src/stm32f7xx_hal_tim_ex.c ****     (in the Hall Sensor Interface the Three possible channels that can be used are TIM_CHANNEL_1, T
 443:Drivers/STM32F7xx_HAL_Driver/Src/stm32f7xx_hal_tim_ex.c ****   TIM_CCxChannelCmd(htim->Instance, TIM_CHANNEL_1, TIM_CCx_ENABLE); 
 444:Drivers/STM32F7xx_HAL_Driver/Src/stm32f7xx_hal_tim_ex.c ****   
 445:Drivers/STM32F7xx_HAL_Driver/Src/stm32f7xx_hal_tim_ex.c ****   /* Set the DMA Input Capture 1 Callback */
 446:Drivers/STM32F7xx_HAL_Driver/Src/stm32f7xx_hal_tim_ex.c ****   htim->hdma[TIM_DMA_ID_CC1]->XferCpltCallback = HAL_TIM_DMACaptureCplt;     
 447:Drivers/STM32F7xx_HAL_Driver/Src/stm32f7xx_hal_tim_ex.c ****   /* Set the DMA error callback */
 448:Drivers/STM32F7xx_HAL_Driver/Src/stm32f7xx_hal_tim_ex.c ****   htim->hdma[TIM_DMA_ID_CC1]->XferErrorCallback = HAL_TIM_DMAError ;
 449:Drivers/STM32F7xx_HAL_Driver/Src/stm32f7xx_hal_tim_ex.c ****   
 450:Drivers/STM32F7xx_HAL_Driver/Src/stm32f7xx_hal_tim_ex.c ****   /* Enable the DMA Stream for Capture 1*/
 451:Drivers/STM32F7xx_HAL_Driver/Src/stm32f7xx_hal_tim_ex.c ****   HAL_DMA_Start_IT(htim->hdma[TIM_DMA_ID_CC1], (uint32_t)&htim->Instance->CCR1, (uint32_t)pData, Le
 452:Drivers/STM32F7xx_HAL_Driver/Src/stm32f7xx_hal_tim_ex.c ****   
 453:Drivers/STM32F7xx_HAL_Driver/Src/stm32f7xx_hal_tim_ex.c ****   /* Enable the capture compare 1 Interrupt */
 454:Drivers/STM32F7xx_HAL_Driver/Src/stm32f7xx_hal_tim_ex.c ****   __HAL_TIM_ENABLE_DMA(htim, TIM_DMA_CC1);
 455:Drivers/STM32F7xx_HAL_Driver/Src/stm32f7xx_hal_tim_ex.c ****  
 456:Drivers/STM32F7xx_HAL_Driver/Src/stm32f7xx_hal_tim_ex.c ****   /* Enable the Peripheral */
 457:Drivers/STM32F7xx_HAL_Driver/Src/stm32f7xx_hal_tim_ex.c ****   __HAL_TIM_ENABLE(htim);
 458:Drivers/STM32F7xx_HAL_Driver/Src/stm32f7xx_hal_tim_ex.c ****   
 459:Drivers/STM32F7xx_HAL_Driver/Src/stm32f7xx_hal_tim_ex.c ****   /* Return function status */
 460:Drivers/STM32F7xx_HAL_Driver/Src/stm32f7xx_hal_tim_ex.c ****   return HAL_OK;
 461:Drivers/STM32F7xx_HAL_Driver/Src/stm32f7xx_hal_tim_ex.c **** }
 549              		.loc 1 461 0
 550 001c F8BD     		pop	{r3, r4, r5, r6, r7, pc}
 551              	.LVL28:
 552              	.L34:
 438:Drivers/STM32F7xx_HAL_Driver/Src/stm32f7xx_hal_tim_ex.c ****     }
 553              		.loc 1 438 0
 554 001e 0223     		movs	r3, #2
 555 0020 80F83D30 		strb	r3, [r0, #61]
 556              	.L30:
 557 0024 0446     		mov	r4, r0
 558 0026 1646     		mov	r6, r2
 559 0028 0D46     		mov	r5, r1
 443:Drivers/STM32F7xx_HAL_Driver/Src/stm32f7xx_hal_tim_ex.c ****   
 560              		.loc 1 443 0
 561 002a 0122     		movs	r2, #1
 562              	.LVL29:
 563 002c 0021     		movs	r1, #0
 564              	.LVL30:
 565 002e 0068     		ldr	r0, [r0]
 566              	.LVL31:
ARM GAS  /tmp/ccdraBPx.s 			page 20


 567 0030 FFF7FEFF 		bl	TIM_CCxChannelCmd
 568              	.LVL32:
 446:Drivers/STM32F7xx_HAL_Driver/Src/stm32f7xx_hal_tim_ex.c ****   /* Set the DMA error callback */
 569              		.loc 1 446 0
 570 0034 676A     		ldr	r7, [r4, #36]
 451:Drivers/STM32F7xx_HAL_Driver/Src/stm32f7xx_hal_tim_ex.c ****   
 571              		.loc 1 451 0
 572 0036 2168     		ldr	r1, [r4]
 573 0038 3346     		mov	r3, r6
 446:Drivers/STM32F7xx_HAL_Driver/Src/stm32f7xx_hal_tim_ex.c ****   /* Set the DMA error callback */
 574              		.loc 1 446 0
 575 003a 0A48     		ldr	r0, .L39
 451:Drivers/STM32F7xx_HAL_Driver/Src/stm32f7xx_hal_tim_ex.c ****   
 576              		.loc 1 451 0
 577 003c 2A46     		mov	r2, r5
 448:Drivers/STM32F7xx_HAL_Driver/Src/stm32f7xx_hal_tim_ex.c ****   
 578              		.loc 1 448 0
 579 003e 0A4E     		ldr	r6, .L39+4
 451:Drivers/STM32F7xx_HAL_Driver/Src/stm32f7xx_hal_tim_ex.c ****   
 580              		.loc 1 451 0
 581 0040 3431     		adds	r1, r1, #52
 446:Drivers/STM32F7xx_HAL_Driver/Src/stm32f7xx_hal_tim_ex.c ****   /* Set the DMA error callback */
 582              		.loc 1 446 0
 583 0042 F863     		str	r0, [r7, #60]
 451:Drivers/STM32F7xx_HAL_Driver/Src/stm32f7xx_hal_tim_ex.c ****   
 584              		.loc 1 451 0
 585 0044 3846     		mov	r0, r7
 448:Drivers/STM32F7xx_HAL_Driver/Src/stm32f7xx_hal_tim_ex.c ****   
 586              		.loc 1 448 0
 587 0046 FE64     		str	r6, [r7, #76]
 451:Drivers/STM32F7xx_HAL_Driver/Src/stm32f7xx_hal_tim_ex.c ****   
 588              		.loc 1 451 0
 589 0048 FFF7FEFF 		bl	HAL_DMA_Start_IT
 590              	.LVL33:
 454:Drivers/STM32F7xx_HAL_Driver/Src/stm32f7xx_hal_tim_ex.c ****  
 591              		.loc 1 454 0
 592 004c 2368     		ldr	r3, [r4]
 460:Drivers/STM32F7xx_HAL_Driver/Src/stm32f7xx_hal_tim_ex.c **** }
 593              		.loc 1 460 0
 594 004e 0020     		movs	r0, #0
 454:Drivers/STM32F7xx_HAL_Driver/Src/stm32f7xx_hal_tim_ex.c ****  
 595              		.loc 1 454 0
 596 0050 DA68     		ldr	r2, [r3, #12]
 597 0052 42F40072 		orr	r2, r2, #512
 598 0056 DA60     		str	r2, [r3, #12]
 457:Drivers/STM32F7xx_HAL_Driver/Src/stm32f7xx_hal_tim_ex.c ****   
 599              		.loc 1 457 0
 600 0058 1A68     		ldr	r2, [r3]
 601 005a 42F00102 		orr	r2, r2, #1
 602 005e 1A60     		str	r2, [r3]
 603              		.loc 1 461 0
 604 0060 F8BD     		pop	{r3, r4, r5, r6, r7, pc}
 605              	.LVL34:
 606              	.L40:
 607 0062 00BF     		.align	2
 608              	.L39:
 609 0064 00000000 		.word	TIM_DMACaptureCplt
ARM GAS  /tmp/ccdraBPx.s 			page 21


 610 0068 00000000 		.word	TIM_DMAError
 611              		.cfi_endproc
 612              	.LFE146:
 614              		.section	.text.HAL_TIMEx_HallSensor_Stop_DMA,"ax",%progbits
 615              		.align	1
 616              		.p2align 2,,3
 617              		.global	HAL_TIMEx_HallSensor_Stop_DMA
 618              		.syntax unified
 619              		.thumb
 620              		.thumb_func
 621              		.fpu fpv4-sp-d16
 623              	HAL_TIMEx_HallSensor_Stop_DMA:
 624              	.LFB147:
 462:Drivers/STM32F7xx_HAL_Driver/Src/stm32f7xx_hal_tim_ex.c **** 
 463:Drivers/STM32F7xx_HAL_Driver/Src/stm32f7xx_hal_tim_ex.c **** /**
 464:Drivers/STM32F7xx_HAL_Driver/Src/stm32f7xx_hal_tim_ex.c ****   * @brief  Stops the TIM Hall Sensor Interface in DMA mode.
 465:Drivers/STM32F7xx_HAL_Driver/Src/stm32f7xx_hal_tim_ex.c ****   * @param  htim pointer to a TIM_HandleTypeDef structure that contains
 466:Drivers/STM32F7xx_HAL_Driver/Src/stm32f7xx_hal_tim_ex.c ****   *                the configuration information for TIM module.
 467:Drivers/STM32F7xx_HAL_Driver/Src/stm32f7xx_hal_tim_ex.c ****   * @retval HAL status
 468:Drivers/STM32F7xx_HAL_Driver/Src/stm32f7xx_hal_tim_ex.c ****   */
 469:Drivers/STM32F7xx_HAL_Driver/Src/stm32f7xx_hal_tim_ex.c **** HAL_StatusTypeDef HAL_TIMEx_HallSensor_Stop_DMA(TIM_HandleTypeDef *htim)
 470:Drivers/STM32F7xx_HAL_Driver/Src/stm32f7xx_hal_tim_ex.c **** {
 625              		.loc 1 470 0
 626              		.cfi_startproc
 627              		@ args = 0, pretend = 0, frame = 0
 628              		@ frame_needed = 0, uses_anonymous_args = 0
 629              	.LVL35:
 471:Drivers/STM32F7xx_HAL_Driver/Src/stm32f7xx_hal_tim_ex.c ****   /* Check the parameters */
 472:Drivers/STM32F7xx_HAL_Driver/Src/stm32f7xx_hal_tim_ex.c ****   assert_param(IS_TIM_XOR_INSTANCE(htim->Instance));
 473:Drivers/STM32F7xx_HAL_Driver/Src/stm32f7xx_hal_tim_ex.c ****   
 474:Drivers/STM32F7xx_HAL_Driver/Src/stm32f7xx_hal_tim_ex.c ****   /* Disable the Input Capture channels 1
 475:Drivers/STM32F7xx_HAL_Driver/Src/stm32f7xx_hal_tim_ex.c ****     (in the Hall Sensor Interface the Three possible channels that can be used are TIM_CHANNEL_1, T
 476:Drivers/STM32F7xx_HAL_Driver/Src/stm32f7xx_hal_tim_ex.c ****   TIM_CCxChannelCmd(htim->Instance, TIM_CHANNEL_1, TIM_CCx_DISABLE); 
 630              		.loc 1 476 0
 631 0000 0022     		movs	r2, #0
 470:Drivers/STM32F7xx_HAL_Driver/Src/stm32f7xx_hal_tim_ex.c ****   /* Check the parameters */
 632              		.loc 1 470 0
 633 0002 10B5     		push	{r4, lr}
 634              	.LCFI11:
 635              		.cfi_def_cfa_offset 8
 636              		.cfi_offset 4, -8
 637              		.cfi_offset 14, -4
 470:Drivers/STM32F7xx_HAL_Driver/Src/stm32f7xx_hal_tim_ex.c ****   /* Check the parameters */
 638              		.loc 1 470 0
 639 0004 0446     		mov	r4, r0
 640              		.loc 1 476 0
 641 0006 1146     		mov	r1, r2
 642 0008 0068     		ldr	r0, [r0]
 643              	.LVL36:
 644 000a FFF7FEFF 		bl	TIM_CCxChannelCmd
 645              	.LVL37:
 477:Drivers/STM32F7xx_HAL_Driver/Src/stm32f7xx_hal_tim_ex.c ****  
 478:Drivers/STM32F7xx_HAL_Driver/Src/stm32f7xx_hal_tim_ex.c ****   
 479:Drivers/STM32F7xx_HAL_Driver/Src/stm32f7xx_hal_tim_ex.c ****   /* Disable the capture compare Interrupts 1 event */
 480:Drivers/STM32F7xx_HAL_Driver/Src/stm32f7xx_hal_tim_ex.c ****   __HAL_TIM_DISABLE_DMA(htim, TIM_DMA_CC1);
 646              		.loc 1 480 0
 647 000e 2368     		ldr	r3, [r4]
ARM GAS  /tmp/ccdraBPx.s 			page 22


 481:Drivers/STM32F7xx_HAL_Driver/Src/stm32f7xx_hal_tim_ex.c ****  
 482:Drivers/STM32F7xx_HAL_Driver/Src/stm32f7xx_hal_tim_ex.c ****   /* Disable the Peripheral */
 483:Drivers/STM32F7xx_HAL_Driver/Src/stm32f7xx_hal_tim_ex.c ****   __HAL_TIM_DISABLE(htim);
 648              		.loc 1 483 0
 649 0010 41F21111 		movw	r1, #4369
 480:Drivers/STM32F7xx_HAL_Driver/Src/stm32f7xx_hal_tim_ex.c ****  
 650              		.loc 1 480 0
 651 0014 DA68     		ldr	r2, [r3, #12]
 652 0016 22F40072 		bic	r2, r2, #512
 653 001a DA60     		str	r2, [r3, #12]
 654              		.loc 1 483 0
 655 001c 1A6A     		ldr	r2, [r3, #32]
 656 001e 0A42     		tst	r2, r1
 657 0020 08D1     		bne	.L42
 658              		.loc 1 483 0 is_stmt 0 discriminator 1
 659 0022 196A     		ldr	r1, [r3, #32]
 660 0024 40F24442 		movw	r2, #1092
 661 0028 1142     		tst	r1, r2
 662 002a 03D1     		bne	.L42
 663              		.loc 1 483 0 discriminator 2
 664 002c 1A68     		ldr	r2, [r3]
 665 002e 22F00102 		bic	r2, r2, #1
 666 0032 1A60     		str	r2, [r3]
 667              	.L42:
 484:Drivers/STM32F7xx_HAL_Driver/Src/stm32f7xx_hal_tim_ex.c ****   
 485:Drivers/STM32F7xx_HAL_Driver/Src/stm32f7xx_hal_tim_ex.c ****   /* Return function status */
 486:Drivers/STM32F7xx_HAL_Driver/Src/stm32f7xx_hal_tim_ex.c ****   return HAL_OK;
 487:Drivers/STM32F7xx_HAL_Driver/Src/stm32f7xx_hal_tim_ex.c **** }
 668              		.loc 1 487 0 is_stmt 1
 669 0034 0020     		movs	r0, #0
 670 0036 10BD     		pop	{r4, pc}
 671              		.cfi_endproc
 672              	.LFE147:
 674              		.section	.text.HAL_TIMEx_OCN_Start,"ax",%progbits
 675              		.align	1
 676              		.p2align 2,,3
 677              		.global	HAL_TIMEx_OCN_Start
 678              		.syntax unified
 679              		.thumb
 680              		.thumb_func
 681              		.fpu fpv4-sp-d16
 683              	HAL_TIMEx_OCN_Start:
 684              	.LFB148:
 488:Drivers/STM32F7xx_HAL_Driver/Src/stm32f7xx_hal_tim_ex.c **** 
 489:Drivers/STM32F7xx_HAL_Driver/Src/stm32f7xx_hal_tim_ex.c **** /**
 490:Drivers/STM32F7xx_HAL_Driver/Src/stm32f7xx_hal_tim_ex.c ****   * @}
 491:Drivers/STM32F7xx_HAL_Driver/Src/stm32f7xx_hal_tim_ex.c ****   */
 492:Drivers/STM32F7xx_HAL_Driver/Src/stm32f7xx_hal_tim_ex.c ****   
 493:Drivers/STM32F7xx_HAL_Driver/Src/stm32f7xx_hal_tim_ex.c **** /** @defgroup TIMEx_Exported_Functions_Group2 Extended Timer Complementary Output Compare functions
 494:Drivers/STM32F7xx_HAL_Driver/Src/stm32f7xx_hal_tim_ex.c ****  *  @brief    Timer Complementary Output Compare functions 
 495:Drivers/STM32F7xx_HAL_Driver/Src/stm32f7xx_hal_tim_ex.c ****  *
 496:Drivers/STM32F7xx_HAL_Driver/Src/stm32f7xx_hal_tim_ex.c **** @verbatim   
 497:Drivers/STM32F7xx_HAL_Driver/Src/stm32f7xx_hal_tim_ex.c ****   ==============================================================================
 498:Drivers/STM32F7xx_HAL_Driver/Src/stm32f7xx_hal_tim_ex.c ****               ##### Timer Complementary Output Compare functions #####
 499:Drivers/STM32F7xx_HAL_Driver/Src/stm32f7xx_hal_tim_ex.c ****   ==============================================================================  
 500:Drivers/STM32F7xx_HAL_Driver/Src/stm32f7xx_hal_tim_ex.c ****   [..]  
 501:Drivers/STM32F7xx_HAL_Driver/Src/stm32f7xx_hal_tim_ex.c ****     This section provides functions allowing to:
ARM GAS  /tmp/ccdraBPx.s 			page 23


 502:Drivers/STM32F7xx_HAL_Driver/Src/stm32f7xx_hal_tim_ex.c ****     (+) Start the Complementary Output Compare/PWM.
 503:Drivers/STM32F7xx_HAL_Driver/Src/stm32f7xx_hal_tim_ex.c ****     (+) Stop the Complementary Output Compare/PWM.
 504:Drivers/STM32F7xx_HAL_Driver/Src/stm32f7xx_hal_tim_ex.c ****     (+) Start the Complementary Output Compare/PWM and enable interrupts.
 505:Drivers/STM32F7xx_HAL_Driver/Src/stm32f7xx_hal_tim_ex.c ****     (+) Stop the Complementary Output Compare/PWM and disable interrupts.
 506:Drivers/STM32F7xx_HAL_Driver/Src/stm32f7xx_hal_tim_ex.c ****     (+) Start the Complementary Output Compare/PWM and enable DMA transfers.
 507:Drivers/STM32F7xx_HAL_Driver/Src/stm32f7xx_hal_tim_ex.c ****     (+) Stop the Complementary Output Compare/PWM and disable DMA transfers.
 508:Drivers/STM32F7xx_HAL_Driver/Src/stm32f7xx_hal_tim_ex.c ****                
 509:Drivers/STM32F7xx_HAL_Driver/Src/stm32f7xx_hal_tim_ex.c **** @endverbatim
 510:Drivers/STM32F7xx_HAL_Driver/Src/stm32f7xx_hal_tim_ex.c ****   * @{
 511:Drivers/STM32F7xx_HAL_Driver/Src/stm32f7xx_hal_tim_ex.c ****   */
 512:Drivers/STM32F7xx_HAL_Driver/Src/stm32f7xx_hal_tim_ex.c ****   
 513:Drivers/STM32F7xx_HAL_Driver/Src/stm32f7xx_hal_tim_ex.c **** /**
 514:Drivers/STM32F7xx_HAL_Driver/Src/stm32f7xx_hal_tim_ex.c ****   * @brief  Starts the TIM Output Compare signal generation on the complementary
 515:Drivers/STM32F7xx_HAL_Driver/Src/stm32f7xx_hal_tim_ex.c ****   *         output.
 516:Drivers/STM32F7xx_HAL_Driver/Src/stm32f7xx_hal_tim_ex.c ****   * @param  htim pointer to a TIM_HandleTypeDef structure that contains
 517:Drivers/STM32F7xx_HAL_Driver/Src/stm32f7xx_hal_tim_ex.c ****   *                the configuration information for TIM module.  
 518:Drivers/STM32F7xx_HAL_Driver/Src/stm32f7xx_hal_tim_ex.c ****   * @param  Channel TIM Channel to be enabled.
 519:Drivers/STM32F7xx_HAL_Driver/Src/stm32f7xx_hal_tim_ex.c ****   *          This parameter can be one of the following values:
 520:Drivers/STM32F7xx_HAL_Driver/Src/stm32f7xx_hal_tim_ex.c ****   *            @arg TIM_CHANNEL_1: TIM Channel 1 selected
 521:Drivers/STM32F7xx_HAL_Driver/Src/stm32f7xx_hal_tim_ex.c ****   *            @arg TIM_CHANNEL_2: TIM Channel 2 selected
 522:Drivers/STM32F7xx_HAL_Driver/Src/stm32f7xx_hal_tim_ex.c ****   *            @arg TIM_CHANNEL_3: TIM Channel 3 selected
 523:Drivers/STM32F7xx_HAL_Driver/Src/stm32f7xx_hal_tim_ex.c ****   * @retval HAL status
 524:Drivers/STM32F7xx_HAL_Driver/Src/stm32f7xx_hal_tim_ex.c ****   */
 525:Drivers/STM32F7xx_HAL_Driver/Src/stm32f7xx_hal_tim_ex.c **** HAL_StatusTypeDef HAL_TIMEx_OCN_Start(TIM_HandleTypeDef *htim, uint32_t Channel)
 526:Drivers/STM32F7xx_HAL_Driver/Src/stm32f7xx_hal_tim_ex.c **** {
 685              		.loc 1 526 0
 686              		.cfi_startproc
 687              		@ args = 0, pretend = 0, frame = 0
 688              		@ frame_needed = 0, uses_anonymous_args = 0
 689              		@ link register save eliminated.
 690              	.LVL38:
 527:Drivers/STM32F7xx_HAL_Driver/Src/stm32f7xx_hal_tim_ex.c ****   /* Check the parameters */
 528:Drivers/STM32F7xx_HAL_Driver/Src/stm32f7xx_hal_tim_ex.c ****   assert_param(IS_TIM_CCXN_INSTANCE(htim->Instance, Channel)); 
 529:Drivers/STM32F7xx_HAL_Driver/Src/stm32f7xx_hal_tim_ex.c ****   
 530:Drivers/STM32F7xx_HAL_Driver/Src/stm32f7xx_hal_tim_ex.c ****      /* Enable the Capture compare channel N */
 531:Drivers/STM32F7xx_HAL_Driver/Src/stm32f7xx_hal_tim_ex.c ****      TIM_CCxNChannelCmd(htim->Instance, Channel, TIM_CCxN_ENABLE);
 691              		.loc 1 531 0
 692 0000 0368     		ldr	r3, [r0]
 693              	.LVL39:
 694              	.LBB36:
 695              	.LBB37:
 532:Drivers/STM32F7xx_HAL_Driver/Src/stm32f7xx_hal_tim_ex.c ****     
 533:Drivers/STM32F7xx_HAL_Driver/Src/stm32f7xx_hal_tim_ex.c ****   /* Enable the Main Output */
 534:Drivers/STM32F7xx_HAL_Driver/Src/stm32f7xx_hal_tim_ex.c ****     __HAL_TIM_MOE_ENABLE(htim);
 535:Drivers/STM32F7xx_HAL_Driver/Src/stm32f7xx_hal_tim_ex.c **** 
 536:Drivers/STM32F7xx_HAL_Driver/Src/stm32f7xx_hal_tim_ex.c ****   /* Enable the Peripheral */
 537:Drivers/STM32F7xx_HAL_Driver/Src/stm32f7xx_hal_tim_ex.c ****   __HAL_TIM_ENABLE(htim);
 538:Drivers/STM32F7xx_HAL_Driver/Src/stm32f7xx_hal_tim_ex.c ****   
 539:Drivers/STM32F7xx_HAL_Driver/Src/stm32f7xx_hal_tim_ex.c ****   /* Return function status */
 540:Drivers/STM32F7xx_HAL_Driver/Src/stm32f7xx_hal_tim_ex.c ****   return HAL_OK;
 541:Drivers/STM32F7xx_HAL_Driver/Src/stm32f7xx_hal_tim_ex.c **** } 
 542:Drivers/STM32F7xx_HAL_Driver/Src/stm32f7xx_hal_tim_ex.c **** 
 543:Drivers/STM32F7xx_HAL_Driver/Src/stm32f7xx_hal_tim_ex.c **** /**
 544:Drivers/STM32F7xx_HAL_Driver/Src/stm32f7xx_hal_tim_ex.c ****   * @brief  Stops the TIM Output Compare signal generation on the complementary
 545:Drivers/STM32F7xx_HAL_Driver/Src/stm32f7xx_hal_tim_ex.c ****   *         output.
 546:Drivers/STM32F7xx_HAL_Driver/Src/stm32f7xx_hal_tim_ex.c ****   * @param  htim pointer to a TIM_HandleTypeDef structure that contains
 547:Drivers/STM32F7xx_HAL_Driver/Src/stm32f7xx_hal_tim_ex.c ****   *                the configuration information for TIM module.
ARM GAS  /tmp/ccdraBPx.s 			page 24


 548:Drivers/STM32F7xx_HAL_Driver/Src/stm32f7xx_hal_tim_ex.c ****   * @param  Channel TIM Channel to be disabled.
 549:Drivers/STM32F7xx_HAL_Driver/Src/stm32f7xx_hal_tim_ex.c ****   *          This parameter can be one of the following values:
 550:Drivers/STM32F7xx_HAL_Driver/Src/stm32f7xx_hal_tim_ex.c ****   *            @arg TIM_CHANNEL_1: TIM Channel 1 selected
 551:Drivers/STM32F7xx_HAL_Driver/Src/stm32f7xx_hal_tim_ex.c ****   *            @arg TIM_CHANNEL_2: TIM Channel 2 selected
 552:Drivers/STM32F7xx_HAL_Driver/Src/stm32f7xx_hal_tim_ex.c ****   *            @arg TIM_CHANNEL_3: TIM Channel 3 selected
 553:Drivers/STM32F7xx_HAL_Driver/Src/stm32f7xx_hal_tim_ex.c ****   * @retval HAL status
 554:Drivers/STM32F7xx_HAL_Driver/Src/stm32f7xx_hal_tim_ex.c ****   */
 555:Drivers/STM32F7xx_HAL_Driver/Src/stm32f7xx_hal_tim_ex.c **** HAL_StatusTypeDef HAL_TIMEx_OCN_Stop(TIM_HandleTypeDef *htim, uint32_t Channel)
 556:Drivers/STM32F7xx_HAL_Driver/Src/stm32f7xx_hal_tim_ex.c **** { 
 557:Drivers/STM32F7xx_HAL_Driver/Src/stm32f7xx_hal_tim_ex.c ****   /* Check the parameters */
 558:Drivers/STM32F7xx_HAL_Driver/Src/stm32f7xx_hal_tim_ex.c ****   assert_param(IS_TIM_CCXN_INSTANCE(htim->Instance, Channel)); 
 559:Drivers/STM32F7xx_HAL_Driver/Src/stm32f7xx_hal_tim_ex.c ****   
 560:Drivers/STM32F7xx_HAL_Driver/Src/stm32f7xx_hal_tim_ex.c ****     /* Disable the Capture compare channel N */
 561:Drivers/STM32F7xx_HAL_Driver/Src/stm32f7xx_hal_tim_ex.c ****   TIM_CCxNChannelCmd(htim->Instance, Channel, TIM_CCxN_DISABLE);
 562:Drivers/STM32F7xx_HAL_Driver/Src/stm32f7xx_hal_tim_ex.c ****     
 563:Drivers/STM32F7xx_HAL_Driver/Src/stm32f7xx_hal_tim_ex.c ****   /* Disable the Main Output */
 564:Drivers/STM32F7xx_HAL_Driver/Src/stm32f7xx_hal_tim_ex.c ****     __HAL_TIM_MOE_DISABLE(htim);
 565:Drivers/STM32F7xx_HAL_Driver/Src/stm32f7xx_hal_tim_ex.c **** 
 566:Drivers/STM32F7xx_HAL_Driver/Src/stm32f7xx_hal_tim_ex.c ****   /* Disable the Peripheral */
 567:Drivers/STM32F7xx_HAL_Driver/Src/stm32f7xx_hal_tim_ex.c ****   __HAL_TIM_DISABLE(htim);
 568:Drivers/STM32F7xx_HAL_Driver/Src/stm32f7xx_hal_tim_ex.c ****   
 569:Drivers/STM32F7xx_HAL_Driver/Src/stm32f7xx_hal_tim_ex.c ****   /* Return function status */
 570:Drivers/STM32F7xx_HAL_Driver/Src/stm32f7xx_hal_tim_ex.c ****   return HAL_OK;
 571:Drivers/STM32F7xx_HAL_Driver/Src/stm32f7xx_hal_tim_ex.c **** } 
 572:Drivers/STM32F7xx_HAL_Driver/Src/stm32f7xx_hal_tim_ex.c **** 
 573:Drivers/STM32F7xx_HAL_Driver/Src/stm32f7xx_hal_tim_ex.c **** /**
 574:Drivers/STM32F7xx_HAL_Driver/Src/stm32f7xx_hal_tim_ex.c ****   * @brief  Starts the TIM Output Compare signal generation in interrupt mode 
 575:Drivers/STM32F7xx_HAL_Driver/Src/stm32f7xx_hal_tim_ex.c ****   *         on the complementary output.
 576:Drivers/STM32F7xx_HAL_Driver/Src/stm32f7xx_hal_tim_ex.c ****   * @param  htim pointer to a TIM_HandleTypeDef structure that contains
 577:Drivers/STM32F7xx_HAL_Driver/Src/stm32f7xx_hal_tim_ex.c ****   *                the configuration information for TIM module.
 578:Drivers/STM32F7xx_HAL_Driver/Src/stm32f7xx_hal_tim_ex.c ****   * @param  Channel TIM Channel to be enabled.
 579:Drivers/STM32F7xx_HAL_Driver/Src/stm32f7xx_hal_tim_ex.c ****   *          This parameter can be one of the following values:
 580:Drivers/STM32F7xx_HAL_Driver/Src/stm32f7xx_hal_tim_ex.c ****   *            @arg TIM_CHANNEL_1: TIM Channel 1 selected
 581:Drivers/STM32F7xx_HAL_Driver/Src/stm32f7xx_hal_tim_ex.c ****   *            @arg TIM_CHANNEL_2: TIM Channel 2 selected
 582:Drivers/STM32F7xx_HAL_Driver/Src/stm32f7xx_hal_tim_ex.c ****   *            @arg TIM_CHANNEL_3: TIM Channel 3 selected
 583:Drivers/STM32F7xx_HAL_Driver/Src/stm32f7xx_hal_tim_ex.c ****   * @retval HAL status
 584:Drivers/STM32F7xx_HAL_Driver/Src/stm32f7xx_hal_tim_ex.c ****   */
 585:Drivers/STM32F7xx_HAL_Driver/Src/stm32f7xx_hal_tim_ex.c **** HAL_StatusTypeDef HAL_TIMEx_OCN_Start_IT(TIM_HandleTypeDef *htim, uint32_t Channel)
 586:Drivers/STM32F7xx_HAL_Driver/Src/stm32f7xx_hal_tim_ex.c **** {
 587:Drivers/STM32F7xx_HAL_Driver/Src/stm32f7xx_hal_tim_ex.c ****   /* Check the parameters */
 588:Drivers/STM32F7xx_HAL_Driver/Src/stm32f7xx_hal_tim_ex.c ****   assert_param(IS_TIM_CCXN_INSTANCE(htim->Instance, Channel)); 
 589:Drivers/STM32F7xx_HAL_Driver/Src/stm32f7xx_hal_tim_ex.c ****   
 590:Drivers/STM32F7xx_HAL_Driver/Src/stm32f7xx_hal_tim_ex.c ****   switch (Channel)
 591:Drivers/STM32F7xx_HAL_Driver/Src/stm32f7xx_hal_tim_ex.c ****   {
 592:Drivers/STM32F7xx_HAL_Driver/Src/stm32f7xx_hal_tim_ex.c ****     case TIM_CHANNEL_1:
 593:Drivers/STM32F7xx_HAL_Driver/Src/stm32f7xx_hal_tim_ex.c ****     {       
 594:Drivers/STM32F7xx_HAL_Driver/Src/stm32f7xx_hal_tim_ex.c ****       /* Enable the TIM Output Compare interrupt */
 595:Drivers/STM32F7xx_HAL_Driver/Src/stm32f7xx_hal_tim_ex.c ****       __HAL_TIM_ENABLE_IT(htim, TIM_IT_CC1);
 596:Drivers/STM32F7xx_HAL_Driver/Src/stm32f7xx_hal_tim_ex.c ****     }
 597:Drivers/STM32F7xx_HAL_Driver/Src/stm32f7xx_hal_tim_ex.c ****     break;
 598:Drivers/STM32F7xx_HAL_Driver/Src/stm32f7xx_hal_tim_ex.c ****     
 599:Drivers/STM32F7xx_HAL_Driver/Src/stm32f7xx_hal_tim_ex.c ****     case TIM_CHANNEL_2:
 600:Drivers/STM32F7xx_HAL_Driver/Src/stm32f7xx_hal_tim_ex.c ****     {
 601:Drivers/STM32F7xx_HAL_Driver/Src/stm32f7xx_hal_tim_ex.c ****       /* Enable the TIM Output Compare interrupt */
 602:Drivers/STM32F7xx_HAL_Driver/Src/stm32f7xx_hal_tim_ex.c ****       __HAL_TIM_ENABLE_IT(htim, TIM_IT_CC2);
 603:Drivers/STM32F7xx_HAL_Driver/Src/stm32f7xx_hal_tim_ex.c ****     }
 604:Drivers/STM32F7xx_HAL_Driver/Src/stm32f7xx_hal_tim_ex.c ****     break;
ARM GAS  /tmp/ccdraBPx.s 			page 25


 605:Drivers/STM32F7xx_HAL_Driver/Src/stm32f7xx_hal_tim_ex.c ****     
 606:Drivers/STM32F7xx_HAL_Driver/Src/stm32f7xx_hal_tim_ex.c ****     case TIM_CHANNEL_3:
 607:Drivers/STM32F7xx_HAL_Driver/Src/stm32f7xx_hal_tim_ex.c ****     {
 608:Drivers/STM32F7xx_HAL_Driver/Src/stm32f7xx_hal_tim_ex.c ****       /* Enable the TIM Output Compare interrupt */
 609:Drivers/STM32F7xx_HAL_Driver/Src/stm32f7xx_hal_tim_ex.c ****       __HAL_TIM_ENABLE_IT(htim, TIM_IT_CC3);
 610:Drivers/STM32F7xx_HAL_Driver/Src/stm32f7xx_hal_tim_ex.c ****     }
 611:Drivers/STM32F7xx_HAL_Driver/Src/stm32f7xx_hal_tim_ex.c ****     break;
 612:Drivers/STM32F7xx_HAL_Driver/Src/stm32f7xx_hal_tim_ex.c ****     
 613:Drivers/STM32F7xx_HAL_Driver/Src/stm32f7xx_hal_tim_ex.c ****     case TIM_CHANNEL_4:
 614:Drivers/STM32F7xx_HAL_Driver/Src/stm32f7xx_hal_tim_ex.c ****     {
 615:Drivers/STM32F7xx_HAL_Driver/Src/stm32f7xx_hal_tim_ex.c ****       /* Enable the TIM Output Compare interrupt */
 616:Drivers/STM32F7xx_HAL_Driver/Src/stm32f7xx_hal_tim_ex.c ****       __HAL_TIM_ENABLE_IT(htim, TIM_IT_CC4);
 617:Drivers/STM32F7xx_HAL_Driver/Src/stm32f7xx_hal_tim_ex.c ****     }
 618:Drivers/STM32F7xx_HAL_Driver/Src/stm32f7xx_hal_tim_ex.c ****     break;
 619:Drivers/STM32F7xx_HAL_Driver/Src/stm32f7xx_hal_tim_ex.c ****     
 620:Drivers/STM32F7xx_HAL_Driver/Src/stm32f7xx_hal_tim_ex.c ****     default:
 621:Drivers/STM32F7xx_HAL_Driver/Src/stm32f7xx_hal_tim_ex.c ****     break;
 622:Drivers/STM32F7xx_HAL_Driver/Src/stm32f7xx_hal_tim_ex.c ****   } 
 623:Drivers/STM32F7xx_HAL_Driver/Src/stm32f7xx_hal_tim_ex.c ****   
 624:Drivers/STM32F7xx_HAL_Driver/Src/stm32f7xx_hal_tim_ex.c ****   /* Enable the TIM Break interrupt */
 625:Drivers/STM32F7xx_HAL_Driver/Src/stm32f7xx_hal_tim_ex.c ****   __HAL_TIM_ENABLE_IT(htim, TIM_IT_BREAK);
 626:Drivers/STM32F7xx_HAL_Driver/Src/stm32f7xx_hal_tim_ex.c ****   
 627:Drivers/STM32F7xx_HAL_Driver/Src/stm32f7xx_hal_tim_ex.c ****   /* Enable the Capture compare channel N */
 628:Drivers/STM32F7xx_HAL_Driver/Src/stm32f7xx_hal_tim_ex.c ****   TIM_CCxNChannelCmd(htim->Instance, Channel, TIM_CCxN_ENABLE);
 629:Drivers/STM32F7xx_HAL_Driver/Src/stm32f7xx_hal_tim_ex.c **** 
 630:Drivers/STM32F7xx_HAL_Driver/Src/stm32f7xx_hal_tim_ex.c ****   /* Enable the Main Output */
 631:Drivers/STM32F7xx_HAL_Driver/Src/stm32f7xx_hal_tim_ex.c ****  __HAL_TIM_MOE_ENABLE(htim);
 632:Drivers/STM32F7xx_HAL_Driver/Src/stm32f7xx_hal_tim_ex.c **** 
 633:Drivers/STM32F7xx_HAL_Driver/Src/stm32f7xx_hal_tim_ex.c ****   /* Enable the Peripheral */
 634:Drivers/STM32F7xx_HAL_Driver/Src/stm32f7xx_hal_tim_ex.c ****   __HAL_TIM_ENABLE(htim);
 635:Drivers/STM32F7xx_HAL_Driver/Src/stm32f7xx_hal_tim_ex.c ****   
 636:Drivers/STM32F7xx_HAL_Driver/Src/stm32f7xx_hal_tim_ex.c ****   /* Return function status */
 637:Drivers/STM32F7xx_HAL_Driver/Src/stm32f7xx_hal_tim_ex.c ****   return HAL_OK;
 638:Drivers/STM32F7xx_HAL_Driver/Src/stm32f7xx_hal_tim_ex.c **** } 
 639:Drivers/STM32F7xx_HAL_Driver/Src/stm32f7xx_hal_tim_ex.c **** 
 640:Drivers/STM32F7xx_HAL_Driver/Src/stm32f7xx_hal_tim_ex.c **** /**
 641:Drivers/STM32F7xx_HAL_Driver/Src/stm32f7xx_hal_tim_ex.c ****   * @brief  Stops the TIM Output Compare signal generation in interrupt mode 
 642:Drivers/STM32F7xx_HAL_Driver/Src/stm32f7xx_hal_tim_ex.c ****   *         on the complementary output.
 643:Drivers/STM32F7xx_HAL_Driver/Src/stm32f7xx_hal_tim_ex.c ****   * @param  htim pointer to a TIM_HandleTypeDef structure that contains
 644:Drivers/STM32F7xx_HAL_Driver/Src/stm32f7xx_hal_tim_ex.c ****   *                the configuration information for TIM module.
 645:Drivers/STM32F7xx_HAL_Driver/Src/stm32f7xx_hal_tim_ex.c ****   * @param  Channel TIM Channel to be disabled.
 646:Drivers/STM32F7xx_HAL_Driver/Src/stm32f7xx_hal_tim_ex.c ****   *          This parameter can be one of the following values:
 647:Drivers/STM32F7xx_HAL_Driver/Src/stm32f7xx_hal_tim_ex.c ****   *            @arg TIM_CHANNEL_1: TIM Channel 1 selected
 648:Drivers/STM32F7xx_HAL_Driver/Src/stm32f7xx_hal_tim_ex.c ****   *            @arg TIM_CHANNEL_2: TIM Channel 2 selected
 649:Drivers/STM32F7xx_HAL_Driver/Src/stm32f7xx_hal_tim_ex.c ****   *            @arg TIM_CHANNEL_3: TIM Channel 3 selected
 650:Drivers/STM32F7xx_HAL_Driver/Src/stm32f7xx_hal_tim_ex.c ****   * @retval HAL status
 651:Drivers/STM32F7xx_HAL_Driver/Src/stm32f7xx_hal_tim_ex.c ****   */
 652:Drivers/STM32F7xx_HAL_Driver/Src/stm32f7xx_hal_tim_ex.c **** HAL_StatusTypeDef HAL_TIMEx_OCN_Stop_IT(TIM_HandleTypeDef *htim, uint32_t Channel)
 653:Drivers/STM32F7xx_HAL_Driver/Src/stm32f7xx_hal_tim_ex.c **** {
 654:Drivers/STM32F7xx_HAL_Driver/Src/stm32f7xx_hal_tim_ex.c ****   uint32_t tmpccer = 0; 
 655:Drivers/STM32F7xx_HAL_Driver/Src/stm32f7xx_hal_tim_ex.c **** 
 656:Drivers/STM32F7xx_HAL_Driver/Src/stm32f7xx_hal_tim_ex.c ****   /* Check the parameters */
 657:Drivers/STM32F7xx_HAL_Driver/Src/stm32f7xx_hal_tim_ex.c ****   assert_param(IS_TIM_CCXN_INSTANCE(htim->Instance, Channel)); 
 658:Drivers/STM32F7xx_HAL_Driver/Src/stm32f7xx_hal_tim_ex.c ****   
 659:Drivers/STM32F7xx_HAL_Driver/Src/stm32f7xx_hal_tim_ex.c ****   switch (Channel)
 660:Drivers/STM32F7xx_HAL_Driver/Src/stm32f7xx_hal_tim_ex.c ****   {
 661:Drivers/STM32F7xx_HAL_Driver/Src/stm32f7xx_hal_tim_ex.c ****     case TIM_CHANNEL_1:
ARM GAS  /tmp/ccdraBPx.s 			page 26


 662:Drivers/STM32F7xx_HAL_Driver/Src/stm32f7xx_hal_tim_ex.c ****     {       
 663:Drivers/STM32F7xx_HAL_Driver/Src/stm32f7xx_hal_tim_ex.c ****       /* Disable the TIM Output Compare interrupt */
 664:Drivers/STM32F7xx_HAL_Driver/Src/stm32f7xx_hal_tim_ex.c ****       __HAL_TIM_DISABLE_IT(htim, TIM_IT_CC1);
 665:Drivers/STM32F7xx_HAL_Driver/Src/stm32f7xx_hal_tim_ex.c ****     }
 666:Drivers/STM32F7xx_HAL_Driver/Src/stm32f7xx_hal_tim_ex.c ****     break;
 667:Drivers/STM32F7xx_HAL_Driver/Src/stm32f7xx_hal_tim_ex.c ****     
 668:Drivers/STM32F7xx_HAL_Driver/Src/stm32f7xx_hal_tim_ex.c ****     case TIM_CHANNEL_2:
 669:Drivers/STM32F7xx_HAL_Driver/Src/stm32f7xx_hal_tim_ex.c ****     {
 670:Drivers/STM32F7xx_HAL_Driver/Src/stm32f7xx_hal_tim_ex.c ****       /* Disable the TIM Output Compare interrupt */
 671:Drivers/STM32F7xx_HAL_Driver/Src/stm32f7xx_hal_tim_ex.c ****       __HAL_TIM_DISABLE_IT(htim, TIM_IT_CC2);
 672:Drivers/STM32F7xx_HAL_Driver/Src/stm32f7xx_hal_tim_ex.c ****     }
 673:Drivers/STM32F7xx_HAL_Driver/Src/stm32f7xx_hal_tim_ex.c ****     break;
 674:Drivers/STM32F7xx_HAL_Driver/Src/stm32f7xx_hal_tim_ex.c ****     
 675:Drivers/STM32F7xx_HAL_Driver/Src/stm32f7xx_hal_tim_ex.c ****     case TIM_CHANNEL_3:
 676:Drivers/STM32F7xx_HAL_Driver/Src/stm32f7xx_hal_tim_ex.c ****     {
 677:Drivers/STM32F7xx_HAL_Driver/Src/stm32f7xx_hal_tim_ex.c ****       /* Disable the TIM Output Compare interrupt */
 678:Drivers/STM32F7xx_HAL_Driver/Src/stm32f7xx_hal_tim_ex.c ****       __HAL_TIM_DISABLE_IT(htim, TIM_IT_CC3);
 679:Drivers/STM32F7xx_HAL_Driver/Src/stm32f7xx_hal_tim_ex.c ****     }
 680:Drivers/STM32F7xx_HAL_Driver/Src/stm32f7xx_hal_tim_ex.c ****     break;
 681:Drivers/STM32F7xx_HAL_Driver/Src/stm32f7xx_hal_tim_ex.c ****     
 682:Drivers/STM32F7xx_HAL_Driver/Src/stm32f7xx_hal_tim_ex.c ****     case TIM_CHANNEL_4:
 683:Drivers/STM32F7xx_HAL_Driver/Src/stm32f7xx_hal_tim_ex.c ****     {
 684:Drivers/STM32F7xx_HAL_Driver/Src/stm32f7xx_hal_tim_ex.c ****       /* Disable the TIM Output Compare interrupt */
 685:Drivers/STM32F7xx_HAL_Driver/Src/stm32f7xx_hal_tim_ex.c ****       __HAL_TIM_DISABLE_IT(htim, TIM_IT_CC4);
 686:Drivers/STM32F7xx_HAL_Driver/Src/stm32f7xx_hal_tim_ex.c ****     }
 687:Drivers/STM32F7xx_HAL_Driver/Src/stm32f7xx_hal_tim_ex.c ****     break;
 688:Drivers/STM32F7xx_HAL_Driver/Src/stm32f7xx_hal_tim_ex.c ****     
 689:Drivers/STM32F7xx_HAL_Driver/Src/stm32f7xx_hal_tim_ex.c ****     default:
 690:Drivers/STM32F7xx_HAL_Driver/Src/stm32f7xx_hal_tim_ex.c ****     break; 
 691:Drivers/STM32F7xx_HAL_Driver/Src/stm32f7xx_hal_tim_ex.c ****   }
 692:Drivers/STM32F7xx_HAL_Driver/Src/stm32f7xx_hal_tim_ex.c **** 
 693:Drivers/STM32F7xx_HAL_Driver/Src/stm32f7xx_hal_tim_ex.c ****   /* Disable the Capture compare channel N */
 694:Drivers/STM32F7xx_HAL_Driver/Src/stm32f7xx_hal_tim_ex.c ****   TIM_CCxNChannelCmd(htim->Instance, Channel, TIM_CCxN_DISABLE);
 695:Drivers/STM32F7xx_HAL_Driver/Src/stm32f7xx_hal_tim_ex.c **** 
 696:Drivers/STM32F7xx_HAL_Driver/Src/stm32f7xx_hal_tim_ex.c ****   /* Disable the TIM Break interrupt (only if no more channel is active) */
 697:Drivers/STM32F7xx_HAL_Driver/Src/stm32f7xx_hal_tim_ex.c ****   tmpccer = htim->Instance->CCER;
 698:Drivers/STM32F7xx_HAL_Driver/Src/stm32f7xx_hal_tim_ex.c ****   if ((tmpccer & (TIM_CCER_CC1NE | TIM_CCER_CC2NE | TIM_CCER_CC3NE)) == RESET)
 699:Drivers/STM32F7xx_HAL_Driver/Src/stm32f7xx_hal_tim_ex.c ****   {
 700:Drivers/STM32F7xx_HAL_Driver/Src/stm32f7xx_hal_tim_ex.c ****     __HAL_TIM_DISABLE_IT(htim, TIM_IT_BREAK);
 701:Drivers/STM32F7xx_HAL_Driver/Src/stm32f7xx_hal_tim_ex.c ****   }
 702:Drivers/STM32F7xx_HAL_Driver/Src/stm32f7xx_hal_tim_ex.c **** 
 703:Drivers/STM32F7xx_HAL_Driver/Src/stm32f7xx_hal_tim_ex.c ****   /* Disable the Main Output */
 704:Drivers/STM32F7xx_HAL_Driver/Src/stm32f7xx_hal_tim_ex.c ****   __HAL_TIM_MOE_DISABLE(htim);
 705:Drivers/STM32F7xx_HAL_Driver/Src/stm32f7xx_hal_tim_ex.c **** 
 706:Drivers/STM32F7xx_HAL_Driver/Src/stm32f7xx_hal_tim_ex.c ****   /* Disable the Peripheral */
 707:Drivers/STM32F7xx_HAL_Driver/Src/stm32f7xx_hal_tim_ex.c ****   __HAL_TIM_DISABLE(htim);
 708:Drivers/STM32F7xx_HAL_Driver/Src/stm32f7xx_hal_tim_ex.c ****   
 709:Drivers/STM32F7xx_HAL_Driver/Src/stm32f7xx_hal_tim_ex.c ****   /* Return function status */
 710:Drivers/STM32F7xx_HAL_Driver/Src/stm32f7xx_hal_tim_ex.c ****   return HAL_OK;
 711:Drivers/STM32F7xx_HAL_Driver/Src/stm32f7xx_hal_tim_ex.c **** } 
 712:Drivers/STM32F7xx_HAL_Driver/Src/stm32f7xx_hal_tim_ex.c **** 
 713:Drivers/STM32F7xx_HAL_Driver/Src/stm32f7xx_hal_tim_ex.c **** /**
 714:Drivers/STM32F7xx_HAL_Driver/Src/stm32f7xx_hal_tim_ex.c ****   * @brief  Starts the TIM Output Compare signal generation in DMA mode 
 715:Drivers/STM32F7xx_HAL_Driver/Src/stm32f7xx_hal_tim_ex.c ****   *         on the complementary output.
 716:Drivers/STM32F7xx_HAL_Driver/Src/stm32f7xx_hal_tim_ex.c ****   * @param  htim pointer to a TIM_HandleTypeDef structure that contains
 717:Drivers/STM32F7xx_HAL_Driver/Src/stm32f7xx_hal_tim_ex.c ****   *                the configuration information for TIM module.
 718:Drivers/STM32F7xx_HAL_Driver/Src/stm32f7xx_hal_tim_ex.c ****   * @param  Channel TIM Channel to be enabled.
ARM GAS  /tmp/ccdraBPx.s 			page 27


 719:Drivers/STM32F7xx_HAL_Driver/Src/stm32f7xx_hal_tim_ex.c ****   *          This parameter can be one of the following values:
 720:Drivers/STM32F7xx_HAL_Driver/Src/stm32f7xx_hal_tim_ex.c ****   *            @arg TIM_CHANNEL_1: TIM Channel 1 selected
 721:Drivers/STM32F7xx_HAL_Driver/Src/stm32f7xx_hal_tim_ex.c ****   *            @arg TIM_CHANNEL_2: TIM Channel 2 selected
 722:Drivers/STM32F7xx_HAL_Driver/Src/stm32f7xx_hal_tim_ex.c ****   *            @arg TIM_CHANNEL_3: TIM Channel 3 selected
 723:Drivers/STM32F7xx_HAL_Driver/Src/stm32f7xx_hal_tim_ex.c ****   * @param  pData The source Buffer address.
 724:Drivers/STM32F7xx_HAL_Driver/Src/stm32f7xx_hal_tim_ex.c ****   * @param  Length The length of data to be transferred from memory to TIM peripheral
 725:Drivers/STM32F7xx_HAL_Driver/Src/stm32f7xx_hal_tim_ex.c ****   * @retval HAL status
 726:Drivers/STM32F7xx_HAL_Driver/Src/stm32f7xx_hal_tim_ex.c ****   */
 727:Drivers/STM32F7xx_HAL_Driver/Src/stm32f7xx_hal_tim_ex.c **** HAL_StatusTypeDef HAL_TIMEx_OCN_Start_DMA(TIM_HandleTypeDef *htim, uint32_t Channel, uint32_t *pDat
 728:Drivers/STM32F7xx_HAL_Driver/Src/stm32f7xx_hal_tim_ex.c **** {
 729:Drivers/STM32F7xx_HAL_Driver/Src/stm32f7xx_hal_tim_ex.c ****   /* Check the parameters */
 730:Drivers/STM32F7xx_HAL_Driver/Src/stm32f7xx_hal_tim_ex.c ****   assert_param(IS_TIM_CCXN_INSTANCE(htim->Instance, Channel)); 
 731:Drivers/STM32F7xx_HAL_Driver/Src/stm32f7xx_hal_tim_ex.c ****   
 732:Drivers/STM32F7xx_HAL_Driver/Src/stm32f7xx_hal_tim_ex.c ****   if((htim->State == HAL_TIM_STATE_BUSY))
 733:Drivers/STM32F7xx_HAL_Driver/Src/stm32f7xx_hal_tim_ex.c ****   {
 734:Drivers/STM32F7xx_HAL_Driver/Src/stm32f7xx_hal_tim_ex.c ****      return HAL_BUSY;
 735:Drivers/STM32F7xx_HAL_Driver/Src/stm32f7xx_hal_tim_ex.c ****   }
 736:Drivers/STM32F7xx_HAL_Driver/Src/stm32f7xx_hal_tim_ex.c ****   else if((htim->State == HAL_TIM_STATE_READY))
 737:Drivers/STM32F7xx_HAL_Driver/Src/stm32f7xx_hal_tim_ex.c ****   {
 738:Drivers/STM32F7xx_HAL_Driver/Src/stm32f7xx_hal_tim_ex.c ****     if(((uint32_t)pData == 0 ) && (Length > 0)) 
 739:Drivers/STM32F7xx_HAL_Driver/Src/stm32f7xx_hal_tim_ex.c ****     {
 740:Drivers/STM32F7xx_HAL_Driver/Src/stm32f7xx_hal_tim_ex.c ****       return HAL_ERROR;                                    
 741:Drivers/STM32F7xx_HAL_Driver/Src/stm32f7xx_hal_tim_ex.c ****     }
 742:Drivers/STM32F7xx_HAL_Driver/Src/stm32f7xx_hal_tim_ex.c ****     else
 743:Drivers/STM32F7xx_HAL_Driver/Src/stm32f7xx_hal_tim_ex.c ****     {
 744:Drivers/STM32F7xx_HAL_Driver/Src/stm32f7xx_hal_tim_ex.c ****       htim->State = HAL_TIM_STATE_BUSY;
 745:Drivers/STM32F7xx_HAL_Driver/Src/stm32f7xx_hal_tim_ex.c ****     }
 746:Drivers/STM32F7xx_HAL_Driver/Src/stm32f7xx_hal_tim_ex.c ****   }    
 747:Drivers/STM32F7xx_HAL_Driver/Src/stm32f7xx_hal_tim_ex.c ****   switch (Channel)
 748:Drivers/STM32F7xx_HAL_Driver/Src/stm32f7xx_hal_tim_ex.c ****   {
 749:Drivers/STM32F7xx_HAL_Driver/Src/stm32f7xx_hal_tim_ex.c ****     case TIM_CHANNEL_1:
 750:Drivers/STM32F7xx_HAL_Driver/Src/stm32f7xx_hal_tim_ex.c ****     {      
 751:Drivers/STM32F7xx_HAL_Driver/Src/stm32f7xx_hal_tim_ex.c ****       /* Set the DMA Period elapsed callback */
 752:Drivers/STM32F7xx_HAL_Driver/Src/stm32f7xx_hal_tim_ex.c ****       htim->hdma[TIM_DMA_ID_CC1]->XferCpltCallback = HAL_TIM_DMADelayPulseCplt;
 753:Drivers/STM32F7xx_HAL_Driver/Src/stm32f7xx_hal_tim_ex.c ****      
 754:Drivers/STM32F7xx_HAL_Driver/Src/stm32f7xx_hal_tim_ex.c ****       /* Set the DMA error callback */
 755:Drivers/STM32F7xx_HAL_Driver/Src/stm32f7xx_hal_tim_ex.c ****       htim->hdma[TIM_DMA_ID_CC1]->XferErrorCallback = HAL_TIM_DMAError ;
 756:Drivers/STM32F7xx_HAL_Driver/Src/stm32f7xx_hal_tim_ex.c ****       
 757:Drivers/STM32F7xx_HAL_Driver/Src/stm32f7xx_hal_tim_ex.c ****       /* Enable the DMA Stream */
 758:Drivers/STM32F7xx_HAL_Driver/Src/stm32f7xx_hal_tim_ex.c ****       HAL_DMA_Start_IT(htim->hdma[TIM_DMA_ID_CC1], (uint32_t)pData, (uint32_t)&htim->Instance->CCR1
 759:Drivers/STM32F7xx_HAL_Driver/Src/stm32f7xx_hal_tim_ex.c ****       
 760:Drivers/STM32F7xx_HAL_Driver/Src/stm32f7xx_hal_tim_ex.c ****       /* Enable the TIM Output Compare DMA request */
 761:Drivers/STM32F7xx_HAL_Driver/Src/stm32f7xx_hal_tim_ex.c ****       __HAL_TIM_ENABLE_DMA(htim, TIM_DMA_CC1);
 762:Drivers/STM32F7xx_HAL_Driver/Src/stm32f7xx_hal_tim_ex.c ****     }
 763:Drivers/STM32F7xx_HAL_Driver/Src/stm32f7xx_hal_tim_ex.c ****     break;
 764:Drivers/STM32F7xx_HAL_Driver/Src/stm32f7xx_hal_tim_ex.c ****     
 765:Drivers/STM32F7xx_HAL_Driver/Src/stm32f7xx_hal_tim_ex.c ****     case TIM_CHANNEL_2:
 766:Drivers/STM32F7xx_HAL_Driver/Src/stm32f7xx_hal_tim_ex.c ****     {
 767:Drivers/STM32F7xx_HAL_Driver/Src/stm32f7xx_hal_tim_ex.c ****       /* Set the DMA Period elapsed callback */
 768:Drivers/STM32F7xx_HAL_Driver/Src/stm32f7xx_hal_tim_ex.c ****       htim->hdma[TIM_DMA_ID_CC2]->XferCpltCallback = HAL_TIM_DMADelayPulseCplt;
 769:Drivers/STM32F7xx_HAL_Driver/Src/stm32f7xx_hal_tim_ex.c ****      
 770:Drivers/STM32F7xx_HAL_Driver/Src/stm32f7xx_hal_tim_ex.c ****       /* Set the DMA error callback */
 771:Drivers/STM32F7xx_HAL_Driver/Src/stm32f7xx_hal_tim_ex.c ****       htim->hdma[TIM_DMA_ID_CC2]->XferErrorCallback = HAL_TIM_DMAError ;
 772:Drivers/STM32F7xx_HAL_Driver/Src/stm32f7xx_hal_tim_ex.c ****       
 773:Drivers/STM32F7xx_HAL_Driver/Src/stm32f7xx_hal_tim_ex.c ****       /* Enable the DMA Stream */
 774:Drivers/STM32F7xx_HAL_Driver/Src/stm32f7xx_hal_tim_ex.c ****       HAL_DMA_Start_IT(htim->hdma[TIM_DMA_ID_CC2], (uint32_t)pData, (uint32_t)&htim->Instance->CCR2
 775:Drivers/STM32F7xx_HAL_Driver/Src/stm32f7xx_hal_tim_ex.c ****       
ARM GAS  /tmp/ccdraBPx.s 			page 28


 776:Drivers/STM32F7xx_HAL_Driver/Src/stm32f7xx_hal_tim_ex.c ****       /* Enable the TIM Output Compare DMA request */
 777:Drivers/STM32F7xx_HAL_Driver/Src/stm32f7xx_hal_tim_ex.c ****       __HAL_TIM_ENABLE_DMA(htim, TIM_DMA_CC2);
 778:Drivers/STM32F7xx_HAL_Driver/Src/stm32f7xx_hal_tim_ex.c ****     }
 779:Drivers/STM32F7xx_HAL_Driver/Src/stm32f7xx_hal_tim_ex.c ****     break;
 780:Drivers/STM32F7xx_HAL_Driver/Src/stm32f7xx_hal_tim_ex.c ****     
 781:Drivers/STM32F7xx_HAL_Driver/Src/stm32f7xx_hal_tim_ex.c ****     case TIM_CHANNEL_3:
 782:Drivers/STM32F7xx_HAL_Driver/Src/stm32f7xx_hal_tim_ex.c **** {
 783:Drivers/STM32F7xx_HAL_Driver/Src/stm32f7xx_hal_tim_ex.c ****       /* Set the DMA Period elapsed callback */
 784:Drivers/STM32F7xx_HAL_Driver/Src/stm32f7xx_hal_tim_ex.c ****       htim->hdma[TIM_DMA_ID_CC3]->XferCpltCallback = HAL_TIM_DMADelayPulseCplt;
 785:Drivers/STM32F7xx_HAL_Driver/Src/stm32f7xx_hal_tim_ex.c ****      
 786:Drivers/STM32F7xx_HAL_Driver/Src/stm32f7xx_hal_tim_ex.c ****       /* Set the DMA error callback */
 787:Drivers/STM32F7xx_HAL_Driver/Src/stm32f7xx_hal_tim_ex.c ****       htim->hdma[TIM_DMA_ID_CC3]->XferErrorCallback = HAL_TIM_DMAError ;
 788:Drivers/STM32F7xx_HAL_Driver/Src/stm32f7xx_hal_tim_ex.c ****       
 789:Drivers/STM32F7xx_HAL_Driver/Src/stm32f7xx_hal_tim_ex.c ****       /* Enable the DMA Stream */
 790:Drivers/STM32F7xx_HAL_Driver/Src/stm32f7xx_hal_tim_ex.c ****       HAL_DMA_Start_IT(htim->hdma[TIM_DMA_ID_CC3], (uint32_t)pData, (uint32_t)&htim->Instance->CCR3
 791:Drivers/STM32F7xx_HAL_Driver/Src/stm32f7xx_hal_tim_ex.c ****       
 792:Drivers/STM32F7xx_HAL_Driver/Src/stm32f7xx_hal_tim_ex.c ****       /* Enable the TIM Output Compare DMA request */
 793:Drivers/STM32F7xx_HAL_Driver/Src/stm32f7xx_hal_tim_ex.c ****       __HAL_TIM_ENABLE_DMA(htim, TIM_DMA_CC3);
 794:Drivers/STM32F7xx_HAL_Driver/Src/stm32f7xx_hal_tim_ex.c ****     }
 795:Drivers/STM32F7xx_HAL_Driver/Src/stm32f7xx_hal_tim_ex.c ****     break;
 796:Drivers/STM32F7xx_HAL_Driver/Src/stm32f7xx_hal_tim_ex.c ****     
 797:Drivers/STM32F7xx_HAL_Driver/Src/stm32f7xx_hal_tim_ex.c ****     case TIM_CHANNEL_4:
 798:Drivers/STM32F7xx_HAL_Driver/Src/stm32f7xx_hal_tim_ex.c ****     {
 799:Drivers/STM32F7xx_HAL_Driver/Src/stm32f7xx_hal_tim_ex.c ****      /* Set the DMA Period elapsed callback */
 800:Drivers/STM32F7xx_HAL_Driver/Src/stm32f7xx_hal_tim_ex.c ****       htim->hdma[TIM_DMA_ID_CC4]->XferCpltCallback = HAL_TIM_DMADelayPulseCplt;
 801:Drivers/STM32F7xx_HAL_Driver/Src/stm32f7xx_hal_tim_ex.c ****      
 802:Drivers/STM32F7xx_HAL_Driver/Src/stm32f7xx_hal_tim_ex.c ****       /* Set the DMA error callback */
 803:Drivers/STM32F7xx_HAL_Driver/Src/stm32f7xx_hal_tim_ex.c ****       htim->hdma[TIM_DMA_ID_CC4]->XferErrorCallback = HAL_TIM_DMAError ;
 804:Drivers/STM32F7xx_HAL_Driver/Src/stm32f7xx_hal_tim_ex.c ****       
 805:Drivers/STM32F7xx_HAL_Driver/Src/stm32f7xx_hal_tim_ex.c ****       /* Enable the DMA Stream */
 806:Drivers/STM32F7xx_HAL_Driver/Src/stm32f7xx_hal_tim_ex.c ****       HAL_DMA_Start_IT(htim->hdma[TIM_DMA_ID_CC4], (uint32_t)pData, (uint32_t)&htim->Instance->CCR4
 807:Drivers/STM32F7xx_HAL_Driver/Src/stm32f7xx_hal_tim_ex.c ****       
 808:Drivers/STM32F7xx_HAL_Driver/Src/stm32f7xx_hal_tim_ex.c ****       /* Enable the TIM Output Compare DMA request */
 809:Drivers/STM32F7xx_HAL_Driver/Src/stm32f7xx_hal_tim_ex.c ****       __HAL_TIM_ENABLE_DMA(htim, TIM_DMA_CC4);
 810:Drivers/STM32F7xx_HAL_Driver/Src/stm32f7xx_hal_tim_ex.c ****     }
 811:Drivers/STM32F7xx_HAL_Driver/Src/stm32f7xx_hal_tim_ex.c ****     break;
 812:Drivers/STM32F7xx_HAL_Driver/Src/stm32f7xx_hal_tim_ex.c ****     
 813:Drivers/STM32F7xx_HAL_Driver/Src/stm32f7xx_hal_tim_ex.c ****     default:
 814:Drivers/STM32F7xx_HAL_Driver/Src/stm32f7xx_hal_tim_ex.c ****     break;
 815:Drivers/STM32F7xx_HAL_Driver/Src/stm32f7xx_hal_tim_ex.c ****   }
 816:Drivers/STM32F7xx_HAL_Driver/Src/stm32f7xx_hal_tim_ex.c **** 
 817:Drivers/STM32F7xx_HAL_Driver/Src/stm32f7xx_hal_tim_ex.c ****   /* Enable the Capture compare channel N */
 818:Drivers/STM32F7xx_HAL_Driver/Src/stm32f7xx_hal_tim_ex.c ****   TIM_CCxNChannelCmd(htim->Instance, Channel, TIM_CCxN_ENABLE);
 819:Drivers/STM32F7xx_HAL_Driver/Src/stm32f7xx_hal_tim_ex.c ****   
 820:Drivers/STM32F7xx_HAL_Driver/Src/stm32f7xx_hal_tim_ex.c ****   /* Enable the Main Output */
 821:Drivers/STM32F7xx_HAL_Driver/Src/stm32f7xx_hal_tim_ex.c ****   __HAL_TIM_MOE_ENABLE(htim);
 822:Drivers/STM32F7xx_HAL_Driver/Src/stm32f7xx_hal_tim_ex.c ****   
 823:Drivers/STM32F7xx_HAL_Driver/Src/stm32f7xx_hal_tim_ex.c ****   /* Enable the Peripheral */
 824:Drivers/STM32F7xx_HAL_Driver/Src/stm32f7xx_hal_tim_ex.c ****   __HAL_TIM_ENABLE(htim); 
 825:Drivers/STM32F7xx_HAL_Driver/Src/stm32f7xx_hal_tim_ex.c ****   
 826:Drivers/STM32F7xx_HAL_Driver/Src/stm32f7xx_hal_tim_ex.c ****   /* Return function status */
 827:Drivers/STM32F7xx_HAL_Driver/Src/stm32f7xx_hal_tim_ex.c ****   return HAL_OK;
 828:Drivers/STM32F7xx_HAL_Driver/Src/stm32f7xx_hal_tim_ex.c **** }
 829:Drivers/STM32F7xx_HAL_Driver/Src/stm32f7xx_hal_tim_ex.c **** 
 830:Drivers/STM32F7xx_HAL_Driver/Src/stm32f7xx_hal_tim_ex.c **** /**
 831:Drivers/STM32F7xx_HAL_Driver/Src/stm32f7xx_hal_tim_ex.c ****   * @brief  Stops the TIM Output Compare signal generation in DMA mode 
 832:Drivers/STM32F7xx_HAL_Driver/Src/stm32f7xx_hal_tim_ex.c ****   *         on the complementary output.
ARM GAS  /tmp/ccdraBPx.s 			page 29


 833:Drivers/STM32F7xx_HAL_Driver/Src/stm32f7xx_hal_tim_ex.c ****   * @param  htim pointer to a TIM_HandleTypeDef structure that contains
 834:Drivers/STM32F7xx_HAL_Driver/Src/stm32f7xx_hal_tim_ex.c ****   *                the configuration information for TIM module.
 835:Drivers/STM32F7xx_HAL_Driver/Src/stm32f7xx_hal_tim_ex.c ****   * @param  Channel TIM Channel to be disabled.
 836:Drivers/STM32F7xx_HAL_Driver/Src/stm32f7xx_hal_tim_ex.c ****   *          This parameter can be one of the following values:
 837:Drivers/STM32F7xx_HAL_Driver/Src/stm32f7xx_hal_tim_ex.c ****   *            @arg TIM_CHANNEL_1: TIM Channel 1 selected
 838:Drivers/STM32F7xx_HAL_Driver/Src/stm32f7xx_hal_tim_ex.c ****   *            @arg TIM_CHANNEL_2: TIM Channel 2 selected
 839:Drivers/STM32F7xx_HAL_Driver/Src/stm32f7xx_hal_tim_ex.c ****   *            @arg TIM_CHANNEL_3: TIM Channel 3 selected
 840:Drivers/STM32F7xx_HAL_Driver/Src/stm32f7xx_hal_tim_ex.c ****   * @retval HAL status
 841:Drivers/STM32F7xx_HAL_Driver/Src/stm32f7xx_hal_tim_ex.c ****   */
 842:Drivers/STM32F7xx_HAL_Driver/Src/stm32f7xx_hal_tim_ex.c **** HAL_StatusTypeDef HAL_TIMEx_OCN_Stop_DMA(TIM_HandleTypeDef *htim, uint32_t Channel)
 843:Drivers/STM32F7xx_HAL_Driver/Src/stm32f7xx_hal_tim_ex.c **** {
 844:Drivers/STM32F7xx_HAL_Driver/Src/stm32f7xx_hal_tim_ex.c ****   /* Check the parameters */
 845:Drivers/STM32F7xx_HAL_Driver/Src/stm32f7xx_hal_tim_ex.c ****   assert_param(IS_TIM_CCXN_INSTANCE(htim->Instance, Channel)); 
 846:Drivers/STM32F7xx_HAL_Driver/Src/stm32f7xx_hal_tim_ex.c ****   
 847:Drivers/STM32F7xx_HAL_Driver/Src/stm32f7xx_hal_tim_ex.c ****   switch (Channel)
 848:Drivers/STM32F7xx_HAL_Driver/Src/stm32f7xx_hal_tim_ex.c ****   {
 849:Drivers/STM32F7xx_HAL_Driver/Src/stm32f7xx_hal_tim_ex.c ****     case TIM_CHANNEL_1:
 850:Drivers/STM32F7xx_HAL_Driver/Src/stm32f7xx_hal_tim_ex.c ****     {       
 851:Drivers/STM32F7xx_HAL_Driver/Src/stm32f7xx_hal_tim_ex.c ****       /* Disable the TIM Output Compare DMA request */
 852:Drivers/STM32F7xx_HAL_Driver/Src/stm32f7xx_hal_tim_ex.c ****       __HAL_TIM_DISABLE_DMA(htim, TIM_DMA_CC1);
 853:Drivers/STM32F7xx_HAL_Driver/Src/stm32f7xx_hal_tim_ex.c ****     }
 854:Drivers/STM32F7xx_HAL_Driver/Src/stm32f7xx_hal_tim_ex.c ****     break;
 855:Drivers/STM32F7xx_HAL_Driver/Src/stm32f7xx_hal_tim_ex.c ****     
 856:Drivers/STM32F7xx_HAL_Driver/Src/stm32f7xx_hal_tim_ex.c ****     case TIM_CHANNEL_2:
 857:Drivers/STM32F7xx_HAL_Driver/Src/stm32f7xx_hal_tim_ex.c ****     {
 858:Drivers/STM32F7xx_HAL_Driver/Src/stm32f7xx_hal_tim_ex.c ****       /* Disable the TIM Output Compare DMA request */
 859:Drivers/STM32F7xx_HAL_Driver/Src/stm32f7xx_hal_tim_ex.c ****       __HAL_TIM_DISABLE_DMA(htim, TIM_DMA_CC2);
 860:Drivers/STM32F7xx_HAL_Driver/Src/stm32f7xx_hal_tim_ex.c ****     }
 861:Drivers/STM32F7xx_HAL_Driver/Src/stm32f7xx_hal_tim_ex.c ****     break;
 862:Drivers/STM32F7xx_HAL_Driver/Src/stm32f7xx_hal_tim_ex.c ****     
 863:Drivers/STM32F7xx_HAL_Driver/Src/stm32f7xx_hal_tim_ex.c ****     case TIM_CHANNEL_3:
 864:Drivers/STM32F7xx_HAL_Driver/Src/stm32f7xx_hal_tim_ex.c ****     {
 865:Drivers/STM32F7xx_HAL_Driver/Src/stm32f7xx_hal_tim_ex.c ****       /* Disable the TIM Output Compare DMA request */
 866:Drivers/STM32F7xx_HAL_Driver/Src/stm32f7xx_hal_tim_ex.c ****       __HAL_TIM_DISABLE_DMA(htim, TIM_DMA_CC3);
 867:Drivers/STM32F7xx_HAL_Driver/Src/stm32f7xx_hal_tim_ex.c ****     }
 868:Drivers/STM32F7xx_HAL_Driver/Src/stm32f7xx_hal_tim_ex.c ****     break;
 869:Drivers/STM32F7xx_HAL_Driver/Src/stm32f7xx_hal_tim_ex.c ****     
 870:Drivers/STM32F7xx_HAL_Driver/Src/stm32f7xx_hal_tim_ex.c ****     case TIM_CHANNEL_4:
 871:Drivers/STM32F7xx_HAL_Driver/Src/stm32f7xx_hal_tim_ex.c ****     {
 872:Drivers/STM32F7xx_HAL_Driver/Src/stm32f7xx_hal_tim_ex.c ****       /* Disable the TIM Output Compare interrupt */
 873:Drivers/STM32F7xx_HAL_Driver/Src/stm32f7xx_hal_tim_ex.c ****       __HAL_TIM_DISABLE_DMA(htim, TIM_DMA_CC4);
 874:Drivers/STM32F7xx_HAL_Driver/Src/stm32f7xx_hal_tim_ex.c ****     }
 875:Drivers/STM32F7xx_HAL_Driver/Src/stm32f7xx_hal_tim_ex.c ****     break;
 876:Drivers/STM32F7xx_HAL_Driver/Src/stm32f7xx_hal_tim_ex.c ****     
 877:Drivers/STM32F7xx_HAL_Driver/Src/stm32f7xx_hal_tim_ex.c ****     default:
 878:Drivers/STM32F7xx_HAL_Driver/Src/stm32f7xx_hal_tim_ex.c ****     break;
 879:Drivers/STM32F7xx_HAL_Driver/Src/stm32f7xx_hal_tim_ex.c ****   } 
 880:Drivers/STM32F7xx_HAL_Driver/Src/stm32f7xx_hal_tim_ex.c ****   
 881:Drivers/STM32F7xx_HAL_Driver/Src/stm32f7xx_hal_tim_ex.c ****   /* Disable the Capture compare channel N */
 882:Drivers/STM32F7xx_HAL_Driver/Src/stm32f7xx_hal_tim_ex.c ****   TIM_CCxNChannelCmd(htim->Instance, Channel, TIM_CCxN_DISABLE);
 883:Drivers/STM32F7xx_HAL_Driver/Src/stm32f7xx_hal_tim_ex.c ****   
 884:Drivers/STM32F7xx_HAL_Driver/Src/stm32f7xx_hal_tim_ex.c ****   /* Disable the Main Output */
 885:Drivers/STM32F7xx_HAL_Driver/Src/stm32f7xx_hal_tim_ex.c ****   __HAL_TIM_MOE_DISABLE(htim);
 886:Drivers/STM32F7xx_HAL_Driver/Src/stm32f7xx_hal_tim_ex.c ****   
 887:Drivers/STM32F7xx_HAL_Driver/Src/stm32f7xx_hal_tim_ex.c ****   /* Disable the Peripheral */
 888:Drivers/STM32F7xx_HAL_Driver/Src/stm32f7xx_hal_tim_ex.c ****   __HAL_TIM_DISABLE(htim);
 889:Drivers/STM32F7xx_HAL_Driver/Src/stm32f7xx_hal_tim_ex.c ****   
ARM GAS  /tmp/ccdraBPx.s 			page 30


 890:Drivers/STM32F7xx_HAL_Driver/Src/stm32f7xx_hal_tim_ex.c ****   /* Change the htim state */
 891:Drivers/STM32F7xx_HAL_Driver/Src/stm32f7xx_hal_tim_ex.c ****   htim->State = HAL_TIM_STATE_READY;
 892:Drivers/STM32F7xx_HAL_Driver/Src/stm32f7xx_hal_tim_ex.c ****   
 893:Drivers/STM32F7xx_HAL_Driver/Src/stm32f7xx_hal_tim_ex.c ****   /* Return function status */
 894:Drivers/STM32F7xx_HAL_Driver/Src/stm32f7xx_hal_tim_ex.c ****   return HAL_OK;
 895:Drivers/STM32F7xx_HAL_Driver/Src/stm32f7xx_hal_tim_ex.c **** }
 896:Drivers/STM32F7xx_HAL_Driver/Src/stm32f7xx_hal_tim_ex.c **** 
 897:Drivers/STM32F7xx_HAL_Driver/Src/stm32f7xx_hal_tim_ex.c **** /**
 898:Drivers/STM32F7xx_HAL_Driver/Src/stm32f7xx_hal_tim_ex.c ****   * @}
 899:Drivers/STM32F7xx_HAL_Driver/Src/stm32f7xx_hal_tim_ex.c ****   */
 900:Drivers/STM32F7xx_HAL_Driver/Src/stm32f7xx_hal_tim_ex.c ****   
 901:Drivers/STM32F7xx_HAL_Driver/Src/stm32f7xx_hal_tim_ex.c **** /** @defgroup TIMEx_Exported_Functions_Group3 Extended Timer Complementary PWM functions
 902:Drivers/STM32F7xx_HAL_Driver/Src/stm32f7xx_hal_tim_ex.c ****  *  @brief    Timer Complementary PWM functions 
 903:Drivers/STM32F7xx_HAL_Driver/Src/stm32f7xx_hal_tim_ex.c ****  *
 904:Drivers/STM32F7xx_HAL_Driver/Src/stm32f7xx_hal_tim_ex.c **** @verbatim   
 905:Drivers/STM32F7xx_HAL_Driver/Src/stm32f7xx_hal_tim_ex.c ****   ==============================================================================
 906:Drivers/STM32F7xx_HAL_Driver/Src/stm32f7xx_hal_tim_ex.c ****                  ##### Timer Complementary PWM functions #####
 907:Drivers/STM32F7xx_HAL_Driver/Src/stm32f7xx_hal_tim_ex.c ****   ==============================================================================  
 908:Drivers/STM32F7xx_HAL_Driver/Src/stm32f7xx_hal_tim_ex.c ****   [..]  
 909:Drivers/STM32F7xx_HAL_Driver/Src/stm32f7xx_hal_tim_ex.c ****     This section provides functions allowing to:
 910:Drivers/STM32F7xx_HAL_Driver/Src/stm32f7xx_hal_tim_ex.c ****     (+) Start the Complementary PWM.
 911:Drivers/STM32F7xx_HAL_Driver/Src/stm32f7xx_hal_tim_ex.c ****     (+) Stop the Complementary PWM.
 912:Drivers/STM32F7xx_HAL_Driver/Src/stm32f7xx_hal_tim_ex.c ****     (+) Start the Complementary PWM and enable interrupts.
 913:Drivers/STM32F7xx_HAL_Driver/Src/stm32f7xx_hal_tim_ex.c ****     (+) Stop the Complementary PWM and disable interrupts.
 914:Drivers/STM32F7xx_HAL_Driver/Src/stm32f7xx_hal_tim_ex.c ****     (+) Start the Complementary PWM and enable DMA transfers.
 915:Drivers/STM32F7xx_HAL_Driver/Src/stm32f7xx_hal_tim_ex.c ****     (+) Stop the Complementary PWM and disable DMA transfers.
 916:Drivers/STM32F7xx_HAL_Driver/Src/stm32f7xx_hal_tim_ex.c ****     (+) Start the Complementary Input Capture measurement.
 917:Drivers/STM32F7xx_HAL_Driver/Src/stm32f7xx_hal_tim_ex.c ****     (+) Stop the Complementary Input Capture.
 918:Drivers/STM32F7xx_HAL_Driver/Src/stm32f7xx_hal_tim_ex.c ****     (+) Start the Complementary Input Capture and enable interrupts.
 919:Drivers/STM32F7xx_HAL_Driver/Src/stm32f7xx_hal_tim_ex.c ****     (+) Stop the Complementary Input Capture and disable interrupts.
 920:Drivers/STM32F7xx_HAL_Driver/Src/stm32f7xx_hal_tim_ex.c ****     (+) Start the Complementary Input Capture and enable DMA transfers.
 921:Drivers/STM32F7xx_HAL_Driver/Src/stm32f7xx_hal_tim_ex.c ****     (+) Stop the Complementary Input Capture and disable DMA transfers.
 922:Drivers/STM32F7xx_HAL_Driver/Src/stm32f7xx_hal_tim_ex.c ****     (+) Start the Complementary One Pulse generation.
 923:Drivers/STM32F7xx_HAL_Driver/Src/stm32f7xx_hal_tim_ex.c ****     (+) Stop the Complementary One Pulse.
 924:Drivers/STM32F7xx_HAL_Driver/Src/stm32f7xx_hal_tim_ex.c ****     (+) Start the Complementary One Pulse and enable interrupts.
 925:Drivers/STM32F7xx_HAL_Driver/Src/stm32f7xx_hal_tim_ex.c ****     (+) Stop the Complementary One Pulse and disable interrupts.
 926:Drivers/STM32F7xx_HAL_Driver/Src/stm32f7xx_hal_tim_ex.c ****                
 927:Drivers/STM32F7xx_HAL_Driver/Src/stm32f7xx_hal_tim_ex.c **** @endverbatim
 928:Drivers/STM32F7xx_HAL_Driver/Src/stm32f7xx_hal_tim_ex.c ****   * @{
 929:Drivers/STM32F7xx_HAL_Driver/Src/stm32f7xx_hal_tim_ex.c ****   */
 930:Drivers/STM32F7xx_HAL_Driver/Src/stm32f7xx_hal_tim_ex.c **** 
 931:Drivers/STM32F7xx_HAL_Driver/Src/stm32f7xx_hal_tim_ex.c **** /**
 932:Drivers/STM32F7xx_HAL_Driver/Src/stm32f7xx_hal_tim_ex.c ****   * @brief  Starts the PWM signal generation on the complementary output.
 933:Drivers/STM32F7xx_HAL_Driver/Src/stm32f7xx_hal_tim_ex.c ****   * @param  htim pointer to a TIM_HandleTypeDef structure that contains
 934:Drivers/STM32F7xx_HAL_Driver/Src/stm32f7xx_hal_tim_ex.c ****   *                the configuration information for TIM module.
 935:Drivers/STM32F7xx_HAL_Driver/Src/stm32f7xx_hal_tim_ex.c ****   * @param  Channel TIM Channel to be enabled.
 936:Drivers/STM32F7xx_HAL_Driver/Src/stm32f7xx_hal_tim_ex.c ****   *          This parameter can be one of the following values:
 937:Drivers/STM32F7xx_HAL_Driver/Src/stm32f7xx_hal_tim_ex.c ****   *            @arg TIM_CHANNEL_1: TIM Channel 1 selected
 938:Drivers/STM32F7xx_HAL_Driver/Src/stm32f7xx_hal_tim_ex.c ****   *            @arg TIM_CHANNEL_2: TIM Channel 2 selected
 939:Drivers/STM32F7xx_HAL_Driver/Src/stm32f7xx_hal_tim_ex.c ****   *            @arg TIM_CHANNEL_3: TIM Channel 3 selected
 940:Drivers/STM32F7xx_HAL_Driver/Src/stm32f7xx_hal_tim_ex.c ****   * @retval HAL status
 941:Drivers/STM32F7xx_HAL_Driver/Src/stm32f7xx_hal_tim_ex.c ****   */
 942:Drivers/STM32F7xx_HAL_Driver/Src/stm32f7xx_hal_tim_ex.c **** HAL_StatusTypeDef HAL_TIMEx_PWMN_Start(TIM_HandleTypeDef *htim, uint32_t Channel)
 943:Drivers/STM32F7xx_HAL_Driver/Src/stm32f7xx_hal_tim_ex.c **** {
 944:Drivers/STM32F7xx_HAL_Driver/Src/stm32f7xx_hal_tim_ex.c ****   /* Check the parameters */
 945:Drivers/STM32F7xx_HAL_Driver/Src/stm32f7xx_hal_tim_ex.c ****   assert_param(IS_TIM_CCXN_INSTANCE(htim->Instance, Channel)); 
 946:Drivers/STM32F7xx_HAL_Driver/Src/stm32f7xx_hal_tim_ex.c ****   
ARM GAS  /tmp/ccdraBPx.s 			page 31


 947:Drivers/STM32F7xx_HAL_Driver/Src/stm32f7xx_hal_tim_ex.c ****   /* Enable the complementary PWM output  */
 948:Drivers/STM32F7xx_HAL_Driver/Src/stm32f7xx_hal_tim_ex.c ****   TIM_CCxNChannelCmd(htim->Instance, Channel, TIM_CCxN_ENABLE);
 949:Drivers/STM32F7xx_HAL_Driver/Src/stm32f7xx_hal_tim_ex.c ****   
 950:Drivers/STM32F7xx_HAL_Driver/Src/stm32f7xx_hal_tim_ex.c ****   /* Enable the Main Output */
 951:Drivers/STM32F7xx_HAL_Driver/Src/stm32f7xx_hal_tim_ex.c ****   __HAL_TIM_MOE_ENABLE(htim);
 952:Drivers/STM32F7xx_HAL_Driver/Src/stm32f7xx_hal_tim_ex.c ****   
 953:Drivers/STM32F7xx_HAL_Driver/Src/stm32f7xx_hal_tim_ex.c ****   /* Enable the Peripheral */
 954:Drivers/STM32F7xx_HAL_Driver/Src/stm32f7xx_hal_tim_ex.c ****   __HAL_TIM_ENABLE(htim);
 955:Drivers/STM32F7xx_HAL_Driver/Src/stm32f7xx_hal_tim_ex.c ****   
 956:Drivers/STM32F7xx_HAL_Driver/Src/stm32f7xx_hal_tim_ex.c ****   /* Return function status */
 957:Drivers/STM32F7xx_HAL_Driver/Src/stm32f7xx_hal_tim_ex.c ****   return HAL_OK;
 958:Drivers/STM32F7xx_HAL_Driver/Src/stm32f7xx_hal_tim_ex.c **** } 
 959:Drivers/STM32F7xx_HAL_Driver/Src/stm32f7xx_hal_tim_ex.c **** 
 960:Drivers/STM32F7xx_HAL_Driver/Src/stm32f7xx_hal_tim_ex.c **** /**
 961:Drivers/STM32F7xx_HAL_Driver/Src/stm32f7xx_hal_tim_ex.c ****   * @brief  Stops the PWM signal generation on the complementary output.
 962:Drivers/STM32F7xx_HAL_Driver/Src/stm32f7xx_hal_tim_ex.c ****   * @param  htim pointer to a TIM_HandleTypeDef structure that contains
 963:Drivers/STM32F7xx_HAL_Driver/Src/stm32f7xx_hal_tim_ex.c ****   *                the configuration information for TIM module.
 964:Drivers/STM32F7xx_HAL_Driver/Src/stm32f7xx_hal_tim_ex.c ****   * @param  Channel TIM Channel to be disabled.
 965:Drivers/STM32F7xx_HAL_Driver/Src/stm32f7xx_hal_tim_ex.c ****   *          This parameter can be one of the following values:
 966:Drivers/STM32F7xx_HAL_Driver/Src/stm32f7xx_hal_tim_ex.c ****   *            @arg TIM_CHANNEL_1: TIM Channel 1 selected
 967:Drivers/STM32F7xx_HAL_Driver/Src/stm32f7xx_hal_tim_ex.c ****   *            @arg TIM_CHANNEL_2: TIM Channel 2 selected
 968:Drivers/STM32F7xx_HAL_Driver/Src/stm32f7xx_hal_tim_ex.c ****   *            @arg TIM_CHANNEL_3: TIM Channel 3 selected
 969:Drivers/STM32F7xx_HAL_Driver/Src/stm32f7xx_hal_tim_ex.c ****   * @retval HAL status
 970:Drivers/STM32F7xx_HAL_Driver/Src/stm32f7xx_hal_tim_ex.c ****   */
 971:Drivers/STM32F7xx_HAL_Driver/Src/stm32f7xx_hal_tim_ex.c **** HAL_StatusTypeDef HAL_TIMEx_PWMN_Stop(TIM_HandleTypeDef *htim, uint32_t Channel)
 972:Drivers/STM32F7xx_HAL_Driver/Src/stm32f7xx_hal_tim_ex.c **** { 
 973:Drivers/STM32F7xx_HAL_Driver/Src/stm32f7xx_hal_tim_ex.c ****   /* Check the parameters */
 974:Drivers/STM32F7xx_HAL_Driver/Src/stm32f7xx_hal_tim_ex.c ****   assert_param(IS_TIM_CCXN_INSTANCE(htim->Instance, Channel)); 
 975:Drivers/STM32F7xx_HAL_Driver/Src/stm32f7xx_hal_tim_ex.c ****   
 976:Drivers/STM32F7xx_HAL_Driver/Src/stm32f7xx_hal_tim_ex.c ****   /* Disable the complementary PWM output  */
 977:Drivers/STM32F7xx_HAL_Driver/Src/stm32f7xx_hal_tim_ex.c ****   TIM_CCxNChannelCmd(htim->Instance, Channel, TIM_CCxN_DISABLE);  
 978:Drivers/STM32F7xx_HAL_Driver/Src/stm32f7xx_hal_tim_ex.c ****   
 979:Drivers/STM32F7xx_HAL_Driver/Src/stm32f7xx_hal_tim_ex.c ****   /* Disable the Main Output */
 980:Drivers/STM32F7xx_HAL_Driver/Src/stm32f7xx_hal_tim_ex.c ****   __HAL_TIM_MOE_DISABLE(htim);
 981:Drivers/STM32F7xx_HAL_Driver/Src/stm32f7xx_hal_tim_ex.c ****   
 982:Drivers/STM32F7xx_HAL_Driver/Src/stm32f7xx_hal_tim_ex.c ****   /* Disable the Peripheral */
 983:Drivers/STM32F7xx_HAL_Driver/Src/stm32f7xx_hal_tim_ex.c ****   __HAL_TIM_DISABLE(htim);
 984:Drivers/STM32F7xx_HAL_Driver/Src/stm32f7xx_hal_tim_ex.c ****   
 985:Drivers/STM32F7xx_HAL_Driver/Src/stm32f7xx_hal_tim_ex.c ****   /* Return function status */
 986:Drivers/STM32F7xx_HAL_Driver/Src/stm32f7xx_hal_tim_ex.c ****   return HAL_OK;
 987:Drivers/STM32F7xx_HAL_Driver/Src/stm32f7xx_hal_tim_ex.c **** } 
 988:Drivers/STM32F7xx_HAL_Driver/Src/stm32f7xx_hal_tim_ex.c **** 
 989:Drivers/STM32F7xx_HAL_Driver/Src/stm32f7xx_hal_tim_ex.c **** /**
 990:Drivers/STM32F7xx_HAL_Driver/Src/stm32f7xx_hal_tim_ex.c ****   * @brief  Starts the PWM signal generation in interrupt mode on the 
 991:Drivers/STM32F7xx_HAL_Driver/Src/stm32f7xx_hal_tim_ex.c ****   *         complementary output.
 992:Drivers/STM32F7xx_HAL_Driver/Src/stm32f7xx_hal_tim_ex.c ****   * @param  htim pointer to a TIM_HandleTypeDef structure that contains
 993:Drivers/STM32F7xx_HAL_Driver/Src/stm32f7xx_hal_tim_ex.c ****   *                the configuration information for TIM module.
 994:Drivers/STM32F7xx_HAL_Driver/Src/stm32f7xx_hal_tim_ex.c ****   * @param  Channel TIM Channel to be disabled.
 995:Drivers/STM32F7xx_HAL_Driver/Src/stm32f7xx_hal_tim_ex.c ****   *          This parameter can be one of the following values:
 996:Drivers/STM32F7xx_HAL_Driver/Src/stm32f7xx_hal_tim_ex.c ****   *            @arg TIM_CHANNEL_1: TIM Channel 1 selected
 997:Drivers/STM32F7xx_HAL_Driver/Src/stm32f7xx_hal_tim_ex.c ****   *            @arg TIM_CHANNEL_2: TIM Channel 2 selected
 998:Drivers/STM32F7xx_HAL_Driver/Src/stm32f7xx_hal_tim_ex.c ****   *            @arg TIM_CHANNEL_3: TIM Channel 3 selected
 999:Drivers/STM32F7xx_HAL_Driver/Src/stm32f7xx_hal_tim_ex.c ****   * @retval HAL status
1000:Drivers/STM32F7xx_HAL_Driver/Src/stm32f7xx_hal_tim_ex.c ****   */
1001:Drivers/STM32F7xx_HAL_Driver/Src/stm32f7xx_hal_tim_ex.c **** HAL_StatusTypeDef HAL_TIMEx_PWMN_Start_IT(TIM_HandleTypeDef *htim, uint32_t Channel)
1002:Drivers/STM32F7xx_HAL_Driver/Src/stm32f7xx_hal_tim_ex.c **** {
1003:Drivers/STM32F7xx_HAL_Driver/Src/stm32f7xx_hal_tim_ex.c ****   /* Check the parameters */
ARM GAS  /tmp/ccdraBPx.s 			page 32


1004:Drivers/STM32F7xx_HAL_Driver/Src/stm32f7xx_hal_tim_ex.c ****   assert_param(IS_TIM_CCXN_INSTANCE(htim->Instance, Channel)); 
1005:Drivers/STM32F7xx_HAL_Driver/Src/stm32f7xx_hal_tim_ex.c ****   
1006:Drivers/STM32F7xx_HAL_Driver/Src/stm32f7xx_hal_tim_ex.c ****   switch (Channel)
1007:Drivers/STM32F7xx_HAL_Driver/Src/stm32f7xx_hal_tim_ex.c ****   {
1008:Drivers/STM32F7xx_HAL_Driver/Src/stm32f7xx_hal_tim_ex.c ****     case TIM_CHANNEL_1:
1009:Drivers/STM32F7xx_HAL_Driver/Src/stm32f7xx_hal_tim_ex.c ****     {       
1010:Drivers/STM32F7xx_HAL_Driver/Src/stm32f7xx_hal_tim_ex.c ****       /* Enable the TIM Capture/Compare 1 interrupt */
1011:Drivers/STM32F7xx_HAL_Driver/Src/stm32f7xx_hal_tim_ex.c ****       __HAL_TIM_ENABLE_IT(htim, TIM_IT_CC1);
1012:Drivers/STM32F7xx_HAL_Driver/Src/stm32f7xx_hal_tim_ex.c ****     }
1013:Drivers/STM32F7xx_HAL_Driver/Src/stm32f7xx_hal_tim_ex.c ****     break;
1014:Drivers/STM32F7xx_HAL_Driver/Src/stm32f7xx_hal_tim_ex.c ****     
1015:Drivers/STM32F7xx_HAL_Driver/Src/stm32f7xx_hal_tim_ex.c ****     case TIM_CHANNEL_2:
1016:Drivers/STM32F7xx_HAL_Driver/Src/stm32f7xx_hal_tim_ex.c ****     {
1017:Drivers/STM32F7xx_HAL_Driver/Src/stm32f7xx_hal_tim_ex.c ****       /* Enable the TIM Capture/Compare 2 interrupt */
1018:Drivers/STM32F7xx_HAL_Driver/Src/stm32f7xx_hal_tim_ex.c ****       __HAL_TIM_ENABLE_IT(htim, TIM_IT_CC2);
1019:Drivers/STM32F7xx_HAL_Driver/Src/stm32f7xx_hal_tim_ex.c ****     }
1020:Drivers/STM32F7xx_HAL_Driver/Src/stm32f7xx_hal_tim_ex.c ****     break;
1021:Drivers/STM32F7xx_HAL_Driver/Src/stm32f7xx_hal_tim_ex.c ****     
1022:Drivers/STM32F7xx_HAL_Driver/Src/stm32f7xx_hal_tim_ex.c ****     case TIM_CHANNEL_3:
1023:Drivers/STM32F7xx_HAL_Driver/Src/stm32f7xx_hal_tim_ex.c ****     {
1024:Drivers/STM32F7xx_HAL_Driver/Src/stm32f7xx_hal_tim_ex.c ****       /* Enable the TIM Capture/Compare 3 interrupt */
1025:Drivers/STM32F7xx_HAL_Driver/Src/stm32f7xx_hal_tim_ex.c ****       __HAL_TIM_ENABLE_IT(htim, TIM_IT_CC3);
1026:Drivers/STM32F7xx_HAL_Driver/Src/stm32f7xx_hal_tim_ex.c ****     }
1027:Drivers/STM32F7xx_HAL_Driver/Src/stm32f7xx_hal_tim_ex.c ****     break;
1028:Drivers/STM32F7xx_HAL_Driver/Src/stm32f7xx_hal_tim_ex.c ****     
1029:Drivers/STM32F7xx_HAL_Driver/Src/stm32f7xx_hal_tim_ex.c ****     case TIM_CHANNEL_4:
1030:Drivers/STM32F7xx_HAL_Driver/Src/stm32f7xx_hal_tim_ex.c ****     {
1031:Drivers/STM32F7xx_HAL_Driver/Src/stm32f7xx_hal_tim_ex.c ****       /* Enable the TIM Capture/Compare 4 interrupt */
1032:Drivers/STM32F7xx_HAL_Driver/Src/stm32f7xx_hal_tim_ex.c ****       __HAL_TIM_ENABLE_IT(htim, TIM_IT_CC4);
1033:Drivers/STM32F7xx_HAL_Driver/Src/stm32f7xx_hal_tim_ex.c ****     }
1034:Drivers/STM32F7xx_HAL_Driver/Src/stm32f7xx_hal_tim_ex.c ****     break;
1035:Drivers/STM32F7xx_HAL_Driver/Src/stm32f7xx_hal_tim_ex.c ****     
1036:Drivers/STM32F7xx_HAL_Driver/Src/stm32f7xx_hal_tim_ex.c ****     default:
1037:Drivers/STM32F7xx_HAL_Driver/Src/stm32f7xx_hal_tim_ex.c ****     break;
1038:Drivers/STM32F7xx_HAL_Driver/Src/stm32f7xx_hal_tim_ex.c ****   } 
1039:Drivers/STM32F7xx_HAL_Driver/Src/stm32f7xx_hal_tim_ex.c ****   
1040:Drivers/STM32F7xx_HAL_Driver/Src/stm32f7xx_hal_tim_ex.c ****   /* Enable the TIM Break interrupt */
1041:Drivers/STM32F7xx_HAL_Driver/Src/stm32f7xx_hal_tim_ex.c ****   __HAL_TIM_ENABLE_IT(htim, TIM_IT_BREAK);
1042:Drivers/STM32F7xx_HAL_Driver/Src/stm32f7xx_hal_tim_ex.c ****   
1043:Drivers/STM32F7xx_HAL_Driver/Src/stm32f7xx_hal_tim_ex.c ****   /* Enable the complementary PWM output  */
1044:Drivers/STM32F7xx_HAL_Driver/Src/stm32f7xx_hal_tim_ex.c ****   TIM_CCxNChannelCmd(htim->Instance, Channel, TIM_CCxN_ENABLE);
1045:Drivers/STM32F7xx_HAL_Driver/Src/stm32f7xx_hal_tim_ex.c ****   
1046:Drivers/STM32F7xx_HAL_Driver/Src/stm32f7xx_hal_tim_ex.c ****   /* Enable the Main Output */
1047:Drivers/STM32F7xx_HAL_Driver/Src/stm32f7xx_hal_tim_ex.c ****   __HAL_TIM_MOE_ENABLE(htim);
1048:Drivers/STM32F7xx_HAL_Driver/Src/stm32f7xx_hal_tim_ex.c ****   
1049:Drivers/STM32F7xx_HAL_Driver/Src/stm32f7xx_hal_tim_ex.c ****   /* Enable the Peripheral */
1050:Drivers/STM32F7xx_HAL_Driver/Src/stm32f7xx_hal_tim_ex.c ****   __HAL_TIM_ENABLE(htim);
1051:Drivers/STM32F7xx_HAL_Driver/Src/stm32f7xx_hal_tim_ex.c ****   
1052:Drivers/STM32F7xx_HAL_Driver/Src/stm32f7xx_hal_tim_ex.c ****   /* Return function status */
1053:Drivers/STM32F7xx_HAL_Driver/Src/stm32f7xx_hal_tim_ex.c ****   return HAL_OK;
1054:Drivers/STM32F7xx_HAL_Driver/Src/stm32f7xx_hal_tim_ex.c **** } 
1055:Drivers/STM32F7xx_HAL_Driver/Src/stm32f7xx_hal_tim_ex.c **** 
1056:Drivers/STM32F7xx_HAL_Driver/Src/stm32f7xx_hal_tim_ex.c **** /**
1057:Drivers/STM32F7xx_HAL_Driver/Src/stm32f7xx_hal_tim_ex.c ****   * @brief  Stops the PWM signal generation in interrupt mode on the 
1058:Drivers/STM32F7xx_HAL_Driver/Src/stm32f7xx_hal_tim_ex.c ****   *         complementary output.
1059:Drivers/STM32F7xx_HAL_Driver/Src/stm32f7xx_hal_tim_ex.c ****   * @param  htim pointer to a TIM_HandleTypeDef structure that contains
1060:Drivers/STM32F7xx_HAL_Driver/Src/stm32f7xx_hal_tim_ex.c ****   *                the configuration information for TIM module.
ARM GAS  /tmp/ccdraBPx.s 			page 33


1061:Drivers/STM32F7xx_HAL_Driver/Src/stm32f7xx_hal_tim_ex.c ****   * @param  Channel TIM Channel to be disabled.
1062:Drivers/STM32F7xx_HAL_Driver/Src/stm32f7xx_hal_tim_ex.c ****   *          This parameter can be one of the following values:
1063:Drivers/STM32F7xx_HAL_Driver/Src/stm32f7xx_hal_tim_ex.c ****   *            @arg TIM_CHANNEL_1: TIM Channel 1 selected
1064:Drivers/STM32F7xx_HAL_Driver/Src/stm32f7xx_hal_tim_ex.c ****   *            @arg TIM_CHANNEL_2: TIM Channel 2 selected
1065:Drivers/STM32F7xx_HAL_Driver/Src/stm32f7xx_hal_tim_ex.c ****   *            @arg TIM_CHANNEL_3: TIM Channel 3 selected
1066:Drivers/STM32F7xx_HAL_Driver/Src/stm32f7xx_hal_tim_ex.c ****   * @retval HAL status
1067:Drivers/STM32F7xx_HAL_Driver/Src/stm32f7xx_hal_tim_ex.c ****   */
1068:Drivers/STM32F7xx_HAL_Driver/Src/stm32f7xx_hal_tim_ex.c **** HAL_StatusTypeDef HAL_TIMEx_PWMN_Stop_IT (TIM_HandleTypeDef *htim, uint32_t Channel)
1069:Drivers/STM32F7xx_HAL_Driver/Src/stm32f7xx_hal_tim_ex.c **** {
1070:Drivers/STM32F7xx_HAL_Driver/Src/stm32f7xx_hal_tim_ex.c ****   uint32_t tmpccer = 0;
1071:Drivers/STM32F7xx_HAL_Driver/Src/stm32f7xx_hal_tim_ex.c ****   
1072:Drivers/STM32F7xx_HAL_Driver/Src/stm32f7xx_hal_tim_ex.c ****   /* Check the parameters */
1073:Drivers/STM32F7xx_HAL_Driver/Src/stm32f7xx_hal_tim_ex.c ****   assert_param(IS_TIM_CCXN_INSTANCE(htim->Instance, Channel)); 
1074:Drivers/STM32F7xx_HAL_Driver/Src/stm32f7xx_hal_tim_ex.c **** 
1075:Drivers/STM32F7xx_HAL_Driver/Src/stm32f7xx_hal_tim_ex.c ****   switch (Channel)
1076:Drivers/STM32F7xx_HAL_Driver/Src/stm32f7xx_hal_tim_ex.c ****   {
1077:Drivers/STM32F7xx_HAL_Driver/Src/stm32f7xx_hal_tim_ex.c ****     case TIM_CHANNEL_1:
1078:Drivers/STM32F7xx_HAL_Driver/Src/stm32f7xx_hal_tim_ex.c ****     {       
1079:Drivers/STM32F7xx_HAL_Driver/Src/stm32f7xx_hal_tim_ex.c ****       /* Disable the TIM Capture/Compare 1 interrupt */
1080:Drivers/STM32F7xx_HAL_Driver/Src/stm32f7xx_hal_tim_ex.c ****       __HAL_TIM_DISABLE_IT(htim, TIM_IT_CC1);
1081:Drivers/STM32F7xx_HAL_Driver/Src/stm32f7xx_hal_tim_ex.c ****     }
1082:Drivers/STM32F7xx_HAL_Driver/Src/stm32f7xx_hal_tim_ex.c ****     break;
1083:Drivers/STM32F7xx_HAL_Driver/Src/stm32f7xx_hal_tim_ex.c ****     
1084:Drivers/STM32F7xx_HAL_Driver/Src/stm32f7xx_hal_tim_ex.c ****     case TIM_CHANNEL_2:
1085:Drivers/STM32F7xx_HAL_Driver/Src/stm32f7xx_hal_tim_ex.c ****     {
1086:Drivers/STM32F7xx_HAL_Driver/Src/stm32f7xx_hal_tim_ex.c ****       /* Disable the TIM Capture/Compare 2 interrupt */
1087:Drivers/STM32F7xx_HAL_Driver/Src/stm32f7xx_hal_tim_ex.c ****       __HAL_TIM_DISABLE_IT(htim, TIM_IT_CC2);
1088:Drivers/STM32F7xx_HAL_Driver/Src/stm32f7xx_hal_tim_ex.c ****     }
1089:Drivers/STM32F7xx_HAL_Driver/Src/stm32f7xx_hal_tim_ex.c ****     break;
1090:Drivers/STM32F7xx_HAL_Driver/Src/stm32f7xx_hal_tim_ex.c ****     
1091:Drivers/STM32F7xx_HAL_Driver/Src/stm32f7xx_hal_tim_ex.c ****     case TIM_CHANNEL_3:
1092:Drivers/STM32F7xx_HAL_Driver/Src/stm32f7xx_hal_tim_ex.c ****     {
1093:Drivers/STM32F7xx_HAL_Driver/Src/stm32f7xx_hal_tim_ex.c ****       /* Disable the TIM Capture/Compare 3 interrupt */
1094:Drivers/STM32F7xx_HAL_Driver/Src/stm32f7xx_hal_tim_ex.c ****       __HAL_TIM_DISABLE_IT(htim, TIM_IT_CC3);
1095:Drivers/STM32F7xx_HAL_Driver/Src/stm32f7xx_hal_tim_ex.c ****     }
1096:Drivers/STM32F7xx_HAL_Driver/Src/stm32f7xx_hal_tim_ex.c ****     break;
1097:Drivers/STM32F7xx_HAL_Driver/Src/stm32f7xx_hal_tim_ex.c ****     
1098:Drivers/STM32F7xx_HAL_Driver/Src/stm32f7xx_hal_tim_ex.c ****     case TIM_CHANNEL_4:
1099:Drivers/STM32F7xx_HAL_Driver/Src/stm32f7xx_hal_tim_ex.c ****     {
1100:Drivers/STM32F7xx_HAL_Driver/Src/stm32f7xx_hal_tim_ex.c ****       /* Disable the TIM Capture/Compare 3 interrupt */
1101:Drivers/STM32F7xx_HAL_Driver/Src/stm32f7xx_hal_tim_ex.c ****       __HAL_TIM_DISABLE_IT(htim, TIM_IT_CC4);
1102:Drivers/STM32F7xx_HAL_Driver/Src/stm32f7xx_hal_tim_ex.c ****     }
1103:Drivers/STM32F7xx_HAL_Driver/Src/stm32f7xx_hal_tim_ex.c ****     break;
1104:Drivers/STM32F7xx_HAL_Driver/Src/stm32f7xx_hal_tim_ex.c ****     
1105:Drivers/STM32F7xx_HAL_Driver/Src/stm32f7xx_hal_tim_ex.c ****     default:
1106:Drivers/STM32F7xx_HAL_Driver/Src/stm32f7xx_hal_tim_ex.c ****     break; 
1107:Drivers/STM32F7xx_HAL_Driver/Src/stm32f7xx_hal_tim_ex.c ****   }
1108:Drivers/STM32F7xx_HAL_Driver/Src/stm32f7xx_hal_tim_ex.c ****   
1109:Drivers/STM32F7xx_HAL_Driver/Src/stm32f7xx_hal_tim_ex.c ****   /* Disable the complementary PWM output  */
1110:Drivers/STM32F7xx_HAL_Driver/Src/stm32f7xx_hal_tim_ex.c ****   TIM_CCxNChannelCmd(htim->Instance, Channel, TIM_CCxN_DISABLE);
1111:Drivers/STM32F7xx_HAL_Driver/Src/stm32f7xx_hal_tim_ex.c ****   
1112:Drivers/STM32F7xx_HAL_Driver/Src/stm32f7xx_hal_tim_ex.c ****   /* Disable the TIM Break interrupt (only if no more channel is active) */
1113:Drivers/STM32F7xx_HAL_Driver/Src/stm32f7xx_hal_tim_ex.c ****   tmpccer = htim->Instance->CCER;
1114:Drivers/STM32F7xx_HAL_Driver/Src/stm32f7xx_hal_tim_ex.c ****   if ((tmpccer & (TIM_CCER_CC1NE | TIM_CCER_CC2NE | TIM_CCER_CC3NE)) == RESET)
1115:Drivers/STM32F7xx_HAL_Driver/Src/stm32f7xx_hal_tim_ex.c ****   {
1116:Drivers/STM32F7xx_HAL_Driver/Src/stm32f7xx_hal_tim_ex.c ****     __HAL_TIM_DISABLE_IT(htim, TIM_IT_BREAK);
1117:Drivers/STM32F7xx_HAL_Driver/Src/stm32f7xx_hal_tim_ex.c ****   }
ARM GAS  /tmp/ccdraBPx.s 			page 34


1118:Drivers/STM32F7xx_HAL_Driver/Src/stm32f7xx_hal_tim_ex.c ****   
1119:Drivers/STM32F7xx_HAL_Driver/Src/stm32f7xx_hal_tim_ex.c ****   /* Disable the Main Output */
1120:Drivers/STM32F7xx_HAL_Driver/Src/stm32f7xx_hal_tim_ex.c ****   __HAL_TIM_MOE_DISABLE(htim);
1121:Drivers/STM32F7xx_HAL_Driver/Src/stm32f7xx_hal_tim_ex.c ****   
1122:Drivers/STM32F7xx_HAL_Driver/Src/stm32f7xx_hal_tim_ex.c ****   /* Disable the Peripheral */
1123:Drivers/STM32F7xx_HAL_Driver/Src/stm32f7xx_hal_tim_ex.c ****   __HAL_TIM_DISABLE(htim);
1124:Drivers/STM32F7xx_HAL_Driver/Src/stm32f7xx_hal_tim_ex.c ****   
1125:Drivers/STM32F7xx_HAL_Driver/Src/stm32f7xx_hal_tim_ex.c ****   /* Return function status */
1126:Drivers/STM32F7xx_HAL_Driver/Src/stm32f7xx_hal_tim_ex.c ****   return HAL_OK;
1127:Drivers/STM32F7xx_HAL_Driver/Src/stm32f7xx_hal_tim_ex.c **** } 
1128:Drivers/STM32F7xx_HAL_Driver/Src/stm32f7xx_hal_tim_ex.c **** 
1129:Drivers/STM32F7xx_HAL_Driver/Src/stm32f7xx_hal_tim_ex.c **** /**
1130:Drivers/STM32F7xx_HAL_Driver/Src/stm32f7xx_hal_tim_ex.c ****   * @brief  Starts the TIM PWM signal generation in DMA mode on the 
1131:Drivers/STM32F7xx_HAL_Driver/Src/stm32f7xx_hal_tim_ex.c ****   *         complementary output
1132:Drivers/STM32F7xx_HAL_Driver/Src/stm32f7xx_hal_tim_ex.c ****   * @param  htim pointer to a TIM_HandleTypeDef structure that contains
1133:Drivers/STM32F7xx_HAL_Driver/Src/stm32f7xx_hal_tim_ex.c ****   *                the configuration information for TIM module.
1134:Drivers/STM32F7xx_HAL_Driver/Src/stm32f7xx_hal_tim_ex.c ****   * @param  Channel TIM Channel to be enabled.
1135:Drivers/STM32F7xx_HAL_Driver/Src/stm32f7xx_hal_tim_ex.c ****   *          This parameter can be one of the following values:
1136:Drivers/STM32F7xx_HAL_Driver/Src/stm32f7xx_hal_tim_ex.c ****   *            @arg TIM_CHANNEL_1: TIM Channel 1 selected
1137:Drivers/STM32F7xx_HAL_Driver/Src/stm32f7xx_hal_tim_ex.c ****   *            @arg TIM_CHANNEL_2: TIM Channel 2 selected
1138:Drivers/STM32F7xx_HAL_Driver/Src/stm32f7xx_hal_tim_ex.c ****   *            @arg TIM_CHANNEL_3: TIM Channel 3 selected
1139:Drivers/STM32F7xx_HAL_Driver/Src/stm32f7xx_hal_tim_ex.c ****   * @param  pData The source Buffer address.
1140:Drivers/STM32F7xx_HAL_Driver/Src/stm32f7xx_hal_tim_ex.c ****   * @param  Length The length of data to be transferred from memory to TIM peripheral
1141:Drivers/STM32F7xx_HAL_Driver/Src/stm32f7xx_hal_tim_ex.c ****   * @retval HAL status
1142:Drivers/STM32F7xx_HAL_Driver/Src/stm32f7xx_hal_tim_ex.c ****   */
1143:Drivers/STM32F7xx_HAL_Driver/Src/stm32f7xx_hal_tim_ex.c **** HAL_StatusTypeDef HAL_TIMEx_PWMN_Start_DMA(TIM_HandleTypeDef *htim, uint32_t Channel, uint32_t *pDa
1144:Drivers/STM32F7xx_HAL_Driver/Src/stm32f7xx_hal_tim_ex.c **** {
1145:Drivers/STM32F7xx_HAL_Driver/Src/stm32f7xx_hal_tim_ex.c ****   /* Check the parameters */
1146:Drivers/STM32F7xx_HAL_Driver/Src/stm32f7xx_hal_tim_ex.c ****   assert_param(IS_TIM_CCXN_INSTANCE(htim->Instance, Channel)); 
1147:Drivers/STM32F7xx_HAL_Driver/Src/stm32f7xx_hal_tim_ex.c ****   
1148:Drivers/STM32F7xx_HAL_Driver/Src/stm32f7xx_hal_tim_ex.c ****   if((htim->State == HAL_TIM_STATE_BUSY))
1149:Drivers/STM32F7xx_HAL_Driver/Src/stm32f7xx_hal_tim_ex.c ****   {
1150:Drivers/STM32F7xx_HAL_Driver/Src/stm32f7xx_hal_tim_ex.c ****      return HAL_BUSY;
1151:Drivers/STM32F7xx_HAL_Driver/Src/stm32f7xx_hal_tim_ex.c ****   }
1152:Drivers/STM32F7xx_HAL_Driver/Src/stm32f7xx_hal_tim_ex.c ****   else if((htim->State == HAL_TIM_STATE_READY))
1153:Drivers/STM32F7xx_HAL_Driver/Src/stm32f7xx_hal_tim_ex.c ****   {
1154:Drivers/STM32F7xx_HAL_Driver/Src/stm32f7xx_hal_tim_ex.c ****     if(((uint32_t)pData == 0 ) && (Length > 0)) 
1155:Drivers/STM32F7xx_HAL_Driver/Src/stm32f7xx_hal_tim_ex.c ****     {
1156:Drivers/STM32F7xx_HAL_Driver/Src/stm32f7xx_hal_tim_ex.c ****       return HAL_ERROR;                                    
1157:Drivers/STM32F7xx_HAL_Driver/Src/stm32f7xx_hal_tim_ex.c ****     }
1158:Drivers/STM32F7xx_HAL_Driver/Src/stm32f7xx_hal_tim_ex.c ****     else
1159:Drivers/STM32F7xx_HAL_Driver/Src/stm32f7xx_hal_tim_ex.c ****     {
1160:Drivers/STM32F7xx_HAL_Driver/Src/stm32f7xx_hal_tim_ex.c ****       htim->State = HAL_TIM_STATE_BUSY;
1161:Drivers/STM32F7xx_HAL_Driver/Src/stm32f7xx_hal_tim_ex.c ****     }
1162:Drivers/STM32F7xx_HAL_Driver/Src/stm32f7xx_hal_tim_ex.c ****   }    
1163:Drivers/STM32F7xx_HAL_Driver/Src/stm32f7xx_hal_tim_ex.c ****   switch (Channel)
1164:Drivers/STM32F7xx_HAL_Driver/Src/stm32f7xx_hal_tim_ex.c ****   {
1165:Drivers/STM32F7xx_HAL_Driver/Src/stm32f7xx_hal_tim_ex.c ****     case TIM_CHANNEL_1:
1166:Drivers/STM32F7xx_HAL_Driver/Src/stm32f7xx_hal_tim_ex.c ****     {      
1167:Drivers/STM32F7xx_HAL_Driver/Src/stm32f7xx_hal_tim_ex.c ****       /* Set the DMA Period elapsed callback */
1168:Drivers/STM32F7xx_HAL_Driver/Src/stm32f7xx_hal_tim_ex.c ****       htim->hdma[TIM_DMA_ID_CC1]->XferCpltCallback = HAL_TIM_DMADelayPulseCplt;
1169:Drivers/STM32F7xx_HAL_Driver/Src/stm32f7xx_hal_tim_ex.c ****      
1170:Drivers/STM32F7xx_HAL_Driver/Src/stm32f7xx_hal_tim_ex.c ****       /* Set the DMA error callback */
1171:Drivers/STM32F7xx_HAL_Driver/Src/stm32f7xx_hal_tim_ex.c ****       htim->hdma[TIM_DMA_ID_CC1]->XferErrorCallback = HAL_TIM_DMAError ;
1172:Drivers/STM32F7xx_HAL_Driver/Src/stm32f7xx_hal_tim_ex.c ****       
1173:Drivers/STM32F7xx_HAL_Driver/Src/stm32f7xx_hal_tim_ex.c ****       /* Enable the DMA Stream */
1174:Drivers/STM32F7xx_HAL_Driver/Src/stm32f7xx_hal_tim_ex.c ****       HAL_DMA_Start_IT(htim->hdma[TIM_DMA_ID_CC1], (uint32_t)pData, (uint32_t)&htim->Instance->CCR1
ARM GAS  /tmp/ccdraBPx.s 			page 35


1175:Drivers/STM32F7xx_HAL_Driver/Src/stm32f7xx_hal_tim_ex.c ****       
1176:Drivers/STM32F7xx_HAL_Driver/Src/stm32f7xx_hal_tim_ex.c ****       /* Enable the TIM Capture/Compare 1 DMA request */
1177:Drivers/STM32F7xx_HAL_Driver/Src/stm32f7xx_hal_tim_ex.c ****       __HAL_TIM_ENABLE_DMA(htim, TIM_DMA_CC1);
1178:Drivers/STM32F7xx_HAL_Driver/Src/stm32f7xx_hal_tim_ex.c ****     }
1179:Drivers/STM32F7xx_HAL_Driver/Src/stm32f7xx_hal_tim_ex.c ****     break;
1180:Drivers/STM32F7xx_HAL_Driver/Src/stm32f7xx_hal_tim_ex.c ****     
1181:Drivers/STM32F7xx_HAL_Driver/Src/stm32f7xx_hal_tim_ex.c ****     case TIM_CHANNEL_2:
1182:Drivers/STM32F7xx_HAL_Driver/Src/stm32f7xx_hal_tim_ex.c ****     {
1183:Drivers/STM32F7xx_HAL_Driver/Src/stm32f7xx_hal_tim_ex.c ****       /* Set the DMA Period elapsed callback */
1184:Drivers/STM32F7xx_HAL_Driver/Src/stm32f7xx_hal_tim_ex.c ****       htim->hdma[TIM_DMA_ID_CC2]->XferCpltCallback = HAL_TIM_DMADelayPulseCplt;
1185:Drivers/STM32F7xx_HAL_Driver/Src/stm32f7xx_hal_tim_ex.c ****      
1186:Drivers/STM32F7xx_HAL_Driver/Src/stm32f7xx_hal_tim_ex.c ****       /* Set the DMA error callback */
1187:Drivers/STM32F7xx_HAL_Driver/Src/stm32f7xx_hal_tim_ex.c ****       htim->hdma[TIM_DMA_ID_CC2]->XferErrorCallback = HAL_TIM_DMAError ;
1188:Drivers/STM32F7xx_HAL_Driver/Src/stm32f7xx_hal_tim_ex.c ****       
1189:Drivers/STM32F7xx_HAL_Driver/Src/stm32f7xx_hal_tim_ex.c ****       /* Enable the DMA Stream */
1190:Drivers/STM32F7xx_HAL_Driver/Src/stm32f7xx_hal_tim_ex.c ****       HAL_DMA_Start_IT(htim->hdma[TIM_DMA_ID_CC2], (uint32_t)pData, (uint32_t)&htim->Instance->CCR2
1191:Drivers/STM32F7xx_HAL_Driver/Src/stm32f7xx_hal_tim_ex.c ****       
1192:Drivers/STM32F7xx_HAL_Driver/Src/stm32f7xx_hal_tim_ex.c ****       /* Enable the TIM Capture/Compare 2 DMA request */
1193:Drivers/STM32F7xx_HAL_Driver/Src/stm32f7xx_hal_tim_ex.c ****       __HAL_TIM_ENABLE_DMA(htim, TIM_DMA_CC2);
1194:Drivers/STM32F7xx_HAL_Driver/Src/stm32f7xx_hal_tim_ex.c ****     }
1195:Drivers/STM32F7xx_HAL_Driver/Src/stm32f7xx_hal_tim_ex.c ****     break;
1196:Drivers/STM32F7xx_HAL_Driver/Src/stm32f7xx_hal_tim_ex.c ****     
1197:Drivers/STM32F7xx_HAL_Driver/Src/stm32f7xx_hal_tim_ex.c ****     case TIM_CHANNEL_3:
1198:Drivers/STM32F7xx_HAL_Driver/Src/stm32f7xx_hal_tim_ex.c ****     {
1199:Drivers/STM32F7xx_HAL_Driver/Src/stm32f7xx_hal_tim_ex.c ****       /* Set the DMA Period elapsed callback */
1200:Drivers/STM32F7xx_HAL_Driver/Src/stm32f7xx_hal_tim_ex.c ****       htim->hdma[TIM_DMA_ID_CC3]->XferCpltCallback = HAL_TIM_DMADelayPulseCplt;
1201:Drivers/STM32F7xx_HAL_Driver/Src/stm32f7xx_hal_tim_ex.c ****      
1202:Drivers/STM32F7xx_HAL_Driver/Src/stm32f7xx_hal_tim_ex.c ****       /* Set the DMA error callback */
1203:Drivers/STM32F7xx_HAL_Driver/Src/stm32f7xx_hal_tim_ex.c ****       htim->hdma[TIM_DMA_ID_CC3]->XferErrorCallback = HAL_TIM_DMAError ;
1204:Drivers/STM32F7xx_HAL_Driver/Src/stm32f7xx_hal_tim_ex.c ****       
1205:Drivers/STM32F7xx_HAL_Driver/Src/stm32f7xx_hal_tim_ex.c ****       /* Enable the DMA Stream */
1206:Drivers/STM32F7xx_HAL_Driver/Src/stm32f7xx_hal_tim_ex.c ****       HAL_DMA_Start_IT(htim->hdma[TIM_DMA_ID_CC3], (uint32_t)pData, (uint32_t)&htim->Instance->CCR3
1207:Drivers/STM32F7xx_HAL_Driver/Src/stm32f7xx_hal_tim_ex.c ****       
1208:Drivers/STM32F7xx_HAL_Driver/Src/stm32f7xx_hal_tim_ex.c ****       /* Enable the TIM Capture/Compare 3 DMA request */
1209:Drivers/STM32F7xx_HAL_Driver/Src/stm32f7xx_hal_tim_ex.c ****       __HAL_TIM_ENABLE_DMA(htim, TIM_DMA_CC3);
1210:Drivers/STM32F7xx_HAL_Driver/Src/stm32f7xx_hal_tim_ex.c ****     }
1211:Drivers/STM32F7xx_HAL_Driver/Src/stm32f7xx_hal_tim_ex.c ****     break;
1212:Drivers/STM32F7xx_HAL_Driver/Src/stm32f7xx_hal_tim_ex.c ****     
1213:Drivers/STM32F7xx_HAL_Driver/Src/stm32f7xx_hal_tim_ex.c ****     case TIM_CHANNEL_4:
1214:Drivers/STM32F7xx_HAL_Driver/Src/stm32f7xx_hal_tim_ex.c ****     {
1215:Drivers/STM32F7xx_HAL_Driver/Src/stm32f7xx_hal_tim_ex.c ****      /* Set the DMA Period elapsed callback */
1216:Drivers/STM32F7xx_HAL_Driver/Src/stm32f7xx_hal_tim_ex.c ****       htim->hdma[TIM_DMA_ID_CC4]->XferCpltCallback = HAL_TIM_DMADelayPulseCplt;
1217:Drivers/STM32F7xx_HAL_Driver/Src/stm32f7xx_hal_tim_ex.c ****      
1218:Drivers/STM32F7xx_HAL_Driver/Src/stm32f7xx_hal_tim_ex.c ****       /* Set the DMA error callback */
1219:Drivers/STM32F7xx_HAL_Driver/Src/stm32f7xx_hal_tim_ex.c ****       htim->hdma[TIM_DMA_ID_CC4]->XferErrorCallback = HAL_TIM_DMAError ;
1220:Drivers/STM32F7xx_HAL_Driver/Src/stm32f7xx_hal_tim_ex.c ****       
1221:Drivers/STM32F7xx_HAL_Driver/Src/stm32f7xx_hal_tim_ex.c ****       /* Enable the DMA Stream */
1222:Drivers/STM32F7xx_HAL_Driver/Src/stm32f7xx_hal_tim_ex.c ****       HAL_DMA_Start_IT(htim->hdma[TIM_DMA_ID_CC4], (uint32_t)pData, (uint32_t)&htim->Instance->CCR4
1223:Drivers/STM32F7xx_HAL_Driver/Src/stm32f7xx_hal_tim_ex.c ****       
1224:Drivers/STM32F7xx_HAL_Driver/Src/stm32f7xx_hal_tim_ex.c ****       /* Enable the TIM Capture/Compare 4 DMA request */
1225:Drivers/STM32F7xx_HAL_Driver/Src/stm32f7xx_hal_tim_ex.c ****       __HAL_TIM_ENABLE_DMA(htim, TIM_DMA_CC4);
1226:Drivers/STM32F7xx_HAL_Driver/Src/stm32f7xx_hal_tim_ex.c ****     }
1227:Drivers/STM32F7xx_HAL_Driver/Src/stm32f7xx_hal_tim_ex.c ****     break;
1228:Drivers/STM32F7xx_HAL_Driver/Src/stm32f7xx_hal_tim_ex.c ****     
1229:Drivers/STM32F7xx_HAL_Driver/Src/stm32f7xx_hal_tim_ex.c ****     default:
1230:Drivers/STM32F7xx_HAL_Driver/Src/stm32f7xx_hal_tim_ex.c ****     break;
1231:Drivers/STM32F7xx_HAL_Driver/Src/stm32f7xx_hal_tim_ex.c ****   }
ARM GAS  /tmp/ccdraBPx.s 			page 36


1232:Drivers/STM32F7xx_HAL_Driver/Src/stm32f7xx_hal_tim_ex.c **** 
1233:Drivers/STM32F7xx_HAL_Driver/Src/stm32f7xx_hal_tim_ex.c ****   /* Enable the complementary PWM output  */
1234:Drivers/STM32F7xx_HAL_Driver/Src/stm32f7xx_hal_tim_ex.c ****      TIM_CCxNChannelCmd(htim->Instance, Channel, TIM_CCxN_ENABLE);
1235:Drivers/STM32F7xx_HAL_Driver/Src/stm32f7xx_hal_tim_ex.c ****     
1236:Drivers/STM32F7xx_HAL_Driver/Src/stm32f7xx_hal_tim_ex.c ****   /* Enable the Main Output */
1237:Drivers/STM32F7xx_HAL_Driver/Src/stm32f7xx_hal_tim_ex.c ****     __HAL_TIM_MOE_ENABLE(htim);
1238:Drivers/STM32F7xx_HAL_Driver/Src/stm32f7xx_hal_tim_ex.c ****   
1239:Drivers/STM32F7xx_HAL_Driver/Src/stm32f7xx_hal_tim_ex.c ****   /* Enable the Peripheral */
1240:Drivers/STM32F7xx_HAL_Driver/Src/stm32f7xx_hal_tim_ex.c ****   __HAL_TIM_ENABLE(htim); 
1241:Drivers/STM32F7xx_HAL_Driver/Src/stm32f7xx_hal_tim_ex.c ****   
1242:Drivers/STM32F7xx_HAL_Driver/Src/stm32f7xx_hal_tim_ex.c ****   /* Return function status */
1243:Drivers/STM32F7xx_HAL_Driver/Src/stm32f7xx_hal_tim_ex.c ****   return HAL_OK;
1244:Drivers/STM32F7xx_HAL_Driver/Src/stm32f7xx_hal_tim_ex.c **** }
1245:Drivers/STM32F7xx_HAL_Driver/Src/stm32f7xx_hal_tim_ex.c **** 
1246:Drivers/STM32F7xx_HAL_Driver/Src/stm32f7xx_hal_tim_ex.c **** /**
1247:Drivers/STM32F7xx_HAL_Driver/Src/stm32f7xx_hal_tim_ex.c ****   * @brief  Stops the TIM PWM signal generation in DMA mode on the complementary
1248:Drivers/STM32F7xx_HAL_Driver/Src/stm32f7xx_hal_tim_ex.c ****   *         output
1249:Drivers/STM32F7xx_HAL_Driver/Src/stm32f7xx_hal_tim_ex.c ****   * @param  htim pointer to a TIM_HandleTypeDef structure that contains
1250:Drivers/STM32F7xx_HAL_Driver/Src/stm32f7xx_hal_tim_ex.c ****   *                the configuration information for TIM module.
1251:Drivers/STM32F7xx_HAL_Driver/Src/stm32f7xx_hal_tim_ex.c ****   * @param  Channel TIM Channel to be disabled.
1252:Drivers/STM32F7xx_HAL_Driver/Src/stm32f7xx_hal_tim_ex.c ****   *          This parameter can be one of the following values:
1253:Drivers/STM32F7xx_HAL_Driver/Src/stm32f7xx_hal_tim_ex.c ****   *            @arg TIM_CHANNEL_1: TIM Channel 1 selected
1254:Drivers/STM32F7xx_HAL_Driver/Src/stm32f7xx_hal_tim_ex.c ****   *            @arg TIM_CHANNEL_2: TIM Channel 2 selected
1255:Drivers/STM32F7xx_HAL_Driver/Src/stm32f7xx_hal_tim_ex.c ****   *            @arg TIM_CHANNEL_3: TIM Channel 3 selected
1256:Drivers/STM32F7xx_HAL_Driver/Src/stm32f7xx_hal_tim_ex.c ****   * @retval HAL status
1257:Drivers/STM32F7xx_HAL_Driver/Src/stm32f7xx_hal_tim_ex.c ****   */
1258:Drivers/STM32F7xx_HAL_Driver/Src/stm32f7xx_hal_tim_ex.c **** HAL_StatusTypeDef HAL_TIMEx_PWMN_Stop_DMA(TIM_HandleTypeDef *htim, uint32_t Channel)
1259:Drivers/STM32F7xx_HAL_Driver/Src/stm32f7xx_hal_tim_ex.c **** {
1260:Drivers/STM32F7xx_HAL_Driver/Src/stm32f7xx_hal_tim_ex.c ****   /* Check the parameters */
1261:Drivers/STM32F7xx_HAL_Driver/Src/stm32f7xx_hal_tim_ex.c ****   assert_param(IS_TIM_CCXN_INSTANCE(htim->Instance, Channel)); 
1262:Drivers/STM32F7xx_HAL_Driver/Src/stm32f7xx_hal_tim_ex.c ****   
1263:Drivers/STM32F7xx_HAL_Driver/Src/stm32f7xx_hal_tim_ex.c ****   switch (Channel)
1264:Drivers/STM32F7xx_HAL_Driver/Src/stm32f7xx_hal_tim_ex.c ****   {
1265:Drivers/STM32F7xx_HAL_Driver/Src/stm32f7xx_hal_tim_ex.c ****     case TIM_CHANNEL_1:
1266:Drivers/STM32F7xx_HAL_Driver/Src/stm32f7xx_hal_tim_ex.c ****     {       
1267:Drivers/STM32F7xx_HAL_Driver/Src/stm32f7xx_hal_tim_ex.c ****       /* Disable the TIM Capture/Compare 1 DMA request */
1268:Drivers/STM32F7xx_HAL_Driver/Src/stm32f7xx_hal_tim_ex.c ****       __HAL_TIM_DISABLE_DMA(htim, TIM_DMA_CC1);
1269:Drivers/STM32F7xx_HAL_Driver/Src/stm32f7xx_hal_tim_ex.c ****     }
1270:Drivers/STM32F7xx_HAL_Driver/Src/stm32f7xx_hal_tim_ex.c ****     break;
1271:Drivers/STM32F7xx_HAL_Driver/Src/stm32f7xx_hal_tim_ex.c ****     
1272:Drivers/STM32F7xx_HAL_Driver/Src/stm32f7xx_hal_tim_ex.c ****     case TIM_CHANNEL_2:
1273:Drivers/STM32F7xx_HAL_Driver/Src/stm32f7xx_hal_tim_ex.c ****     {
1274:Drivers/STM32F7xx_HAL_Driver/Src/stm32f7xx_hal_tim_ex.c ****       /* Disable the TIM Capture/Compare 2 DMA request */
1275:Drivers/STM32F7xx_HAL_Driver/Src/stm32f7xx_hal_tim_ex.c ****       __HAL_TIM_DISABLE_DMA(htim, TIM_DMA_CC2);
1276:Drivers/STM32F7xx_HAL_Driver/Src/stm32f7xx_hal_tim_ex.c ****     }
1277:Drivers/STM32F7xx_HAL_Driver/Src/stm32f7xx_hal_tim_ex.c ****     break;
1278:Drivers/STM32F7xx_HAL_Driver/Src/stm32f7xx_hal_tim_ex.c ****     
1279:Drivers/STM32F7xx_HAL_Driver/Src/stm32f7xx_hal_tim_ex.c ****     case TIM_CHANNEL_3:
1280:Drivers/STM32F7xx_HAL_Driver/Src/stm32f7xx_hal_tim_ex.c ****     {
1281:Drivers/STM32F7xx_HAL_Driver/Src/stm32f7xx_hal_tim_ex.c ****       /* Disable the TIM Capture/Compare 3 DMA request */
1282:Drivers/STM32F7xx_HAL_Driver/Src/stm32f7xx_hal_tim_ex.c ****       __HAL_TIM_DISABLE_DMA(htim, TIM_DMA_CC3);
1283:Drivers/STM32F7xx_HAL_Driver/Src/stm32f7xx_hal_tim_ex.c ****     }
1284:Drivers/STM32F7xx_HAL_Driver/Src/stm32f7xx_hal_tim_ex.c ****     break;
1285:Drivers/STM32F7xx_HAL_Driver/Src/stm32f7xx_hal_tim_ex.c ****     
1286:Drivers/STM32F7xx_HAL_Driver/Src/stm32f7xx_hal_tim_ex.c ****     case TIM_CHANNEL_4:
1287:Drivers/STM32F7xx_HAL_Driver/Src/stm32f7xx_hal_tim_ex.c ****     {
1288:Drivers/STM32F7xx_HAL_Driver/Src/stm32f7xx_hal_tim_ex.c ****       /* Disable the TIM Capture/Compare 4 DMA request */
ARM GAS  /tmp/ccdraBPx.s 			page 37


1289:Drivers/STM32F7xx_HAL_Driver/Src/stm32f7xx_hal_tim_ex.c ****       __HAL_TIM_DISABLE_DMA(htim, TIM_DMA_CC4);
1290:Drivers/STM32F7xx_HAL_Driver/Src/stm32f7xx_hal_tim_ex.c ****     }
1291:Drivers/STM32F7xx_HAL_Driver/Src/stm32f7xx_hal_tim_ex.c ****     break;
1292:Drivers/STM32F7xx_HAL_Driver/Src/stm32f7xx_hal_tim_ex.c ****     
1293:Drivers/STM32F7xx_HAL_Driver/Src/stm32f7xx_hal_tim_ex.c ****     default:
1294:Drivers/STM32F7xx_HAL_Driver/Src/stm32f7xx_hal_tim_ex.c ****     break;
1295:Drivers/STM32F7xx_HAL_Driver/Src/stm32f7xx_hal_tim_ex.c ****   } 
1296:Drivers/STM32F7xx_HAL_Driver/Src/stm32f7xx_hal_tim_ex.c ****   
1297:Drivers/STM32F7xx_HAL_Driver/Src/stm32f7xx_hal_tim_ex.c ****   /* Disable the complementary PWM output */
1298:Drivers/STM32F7xx_HAL_Driver/Src/stm32f7xx_hal_tim_ex.c ****     TIM_CCxNChannelCmd(htim->Instance, Channel, TIM_CCxN_DISABLE);
1299:Drivers/STM32F7xx_HAL_Driver/Src/stm32f7xx_hal_tim_ex.c ****      
1300:Drivers/STM32F7xx_HAL_Driver/Src/stm32f7xx_hal_tim_ex.c ****   /* Disable the Main Output */
1301:Drivers/STM32F7xx_HAL_Driver/Src/stm32f7xx_hal_tim_ex.c ****     __HAL_TIM_MOE_DISABLE(htim);
1302:Drivers/STM32F7xx_HAL_Driver/Src/stm32f7xx_hal_tim_ex.c **** 
1303:Drivers/STM32F7xx_HAL_Driver/Src/stm32f7xx_hal_tim_ex.c ****   /* Disable the Peripheral */
1304:Drivers/STM32F7xx_HAL_Driver/Src/stm32f7xx_hal_tim_ex.c ****   __HAL_TIM_DISABLE(htim);
1305:Drivers/STM32F7xx_HAL_Driver/Src/stm32f7xx_hal_tim_ex.c ****   
1306:Drivers/STM32F7xx_HAL_Driver/Src/stm32f7xx_hal_tim_ex.c ****   /* Change the htim state */
1307:Drivers/STM32F7xx_HAL_Driver/Src/stm32f7xx_hal_tim_ex.c ****   htim->State = HAL_TIM_STATE_READY;
1308:Drivers/STM32F7xx_HAL_Driver/Src/stm32f7xx_hal_tim_ex.c ****   
1309:Drivers/STM32F7xx_HAL_Driver/Src/stm32f7xx_hal_tim_ex.c ****   /* Return function status */
1310:Drivers/STM32F7xx_HAL_Driver/Src/stm32f7xx_hal_tim_ex.c ****   return HAL_OK;
1311:Drivers/STM32F7xx_HAL_Driver/Src/stm32f7xx_hal_tim_ex.c **** }
1312:Drivers/STM32F7xx_HAL_Driver/Src/stm32f7xx_hal_tim_ex.c **** 
1313:Drivers/STM32F7xx_HAL_Driver/Src/stm32f7xx_hal_tim_ex.c **** /**
1314:Drivers/STM32F7xx_HAL_Driver/Src/stm32f7xx_hal_tim_ex.c ****   * @}
1315:Drivers/STM32F7xx_HAL_Driver/Src/stm32f7xx_hal_tim_ex.c ****   */
1316:Drivers/STM32F7xx_HAL_Driver/Src/stm32f7xx_hal_tim_ex.c ****   
1317:Drivers/STM32F7xx_HAL_Driver/Src/stm32f7xx_hal_tim_ex.c **** /** @defgroup TIMEx_Exported_Functions_Group4 Extended Timer Complementary One Pulse functions
1318:Drivers/STM32F7xx_HAL_Driver/Src/stm32f7xx_hal_tim_ex.c ****  *  @brief    Timer Complementary One Pulse functions 
1319:Drivers/STM32F7xx_HAL_Driver/Src/stm32f7xx_hal_tim_ex.c ****  *
1320:Drivers/STM32F7xx_HAL_Driver/Src/stm32f7xx_hal_tim_ex.c **** @verbatim   
1321:Drivers/STM32F7xx_HAL_Driver/Src/stm32f7xx_hal_tim_ex.c ****   ==============================================================================
1322:Drivers/STM32F7xx_HAL_Driver/Src/stm32f7xx_hal_tim_ex.c ****                 ##### Timer Complementary One Pulse functions #####
1323:Drivers/STM32F7xx_HAL_Driver/Src/stm32f7xx_hal_tim_ex.c ****   ==============================================================================  
1324:Drivers/STM32F7xx_HAL_Driver/Src/stm32f7xx_hal_tim_ex.c ****   [..]  
1325:Drivers/STM32F7xx_HAL_Driver/Src/stm32f7xx_hal_tim_ex.c ****     This section provides functions allowing to:
1326:Drivers/STM32F7xx_HAL_Driver/Src/stm32f7xx_hal_tim_ex.c ****     (+) Start the Complementary One Pulse generation.
1327:Drivers/STM32F7xx_HAL_Driver/Src/stm32f7xx_hal_tim_ex.c ****     (+) Stop the Complementary One Pulse.
1328:Drivers/STM32F7xx_HAL_Driver/Src/stm32f7xx_hal_tim_ex.c ****     (+) Start the Complementary One Pulse and enable interrupts.
1329:Drivers/STM32F7xx_HAL_Driver/Src/stm32f7xx_hal_tim_ex.c ****     (+) Stop the Complementary One Pulse and disable interrupts.
1330:Drivers/STM32F7xx_HAL_Driver/Src/stm32f7xx_hal_tim_ex.c ****                
1331:Drivers/STM32F7xx_HAL_Driver/Src/stm32f7xx_hal_tim_ex.c **** @endverbatim
1332:Drivers/STM32F7xx_HAL_Driver/Src/stm32f7xx_hal_tim_ex.c ****   * @{
1333:Drivers/STM32F7xx_HAL_Driver/Src/stm32f7xx_hal_tim_ex.c ****   */
1334:Drivers/STM32F7xx_HAL_Driver/Src/stm32f7xx_hal_tim_ex.c **** 
1335:Drivers/STM32F7xx_HAL_Driver/Src/stm32f7xx_hal_tim_ex.c **** /**
1336:Drivers/STM32F7xx_HAL_Driver/Src/stm32f7xx_hal_tim_ex.c ****   * @brief  Starts the TIM One Pulse signal generation on the complemetary 
1337:Drivers/STM32F7xx_HAL_Driver/Src/stm32f7xx_hal_tim_ex.c ****   *         output.
1338:Drivers/STM32F7xx_HAL_Driver/Src/stm32f7xx_hal_tim_ex.c ****   * @param  htim pointer to a TIM_HandleTypeDef structure that contains
1339:Drivers/STM32F7xx_HAL_Driver/Src/stm32f7xx_hal_tim_ex.c ****   *                the configuration information for TIM module.
1340:Drivers/STM32F7xx_HAL_Driver/Src/stm32f7xx_hal_tim_ex.c ****   * @param  OutputChannel TIM Channel to be enabled.
1341:Drivers/STM32F7xx_HAL_Driver/Src/stm32f7xx_hal_tim_ex.c ****   *          This parameter can be one of the following values:
1342:Drivers/STM32F7xx_HAL_Driver/Src/stm32f7xx_hal_tim_ex.c ****   *            @arg TIM_CHANNEL_1: TIM Channel 1 selected
1343:Drivers/STM32F7xx_HAL_Driver/Src/stm32f7xx_hal_tim_ex.c ****   *            @arg TIM_CHANNEL_2: TIM Channel 2 selected
1344:Drivers/STM32F7xx_HAL_Driver/Src/stm32f7xx_hal_tim_ex.c ****   * @retval HAL status
1345:Drivers/STM32F7xx_HAL_Driver/Src/stm32f7xx_hal_tim_ex.c ****   */
ARM GAS  /tmp/ccdraBPx.s 			page 38


1346:Drivers/STM32F7xx_HAL_Driver/Src/stm32f7xx_hal_tim_ex.c **** HAL_StatusTypeDef HAL_TIMEx_OnePulseN_Start(TIM_HandleTypeDef *htim, uint32_t OutputChannel)
1347:Drivers/STM32F7xx_HAL_Driver/Src/stm32f7xx_hal_tim_ex.c ****   {
1348:Drivers/STM32F7xx_HAL_Driver/Src/stm32f7xx_hal_tim_ex.c ****   /* Check the parameters */
1349:Drivers/STM32F7xx_HAL_Driver/Src/stm32f7xx_hal_tim_ex.c ****   assert_param(IS_TIM_CCXN_INSTANCE(htim->Instance, OutputChannel)); 
1350:Drivers/STM32F7xx_HAL_Driver/Src/stm32f7xx_hal_tim_ex.c ****   
1351:Drivers/STM32F7xx_HAL_Driver/Src/stm32f7xx_hal_tim_ex.c ****   /* Enable the complementary One Pulse output */
1352:Drivers/STM32F7xx_HAL_Driver/Src/stm32f7xx_hal_tim_ex.c ****   TIM_CCxNChannelCmd(htim->Instance, OutputChannel, TIM_CCxN_ENABLE); 
1353:Drivers/STM32F7xx_HAL_Driver/Src/stm32f7xx_hal_tim_ex.c ****   
1354:Drivers/STM32F7xx_HAL_Driver/Src/stm32f7xx_hal_tim_ex.c ****   /* Enable the Main Output */
1355:Drivers/STM32F7xx_HAL_Driver/Src/stm32f7xx_hal_tim_ex.c ****   __HAL_TIM_MOE_ENABLE(htim);
1356:Drivers/STM32F7xx_HAL_Driver/Src/stm32f7xx_hal_tim_ex.c ****   
1357:Drivers/STM32F7xx_HAL_Driver/Src/stm32f7xx_hal_tim_ex.c ****   /* Return function status */
1358:Drivers/STM32F7xx_HAL_Driver/Src/stm32f7xx_hal_tim_ex.c ****   return HAL_OK;
1359:Drivers/STM32F7xx_HAL_Driver/Src/stm32f7xx_hal_tim_ex.c **** }
1360:Drivers/STM32F7xx_HAL_Driver/Src/stm32f7xx_hal_tim_ex.c **** 
1361:Drivers/STM32F7xx_HAL_Driver/Src/stm32f7xx_hal_tim_ex.c **** /**
1362:Drivers/STM32F7xx_HAL_Driver/Src/stm32f7xx_hal_tim_ex.c ****   * @brief  Stops the TIM One Pulse signal generation on the complementary 
1363:Drivers/STM32F7xx_HAL_Driver/Src/stm32f7xx_hal_tim_ex.c ****   *         output.
1364:Drivers/STM32F7xx_HAL_Driver/Src/stm32f7xx_hal_tim_ex.c ****   * @param  htim pointer to a TIM_HandleTypeDef structure that contains
1365:Drivers/STM32F7xx_HAL_Driver/Src/stm32f7xx_hal_tim_ex.c ****   *                the configuration information for TIM module.
1366:Drivers/STM32F7xx_HAL_Driver/Src/stm32f7xx_hal_tim_ex.c ****   * @param  OutputChannel TIM Channel to be disabled.
1367:Drivers/STM32F7xx_HAL_Driver/Src/stm32f7xx_hal_tim_ex.c ****   *          This parameter can be one of the following values:
1368:Drivers/STM32F7xx_HAL_Driver/Src/stm32f7xx_hal_tim_ex.c ****   *            @arg TIM_CHANNEL_1: TIM Channel 1 selected
1369:Drivers/STM32F7xx_HAL_Driver/Src/stm32f7xx_hal_tim_ex.c ****   *            @arg TIM_CHANNEL_2: TIM Channel 2 selected
1370:Drivers/STM32F7xx_HAL_Driver/Src/stm32f7xx_hal_tim_ex.c ****   * @retval HAL status
1371:Drivers/STM32F7xx_HAL_Driver/Src/stm32f7xx_hal_tim_ex.c ****   */
1372:Drivers/STM32F7xx_HAL_Driver/Src/stm32f7xx_hal_tim_ex.c **** HAL_StatusTypeDef HAL_TIMEx_OnePulseN_Stop(TIM_HandleTypeDef *htim, uint32_t OutputChannel)
1373:Drivers/STM32F7xx_HAL_Driver/Src/stm32f7xx_hal_tim_ex.c **** {
1374:Drivers/STM32F7xx_HAL_Driver/Src/stm32f7xx_hal_tim_ex.c **** 
1375:Drivers/STM32F7xx_HAL_Driver/Src/stm32f7xx_hal_tim_ex.c ****   /* Check the parameters */
1376:Drivers/STM32F7xx_HAL_Driver/Src/stm32f7xx_hal_tim_ex.c ****   assert_param(IS_TIM_CCXN_INSTANCE(htim->Instance, OutputChannel)); 
1377:Drivers/STM32F7xx_HAL_Driver/Src/stm32f7xx_hal_tim_ex.c **** 
1378:Drivers/STM32F7xx_HAL_Driver/Src/stm32f7xx_hal_tim_ex.c ****   /* Disable the complementary One Pulse output */
1379:Drivers/STM32F7xx_HAL_Driver/Src/stm32f7xx_hal_tim_ex.c ****     TIM_CCxNChannelCmd(htim->Instance, OutputChannel, TIM_CCxN_DISABLE);
1380:Drivers/STM32F7xx_HAL_Driver/Src/stm32f7xx_hal_tim_ex.c ****   
1381:Drivers/STM32F7xx_HAL_Driver/Src/stm32f7xx_hal_tim_ex.c ****   /* Disable the Main Output */
1382:Drivers/STM32F7xx_HAL_Driver/Src/stm32f7xx_hal_tim_ex.c ****     __HAL_TIM_MOE_DISABLE(htim);
1383:Drivers/STM32F7xx_HAL_Driver/Src/stm32f7xx_hal_tim_ex.c ****   
1384:Drivers/STM32F7xx_HAL_Driver/Src/stm32f7xx_hal_tim_ex.c ****   /* Disable the Peripheral */
1385:Drivers/STM32F7xx_HAL_Driver/Src/stm32f7xx_hal_tim_ex.c ****   __HAL_TIM_DISABLE(htim); 
1386:Drivers/STM32F7xx_HAL_Driver/Src/stm32f7xx_hal_tim_ex.c ****    
1387:Drivers/STM32F7xx_HAL_Driver/Src/stm32f7xx_hal_tim_ex.c ****   /* Return function status */
1388:Drivers/STM32F7xx_HAL_Driver/Src/stm32f7xx_hal_tim_ex.c ****   return HAL_OK;
1389:Drivers/STM32F7xx_HAL_Driver/Src/stm32f7xx_hal_tim_ex.c **** }
1390:Drivers/STM32F7xx_HAL_Driver/Src/stm32f7xx_hal_tim_ex.c **** 
1391:Drivers/STM32F7xx_HAL_Driver/Src/stm32f7xx_hal_tim_ex.c **** /**
1392:Drivers/STM32F7xx_HAL_Driver/Src/stm32f7xx_hal_tim_ex.c ****   * @brief  Starts the TIM One Pulse signal generation in interrupt mode on the
1393:Drivers/STM32F7xx_HAL_Driver/Src/stm32f7xx_hal_tim_ex.c ****   *         complementary channel.
1394:Drivers/STM32F7xx_HAL_Driver/Src/stm32f7xx_hal_tim_ex.c ****   * @param  htim pointer to a TIM_HandleTypeDef structure that contains
1395:Drivers/STM32F7xx_HAL_Driver/Src/stm32f7xx_hal_tim_ex.c ****   *                the configuration information for TIM module.
1396:Drivers/STM32F7xx_HAL_Driver/Src/stm32f7xx_hal_tim_ex.c ****   * @param  OutputChannel TIM Channel to be enabled.
1397:Drivers/STM32F7xx_HAL_Driver/Src/stm32f7xx_hal_tim_ex.c ****   *          This parameter can be one of the following values:
1398:Drivers/STM32F7xx_HAL_Driver/Src/stm32f7xx_hal_tim_ex.c ****   *            @arg TIM_CHANNEL_1: TIM Channel 1 selected
1399:Drivers/STM32F7xx_HAL_Driver/Src/stm32f7xx_hal_tim_ex.c ****   *            @arg TIM_CHANNEL_2: TIM Channel 2 selected
1400:Drivers/STM32F7xx_HAL_Driver/Src/stm32f7xx_hal_tim_ex.c ****   * @retval HAL status
1401:Drivers/STM32F7xx_HAL_Driver/Src/stm32f7xx_hal_tim_ex.c ****   */
1402:Drivers/STM32F7xx_HAL_Driver/Src/stm32f7xx_hal_tim_ex.c **** HAL_StatusTypeDef HAL_TIMEx_OnePulseN_Start_IT(TIM_HandleTypeDef *htim, uint32_t OutputChannel)
ARM GAS  /tmp/ccdraBPx.s 			page 39


1403:Drivers/STM32F7xx_HAL_Driver/Src/stm32f7xx_hal_tim_ex.c **** {
1404:Drivers/STM32F7xx_HAL_Driver/Src/stm32f7xx_hal_tim_ex.c ****   /* Check the parameters */
1405:Drivers/STM32F7xx_HAL_Driver/Src/stm32f7xx_hal_tim_ex.c ****   assert_param(IS_TIM_CCXN_INSTANCE(htim->Instance, OutputChannel)); 
1406:Drivers/STM32F7xx_HAL_Driver/Src/stm32f7xx_hal_tim_ex.c **** 
1407:Drivers/STM32F7xx_HAL_Driver/Src/stm32f7xx_hal_tim_ex.c ****   /* Enable the TIM Capture/Compare 1 interrupt */
1408:Drivers/STM32F7xx_HAL_Driver/Src/stm32f7xx_hal_tim_ex.c ****   __HAL_TIM_ENABLE_IT(htim, TIM_IT_CC1);
1409:Drivers/STM32F7xx_HAL_Driver/Src/stm32f7xx_hal_tim_ex.c ****   
1410:Drivers/STM32F7xx_HAL_Driver/Src/stm32f7xx_hal_tim_ex.c ****   /* Enable the TIM Capture/Compare 2 interrupt */
1411:Drivers/STM32F7xx_HAL_Driver/Src/stm32f7xx_hal_tim_ex.c ****   __HAL_TIM_ENABLE_IT(htim, TIM_IT_CC2);
1412:Drivers/STM32F7xx_HAL_Driver/Src/stm32f7xx_hal_tim_ex.c ****   
1413:Drivers/STM32F7xx_HAL_Driver/Src/stm32f7xx_hal_tim_ex.c ****   /* Enable the complementary One Pulse output */
1414:Drivers/STM32F7xx_HAL_Driver/Src/stm32f7xx_hal_tim_ex.c ****   TIM_CCxNChannelCmd(htim->Instance, OutputChannel, TIM_CCxN_ENABLE); 
1415:Drivers/STM32F7xx_HAL_Driver/Src/stm32f7xx_hal_tim_ex.c ****   
1416:Drivers/STM32F7xx_HAL_Driver/Src/stm32f7xx_hal_tim_ex.c ****   /* Enable the Main Output */
1417:Drivers/STM32F7xx_HAL_Driver/Src/stm32f7xx_hal_tim_ex.c ****   __HAL_TIM_MOE_ENABLE(htim);
1418:Drivers/STM32F7xx_HAL_Driver/Src/stm32f7xx_hal_tim_ex.c ****   
1419:Drivers/STM32F7xx_HAL_Driver/Src/stm32f7xx_hal_tim_ex.c ****   /* Return function status */
1420:Drivers/STM32F7xx_HAL_Driver/Src/stm32f7xx_hal_tim_ex.c ****   return HAL_OK;
1421:Drivers/STM32F7xx_HAL_Driver/Src/stm32f7xx_hal_tim_ex.c ****   } 
1422:Drivers/STM32F7xx_HAL_Driver/Src/stm32f7xx_hal_tim_ex.c ****   
1423:Drivers/STM32F7xx_HAL_Driver/Src/stm32f7xx_hal_tim_ex.c **** /**
1424:Drivers/STM32F7xx_HAL_Driver/Src/stm32f7xx_hal_tim_ex.c ****   * @brief  Stops the TIM One Pulse signal generation in interrupt mode on the
1425:Drivers/STM32F7xx_HAL_Driver/Src/stm32f7xx_hal_tim_ex.c ****   *         complementary channel.
1426:Drivers/STM32F7xx_HAL_Driver/Src/stm32f7xx_hal_tim_ex.c ****   * @param  htim pointer to a TIM_HandleTypeDef structure that contains
1427:Drivers/STM32F7xx_HAL_Driver/Src/stm32f7xx_hal_tim_ex.c ****   *                the configuration information for TIM module.
1428:Drivers/STM32F7xx_HAL_Driver/Src/stm32f7xx_hal_tim_ex.c ****   * @param  OutputChannel TIM Channel to be disabled.
1429:Drivers/STM32F7xx_HAL_Driver/Src/stm32f7xx_hal_tim_ex.c ****   *          This parameter can be one of the following values:
1430:Drivers/STM32F7xx_HAL_Driver/Src/stm32f7xx_hal_tim_ex.c ****   *            @arg TIM_CHANNEL_1: TIM Channel 1 selected
1431:Drivers/STM32F7xx_HAL_Driver/Src/stm32f7xx_hal_tim_ex.c ****   *            @arg TIM_CHANNEL_2: TIM Channel 2 selected
1432:Drivers/STM32F7xx_HAL_Driver/Src/stm32f7xx_hal_tim_ex.c ****   * @retval HAL status
1433:Drivers/STM32F7xx_HAL_Driver/Src/stm32f7xx_hal_tim_ex.c ****   */
1434:Drivers/STM32F7xx_HAL_Driver/Src/stm32f7xx_hal_tim_ex.c **** HAL_StatusTypeDef HAL_TIMEx_OnePulseN_Stop_IT(TIM_HandleTypeDef *htim, uint32_t OutputChannel)
1435:Drivers/STM32F7xx_HAL_Driver/Src/stm32f7xx_hal_tim_ex.c **** {
1436:Drivers/STM32F7xx_HAL_Driver/Src/stm32f7xx_hal_tim_ex.c ****   /* Check the parameters */
1437:Drivers/STM32F7xx_HAL_Driver/Src/stm32f7xx_hal_tim_ex.c ****   assert_param(IS_TIM_CCXN_INSTANCE(htim->Instance, OutputChannel)); 
1438:Drivers/STM32F7xx_HAL_Driver/Src/stm32f7xx_hal_tim_ex.c **** 
1439:Drivers/STM32F7xx_HAL_Driver/Src/stm32f7xx_hal_tim_ex.c ****   /* Disable the TIM Capture/Compare 1 interrupt */
1440:Drivers/STM32F7xx_HAL_Driver/Src/stm32f7xx_hal_tim_ex.c ****   __HAL_TIM_DISABLE_IT(htim, TIM_IT_CC1);
1441:Drivers/STM32F7xx_HAL_Driver/Src/stm32f7xx_hal_tim_ex.c ****   
1442:Drivers/STM32F7xx_HAL_Driver/Src/stm32f7xx_hal_tim_ex.c ****   /* Disable the TIM Capture/Compare 2 interrupt */
1443:Drivers/STM32F7xx_HAL_Driver/Src/stm32f7xx_hal_tim_ex.c ****   __HAL_TIM_DISABLE_IT(htim, TIM_IT_CC2);
1444:Drivers/STM32F7xx_HAL_Driver/Src/stm32f7xx_hal_tim_ex.c ****   
1445:Drivers/STM32F7xx_HAL_Driver/Src/stm32f7xx_hal_tim_ex.c ****   /* Disable the complementary One Pulse output */
1446:Drivers/STM32F7xx_HAL_Driver/Src/stm32f7xx_hal_tim_ex.c ****   TIM_CCxNChannelCmd(htim->Instance, OutputChannel, TIM_CCxN_DISABLE);
1447:Drivers/STM32F7xx_HAL_Driver/Src/stm32f7xx_hal_tim_ex.c ****   
1448:Drivers/STM32F7xx_HAL_Driver/Src/stm32f7xx_hal_tim_ex.c ****   /* Disable the Main Output */
1449:Drivers/STM32F7xx_HAL_Driver/Src/stm32f7xx_hal_tim_ex.c ****   __HAL_TIM_MOE_DISABLE(htim);
1450:Drivers/STM32F7xx_HAL_Driver/Src/stm32f7xx_hal_tim_ex.c ****   
1451:Drivers/STM32F7xx_HAL_Driver/Src/stm32f7xx_hal_tim_ex.c ****   /* Disable the Peripheral */
1452:Drivers/STM32F7xx_HAL_Driver/Src/stm32f7xx_hal_tim_ex.c ****    __HAL_TIM_DISABLE(htim);  
1453:Drivers/STM32F7xx_HAL_Driver/Src/stm32f7xx_hal_tim_ex.c ****   
1454:Drivers/STM32F7xx_HAL_Driver/Src/stm32f7xx_hal_tim_ex.c ****   /* Return function status */
1455:Drivers/STM32F7xx_HAL_Driver/Src/stm32f7xx_hal_tim_ex.c ****   return HAL_OK;
1456:Drivers/STM32F7xx_HAL_Driver/Src/stm32f7xx_hal_tim_ex.c **** }
1457:Drivers/STM32F7xx_HAL_Driver/Src/stm32f7xx_hal_tim_ex.c **** 
1458:Drivers/STM32F7xx_HAL_Driver/Src/stm32f7xx_hal_tim_ex.c **** /**
1459:Drivers/STM32F7xx_HAL_Driver/Src/stm32f7xx_hal_tim_ex.c ****   * @}
ARM GAS  /tmp/ccdraBPx.s 			page 40


1460:Drivers/STM32F7xx_HAL_Driver/Src/stm32f7xx_hal_tim_ex.c ****   */
1461:Drivers/STM32F7xx_HAL_Driver/Src/stm32f7xx_hal_tim_ex.c ****   
1462:Drivers/STM32F7xx_HAL_Driver/Src/stm32f7xx_hal_tim_ex.c **** /** @defgroup TIMEx_Exported_Functions_Group5 Extended Peripheral Control functions
1463:Drivers/STM32F7xx_HAL_Driver/Src/stm32f7xx_hal_tim_ex.c ****  *  @brief   	Peripheral Control functions 
1464:Drivers/STM32F7xx_HAL_Driver/Src/stm32f7xx_hal_tim_ex.c ****  *
1465:Drivers/STM32F7xx_HAL_Driver/Src/stm32f7xx_hal_tim_ex.c **** @verbatim   
1466:Drivers/STM32F7xx_HAL_Driver/Src/stm32f7xx_hal_tim_ex.c ****   ==============================================================================
1467:Drivers/STM32F7xx_HAL_Driver/Src/stm32f7xx_hal_tim_ex.c ****                     ##### Peripheral Control functions #####
1468:Drivers/STM32F7xx_HAL_Driver/Src/stm32f7xx_hal_tim_ex.c ****   ==============================================================================  
1469:Drivers/STM32F7xx_HAL_Driver/Src/stm32f7xx_hal_tim_ex.c ****   [..]  
1470:Drivers/STM32F7xx_HAL_Driver/Src/stm32f7xx_hal_tim_ex.c ****     This section provides functions allowing to:
1471:Drivers/STM32F7xx_HAL_Driver/Src/stm32f7xx_hal_tim_ex.c ****     (+) Configure The Input Output channels for OC, PWM, IC or One Pulse mode. 
1472:Drivers/STM32F7xx_HAL_Driver/Src/stm32f7xx_hal_tim_ex.c ****     (+) Configure External Clock source.
1473:Drivers/STM32F7xx_HAL_Driver/Src/stm32f7xx_hal_tim_ex.c ****     (+) Configure Complementary channels, break features and dead time.
1474:Drivers/STM32F7xx_HAL_Driver/Src/stm32f7xx_hal_tim_ex.c ****     (+) Configure Master and the Slave synchronization.
1475:Drivers/STM32F7xx_HAL_Driver/Src/stm32f7xx_hal_tim_ex.c ****     (+) Configure the commutation event in case of use of the Hall sensor interface.
1476:Drivers/STM32F7xx_HAL_Driver/Src/stm32f7xx_hal_tim_ex.c ****     (+) Configure the DMA Burst Mode.
1477:Drivers/STM32F7xx_HAL_Driver/Src/stm32f7xx_hal_tim_ex.c ****       
1478:Drivers/STM32F7xx_HAL_Driver/Src/stm32f7xx_hal_tim_ex.c **** @endverbatim
1479:Drivers/STM32F7xx_HAL_Driver/Src/stm32f7xx_hal_tim_ex.c ****   * @{
1480:Drivers/STM32F7xx_HAL_Driver/Src/stm32f7xx_hal_tim_ex.c ****   */
1481:Drivers/STM32F7xx_HAL_Driver/Src/stm32f7xx_hal_tim_ex.c **** /**
1482:Drivers/STM32F7xx_HAL_Driver/Src/stm32f7xx_hal_tim_ex.c ****   * @brief  Configure the TIM commutation event sequence.
1483:Drivers/STM32F7xx_HAL_Driver/Src/stm32f7xx_hal_tim_ex.c ****   * @note  This function is mandatory to use the commutation event in order to 
1484:Drivers/STM32F7xx_HAL_Driver/Src/stm32f7xx_hal_tim_ex.c ****   *        update the configuration at each commutation detection on the TRGI input of the Timer,
1485:Drivers/STM32F7xx_HAL_Driver/Src/stm32f7xx_hal_tim_ex.c ****   *        the typical use of this feature is with the use of another Timer(interface Timer) 
1486:Drivers/STM32F7xx_HAL_Driver/Src/stm32f7xx_hal_tim_ex.c ****   *        configured in Hall sensor interface, this interface Timer will generate the 
1487:Drivers/STM32F7xx_HAL_Driver/Src/stm32f7xx_hal_tim_ex.c ****   *        commutation at its TRGO output (connected to Timer used in this function) each time 
1488:Drivers/STM32F7xx_HAL_Driver/Src/stm32f7xx_hal_tim_ex.c ****   *        the TI1 of the Interface Timer detect a commutation at its input TI1.
1489:Drivers/STM32F7xx_HAL_Driver/Src/stm32f7xx_hal_tim_ex.c ****   * @param  htim pointer to a TIM_HandleTypeDef structure that contains
1490:Drivers/STM32F7xx_HAL_Driver/Src/stm32f7xx_hal_tim_ex.c ****   *                the configuration information for TIM module.
1491:Drivers/STM32F7xx_HAL_Driver/Src/stm32f7xx_hal_tim_ex.c ****   * @param  InputTrigger the Internal trigger corresponding to the Timer Interfacing with the Hall 
1492:Drivers/STM32F7xx_HAL_Driver/Src/stm32f7xx_hal_tim_ex.c ****   *          This parameter can be one of the following values:
1493:Drivers/STM32F7xx_HAL_Driver/Src/stm32f7xx_hal_tim_ex.c ****   *            @arg TIM_TS_ITR0: Internal trigger 0 selected
1494:Drivers/STM32F7xx_HAL_Driver/Src/stm32f7xx_hal_tim_ex.c ****   *            @arg TIM_TS_ITR1: Internal trigger 1 selected
1495:Drivers/STM32F7xx_HAL_Driver/Src/stm32f7xx_hal_tim_ex.c ****   *            @arg TIM_TS_ITR2: Internal trigger 2 selected
1496:Drivers/STM32F7xx_HAL_Driver/Src/stm32f7xx_hal_tim_ex.c ****   *            @arg TIM_TS_ITR3: Internal trigger 3 selected
1497:Drivers/STM32F7xx_HAL_Driver/Src/stm32f7xx_hal_tim_ex.c ****   *            @arg TIM_TS_NONE: No trigger is needed 
1498:Drivers/STM32F7xx_HAL_Driver/Src/stm32f7xx_hal_tim_ex.c ****   * @param  CommutationSource the Commutation Event source.
1499:Drivers/STM32F7xx_HAL_Driver/Src/stm32f7xx_hal_tim_ex.c ****   *          This parameter can be one of the following values:
1500:Drivers/STM32F7xx_HAL_Driver/Src/stm32f7xx_hal_tim_ex.c ****   *            @arg TIM_COMMUTATION_TRGI: Commutation source is the TRGI of the Interface Timer
1501:Drivers/STM32F7xx_HAL_Driver/Src/stm32f7xx_hal_tim_ex.c ****   *            @arg TIM_COMMUTATION_SOFTWARE:  Commutation source is set by software using the COMG
1502:Drivers/STM32F7xx_HAL_Driver/Src/stm32f7xx_hal_tim_ex.c ****   * @retval HAL status
1503:Drivers/STM32F7xx_HAL_Driver/Src/stm32f7xx_hal_tim_ex.c ****   */
1504:Drivers/STM32F7xx_HAL_Driver/Src/stm32f7xx_hal_tim_ex.c **** HAL_StatusTypeDef HAL_TIMEx_ConfigCommutationEvent(TIM_HandleTypeDef *htim, uint32_t  InputTrigger,
1505:Drivers/STM32F7xx_HAL_Driver/Src/stm32f7xx_hal_tim_ex.c **** {
1506:Drivers/STM32F7xx_HAL_Driver/Src/stm32f7xx_hal_tim_ex.c ****   /* Check the parameters */
1507:Drivers/STM32F7xx_HAL_Driver/Src/stm32f7xx_hal_tim_ex.c ****   assert_param(IS_TIM_ADVANCED_INSTANCE(htim->Instance));
1508:Drivers/STM32F7xx_HAL_Driver/Src/stm32f7xx_hal_tim_ex.c ****   assert_param(IS_TIM_INTERNAL_TRIGGEREVENT_SELECTION(InputTrigger));
1509:Drivers/STM32F7xx_HAL_Driver/Src/stm32f7xx_hal_tim_ex.c ****   
1510:Drivers/STM32F7xx_HAL_Driver/Src/stm32f7xx_hal_tim_ex.c ****   __HAL_LOCK(htim);
1511:Drivers/STM32F7xx_HAL_Driver/Src/stm32f7xx_hal_tim_ex.c ****   
1512:Drivers/STM32F7xx_HAL_Driver/Src/stm32f7xx_hal_tim_ex.c ****   if ((InputTrigger == TIM_TS_ITR0) || (InputTrigger == TIM_TS_ITR1) ||
1513:Drivers/STM32F7xx_HAL_Driver/Src/stm32f7xx_hal_tim_ex.c ****       (InputTrigger == TIM_TS_ITR2) || (InputTrigger == TIM_TS_ITR3))
1514:Drivers/STM32F7xx_HAL_Driver/Src/stm32f7xx_hal_tim_ex.c ****   {    
1515:Drivers/STM32F7xx_HAL_Driver/Src/stm32f7xx_hal_tim_ex.c ****     /* Select the Input trigger */
1516:Drivers/STM32F7xx_HAL_Driver/Src/stm32f7xx_hal_tim_ex.c ****     htim->Instance->SMCR &= ~TIM_SMCR_TS;
ARM GAS  /tmp/ccdraBPx.s 			page 41


1517:Drivers/STM32F7xx_HAL_Driver/Src/stm32f7xx_hal_tim_ex.c ****     htim->Instance->SMCR |= InputTrigger;
1518:Drivers/STM32F7xx_HAL_Driver/Src/stm32f7xx_hal_tim_ex.c ****   }
1519:Drivers/STM32F7xx_HAL_Driver/Src/stm32f7xx_hal_tim_ex.c ****     
1520:Drivers/STM32F7xx_HAL_Driver/Src/stm32f7xx_hal_tim_ex.c ****   /* Select the Capture Compare preload feature */
1521:Drivers/STM32F7xx_HAL_Driver/Src/stm32f7xx_hal_tim_ex.c ****   htim->Instance->CR2 |= TIM_CR2_CCPC;
1522:Drivers/STM32F7xx_HAL_Driver/Src/stm32f7xx_hal_tim_ex.c ****   /* Select the Commutation event source */
1523:Drivers/STM32F7xx_HAL_Driver/Src/stm32f7xx_hal_tim_ex.c ****   htim->Instance->CR2 &= ~TIM_CR2_CCUS;
1524:Drivers/STM32F7xx_HAL_Driver/Src/stm32f7xx_hal_tim_ex.c ****   htim->Instance->CR2 |= CommutationSource;
1525:Drivers/STM32F7xx_HAL_Driver/Src/stm32f7xx_hal_tim_ex.c ****     
1526:Drivers/STM32F7xx_HAL_Driver/Src/stm32f7xx_hal_tim_ex.c ****   __HAL_UNLOCK(htim);
1527:Drivers/STM32F7xx_HAL_Driver/Src/stm32f7xx_hal_tim_ex.c ****   
1528:Drivers/STM32F7xx_HAL_Driver/Src/stm32f7xx_hal_tim_ex.c ****   return HAL_OK;
1529:Drivers/STM32F7xx_HAL_Driver/Src/stm32f7xx_hal_tim_ex.c **** }
1530:Drivers/STM32F7xx_HAL_Driver/Src/stm32f7xx_hal_tim_ex.c **** 
1531:Drivers/STM32F7xx_HAL_Driver/Src/stm32f7xx_hal_tim_ex.c **** /**
1532:Drivers/STM32F7xx_HAL_Driver/Src/stm32f7xx_hal_tim_ex.c ****   * @brief  Configure the TIM commutation event sequence with interrupt.
1533:Drivers/STM32F7xx_HAL_Driver/Src/stm32f7xx_hal_tim_ex.c ****   * @note  This function is mandatory to use the commutation event in order to 
1534:Drivers/STM32F7xx_HAL_Driver/Src/stm32f7xx_hal_tim_ex.c ****   *        update the configuration at each commutation detection on the TRGI input of the Timer,
1535:Drivers/STM32F7xx_HAL_Driver/Src/stm32f7xx_hal_tim_ex.c ****   *        the typical use of this feature is with the use of another Timer(interface Timer) 
1536:Drivers/STM32F7xx_HAL_Driver/Src/stm32f7xx_hal_tim_ex.c ****   *        configured in Hall sensor interface, this interface Timer will generate the 
1537:Drivers/STM32F7xx_HAL_Driver/Src/stm32f7xx_hal_tim_ex.c ****   *        commutation at its TRGO output (connected to Timer used in this function) each time 
1538:Drivers/STM32F7xx_HAL_Driver/Src/stm32f7xx_hal_tim_ex.c ****   *        the TI1 of the Interface Timer detect a commutation at its input TI1.
1539:Drivers/STM32F7xx_HAL_Driver/Src/stm32f7xx_hal_tim_ex.c ****   * @param  htim pointer to a TIM_HandleTypeDef structure that contains
1540:Drivers/STM32F7xx_HAL_Driver/Src/stm32f7xx_hal_tim_ex.c ****   *                the configuration information for TIM module.
1541:Drivers/STM32F7xx_HAL_Driver/Src/stm32f7xx_hal_tim_ex.c ****   * @param  InputTrigger the Internal trigger corresponding to the Timer Interfacing with the Hall 
1542:Drivers/STM32F7xx_HAL_Driver/Src/stm32f7xx_hal_tim_ex.c ****   *          This parameter can be one of the following values:
1543:Drivers/STM32F7xx_HAL_Driver/Src/stm32f7xx_hal_tim_ex.c ****   *            @arg TIM_TS_ITR0: Internal trigger 0 selected
1544:Drivers/STM32F7xx_HAL_Driver/Src/stm32f7xx_hal_tim_ex.c ****   *            @arg TIM_TS_ITR1: Internal trigger 1 selected
1545:Drivers/STM32F7xx_HAL_Driver/Src/stm32f7xx_hal_tim_ex.c ****   *            @arg TIM_TS_ITR2: Internal trigger 2 selected
1546:Drivers/STM32F7xx_HAL_Driver/Src/stm32f7xx_hal_tim_ex.c ****   *            @arg TIM_TS_ITR3: Internal trigger 3 selected
1547:Drivers/STM32F7xx_HAL_Driver/Src/stm32f7xx_hal_tim_ex.c ****   *            @arg TIM_TS_NONE: No trigger is needed
1548:Drivers/STM32F7xx_HAL_Driver/Src/stm32f7xx_hal_tim_ex.c ****   * @param  CommutationSource the Commutation Event source.
1549:Drivers/STM32F7xx_HAL_Driver/Src/stm32f7xx_hal_tim_ex.c ****   *          This parameter can be one of the following values:
1550:Drivers/STM32F7xx_HAL_Driver/Src/stm32f7xx_hal_tim_ex.c ****   *            @arg TIM_COMMUTATION_TRGI: Commutation source is the TRGI of the Interface Timer
1551:Drivers/STM32F7xx_HAL_Driver/Src/stm32f7xx_hal_tim_ex.c ****   *            @arg TIM_COMMUTATION_SOFTWARE:  Commutation source is set by software using the COMG
1552:Drivers/STM32F7xx_HAL_Driver/Src/stm32f7xx_hal_tim_ex.c ****   * @retval HAL status
1553:Drivers/STM32F7xx_HAL_Driver/Src/stm32f7xx_hal_tim_ex.c ****   */
1554:Drivers/STM32F7xx_HAL_Driver/Src/stm32f7xx_hal_tim_ex.c **** HAL_StatusTypeDef HAL_TIMEx_ConfigCommutationEvent_IT(TIM_HandleTypeDef *htim, uint32_t  InputTrigg
1555:Drivers/STM32F7xx_HAL_Driver/Src/stm32f7xx_hal_tim_ex.c **** {
1556:Drivers/STM32F7xx_HAL_Driver/Src/stm32f7xx_hal_tim_ex.c ****   /* Check the parameters */
1557:Drivers/STM32F7xx_HAL_Driver/Src/stm32f7xx_hal_tim_ex.c ****   assert_param(IS_TIM_ADVANCED_INSTANCE(htim->Instance));
1558:Drivers/STM32F7xx_HAL_Driver/Src/stm32f7xx_hal_tim_ex.c ****   assert_param(IS_TIM_INTERNAL_TRIGGEREVENT_SELECTION(InputTrigger));
1559:Drivers/STM32F7xx_HAL_Driver/Src/stm32f7xx_hal_tim_ex.c ****   
1560:Drivers/STM32F7xx_HAL_Driver/Src/stm32f7xx_hal_tim_ex.c ****   __HAL_LOCK(htim);
1561:Drivers/STM32F7xx_HAL_Driver/Src/stm32f7xx_hal_tim_ex.c ****   
1562:Drivers/STM32F7xx_HAL_Driver/Src/stm32f7xx_hal_tim_ex.c ****   if ((InputTrigger == TIM_TS_ITR0) || (InputTrigger == TIM_TS_ITR1) ||
1563:Drivers/STM32F7xx_HAL_Driver/Src/stm32f7xx_hal_tim_ex.c ****       (InputTrigger == TIM_TS_ITR2) || (InputTrigger == TIM_TS_ITR3))
1564:Drivers/STM32F7xx_HAL_Driver/Src/stm32f7xx_hal_tim_ex.c ****   {    
1565:Drivers/STM32F7xx_HAL_Driver/Src/stm32f7xx_hal_tim_ex.c ****     /* Select the Input trigger */
1566:Drivers/STM32F7xx_HAL_Driver/Src/stm32f7xx_hal_tim_ex.c ****     htim->Instance->SMCR &= ~TIM_SMCR_TS;
1567:Drivers/STM32F7xx_HAL_Driver/Src/stm32f7xx_hal_tim_ex.c ****     htim->Instance->SMCR |= InputTrigger;
1568:Drivers/STM32F7xx_HAL_Driver/Src/stm32f7xx_hal_tim_ex.c ****   }
1569:Drivers/STM32F7xx_HAL_Driver/Src/stm32f7xx_hal_tim_ex.c ****   
1570:Drivers/STM32F7xx_HAL_Driver/Src/stm32f7xx_hal_tim_ex.c ****   /* Select the Capture Compare preload feature */
1571:Drivers/STM32F7xx_HAL_Driver/Src/stm32f7xx_hal_tim_ex.c ****   htim->Instance->CR2 |= TIM_CR2_CCPC;
1572:Drivers/STM32F7xx_HAL_Driver/Src/stm32f7xx_hal_tim_ex.c ****   /* Select the Commutation event source */
1573:Drivers/STM32F7xx_HAL_Driver/Src/stm32f7xx_hal_tim_ex.c ****   htim->Instance->CR2 &= ~TIM_CR2_CCUS;
ARM GAS  /tmp/ccdraBPx.s 			page 42


1574:Drivers/STM32F7xx_HAL_Driver/Src/stm32f7xx_hal_tim_ex.c ****   htim->Instance->CR2 |= CommutationSource;
1575:Drivers/STM32F7xx_HAL_Driver/Src/stm32f7xx_hal_tim_ex.c ****     
1576:Drivers/STM32F7xx_HAL_Driver/Src/stm32f7xx_hal_tim_ex.c ****   /* Enable the Commutation Interrupt Request */
1577:Drivers/STM32F7xx_HAL_Driver/Src/stm32f7xx_hal_tim_ex.c ****   __HAL_TIM_ENABLE_IT(htim, TIM_IT_COM);
1578:Drivers/STM32F7xx_HAL_Driver/Src/stm32f7xx_hal_tim_ex.c **** 
1579:Drivers/STM32F7xx_HAL_Driver/Src/stm32f7xx_hal_tim_ex.c ****   __HAL_UNLOCK(htim);
1580:Drivers/STM32F7xx_HAL_Driver/Src/stm32f7xx_hal_tim_ex.c ****   
1581:Drivers/STM32F7xx_HAL_Driver/Src/stm32f7xx_hal_tim_ex.c ****   return HAL_OK;
1582:Drivers/STM32F7xx_HAL_Driver/Src/stm32f7xx_hal_tim_ex.c **** }
1583:Drivers/STM32F7xx_HAL_Driver/Src/stm32f7xx_hal_tim_ex.c **** 
1584:Drivers/STM32F7xx_HAL_Driver/Src/stm32f7xx_hal_tim_ex.c **** /**
1585:Drivers/STM32F7xx_HAL_Driver/Src/stm32f7xx_hal_tim_ex.c ****   * @brief  Configure the TIM commutation event sequence with DMA.
1586:Drivers/STM32F7xx_HAL_Driver/Src/stm32f7xx_hal_tim_ex.c ****   * @note  This function is mandatory to use the commutation event in order to 
1587:Drivers/STM32F7xx_HAL_Driver/Src/stm32f7xx_hal_tim_ex.c ****   *        update the configuration at each commutation detection on the TRGI input of the Timer,
1588:Drivers/STM32F7xx_HAL_Driver/Src/stm32f7xx_hal_tim_ex.c ****   *        the typical use of this feature is with the use of another Timer(interface Timer) 
1589:Drivers/STM32F7xx_HAL_Driver/Src/stm32f7xx_hal_tim_ex.c ****   *        configured in Hall sensor interface, this interface Timer will generate the 
1590:Drivers/STM32F7xx_HAL_Driver/Src/stm32f7xx_hal_tim_ex.c ****   *        commutation at its TRGO output (connected to Timer used in this function) each time 
1591:Drivers/STM32F7xx_HAL_Driver/Src/stm32f7xx_hal_tim_ex.c ****   *        the TI1 of the Interface Timer detect a commutation at its input TI1.
1592:Drivers/STM32F7xx_HAL_Driver/Src/stm32f7xx_hal_tim_ex.c ****   * @note: The user should configure the DMA in his own software, in This function only the COMDE b
1593:Drivers/STM32F7xx_HAL_Driver/Src/stm32f7xx_hal_tim_ex.c ****   * @param  htim pointer to a TIM_HandleTypeDef structure that contains
1594:Drivers/STM32F7xx_HAL_Driver/Src/stm32f7xx_hal_tim_ex.c ****   *                the configuration information for TIM module.
1595:Drivers/STM32F7xx_HAL_Driver/Src/stm32f7xx_hal_tim_ex.c ****   * @param  InputTrigger the Internal trigger corresponding to the Timer Interfacing with the Hall 
1596:Drivers/STM32F7xx_HAL_Driver/Src/stm32f7xx_hal_tim_ex.c ****   *          This parameter can be one of the following values:
1597:Drivers/STM32F7xx_HAL_Driver/Src/stm32f7xx_hal_tim_ex.c ****   *            @arg TIM_TS_ITR0: Internal trigger 0 selected
1598:Drivers/STM32F7xx_HAL_Driver/Src/stm32f7xx_hal_tim_ex.c ****   *            @arg TIM_TS_ITR1: Internal trigger 1 selected
1599:Drivers/STM32F7xx_HAL_Driver/Src/stm32f7xx_hal_tim_ex.c ****   *            @arg TIM_TS_ITR2: Internal trigger 2 selected
1600:Drivers/STM32F7xx_HAL_Driver/Src/stm32f7xx_hal_tim_ex.c ****   *            @arg TIM_TS_ITR3: Internal trigger 3 selected
1601:Drivers/STM32F7xx_HAL_Driver/Src/stm32f7xx_hal_tim_ex.c ****   *            @arg TIM_TS_NONE: No trigger is needed
1602:Drivers/STM32F7xx_HAL_Driver/Src/stm32f7xx_hal_tim_ex.c ****   * @param  CommutationSource the Commutation Event source.
1603:Drivers/STM32F7xx_HAL_Driver/Src/stm32f7xx_hal_tim_ex.c ****   *          This parameter can be one of the following values:
1604:Drivers/STM32F7xx_HAL_Driver/Src/stm32f7xx_hal_tim_ex.c ****   *            @arg TIM_COMMUTATION_TRGI: Commutation source is the TRGI of the Interface Timer
1605:Drivers/STM32F7xx_HAL_Driver/Src/stm32f7xx_hal_tim_ex.c ****   *            @arg TIM_COMMUTATION_SOFTWARE:  Commutation source is set by software using the COMG
1606:Drivers/STM32F7xx_HAL_Driver/Src/stm32f7xx_hal_tim_ex.c ****   * @retval HAL status
1607:Drivers/STM32F7xx_HAL_Driver/Src/stm32f7xx_hal_tim_ex.c ****   */
1608:Drivers/STM32F7xx_HAL_Driver/Src/stm32f7xx_hal_tim_ex.c **** HAL_StatusTypeDef HAL_TIMEx_ConfigCommutationEvent_DMA(TIM_HandleTypeDef *htim, uint32_t  InputTrig
1609:Drivers/STM32F7xx_HAL_Driver/Src/stm32f7xx_hal_tim_ex.c **** {
1610:Drivers/STM32F7xx_HAL_Driver/Src/stm32f7xx_hal_tim_ex.c ****   /* Check the parameters */
1611:Drivers/STM32F7xx_HAL_Driver/Src/stm32f7xx_hal_tim_ex.c ****   assert_param(IS_TIM_ADVANCED_INSTANCE(htim->Instance));
1612:Drivers/STM32F7xx_HAL_Driver/Src/stm32f7xx_hal_tim_ex.c ****   assert_param(IS_TIM_INTERNAL_TRIGGEREVENT_SELECTION(InputTrigger));
1613:Drivers/STM32F7xx_HAL_Driver/Src/stm32f7xx_hal_tim_ex.c ****   
1614:Drivers/STM32F7xx_HAL_Driver/Src/stm32f7xx_hal_tim_ex.c ****   __HAL_LOCK(htim);
1615:Drivers/STM32F7xx_HAL_Driver/Src/stm32f7xx_hal_tim_ex.c ****   
1616:Drivers/STM32F7xx_HAL_Driver/Src/stm32f7xx_hal_tim_ex.c ****   if ((InputTrigger == TIM_TS_ITR0) || (InputTrigger == TIM_TS_ITR1) ||
1617:Drivers/STM32F7xx_HAL_Driver/Src/stm32f7xx_hal_tim_ex.c ****       (InputTrigger == TIM_TS_ITR2) || (InputTrigger == TIM_TS_ITR3))
1618:Drivers/STM32F7xx_HAL_Driver/Src/stm32f7xx_hal_tim_ex.c ****   {    
1619:Drivers/STM32F7xx_HAL_Driver/Src/stm32f7xx_hal_tim_ex.c ****     /* Select the Input trigger */
1620:Drivers/STM32F7xx_HAL_Driver/Src/stm32f7xx_hal_tim_ex.c ****     htim->Instance->SMCR &= ~TIM_SMCR_TS;
1621:Drivers/STM32F7xx_HAL_Driver/Src/stm32f7xx_hal_tim_ex.c ****     htim->Instance->SMCR |= InputTrigger;
1622:Drivers/STM32F7xx_HAL_Driver/Src/stm32f7xx_hal_tim_ex.c ****   }
1623:Drivers/STM32F7xx_HAL_Driver/Src/stm32f7xx_hal_tim_ex.c ****   
1624:Drivers/STM32F7xx_HAL_Driver/Src/stm32f7xx_hal_tim_ex.c ****   /* Select the Capture Compare preload feature */
1625:Drivers/STM32F7xx_HAL_Driver/Src/stm32f7xx_hal_tim_ex.c ****   htim->Instance->CR2 |= TIM_CR2_CCPC;
1626:Drivers/STM32F7xx_HAL_Driver/Src/stm32f7xx_hal_tim_ex.c ****   /* Select the Commutation event source */
1627:Drivers/STM32F7xx_HAL_Driver/Src/stm32f7xx_hal_tim_ex.c ****   htim->Instance->CR2 &= ~TIM_CR2_CCUS;
1628:Drivers/STM32F7xx_HAL_Driver/Src/stm32f7xx_hal_tim_ex.c ****   htim->Instance->CR2 |= CommutationSource;
1629:Drivers/STM32F7xx_HAL_Driver/Src/stm32f7xx_hal_tim_ex.c ****   
1630:Drivers/STM32F7xx_HAL_Driver/Src/stm32f7xx_hal_tim_ex.c ****   /* Enable the Commutation DMA Request */
ARM GAS  /tmp/ccdraBPx.s 			page 43


1631:Drivers/STM32F7xx_HAL_Driver/Src/stm32f7xx_hal_tim_ex.c ****   /* Set the DMA Commutation Callback */
1632:Drivers/STM32F7xx_HAL_Driver/Src/stm32f7xx_hal_tim_ex.c ****   htim->hdma[TIM_DMA_ID_COMMUTATION]->XferCpltCallback = HAL_TIMEx_DMACommutationCplt;     
1633:Drivers/STM32F7xx_HAL_Driver/Src/stm32f7xx_hal_tim_ex.c ****   /* Set the DMA error callback */
1634:Drivers/STM32F7xx_HAL_Driver/Src/stm32f7xx_hal_tim_ex.c ****   htim->hdma[TIM_DMA_ID_COMMUTATION]->XferErrorCallback = HAL_TIM_DMAError;
1635:Drivers/STM32F7xx_HAL_Driver/Src/stm32f7xx_hal_tim_ex.c ****   
1636:Drivers/STM32F7xx_HAL_Driver/Src/stm32f7xx_hal_tim_ex.c ****   /* Enable the Commutation DMA Request */
1637:Drivers/STM32F7xx_HAL_Driver/Src/stm32f7xx_hal_tim_ex.c ****   __HAL_TIM_ENABLE_DMA(htim, TIM_DMA_COM);
1638:Drivers/STM32F7xx_HAL_Driver/Src/stm32f7xx_hal_tim_ex.c **** 
1639:Drivers/STM32F7xx_HAL_Driver/Src/stm32f7xx_hal_tim_ex.c ****   __HAL_UNLOCK(htim);
1640:Drivers/STM32F7xx_HAL_Driver/Src/stm32f7xx_hal_tim_ex.c ****   
1641:Drivers/STM32F7xx_HAL_Driver/Src/stm32f7xx_hal_tim_ex.c ****   return HAL_OK;
1642:Drivers/STM32F7xx_HAL_Driver/Src/stm32f7xx_hal_tim_ex.c **** }  
1643:Drivers/STM32F7xx_HAL_Driver/Src/stm32f7xx_hal_tim_ex.c **** 
1644:Drivers/STM32F7xx_HAL_Driver/Src/stm32f7xx_hal_tim_ex.c **** /**
1645:Drivers/STM32F7xx_HAL_Driver/Src/stm32f7xx_hal_tim_ex.c ****   * @brief  Configures the TIM in master mode.
1646:Drivers/STM32F7xx_HAL_Driver/Src/stm32f7xx_hal_tim_ex.c ****   * @param  htim pointer to a TIM_HandleTypeDef structure that contains
1647:Drivers/STM32F7xx_HAL_Driver/Src/stm32f7xx_hal_tim_ex.c ****   *                the configuration information for TIM module.   
1648:Drivers/STM32F7xx_HAL_Driver/Src/stm32f7xx_hal_tim_ex.c ****   * @param  sMasterConfig pointer to a TIM_MasterConfigTypeDef structure that
1649:Drivers/STM32F7xx_HAL_Driver/Src/stm32f7xx_hal_tim_ex.c ****   *         contains the selected trigger output (TRGO) and the Master/Slave 
1650:Drivers/STM32F7xx_HAL_Driver/Src/stm32f7xx_hal_tim_ex.c ****   *         mode. 
1651:Drivers/STM32F7xx_HAL_Driver/Src/stm32f7xx_hal_tim_ex.c ****   * @retval HAL status
1652:Drivers/STM32F7xx_HAL_Driver/Src/stm32f7xx_hal_tim_ex.c ****   */
1653:Drivers/STM32F7xx_HAL_Driver/Src/stm32f7xx_hal_tim_ex.c **** HAL_StatusTypeDef HAL_TIMEx_MasterConfigSynchronization(TIM_HandleTypeDef *htim, TIM_MasterConfigTy
1654:Drivers/STM32F7xx_HAL_Driver/Src/stm32f7xx_hal_tim_ex.c **** {
1655:Drivers/STM32F7xx_HAL_Driver/Src/stm32f7xx_hal_tim_ex.c ****   uint32_t tmpcr2;  
1656:Drivers/STM32F7xx_HAL_Driver/Src/stm32f7xx_hal_tim_ex.c ****   uint32_t tmpsmcr;  
1657:Drivers/STM32F7xx_HAL_Driver/Src/stm32f7xx_hal_tim_ex.c **** 
1658:Drivers/STM32F7xx_HAL_Driver/Src/stm32f7xx_hal_tim_ex.c ****   /* Check the parameters */
1659:Drivers/STM32F7xx_HAL_Driver/Src/stm32f7xx_hal_tim_ex.c ****   assert_param(IS_TIM_SYNCHRO_INSTANCE(htim->Instance));
1660:Drivers/STM32F7xx_HAL_Driver/Src/stm32f7xx_hal_tim_ex.c ****   assert_param(IS_TIM_TRGO_SOURCE(sMasterConfig->MasterOutputTrigger));
1661:Drivers/STM32F7xx_HAL_Driver/Src/stm32f7xx_hal_tim_ex.c ****   assert_param(IS_TIM_MSM_STATE(sMasterConfig->MasterSlaveMode));
1662:Drivers/STM32F7xx_HAL_Driver/Src/stm32f7xx_hal_tim_ex.c ****   
1663:Drivers/STM32F7xx_HAL_Driver/Src/stm32f7xx_hal_tim_ex.c ****   /* Check input state */
1664:Drivers/STM32F7xx_HAL_Driver/Src/stm32f7xx_hal_tim_ex.c ****   __HAL_LOCK(htim);
1665:Drivers/STM32F7xx_HAL_Driver/Src/stm32f7xx_hal_tim_ex.c **** 
1666:Drivers/STM32F7xx_HAL_Driver/Src/stm32f7xx_hal_tim_ex.c ****  /* Get the TIMx CR2 register value */
1667:Drivers/STM32F7xx_HAL_Driver/Src/stm32f7xx_hal_tim_ex.c ****   tmpcr2 = htim->Instance->CR2;
1668:Drivers/STM32F7xx_HAL_Driver/Src/stm32f7xx_hal_tim_ex.c **** 
1669:Drivers/STM32F7xx_HAL_Driver/Src/stm32f7xx_hal_tim_ex.c ****   /* Get the TIMx SMCR register value */
1670:Drivers/STM32F7xx_HAL_Driver/Src/stm32f7xx_hal_tim_ex.c ****   tmpsmcr = htim->Instance->SMCR;
1671:Drivers/STM32F7xx_HAL_Driver/Src/stm32f7xx_hal_tim_ex.c **** 
1672:Drivers/STM32F7xx_HAL_Driver/Src/stm32f7xx_hal_tim_ex.c ****   /* If the timer supports ADC synchronization through TRGO2, set the master mode selection 2 */
1673:Drivers/STM32F7xx_HAL_Driver/Src/stm32f7xx_hal_tim_ex.c ****   if (IS_TIM_TRGO2_INSTANCE(htim->Instance))
1674:Drivers/STM32F7xx_HAL_Driver/Src/stm32f7xx_hal_tim_ex.c ****   {
1675:Drivers/STM32F7xx_HAL_Driver/Src/stm32f7xx_hal_tim_ex.c ****     /* Check the parameters */
1676:Drivers/STM32F7xx_HAL_Driver/Src/stm32f7xx_hal_tim_ex.c ****     assert_param(IS_TIM_TRGO2_SOURCE(sMasterConfig->MasterOutputTrigger2));
1677:Drivers/STM32F7xx_HAL_Driver/Src/stm32f7xx_hal_tim_ex.c ****     
1678:Drivers/STM32F7xx_HAL_Driver/Src/stm32f7xx_hal_tim_ex.c ****     /* Clear the MMS2 bits */
1679:Drivers/STM32F7xx_HAL_Driver/Src/stm32f7xx_hal_tim_ex.c ****     tmpcr2 &= ~TIM_CR2_MMS2;
1680:Drivers/STM32F7xx_HAL_Driver/Src/stm32f7xx_hal_tim_ex.c ****     /* Select the TRGO2 source*/
1681:Drivers/STM32F7xx_HAL_Driver/Src/stm32f7xx_hal_tim_ex.c ****     tmpcr2 |= sMasterConfig->MasterOutputTrigger2;
1682:Drivers/STM32F7xx_HAL_Driver/Src/stm32f7xx_hal_tim_ex.c ****   }
1683:Drivers/STM32F7xx_HAL_Driver/Src/stm32f7xx_hal_tim_ex.c ****   
1684:Drivers/STM32F7xx_HAL_Driver/Src/stm32f7xx_hal_tim_ex.c ****   /* Reset the MMS Bits */
1685:Drivers/STM32F7xx_HAL_Driver/Src/stm32f7xx_hal_tim_ex.c ****   tmpcr2 &= ~TIM_CR2_MMS;
1686:Drivers/STM32F7xx_HAL_Driver/Src/stm32f7xx_hal_tim_ex.c ****   /* Select the TRGO source */
1687:Drivers/STM32F7xx_HAL_Driver/Src/stm32f7xx_hal_tim_ex.c ****   tmpcr2 |=  sMasterConfig->MasterOutputTrigger;
ARM GAS  /tmp/ccdraBPx.s 			page 44


1688:Drivers/STM32F7xx_HAL_Driver/Src/stm32f7xx_hal_tim_ex.c **** 
1689:Drivers/STM32F7xx_HAL_Driver/Src/stm32f7xx_hal_tim_ex.c ****   /* Reset the MSM Bit */
1690:Drivers/STM32F7xx_HAL_Driver/Src/stm32f7xx_hal_tim_ex.c ****   tmpsmcr &= ~TIM_SMCR_MSM;
1691:Drivers/STM32F7xx_HAL_Driver/Src/stm32f7xx_hal_tim_ex.c ****   /* Set master mode */
1692:Drivers/STM32F7xx_HAL_Driver/Src/stm32f7xx_hal_tim_ex.c ****   tmpsmcr |= sMasterConfig->MasterSlaveMode;
1693:Drivers/STM32F7xx_HAL_Driver/Src/stm32f7xx_hal_tim_ex.c ****   
1694:Drivers/STM32F7xx_HAL_Driver/Src/stm32f7xx_hal_tim_ex.c ****   /* Update TIMx CR2 */
1695:Drivers/STM32F7xx_HAL_Driver/Src/stm32f7xx_hal_tim_ex.c ****   htim->Instance->CR2 = tmpcr2;
1696:Drivers/STM32F7xx_HAL_Driver/Src/stm32f7xx_hal_tim_ex.c ****   
1697:Drivers/STM32F7xx_HAL_Driver/Src/stm32f7xx_hal_tim_ex.c ****   /* Update TIMx SMCR */
1698:Drivers/STM32F7xx_HAL_Driver/Src/stm32f7xx_hal_tim_ex.c ****   htim->Instance->SMCR = tmpsmcr;
1699:Drivers/STM32F7xx_HAL_Driver/Src/stm32f7xx_hal_tim_ex.c **** 
1700:Drivers/STM32F7xx_HAL_Driver/Src/stm32f7xx_hal_tim_ex.c ****   __HAL_UNLOCK(htim);
1701:Drivers/STM32F7xx_HAL_Driver/Src/stm32f7xx_hal_tim_ex.c ****   
1702:Drivers/STM32F7xx_HAL_Driver/Src/stm32f7xx_hal_tim_ex.c ****   return HAL_OK;
1703:Drivers/STM32F7xx_HAL_Driver/Src/stm32f7xx_hal_tim_ex.c **** } 
1704:Drivers/STM32F7xx_HAL_Driver/Src/stm32f7xx_hal_tim_ex.c ****                                                      
1705:Drivers/STM32F7xx_HAL_Driver/Src/stm32f7xx_hal_tim_ex.c **** /**
1706:Drivers/STM32F7xx_HAL_Driver/Src/stm32f7xx_hal_tim_ex.c ****   * @brief   Configures the Break feature, dead time, Lock level, OSSI/OSSR State
1707:Drivers/STM32F7xx_HAL_Driver/Src/stm32f7xx_hal_tim_ex.c ****   *         and the AOE(automatic output enable).
1708:Drivers/STM32F7xx_HAL_Driver/Src/stm32f7xx_hal_tim_ex.c ****   * @param  htim pointer to a TIM_HandleTypeDef structure that contains
1709:Drivers/STM32F7xx_HAL_Driver/Src/stm32f7xx_hal_tim_ex.c ****   *                the configuration information for TIM module.
1710:Drivers/STM32F7xx_HAL_Driver/Src/stm32f7xx_hal_tim_ex.c ****   * @param  sBreakDeadTimeConfig pointer to a TIM_ConfigBreakDeadConfig_TypeDef structure that
1711:Drivers/STM32F7xx_HAL_Driver/Src/stm32f7xx_hal_tim_ex.c ****   *         contains the BDTR Register configuration  information for the TIM peripheral. 
1712:Drivers/STM32F7xx_HAL_Driver/Src/stm32f7xx_hal_tim_ex.c ****   * @retval HAL status
1713:Drivers/STM32F7xx_HAL_Driver/Src/stm32f7xx_hal_tim_ex.c ****   */ 
1714:Drivers/STM32F7xx_HAL_Driver/Src/stm32f7xx_hal_tim_ex.c **** HAL_StatusTypeDef HAL_TIMEx_ConfigBreakDeadTime(TIM_HandleTypeDef *htim, 
1715:Drivers/STM32F7xx_HAL_Driver/Src/stm32f7xx_hal_tim_ex.c ****                                               TIM_BreakDeadTimeConfigTypeDef * sBreakDeadTimeConfig
1716:Drivers/STM32F7xx_HAL_Driver/Src/stm32f7xx_hal_tim_ex.c **** {
1717:Drivers/STM32F7xx_HAL_Driver/Src/stm32f7xx_hal_tim_ex.c ****   uint32_t tmpbdtr = 0;
1718:Drivers/STM32F7xx_HAL_Driver/Src/stm32f7xx_hal_tim_ex.c ****   
1719:Drivers/STM32F7xx_HAL_Driver/Src/stm32f7xx_hal_tim_ex.c ****   /* Check the parameters */
1720:Drivers/STM32F7xx_HAL_Driver/Src/stm32f7xx_hal_tim_ex.c ****   assert_param(IS_TIM_BREAK_INSTANCE(htim->Instance));
1721:Drivers/STM32F7xx_HAL_Driver/Src/stm32f7xx_hal_tim_ex.c ****   assert_param(IS_TIM_OSSR_STATE(sBreakDeadTimeConfig->OffStateRunMode));
1722:Drivers/STM32F7xx_HAL_Driver/Src/stm32f7xx_hal_tim_ex.c ****   assert_param(IS_TIM_OSSI_STATE(sBreakDeadTimeConfig->OffStateIDLEMode));
1723:Drivers/STM32F7xx_HAL_Driver/Src/stm32f7xx_hal_tim_ex.c ****   assert_param(IS_TIM_LOCK_LEVEL(sBreakDeadTimeConfig->LockLevel));
1724:Drivers/STM32F7xx_HAL_Driver/Src/stm32f7xx_hal_tim_ex.c ****   assert_param(IS_TIM_DEADTIME(sBreakDeadTimeConfig->DeadTime));
1725:Drivers/STM32F7xx_HAL_Driver/Src/stm32f7xx_hal_tim_ex.c ****   assert_param(IS_TIM_BREAK_STATE(sBreakDeadTimeConfig->BreakState));
1726:Drivers/STM32F7xx_HAL_Driver/Src/stm32f7xx_hal_tim_ex.c ****   assert_param(IS_TIM_BREAK_POLARITY(sBreakDeadTimeConfig->BreakPolarity));
1727:Drivers/STM32F7xx_HAL_Driver/Src/stm32f7xx_hal_tim_ex.c ****   assert_param(IS_TIM_BREAK_FILTER(sBreakDeadTimeConfig->BreakFilter));
1728:Drivers/STM32F7xx_HAL_Driver/Src/stm32f7xx_hal_tim_ex.c ****   assert_param(IS_TIM_AUTOMATIC_OUTPUT_STATE(sBreakDeadTimeConfig->AutomaticOutput));
1729:Drivers/STM32F7xx_HAL_Driver/Src/stm32f7xx_hal_tim_ex.c ****   assert_param(IS_TIM_BREAK2_STATE(sBreakDeadTimeConfig->Break2State));
1730:Drivers/STM32F7xx_HAL_Driver/Src/stm32f7xx_hal_tim_ex.c ****   assert_param(IS_TIM_BREAK2_POLARITY(sBreakDeadTimeConfig->Break2Polarity));
1731:Drivers/STM32F7xx_HAL_Driver/Src/stm32f7xx_hal_tim_ex.c ****   assert_param(IS_TIM_BREAK_FILTER(sBreakDeadTimeConfig->Break2Filter));
1732:Drivers/STM32F7xx_HAL_Driver/Src/stm32f7xx_hal_tim_ex.c ****   
1733:Drivers/STM32F7xx_HAL_Driver/Src/stm32f7xx_hal_tim_ex.c ****   /* Check input state */
1734:Drivers/STM32F7xx_HAL_Driver/Src/stm32f7xx_hal_tim_ex.c ****   __HAL_LOCK(htim);
1735:Drivers/STM32F7xx_HAL_Driver/Src/stm32f7xx_hal_tim_ex.c **** 
1736:Drivers/STM32F7xx_HAL_Driver/Src/stm32f7xx_hal_tim_ex.c ****   /* Set the Lock level, the Break enable Bit and the Polarity, the OSSR State,
1737:Drivers/STM32F7xx_HAL_Driver/Src/stm32f7xx_hal_tim_ex.c ****      the OSSI State, the dead time value and the Automatic Output Enable Bit */
1738:Drivers/STM32F7xx_HAL_Driver/Src/stm32f7xx_hal_tim_ex.c ****   /* Set the BDTR bits */
1739:Drivers/STM32F7xx_HAL_Driver/Src/stm32f7xx_hal_tim_ex.c ****   MODIFY_REG(tmpbdtr, TIM_BDTR_DTG, sBreakDeadTimeConfig->DeadTime);
1740:Drivers/STM32F7xx_HAL_Driver/Src/stm32f7xx_hal_tim_ex.c ****   MODIFY_REG(tmpbdtr, TIM_BDTR_LOCK, sBreakDeadTimeConfig->LockLevel);
1741:Drivers/STM32F7xx_HAL_Driver/Src/stm32f7xx_hal_tim_ex.c ****   MODIFY_REG(tmpbdtr, TIM_BDTR_OSSI, sBreakDeadTimeConfig->OffStateIDLEMode);
1742:Drivers/STM32F7xx_HAL_Driver/Src/stm32f7xx_hal_tim_ex.c ****   MODIFY_REG(tmpbdtr, TIM_BDTR_OSSR, sBreakDeadTimeConfig->OffStateRunMode);
1743:Drivers/STM32F7xx_HAL_Driver/Src/stm32f7xx_hal_tim_ex.c ****   MODIFY_REG(tmpbdtr, TIM_BDTR_BKE, sBreakDeadTimeConfig->BreakState);
1744:Drivers/STM32F7xx_HAL_Driver/Src/stm32f7xx_hal_tim_ex.c ****   MODIFY_REG(tmpbdtr, TIM_BDTR_BKP, sBreakDeadTimeConfig->BreakPolarity);
ARM GAS  /tmp/ccdraBPx.s 			page 45


1745:Drivers/STM32F7xx_HAL_Driver/Src/stm32f7xx_hal_tim_ex.c ****   MODIFY_REG(tmpbdtr, TIM_BDTR_AOE, sBreakDeadTimeConfig->AutomaticOutput);
1746:Drivers/STM32F7xx_HAL_Driver/Src/stm32f7xx_hal_tim_ex.c ****   MODIFY_REG(tmpbdtr, TIM_BDTR_MOE, sBreakDeadTimeConfig->AutomaticOutput);
1747:Drivers/STM32F7xx_HAL_Driver/Src/stm32f7xx_hal_tim_ex.c ****   MODIFY_REG(tmpbdtr, TIM_BDTR_BKF, (sBreakDeadTimeConfig->BreakFilter << BDTR_BKF_SHIFT));
1748:Drivers/STM32F7xx_HAL_Driver/Src/stm32f7xx_hal_tim_ex.c ****   
1749:Drivers/STM32F7xx_HAL_Driver/Src/stm32f7xx_hal_tim_ex.c ****   if (IS_TIM_BKIN2_INSTANCE(htim->Instance))
1750:Drivers/STM32F7xx_HAL_Driver/Src/stm32f7xx_hal_tim_ex.c ****   {
1751:Drivers/STM32F7xx_HAL_Driver/Src/stm32f7xx_hal_tim_ex.c ****     assert_param(IS_TIM_BREAK2_STATE(sBreakDeadTimeConfig->Break2State));
1752:Drivers/STM32F7xx_HAL_Driver/Src/stm32f7xx_hal_tim_ex.c ****     assert_param(IS_TIM_BREAK2_POLARITY(sBreakDeadTimeConfig->Break2Polarity));
1753:Drivers/STM32F7xx_HAL_Driver/Src/stm32f7xx_hal_tim_ex.c ****     assert_param(IS_TIM_BREAK_FILTER(sBreakDeadTimeConfig->Break2Filter));
1754:Drivers/STM32F7xx_HAL_Driver/Src/stm32f7xx_hal_tim_ex.c ****     
1755:Drivers/STM32F7xx_HAL_Driver/Src/stm32f7xx_hal_tim_ex.c ****     /* Set the BREAK2 input related BDTR bits */
1756:Drivers/STM32F7xx_HAL_Driver/Src/stm32f7xx_hal_tim_ex.c ****     MODIFY_REG(tmpbdtr, TIM_BDTR_BK2F, (sBreakDeadTimeConfig->Break2Filter << BDTR_BK2F_SHIFT));
1757:Drivers/STM32F7xx_HAL_Driver/Src/stm32f7xx_hal_tim_ex.c ****     MODIFY_REG(tmpbdtr, TIM_BDTR_BK2E, sBreakDeadTimeConfig->Break2State);
1758:Drivers/STM32F7xx_HAL_Driver/Src/stm32f7xx_hal_tim_ex.c ****     MODIFY_REG(tmpbdtr, TIM_BDTR_BK2P, sBreakDeadTimeConfig->Break2Polarity);
1759:Drivers/STM32F7xx_HAL_Driver/Src/stm32f7xx_hal_tim_ex.c ****   }
1760:Drivers/STM32F7xx_HAL_Driver/Src/stm32f7xx_hal_tim_ex.c ****   
1761:Drivers/STM32F7xx_HAL_Driver/Src/stm32f7xx_hal_tim_ex.c **** 
1762:Drivers/STM32F7xx_HAL_Driver/Src/stm32f7xx_hal_tim_ex.c ****   
1763:Drivers/STM32F7xx_HAL_Driver/Src/stm32f7xx_hal_tim_ex.c ****   /* Set TIMx_BDTR */
1764:Drivers/STM32F7xx_HAL_Driver/Src/stm32f7xx_hal_tim_ex.c ****   htim->Instance->BDTR = tmpbdtr;
1765:Drivers/STM32F7xx_HAL_Driver/Src/stm32f7xx_hal_tim_ex.c ****   
1766:Drivers/STM32F7xx_HAL_Driver/Src/stm32f7xx_hal_tim_ex.c ****   __HAL_UNLOCK(htim);
1767:Drivers/STM32F7xx_HAL_Driver/Src/stm32f7xx_hal_tim_ex.c ****   
1768:Drivers/STM32F7xx_HAL_Driver/Src/stm32f7xx_hal_tim_ex.c ****   return HAL_OK;
1769:Drivers/STM32F7xx_HAL_Driver/Src/stm32f7xx_hal_tim_ex.c **** }
1770:Drivers/STM32F7xx_HAL_Driver/Src/stm32f7xx_hal_tim_ex.c **** #if defined (STM32F765xx) || defined(STM32F767xx) || defined(STM32F769xx) || defined(STM32F777xx) |
1771:Drivers/STM32F7xx_HAL_Driver/Src/stm32f7xx_hal_tim_ex.c **** /**
1772:Drivers/STM32F7xx_HAL_Driver/Src/stm32f7xx_hal_tim_ex.c ****   * @brief  Configures the break input source.
1773:Drivers/STM32F7xx_HAL_Driver/Src/stm32f7xx_hal_tim_ex.c ****   * @param  htim TIM handle.
1774:Drivers/STM32F7xx_HAL_Driver/Src/stm32f7xx_hal_tim_ex.c ****   * @param  BreakInput Break input to configure
1775:Drivers/STM32F7xx_HAL_Driver/Src/stm32f7xx_hal_tim_ex.c ****   *          This parameter can be one of the following values:
1776:Drivers/STM32F7xx_HAL_Driver/Src/stm32f7xx_hal_tim_ex.c ****   *            @arg TIM_BREAKINPUT_BRK: Timer break input
1777:Drivers/STM32F7xx_HAL_Driver/Src/stm32f7xx_hal_tim_ex.c ****   *            @arg TIM_BREAKINPUT_BRK2: Timer break 2 input
1778:Drivers/STM32F7xx_HAL_Driver/Src/stm32f7xx_hal_tim_ex.c ****   * @param  sBreakInputConfig Break input source configuration
1779:Drivers/STM32F7xx_HAL_Driver/Src/stm32f7xx_hal_tim_ex.c ****   * @retval HAL status
1780:Drivers/STM32F7xx_HAL_Driver/Src/stm32f7xx_hal_tim_ex.c ****   */
1781:Drivers/STM32F7xx_HAL_Driver/Src/stm32f7xx_hal_tim_ex.c **** HAL_StatusTypeDef HAL_TIMEx_ConfigBreakInput(TIM_HandleTypeDef *htim,
1782:Drivers/STM32F7xx_HAL_Driver/Src/stm32f7xx_hal_tim_ex.c ****                                              uint32_t BreakInput,
1783:Drivers/STM32F7xx_HAL_Driver/Src/stm32f7xx_hal_tim_ex.c ****                                              TIMEx_BreakInputConfigTypeDef *sBreakInputConfig)
1784:Drivers/STM32F7xx_HAL_Driver/Src/stm32f7xx_hal_tim_ex.c **** 
1785:Drivers/STM32F7xx_HAL_Driver/Src/stm32f7xx_hal_tim_ex.c **** {
1786:Drivers/STM32F7xx_HAL_Driver/Src/stm32f7xx_hal_tim_ex.c ****   uint32_t tmporx = 0;
1787:Drivers/STM32F7xx_HAL_Driver/Src/stm32f7xx_hal_tim_ex.c ****   uint32_t bkin_enable_mask = 0;
1788:Drivers/STM32F7xx_HAL_Driver/Src/stm32f7xx_hal_tim_ex.c ****   uint32_t bkin_polarity_mask = 0;
1789:Drivers/STM32F7xx_HAL_Driver/Src/stm32f7xx_hal_tim_ex.c ****   uint32_t bkin_enable_bitpos = 0;
1790:Drivers/STM32F7xx_HAL_Driver/Src/stm32f7xx_hal_tim_ex.c ****   uint32_t bkin_polarity_bitpos = 0;
1791:Drivers/STM32F7xx_HAL_Driver/Src/stm32f7xx_hal_tim_ex.c **** 
1792:Drivers/STM32F7xx_HAL_Driver/Src/stm32f7xx_hal_tim_ex.c ****   /* Check the parameters */
1793:Drivers/STM32F7xx_HAL_Driver/Src/stm32f7xx_hal_tim_ex.c ****   assert_param(IS_TIM_BREAK_INSTANCE(htim->Instance));
1794:Drivers/STM32F7xx_HAL_Driver/Src/stm32f7xx_hal_tim_ex.c ****   assert_param(IS_TIM_BREAKINPUT(BreakInput));
1795:Drivers/STM32F7xx_HAL_Driver/Src/stm32f7xx_hal_tim_ex.c ****   assert_param(IS_TIM_BREAKINPUTSOURCE(sBreakInputConfig->Source));
1796:Drivers/STM32F7xx_HAL_Driver/Src/stm32f7xx_hal_tim_ex.c ****   assert_param(IS_TIM_BREAKINPUTSOURCE_STATE(sBreakInputConfig->Enable));
1797:Drivers/STM32F7xx_HAL_Driver/Src/stm32f7xx_hal_tim_ex.c ****   if (sBreakInputConfig->Source != TIM_BREAKINPUTSOURCE_DFSDM1)
1798:Drivers/STM32F7xx_HAL_Driver/Src/stm32f7xx_hal_tim_ex.c ****   {
1799:Drivers/STM32F7xx_HAL_Driver/Src/stm32f7xx_hal_tim_ex.c ****     assert_param(IS_TIM_BREAKINPUTSOURCE_POLARITY(sBreakInputConfig->Polarity));
1800:Drivers/STM32F7xx_HAL_Driver/Src/stm32f7xx_hal_tim_ex.c ****   }
1801:Drivers/STM32F7xx_HAL_Driver/Src/stm32f7xx_hal_tim_ex.c **** 
ARM GAS  /tmp/ccdraBPx.s 			page 46


1802:Drivers/STM32F7xx_HAL_Driver/Src/stm32f7xx_hal_tim_ex.c ****   /* Check input state */
1803:Drivers/STM32F7xx_HAL_Driver/Src/stm32f7xx_hal_tim_ex.c ****   __HAL_LOCK(htim);
1804:Drivers/STM32F7xx_HAL_Driver/Src/stm32f7xx_hal_tim_ex.c ****   
1805:Drivers/STM32F7xx_HAL_Driver/Src/stm32f7xx_hal_tim_ex.c ****   switch(sBreakInputConfig->Source)
1806:Drivers/STM32F7xx_HAL_Driver/Src/stm32f7xx_hal_tim_ex.c ****   {
1807:Drivers/STM32F7xx_HAL_Driver/Src/stm32f7xx_hal_tim_ex.c ****   case TIM_BREAKINPUTSOURCE_BKIN:
1808:Drivers/STM32F7xx_HAL_Driver/Src/stm32f7xx_hal_tim_ex.c ****     {
1809:Drivers/STM32F7xx_HAL_Driver/Src/stm32f7xx_hal_tim_ex.c ****       bkin_enable_mask = TIM1_AF1_BKINE;
1810:Drivers/STM32F7xx_HAL_Driver/Src/stm32f7xx_hal_tim_ex.c ****       bkin_enable_bitpos = 0;
1811:Drivers/STM32F7xx_HAL_Driver/Src/stm32f7xx_hal_tim_ex.c ****       bkin_polarity_mask = TIM1_AF1_BKINP;
1812:Drivers/STM32F7xx_HAL_Driver/Src/stm32f7xx_hal_tim_ex.c ****       bkin_polarity_bitpos = 9;
1813:Drivers/STM32F7xx_HAL_Driver/Src/stm32f7xx_hal_tim_ex.c ****     }
1814:Drivers/STM32F7xx_HAL_Driver/Src/stm32f7xx_hal_tim_ex.c ****     break;
1815:Drivers/STM32F7xx_HAL_Driver/Src/stm32f7xx_hal_tim_ex.c ****   
1816:Drivers/STM32F7xx_HAL_Driver/Src/stm32f7xx_hal_tim_ex.c ****   case TIM_BREAKINPUTSOURCE_DFSDM1:
1817:Drivers/STM32F7xx_HAL_Driver/Src/stm32f7xx_hal_tim_ex.c ****     {
1818:Drivers/STM32F7xx_HAL_Driver/Src/stm32f7xx_hal_tim_ex.c ****       bkin_enable_mask = TIM1_AF1_BKDF1BKE;
1819:Drivers/STM32F7xx_HAL_Driver/Src/stm32f7xx_hal_tim_ex.c ****       bkin_enable_bitpos = 8;
1820:Drivers/STM32F7xx_HAL_Driver/Src/stm32f7xx_hal_tim_ex.c ****     }
1821:Drivers/STM32F7xx_HAL_Driver/Src/stm32f7xx_hal_tim_ex.c ****     break;    
1822:Drivers/STM32F7xx_HAL_Driver/Src/stm32f7xx_hal_tim_ex.c **** 
1823:Drivers/STM32F7xx_HAL_Driver/Src/stm32f7xx_hal_tim_ex.c ****   default:
1824:Drivers/STM32F7xx_HAL_Driver/Src/stm32f7xx_hal_tim_ex.c ****     break;
1825:Drivers/STM32F7xx_HAL_Driver/Src/stm32f7xx_hal_tim_ex.c ****   }
1826:Drivers/STM32F7xx_HAL_Driver/Src/stm32f7xx_hal_tim_ex.c ****   
1827:Drivers/STM32F7xx_HAL_Driver/Src/stm32f7xx_hal_tim_ex.c ****   switch(BreakInput)
1828:Drivers/STM32F7xx_HAL_Driver/Src/stm32f7xx_hal_tim_ex.c ****   {
1829:Drivers/STM32F7xx_HAL_Driver/Src/stm32f7xx_hal_tim_ex.c ****     case TIM_BREAKINPUT_BRK:
1830:Drivers/STM32F7xx_HAL_Driver/Src/stm32f7xx_hal_tim_ex.c ****       {
1831:Drivers/STM32F7xx_HAL_Driver/Src/stm32f7xx_hal_tim_ex.c ****         /* Get the TIMx_AF1 register value */
1832:Drivers/STM32F7xx_HAL_Driver/Src/stm32f7xx_hal_tim_ex.c ****         tmporx = htim->Instance->AF1;
1833:Drivers/STM32F7xx_HAL_Driver/Src/stm32f7xx_hal_tim_ex.c ****         
1834:Drivers/STM32F7xx_HAL_Driver/Src/stm32f7xx_hal_tim_ex.c ****         /* Enable the break input */
1835:Drivers/STM32F7xx_HAL_Driver/Src/stm32f7xx_hal_tim_ex.c ****         tmporx &= ~bkin_enable_mask;
1836:Drivers/STM32F7xx_HAL_Driver/Src/stm32f7xx_hal_tim_ex.c ****         tmporx |= (sBreakInputConfig->Enable << bkin_enable_bitpos) & bkin_enable_mask;
1837:Drivers/STM32F7xx_HAL_Driver/Src/stm32f7xx_hal_tim_ex.c ****         
1838:Drivers/STM32F7xx_HAL_Driver/Src/stm32f7xx_hal_tim_ex.c ****         if(sBreakInputConfig->Source != TIM_BREAKINPUTSOURCE_DFSDM1)
1839:Drivers/STM32F7xx_HAL_Driver/Src/stm32f7xx_hal_tim_ex.c ****         {
1840:Drivers/STM32F7xx_HAL_Driver/Src/stm32f7xx_hal_tim_ex.c ****           tmporx &= ~bkin_polarity_mask;
1841:Drivers/STM32F7xx_HAL_Driver/Src/stm32f7xx_hal_tim_ex.c ****           tmporx |= (sBreakInputConfig->Polarity << bkin_polarity_bitpos) & bkin_polarity_mask;
1842:Drivers/STM32F7xx_HAL_Driver/Src/stm32f7xx_hal_tim_ex.c ****         }
1843:Drivers/STM32F7xx_HAL_Driver/Src/stm32f7xx_hal_tim_ex.c ****         /* Set TIMx_AF1 */
1844:Drivers/STM32F7xx_HAL_Driver/Src/stm32f7xx_hal_tim_ex.c ****         htim->Instance->AF1 = tmporx;        
1845:Drivers/STM32F7xx_HAL_Driver/Src/stm32f7xx_hal_tim_ex.c ****       }
1846:Drivers/STM32F7xx_HAL_Driver/Src/stm32f7xx_hal_tim_ex.c ****         break;
1847:Drivers/STM32F7xx_HAL_Driver/Src/stm32f7xx_hal_tim_ex.c ****     case TIM_BREAKINPUT_BRK2:
1848:Drivers/STM32F7xx_HAL_Driver/Src/stm32f7xx_hal_tim_ex.c ****       {
1849:Drivers/STM32F7xx_HAL_Driver/Src/stm32f7xx_hal_tim_ex.c ****         /* Get the TIMx_AF2 register value */
1850:Drivers/STM32F7xx_HAL_Driver/Src/stm32f7xx_hal_tim_ex.c ****         tmporx = htim->Instance->AF2;
1851:Drivers/STM32F7xx_HAL_Driver/Src/stm32f7xx_hal_tim_ex.c **** 
1852:Drivers/STM32F7xx_HAL_Driver/Src/stm32f7xx_hal_tim_ex.c ****         /* Enable the break input */
1853:Drivers/STM32F7xx_HAL_Driver/Src/stm32f7xx_hal_tim_ex.c ****         tmporx &= ~bkin_enable_mask;
1854:Drivers/STM32F7xx_HAL_Driver/Src/stm32f7xx_hal_tim_ex.c ****         tmporx |= (sBreakInputConfig->Enable << bkin_enable_bitpos) & bkin_enable_mask;
1855:Drivers/STM32F7xx_HAL_Driver/Src/stm32f7xx_hal_tim_ex.c **** 
1856:Drivers/STM32F7xx_HAL_Driver/Src/stm32f7xx_hal_tim_ex.c ****         if (sBreakInputConfig->Source != TIM_BREAKINPUTSOURCE_DFSDM1)
1857:Drivers/STM32F7xx_HAL_Driver/Src/stm32f7xx_hal_tim_ex.c ****         {
1858:Drivers/STM32F7xx_HAL_Driver/Src/stm32f7xx_hal_tim_ex.c ****           tmporx &= ~bkin_polarity_mask;
ARM GAS  /tmp/ccdraBPx.s 			page 47


1859:Drivers/STM32F7xx_HAL_Driver/Src/stm32f7xx_hal_tim_ex.c ****           tmporx |= (sBreakInputConfig->Polarity << bkin_polarity_bitpos) & bkin_polarity_mask;
1860:Drivers/STM32F7xx_HAL_Driver/Src/stm32f7xx_hal_tim_ex.c ****         }
1861:Drivers/STM32F7xx_HAL_Driver/Src/stm32f7xx_hal_tim_ex.c **** 
1862:Drivers/STM32F7xx_HAL_Driver/Src/stm32f7xx_hal_tim_ex.c ****         /* Set TIMx_AF2 */
1863:Drivers/STM32F7xx_HAL_Driver/Src/stm32f7xx_hal_tim_ex.c ****         htim->Instance->AF2 = tmporx;        
1864:Drivers/STM32F7xx_HAL_Driver/Src/stm32f7xx_hal_tim_ex.c ****       }
1865:Drivers/STM32F7xx_HAL_Driver/Src/stm32f7xx_hal_tim_ex.c ****       break;    
1866:Drivers/STM32F7xx_HAL_Driver/Src/stm32f7xx_hal_tim_ex.c ****   default:
1867:Drivers/STM32F7xx_HAL_Driver/Src/stm32f7xx_hal_tim_ex.c ****     break;
1868:Drivers/STM32F7xx_HAL_Driver/Src/stm32f7xx_hal_tim_ex.c ****   }
1869:Drivers/STM32F7xx_HAL_Driver/Src/stm32f7xx_hal_tim_ex.c ****   
1870:Drivers/STM32F7xx_HAL_Driver/Src/stm32f7xx_hal_tim_ex.c ****   __HAL_UNLOCK(htim);
1871:Drivers/STM32F7xx_HAL_Driver/Src/stm32f7xx_hal_tim_ex.c **** 
1872:Drivers/STM32F7xx_HAL_Driver/Src/stm32f7xx_hal_tim_ex.c ****   return HAL_OK;
1873:Drivers/STM32F7xx_HAL_Driver/Src/stm32f7xx_hal_tim_ex.c **** }
1874:Drivers/STM32F7xx_HAL_Driver/Src/stm32f7xx_hal_tim_ex.c **** #endif /* STM32F767xx || STM32F769xx || STM32F777xx || STM32F779xx */
1875:Drivers/STM32F7xx_HAL_Driver/Src/stm32f7xx_hal_tim_ex.c **** 
1876:Drivers/STM32F7xx_HAL_Driver/Src/stm32f7xx_hal_tim_ex.c **** /**
1877:Drivers/STM32F7xx_HAL_Driver/Src/stm32f7xx_hal_tim_ex.c ****   * @brief  Configures the TIM2, TIM5 and TIM11 Remapping input capabilities.
1878:Drivers/STM32F7xx_HAL_Driver/Src/stm32f7xx_hal_tim_ex.c ****   * @param  htim pointer to a TIM_HandleTypeDef structure that contains
1879:Drivers/STM32F7xx_HAL_Driver/Src/stm32f7xx_hal_tim_ex.c ****   *                the configuration information for TIM module.
1880:Drivers/STM32F7xx_HAL_Driver/Src/stm32f7xx_hal_tim_ex.c ****   * @param  Remap specifies the TIM input remapping source.
1881:Drivers/STM32F7xx_HAL_Driver/Src/stm32f7xx_hal_tim_ex.c ****   *          This parameter can be one of the following values:
1882:Drivers/STM32F7xx_HAL_Driver/Src/stm32f7xx_hal_tim_ex.c ****   *            @arg TIM_TIM2_TIM8_TRGO: TIM2 ITR1 input is connected to TIM8 Trigger output(default
1883:Drivers/STM32F7xx_HAL_Driver/Src/stm32f7xx_hal_tim_ex.c ****   *            @arg TIM_TIM2_ETH_PTP:   TIM2 ITR1 input is connected to ETH PTP trigger output.
1884:Drivers/STM32F7xx_HAL_Driver/Src/stm32f7xx_hal_tim_ex.c ****   *            @arg TIM_TIM2_USBFS_SOF: TIM2 ITR1 input is connected to USB FS SOF. 
1885:Drivers/STM32F7xx_HAL_Driver/Src/stm32f7xx_hal_tim_ex.c ****   *            @arg TIM_TIM2_USBHS_SOF: TIM2 ITR1 input is connected to USB HS SOF. 
1886:Drivers/STM32F7xx_HAL_Driver/Src/stm32f7xx_hal_tim_ex.c ****   *            @arg TIM_TIM5_GPIO:      TIM5 CH4 input is connected to dedicated Timer pin(default)
1887:Drivers/STM32F7xx_HAL_Driver/Src/stm32f7xx_hal_tim_ex.c ****   *            @arg TIM_TIM5_LSI:       TIM5 CH4 input is connected to LSI clock.
1888:Drivers/STM32F7xx_HAL_Driver/Src/stm32f7xx_hal_tim_ex.c ****   *            @arg TIM_TIM5_LSE:       TIM5 CH4 input is connected to LSE clock.
1889:Drivers/STM32F7xx_HAL_Driver/Src/stm32f7xx_hal_tim_ex.c ****   *            @arg TIM_TIM5_RTC:       TIM5 CH4 input is connected to RTC Output event.
1890:Drivers/STM32F7xx_HAL_Driver/Src/stm32f7xx_hal_tim_ex.c ****   *            @arg TIM_TIM11_GPIO:     TIM11 CH4 input is connected to dedicated Timer pin(default
1891:Drivers/STM32F7xx_HAL_Driver/Src/stm32f7xx_hal_tim_ex.c ****   *            @arg TIM_TIM11_SPDIF:    SPDIF Frame synchronous   
1892:Drivers/STM32F7xx_HAL_Driver/Src/stm32f7xx_hal_tim_ex.c ****   *            @arg TIM_TIM11_HSE:      TIM11 CH4 input is connected to HSE_RTC clock
1893:Drivers/STM32F7xx_HAL_Driver/Src/stm32f7xx_hal_tim_ex.c ****   *                                     (HSE divided by a programmable prescaler) 
1894:Drivers/STM32F7xx_HAL_Driver/Src/stm32f7xx_hal_tim_ex.c ****   *            @arg TIM_TIM11_MCO1:     TIM11 CH1 input is connected to MCO1    
1895:Drivers/STM32F7xx_HAL_Driver/Src/stm32f7xx_hal_tim_ex.c ****   * @retval HAL status
1896:Drivers/STM32F7xx_HAL_Driver/Src/stm32f7xx_hal_tim_ex.c ****   */
1897:Drivers/STM32F7xx_HAL_Driver/Src/stm32f7xx_hal_tim_ex.c **** HAL_StatusTypeDef HAL_TIMEx_RemapConfig(TIM_HandleTypeDef *htim, uint32_t Remap)
1898:Drivers/STM32F7xx_HAL_Driver/Src/stm32f7xx_hal_tim_ex.c **** {
1899:Drivers/STM32F7xx_HAL_Driver/Src/stm32f7xx_hal_tim_ex.c ****   __HAL_LOCK(htim);
1900:Drivers/STM32F7xx_HAL_Driver/Src/stm32f7xx_hal_tim_ex.c ****     
1901:Drivers/STM32F7xx_HAL_Driver/Src/stm32f7xx_hal_tim_ex.c ****   /* Check parameters */
1902:Drivers/STM32F7xx_HAL_Driver/Src/stm32f7xx_hal_tim_ex.c ****   assert_param(IS_TIM_REMAP_INSTANCE(htim->Instance));
1903:Drivers/STM32F7xx_HAL_Driver/Src/stm32f7xx_hal_tim_ex.c ****   assert_param(IS_TIM_REMAP(Remap));
1904:Drivers/STM32F7xx_HAL_Driver/Src/stm32f7xx_hal_tim_ex.c ****   
1905:Drivers/STM32F7xx_HAL_Driver/Src/stm32f7xx_hal_tim_ex.c ****   /* Set the Timer remapping configuration */
1906:Drivers/STM32F7xx_HAL_Driver/Src/stm32f7xx_hal_tim_ex.c ****   htim->Instance->OR = Remap;
1907:Drivers/STM32F7xx_HAL_Driver/Src/stm32f7xx_hal_tim_ex.c ****   
1908:Drivers/STM32F7xx_HAL_Driver/Src/stm32f7xx_hal_tim_ex.c ****   htim->State = HAL_TIM_STATE_READY;
1909:Drivers/STM32F7xx_HAL_Driver/Src/stm32f7xx_hal_tim_ex.c ****   
1910:Drivers/STM32F7xx_HAL_Driver/Src/stm32f7xx_hal_tim_ex.c ****   __HAL_UNLOCK(htim);  
1911:Drivers/STM32F7xx_HAL_Driver/Src/stm32f7xx_hal_tim_ex.c ****   
1912:Drivers/STM32F7xx_HAL_Driver/Src/stm32f7xx_hal_tim_ex.c ****   return HAL_OK;
1913:Drivers/STM32F7xx_HAL_Driver/Src/stm32f7xx_hal_tim_ex.c **** }
1914:Drivers/STM32F7xx_HAL_Driver/Src/stm32f7xx_hal_tim_ex.c **** 
1915:Drivers/STM32F7xx_HAL_Driver/Src/stm32f7xx_hal_tim_ex.c **** /**
ARM GAS  /tmp/ccdraBPx.s 			page 48


1916:Drivers/STM32F7xx_HAL_Driver/Src/stm32f7xx_hal_tim_ex.c ****   * @brief  Group channel 5 and channel 1, 2 or 3
1917:Drivers/STM32F7xx_HAL_Driver/Src/stm32f7xx_hal_tim_ex.c ****   * @param  htim TIM handle.
1918:Drivers/STM32F7xx_HAL_Driver/Src/stm32f7xx_hal_tim_ex.c ****   * @param  OCRef specifies the reference signal(s) the OC5REF is combined with.
1919:Drivers/STM32F7xx_HAL_Driver/Src/stm32f7xx_hal_tim_ex.c ****   *         This parameter can be any combination of the following values:
1920:Drivers/STM32F7xx_HAL_Driver/Src/stm32f7xx_hal_tim_ex.c ****   *         TIM_GROUPCH5_NONE: No effect of OC5REF on OC1REFC, OC2REFC and OC3REFC
1921:Drivers/STM32F7xx_HAL_Driver/Src/stm32f7xx_hal_tim_ex.c ****   *         TIM_GROUPCH5_OC1REFC: OC1REFC is the logical AND of OC1REFC and OC5REF
1922:Drivers/STM32F7xx_HAL_Driver/Src/stm32f7xx_hal_tim_ex.c ****   *         TIM_GROUPCH5_OC2REFC: OC2REFC is the logical AND of OC2REFC and OC5REF
1923:Drivers/STM32F7xx_HAL_Driver/Src/stm32f7xx_hal_tim_ex.c ****   *         TIM_GROUPCH5_OC3REFC: OC3REFC is the logical AND of OC3REFC and OC5REF
1924:Drivers/STM32F7xx_HAL_Driver/Src/stm32f7xx_hal_tim_ex.c ****   * @retval HAL status
1925:Drivers/STM32F7xx_HAL_Driver/Src/stm32f7xx_hal_tim_ex.c ****   */
1926:Drivers/STM32F7xx_HAL_Driver/Src/stm32f7xx_hal_tim_ex.c **** HAL_StatusTypeDef HAL_TIMEx_GroupChannel5(TIM_HandleTypeDef *htim, uint32_t OCRef)
1927:Drivers/STM32F7xx_HAL_Driver/Src/stm32f7xx_hal_tim_ex.c **** {
1928:Drivers/STM32F7xx_HAL_Driver/Src/stm32f7xx_hal_tim_ex.c ****   /* Check parameters */
1929:Drivers/STM32F7xx_HAL_Driver/Src/stm32f7xx_hal_tim_ex.c ****   assert_param(IS_TIM_COMBINED3PHASEPWM_INSTANCE(htim->Instance));
1930:Drivers/STM32F7xx_HAL_Driver/Src/stm32f7xx_hal_tim_ex.c ****   assert_param(IS_TIM_GROUPCH5(OCRef));
1931:Drivers/STM32F7xx_HAL_Driver/Src/stm32f7xx_hal_tim_ex.c **** 
1932:Drivers/STM32F7xx_HAL_Driver/Src/stm32f7xx_hal_tim_ex.c ****   /* Process Locked */
1933:Drivers/STM32F7xx_HAL_Driver/Src/stm32f7xx_hal_tim_ex.c ****   __HAL_LOCK(htim);
1934:Drivers/STM32F7xx_HAL_Driver/Src/stm32f7xx_hal_tim_ex.c ****   
1935:Drivers/STM32F7xx_HAL_Driver/Src/stm32f7xx_hal_tim_ex.c ****   htim->State = HAL_TIM_STATE_BUSY;
1936:Drivers/STM32F7xx_HAL_Driver/Src/stm32f7xx_hal_tim_ex.c ****   
1937:Drivers/STM32F7xx_HAL_Driver/Src/stm32f7xx_hal_tim_ex.c ****   /* Clear GC5Cx bit fields */
1938:Drivers/STM32F7xx_HAL_Driver/Src/stm32f7xx_hal_tim_ex.c ****   htim->Instance->CCR5 &= ~(TIM_CCR5_GC5C3|TIM_CCR5_GC5C2|TIM_CCR5_GC5C1);
1939:Drivers/STM32F7xx_HAL_Driver/Src/stm32f7xx_hal_tim_ex.c ****   
1940:Drivers/STM32F7xx_HAL_Driver/Src/stm32f7xx_hal_tim_ex.c ****   /* Set GC5Cx bit fields */
1941:Drivers/STM32F7xx_HAL_Driver/Src/stm32f7xx_hal_tim_ex.c ****   htim->Instance->CCR5 |= OCRef;
1942:Drivers/STM32F7xx_HAL_Driver/Src/stm32f7xx_hal_tim_ex.c ****                                    
1943:Drivers/STM32F7xx_HAL_Driver/Src/stm32f7xx_hal_tim_ex.c ****   htim->State = HAL_TIM_STATE_READY;                                 
1944:Drivers/STM32F7xx_HAL_Driver/Src/stm32f7xx_hal_tim_ex.c ****   
1945:Drivers/STM32F7xx_HAL_Driver/Src/stm32f7xx_hal_tim_ex.c ****   __HAL_UNLOCK(htim);
1946:Drivers/STM32F7xx_HAL_Driver/Src/stm32f7xx_hal_tim_ex.c ****   
1947:Drivers/STM32F7xx_HAL_Driver/Src/stm32f7xx_hal_tim_ex.c ****   return HAL_OK;
1948:Drivers/STM32F7xx_HAL_Driver/Src/stm32f7xx_hal_tim_ex.c **** }
1949:Drivers/STM32F7xx_HAL_Driver/Src/stm32f7xx_hal_tim_ex.c **** /**
1950:Drivers/STM32F7xx_HAL_Driver/Src/stm32f7xx_hal_tim_ex.c ****   * @}
1951:Drivers/STM32F7xx_HAL_Driver/Src/stm32f7xx_hal_tim_ex.c ****   */
1952:Drivers/STM32F7xx_HAL_Driver/Src/stm32f7xx_hal_tim_ex.c **** 
1953:Drivers/STM32F7xx_HAL_Driver/Src/stm32f7xx_hal_tim_ex.c **** /** @defgroup TIMEx_Exported_Functions_Group6 Extended Callbacks functions 
1954:Drivers/STM32F7xx_HAL_Driver/Src/stm32f7xx_hal_tim_ex.c ****   * @brief    Extended Callbacks functions
1955:Drivers/STM32F7xx_HAL_Driver/Src/stm32f7xx_hal_tim_ex.c ****  *
1956:Drivers/STM32F7xx_HAL_Driver/Src/stm32f7xx_hal_tim_ex.c **** @verbatim   
1957:Drivers/STM32F7xx_HAL_Driver/Src/stm32f7xx_hal_tim_ex.c ****   ==============================================================================
1958:Drivers/STM32F7xx_HAL_Driver/Src/stm32f7xx_hal_tim_ex.c ****                     ##### Extension Callbacks functions #####
1959:Drivers/STM32F7xx_HAL_Driver/Src/stm32f7xx_hal_tim_ex.c ****   ==============================================================================  
1960:Drivers/STM32F7xx_HAL_Driver/Src/stm32f7xx_hal_tim_ex.c ****   [..]  
1961:Drivers/STM32F7xx_HAL_Driver/Src/stm32f7xx_hal_tim_ex.c ****     This section provides Extension TIM callback functions:
1962:Drivers/STM32F7xx_HAL_Driver/Src/stm32f7xx_hal_tim_ex.c ****     (+) Timer Commutation callback
1963:Drivers/STM32F7xx_HAL_Driver/Src/stm32f7xx_hal_tim_ex.c ****     (+) Timer Break callback
1964:Drivers/STM32F7xx_HAL_Driver/Src/stm32f7xx_hal_tim_ex.c **** 
1965:Drivers/STM32F7xx_HAL_Driver/Src/stm32f7xx_hal_tim_ex.c **** @endverbatim
1966:Drivers/STM32F7xx_HAL_Driver/Src/stm32f7xx_hal_tim_ex.c ****   * @{
1967:Drivers/STM32F7xx_HAL_Driver/Src/stm32f7xx_hal_tim_ex.c ****   */
1968:Drivers/STM32F7xx_HAL_Driver/Src/stm32f7xx_hal_tim_ex.c **** 
1969:Drivers/STM32F7xx_HAL_Driver/Src/stm32f7xx_hal_tim_ex.c **** /**
1970:Drivers/STM32F7xx_HAL_Driver/Src/stm32f7xx_hal_tim_ex.c ****   * @brief  Hall commutation changed callback in non blocking mode 
1971:Drivers/STM32F7xx_HAL_Driver/Src/stm32f7xx_hal_tim_ex.c ****   * @param  htim pointer to a TIM_HandleTypeDef structure that contains
1972:Drivers/STM32F7xx_HAL_Driver/Src/stm32f7xx_hal_tim_ex.c ****   *                the configuration information for TIM module.
ARM GAS  /tmp/ccdraBPx.s 			page 49


1973:Drivers/STM32F7xx_HAL_Driver/Src/stm32f7xx_hal_tim_ex.c ****   * @retval None
1974:Drivers/STM32F7xx_HAL_Driver/Src/stm32f7xx_hal_tim_ex.c ****   */
1975:Drivers/STM32F7xx_HAL_Driver/Src/stm32f7xx_hal_tim_ex.c **** __weak void HAL_TIMEx_CommutationCallback(TIM_HandleTypeDef *htim)
1976:Drivers/STM32F7xx_HAL_Driver/Src/stm32f7xx_hal_tim_ex.c **** {
1977:Drivers/STM32F7xx_HAL_Driver/Src/stm32f7xx_hal_tim_ex.c ****   /* Prevent unused argument(s) compilation warning */
1978:Drivers/STM32F7xx_HAL_Driver/Src/stm32f7xx_hal_tim_ex.c ****   UNUSED(htim);
1979:Drivers/STM32F7xx_HAL_Driver/Src/stm32f7xx_hal_tim_ex.c ****  
1980:Drivers/STM32F7xx_HAL_Driver/Src/stm32f7xx_hal_tim_ex.c ****   /* NOTE : This function Should not be modified, when the callback is needed,
1981:Drivers/STM32F7xx_HAL_Driver/Src/stm32f7xx_hal_tim_ex.c ****             the HAL_TIMEx_CommutationCallback could be implemented in the user file
1982:Drivers/STM32F7xx_HAL_Driver/Src/stm32f7xx_hal_tim_ex.c ****    */
1983:Drivers/STM32F7xx_HAL_Driver/Src/stm32f7xx_hal_tim_ex.c **** }
1984:Drivers/STM32F7xx_HAL_Driver/Src/stm32f7xx_hal_tim_ex.c **** 
1985:Drivers/STM32F7xx_HAL_Driver/Src/stm32f7xx_hal_tim_ex.c **** /**
1986:Drivers/STM32F7xx_HAL_Driver/Src/stm32f7xx_hal_tim_ex.c ****   * @brief  Hall Break detection callback in non blocking mode 
1987:Drivers/STM32F7xx_HAL_Driver/Src/stm32f7xx_hal_tim_ex.c ****   * @param  htim pointer to a TIM_HandleTypeDef structure that contains
1988:Drivers/STM32F7xx_HAL_Driver/Src/stm32f7xx_hal_tim_ex.c ****   *                the configuration information for TIM module.
1989:Drivers/STM32F7xx_HAL_Driver/Src/stm32f7xx_hal_tim_ex.c ****   * @retval None
1990:Drivers/STM32F7xx_HAL_Driver/Src/stm32f7xx_hal_tim_ex.c ****   */
1991:Drivers/STM32F7xx_HAL_Driver/Src/stm32f7xx_hal_tim_ex.c **** __weak void HAL_TIMEx_BreakCallback(TIM_HandleTypeDef *htim)
1992:Drivers/STM32F7xx_HAL_Driver/Src/stm32f7xx_hal_tim_ex.c **** {
1993:Drivers/STM32F7xx_HAL_Driver/Src/stm32f7xx_hal_tim_ex.c ****   /* Prevent unused argument(s) compilation warning */
1994:Drivers/STM32F7xx_HAL_Driver/Src/stm32f7xx_hal_tim_ex.c ****   UNUSED(htim);
1995:Drivers/STM32F7xx_HAL_Driver/Src/stm32f7xx_hal_tim_ex.c ****  
1996:Drivers/STM32F7xx_HAL_Driver/Src/stm32f7xx_hal_tim_ex.c ****   /* NOTE : This function Should not be modified, when the callback is needed,
1997:Drivers/STM32F7xx_HAL_Driver/Src/stm32f7xx_hal_tim_ex.c ****             the HAL_TIMEx_BreakCallback could be implemented in the user file
1998:Drivers/STM32F7xx_HAL_Driver/Src/stm32f7xx_hal_tim_ex.c ****    */
1999:Drivers/STM32F7xx_HAL_Driver/Src/stm32f7xx_hal_tim_ex.c **** }
2000:Drivers/STM32F7xx_HAL_Driver/Src/stm32f7xx_hal_tim_ex.c **** 
2001:Drivers/STM32F7xx_HAL_Driver/Src/stm32f7xx_hal_tim_ex.c **** /**
2002:Drivers/STM32F7xx_HAL_Driver/Src/stm32f7xx_hal_tim_ex.c ****   * @}
2003:Drivers/STM32F7xx_HAL_Driver/Src/stm32f7xx_hal_tim_ex.c ****   */
2004:Drivers/STM32F7xx_HAL_Driver/Src/stm32f7xx_hal_tim_ex.c **** 
2005:Drivers/STM32F7xx_HAL_Driver/Src/stm32f7xx_hal_tim_ex.c **** /** @defgroup TIMEx_Exported_Functions_Group7 Extended Peripheral State functions 
2006:Drivers/STM32F7xx_HAL_Driver/Src/stm32f7xx_hal_tim_ex.c ****  *  @brief    Extended Peripheral State functions
2007:Drivers/STM32F7xx_HAL_Driver/Src/stm32f7xx_hal_tim_ex.c ****  *
2008:Drivers/STM32F7xx_HAL_Driver/Src/stm32f7xx_hal_tim_ex.c **** @verbatim   
2009:Drivers/STM32F7xx_HAL_Driver/Src/stm32f7xx_hal_tim_ex.c ****   ==============================================================================
2010:Drivers/STM32F7xx_HAL_Driver/Src/stm32f7xx_hal_tim_ex.c ****                 ##### Extension Peripheral State functions #####
2011:Drivers/STM32F7xx_HAL_Driver/Src/stm32f7xx_hal_tim_ex.c ****   ==============================================================================  
2012:Drivers/STM32F7xx_HAL_Driver/Src/stm32f7xx_hal_tim_ex.c ****   [..]
2013:Drivers/STM32F7xx_HAL_Driver/Src/stm32f7xx_hal_tim_ex.c ****     This subsection permits to get in run-time the status of the peripheral 
2014:Drivers/STM32F7xx_HAL_Driver/Src/stm32f7xx_hal_tim_ex.c ****     and the data flow.
2015:Drivers/STM32F7xx_HAL_Driver/Src/stm32f7xx_hal_tim_ex.c **** 
2016:Drivers/STM32F7xx_HAL_Driver/Src/stm32f7xx_hal_tim_ex.c **** @endverbatim
2017:Drivers/STM32F7xx_HAL_Driver/Src/stm32f7xx_hal_tim_ex.c ****   * @{
2018:Drivers/STM32F7xx_HAL_Driver/Src/stm32f7xx_hal_tim_ex.c ****   */
2019:Drivers/STM32F7xx_HAL_Driver/Src/stm32f7xx_hal_tim_ex.c **** 
2020:Drivers/STM32F7xx_HAL_Driver/Src/stm32f7xx_hal_tim_ex.c **** /**
2021:Drivers/STM32F7xx_HAL_Driver/Src/stm32f7xx_hal_tim_ex.c ****   * @brief  Return the TIM Hall Sensor interface state
2022:Drivers/STM32F7xx_HAL_Driver/Src/stm32f7xx_hal_tim_ex.c ****   * @param  htim pointer to a TIM_HandleTypeDef structure that contains
2023:Drivers/STM32F7xx_HAL_Driver/Src/stm32f7xx_hal_tim_ex.c ****   *                the configuration information for TIM module.
2024:Drivers/STM32F7xx_HAL_Driver/Src/stm32f7xx_hal_tim_ex.c ****   * @retval HAL state
2025:Drivers/STM32F7xx_HAL_Driver/Src/stm32f7xx_hal_tim_ex.c ****   */
2026:Drivers/STM32F7xx_HAL_Driver/Src/stm32f7xx_hal_tim_ex.c **** HAL_TIM_StateTypeDef HAL_TIMEx_HallSensor_GetState(TIM_HandleTypeDef *htim)
2027:Drivers/STM32F7xx_HAL_Driver/Src/stm32f7xx_hal_tim_ex.c **** {
2028:Drivers/STM32F7xx_HAL_Driver/Src/stm32f7xx_hal_tim_ex.c ****   return htim->State;
2029:Drivers/STM32F7xx_HAL_Driver/Src/stm32f7xx_hal_tim_ex.c **** }
ARM GAS  /tmp/ccdraBPx.s 			page 50


2030:Drivers/STM32F7xx_HAL_Driver/Src/stm32f7xx_hal_tim_ex.c **** 
2031:Drivers/STM32F7xx_HAL_Driver/Src/stm32f7xx_hal_tim_ex.c **** /**
2032:Drivers/STM32F7xx_HAL_Driver/Src/stm32f7xx_hal_tim_ex.c ****   * @}
2033:Drivers/STM32F7xx_HAL_Driver/Src/stm32f7xx_hal_tim_ex.c ****   */
2034:Drivers/STM32F7xx_HAL_Driver/Src/stm32f7xx_hal_tim_ex.c **** 
2035:Drivers/STM32F7xx_HAL_Driver/Src/stm32f7xx_hal_tim_ex.c **** /**
2036:Drivers/STM32F7xx_HAL_Driver/Src/stm32f7xx_hal_tim_ex.c ****   * @brief  TIM DMA Commutation callback. 
2037:Drivers/STM32F7xx_HAL_Driver/Src/stm32f7xx_hal_tim_ex.c ****   * @param  hdma pointer to a DMA_HandleTypeDef structure that contains
2038:Drivers/STM32F7xx_HAL_Driver/Src/stm32f7xx_hal_tim_ex.c ****   *                the configuration information for the specified DMA module.
2039:Drivers/STM32F7xx_HAL_Driver/Src/stm32f7xx_hal_tim_ex.c ****   * @retval None
2040:Drivers/STM32F7xx_HAL_Driver/Src/stm32f7xx_hal_tim_ex.c ****   */
2041:Drivers/STM32F7xx_HAL_Driver/Src/stm32f7xx_hal_tim_ex.c **** void HAL_TIMEx_DMACommutationCplt(DMA_HandleTypeDef *hdma)
2042:Drivers/STM32F7xx_HAL_Driver/Src/stm32f7xx_hal_tim_ex.c **** {
2043:Drivers/STM32F7xx_HAL_Driver/Src/stm32f7xx_hal_tim_ex.c ****   TIM_HandleTypeDef* htim = ( TIM_HandleTypeDef* )((DMA_HandleTypeDef* )hdma)->Parent;
2044:Drivers/STM32F7xx_HAL_Driver/Src/stm32f7xx_hal_tim_ex.c ****   
2045:Drivers/STM32F7xx_HAL_Driver/Src/stm32f7xx_hal_tim_ex.c ****   htim->State= HAL_TIM_STATE_READY;
2046:Drivers/STM32F7xx_HAL_Driver/Src/stm32f7xx_hal_tim_ex.c **** 
2047:Drivers/STM32F7xx_HAL_Driver/Src/stm32f7xx_hal_tim_ex.c **** #if (USE_HAL_TIM_REGISTER_CALLBACKS == 1)
2048:Drivers/STM32F7xx_HAL_Driver/Src/stm32f7xx_hal_tim_ex.c ****   htim->CommutationCallback(htim);
2049:Drivers/STM32F7xx_HAL_Driver/Src/stm32f7xx_hal_tim_ex.c **** #else
2050:Drivers/STM32F7xx_HAL_Driver/Src/stm32f7xx_hal_tim_ex.c ****   HAL_TIMEx_CommutationCallback(htim); 
2051:Drivers/STM32F7xx_HAL_Driver/Src/stm32f7xx_hal_tim_ex.c **** #endif /* USE_HAL_TIM_REGISTER_CALLBACKS */
2052:Drivers/STM32F7xx_HAL_Driver/Src/stm32f7xx_hal_tim_ex.c **** }
2053:Drivers/STM32F7xx_HAL_Driver/Src/stm32f7xx_hal_tim_ex.c **** /**
2054:Drivers/STM32F7xx_HAL_Driver/Src/stm32f7xx_hal_tim_ex.c ****   * @}
2055:Drivers/STM32F7xx_HAL_Driver/Src/stm32f7xx_hal_tim_ex.c ****   */
2056:Drivers/STM32F7xx_HAL_Driver/Src/stm32f7xx_hal_tim_ex.c **** 
2057:Drivers/STM32F7xx_HAL_Driver/Src/stm32f7xx_hal_tim_ex.c **** /**
2058:Drivers/STM32F7xx_HAL_Driver/Src/stm32f7xx_hal_tim_ex.c ****   * @brief  Configures the OCRef clear feature
2059:Drivers/STM32F7xx_HAL_Driver/Src/stm32f7xx_hal_tim_ex.c ****   * @param  htim TIM handle
2060:Drivers/STM32F7xx_HAL_Driver/Src/stm32f7xx_hal_tim_ex.c ****   * @param  sClearInputConfig pointer to a TIM_ClearInputConfigTypeDef structure that
2061:Drivers/STM32F7xx_HAL_Driver/Src/stm32f7xx_hal_tim_ex.c ****   *         contains the OCREF clear feature and parameters for the TIM peripheral. 
2062:Drivers/STM32F7xx_HAL_Driver/Src/stm32f7xx_hal_tim_ex.c ****   * @param  Channel specifies the TIM Channel
2063:Drivers/STM32F7xx_HAL_Driver/Src/stm32f7xx_hal_tim_ex.c ****   *          This parameter can be one of the following values:
2064:Drivers/STM32F7xx_HAL_Driver/Src/stm32f7xx_hal_tim_ex.c ****   *            @arg TIM_Channel_1: TIM Channel 1
2065:Drivers/STM32F7xx_HAL_Driver/Src/stm32f7xx_hal_tim_ex.c ****   *            @arg TIM_Channel_2: TIM Channel 2
2066:Drivers/STM32F7xx_HAL_Driver/Src/stm32f7xx_hal_tim_ex.c ****   *            @arg TIM_Channel_3: TIM Channel 3
2067:Drivers/STM32F7xx_HAL_Driver/Src/stm32f7xx_hal_tim_ex.c ****   *            @arg TIM_Channel_4: TIM Channel 4
2068:Drivers/STM32F7xx_HAL_Driver/Src/stm32f7xx_hal_tim_ex.c ****   *            @arg TIM_Channel_5: TIM Channel 5
2069:Drivers/STM32F7xx_HAL_Driver/Src/stm32f7xx_hal_tim_ex.c ****   *            @arg TIM_Channel_6: TIM Channel 6
2070:Drivers/STM32F7xx_HAL_Driver/Src/stm32f7xx_hal_tim_ex.c ****   * @retval None
2071:Drivers/STM32F7xx_HAL_Driver/Src/stm32f7xx_hal_tim_ex.c ****   */ 
2072:Drivers/STM32F7xx_HAL_Driver/Src/stm32f7xx_hal_tim_ex.c **** HAL_StatusTypeDef HAL_TIM_ConfigOCrefClear(TIM_HandleTypeDef *htim,
2073:Drivers/STM32F7xx_HAL_Driver/Src/stm32f7xx_hal_tim_ex.c ****                                            TIM_ClearInputConfigTypeDef *sClearInputConfig,
2074:Drivers/STM32F7xx_HAL_Driver/Src/stm32f7xx_hal_tim_ex.c ****                                            uint32_t Channel)
2075:Drivers/STM32F7xx_HAL_Driver/Src/stm32f7xx_hal_tim_ex.c **** { 
2076:Drivers/STM32F7xx_HAL_Driver/Src/stm32f7xx_hal_tim_ex.c ****   uint32_t tmpsmcr = 0;
2077:Drivers/STM32F7xx_HAL_Driver/Src/stm32f7xx_hal_tim_ex.c **** 
2078:Drivers/STM32F7xx_HAL_Driver/Src/stm32f7xx_hal_tim_ex.c ****   /* Check the parameters */ 
2079:Drivers/STM32F7xx_HAL_Driver/Src/stm32f7xx_hal_tim_ex.c ****   assert_param(IS_TIM_OCXREF_CLEAR_INSTANCE(htim->Instance));
2080:Drivers/STM32F7xx_HAL_Driver/Src/stm32f7xx_hal_tim_ex.c ****   assert_param(IS_TIM_CLEARINPUT_SOURCE(sClearInputConfig->ClearInputSource));
2081:Drivers/STM32F7xx_HAL_Driver/Src/stm32f7xx_hal_tim_ex.c ****                                         
2082:Drivers/STM32F7xx_HAL_Driver/Src/stm32f7xx_hal_tim_ex.c ****   /* Check input state */
2083:Drivers/STM32F7xx_HAL_Driver/Src/stm32f7xx_hal_tim_ex.c ****   __HAL_LOCK(htim);
2084:Drivers/STM32F7xx_HAL_Driver/Src/stm32f7xx_hal_tim_ex.c ****   
2085:Drivers/STM32F7xx_HAL_Driver/Src/stm32f7xx_hal_tim_ex.c ****   switch (sClearInputConfig->ClearInputSource)
2086:Drivers/STM32F7xx_HAL_Driver/Src/stm32f7xx_hal_tim_ex.c ****   {
ARM GAS  /tmp/ccdraBPx.s 			page 51


2087:Drivers/STM32F7xx_HAL_Driver/Src/stm32f7xx_hal_tim_ex.c ****     case TIM_CLEARINPUTSOURCE_NONE:
2088:Drivers/STM32F7xx_HAL_Driver/Src/stm32f7xx_hal_tim_ex.c ****     {
2089:Drivers/STM32F7xx_HAL_Driver/Src/stm32f7xx_hal_tim_ex.c ****       /* Get the TIMx SMCR register value */
2090:Drivers/STM32F7xx_HAL_Driver/Src/stm32f7xx_hal_tim_ex.c ****       tmpsmcr = htim->Instance->SMCR;
2091:Drivers/STM32F7xx_HAL_Driver/Src/stm32f7xx_hal_tim_ex.c ****       
2092:Drivers/STM32F7xx_HAL_Driver/Src/stm32f7xx_hal_tim_ex.c ****       /* Clear the ETR Bits */
2093:Drivers/STM32F7xx_HAL_Driver/Src/stm32f7xx_hal_tim_ex.c ****       tmpsmcr &= ~(TIM_SMCR_ETF | TIM_SMCR_ETPS | TIM_SMCR_ECE | TIM_SMCR_ETP);
2094:Drivers/STM32F7xx_HAL_Driver/Src/stm32f7xx_hal_tim_ex.c ****       
2095:Drivers/STM32F7xx_HAL_Driver/Src/stm32f7xx_hal_tim_ex.c ****       /* Set TIMx_SMCR */
2096:Drivers/STM32F7xx_HAL_Driver/Src/stm32f7xx_hal_tim_ex.c ****       htim->Instance->SMCR = tmpsmcr;
2097:Drivers/STM32F7xx_HAL_Driver/Src/stm32f7xx_hal_tim_ex.c ****    }
2098:Drivers/STM32F7xx_HAL_Driver/Src/stm32f7xx_hal_tim_ex.c ****     break;
2099:Drivers/STM32F7xx_HAL_Driver/Src/stm32f7xx_hal_tim_ex.c **** 
2100:Drivers/STM32F7xx_HAL_Driver/Src/stm32f7xx_hal_tim_ex.c ****     case TIM_CLEARINPUTSOURCE_ETR:
2101:Drivers/STM32F7xx_HAL_Driver/Src/stm32f7xx_hal_tim_ex.c ****     {
2102:Drivers/STM32F7xx_HAL_Driver/Src/stm32f7xx_hal_tim_ex.c ****       /* Check the parameters */ 
2103:Drivers/STM32F7xx_HAL_Driver/Src/stm32f7xx_hal_tim_ex.c ****       assert_param(IS_TIM_CLEARINPUT_POLARITY(sClearInputConfig->ClearInputPolarity));
2104:Drivers/STM32F7xx_HAL_Driver/Src/stm32f7xx_hal_tim_ex.c ****       assert_param(IS_TIM_CLEARINPUT_PRESCALER(sClearInputConfig->ClearInputPrescaler));
2105:Drivers/STM32F7xx_HAL_Driver/Src/stm32f7xx_hal_tim_ex.c ****       assert_param(IS_TIM_CLEARINPUT_FILTER(sClearInputConfig->ClearInputFilter));
2106:Drivers/STM32F7xx_HAL_Driver/Src/stm32f7xx_hal_tim_ex.c ****       
2107:Drivers/STM32F7xx_HAL_Driver/Src/stm32f7xx_hal_tim_ex.c ****       TIM_ETR_SetConfig(htim->Instance,
2108:Drivers/STM32F7xx_HAL_Driver/Src/stm32f7xx_hal_tim_ex.c ****                         sClearInputConfig->ClearInputPrescaler,
2109:Drivers/STM32F7xx_HAL_Driver/Src/stm32f7xx_hal_tim_ex.c ****                         sClearInputConfig->ClearInputPolarity,
2110:Drivers/STM32F7xx_HAL_Driver/Src/stm32f7xx_hal_tim_ex.c ****                         sClearInputConfig->ClearInputFilter);
2111:Drivers/STM32F7xx_HAL_Driver/Src/stm32f7xx_hal_tim_ex.c ****     }
2112:Drivers/STM32F7xx_HAL_Driver/Src/stm32f7xx_hal_tim_ex.c ****     break;
2113:Drivers/STM32F7xx_HAL_Driver/Src/stm32f7xx_hal_tim_ex.c ****     default:  
2114:Drivers/STM32F7xx_HAL_Driver/Src/stm32f7xx_hal_tim_ex.c ****     break;
2115:Drivers/STM32F7xx_HAL_Driver/Src/stm32f7xx_hal_tim_ex.c ****   }
2116:Drivers/STM32F7xx_HAL_Driver/Src/stm32f7xx_hal_tim_ex.c ****   
2117:Drivers/STM32F7xx_HAL_Driver/Src/stm32f7xx_hal_tim_ex.c ****   switch (Channel)
2118:Drivers/STM32F7xx_HAL_Driver/Src/stm32f7xx_hal_tim_ex.c ****   { 
2119:Drivers/STM32F7xx_HAL_Driver/Src/stm32f7xx_hal_tim_ex.c ****     case TIM_CHANNEL_1:
2120:Drivers/STM32F7xx_HAL_Driver/Src/stm32f7xx_hal_tim_ex.c ****       {
2121:Drivers/STM32F7xx_HAL_Driver/Src/stm32f7xx_hal_tim_ex.c ****         if(sClearInputConfig->ClearInputState != RESET)
2122:Drivers/STM32F7xx_HAL_Driver/Src/stm32f7xx_hal_tim_ex.c ****         {
2123:Drivers/STM32F7xx_HAL_Driver/Src/stm32f7xx_hal_tim_ex.c ****           /* Enable the Ocref clear feature for Channel 1 */
2124:Drivers/STM32F7xx_HAL_Driver/Src/stm32f7xx_hal_tim_ex.c ****           htim->Instance->CCMR1 |= TIM_CCMR1_OC1CE;
2125:Drivers/STM32F7xx_HAL_Driver/Src/stm32f7xx_hal_tim_ex.c ****         }
2126:Drivers/STM32F7xx_HAL_Driver/Src/stm32f7xx_hal_tim_ex.c ****         else
2127:Drivers/STM32F7xx_HAL_Driver/Src/stm32f7xx_hal_tim_ex.c ****         {
2128:Drivers/STM32F7xx_HAL_Driver/Src/stm32f7xx_hal_tim_ex.c ****           /* Disable the Ocref clear feature for Channel 1 */
2129:Drivers/STM32F7xx_HAL_Driver/Src/stm32f7xx_hal_tim_ex.c ****           htim->Instance->CCMR1 &= ~TIM_CCMR1_OC1CE;      
2130:Drivers/STM32F7xx_HAL_Driver/Src/stm32f7xx_hal_tim_ex.c ****         }
2131:Drivers/STM32F7xx_HAL_Driver/Src/stm32f7xx_hal_tim_ex.c ****       }    
2132:Drivers/STM32F7xx_HAL_Driver/Src/stm32f7xx_hal_tim_ex.c ****       break;
2133:Drivers/STM32F7xx_HAL_Driver/Src/stm32f7xx_hal_tim_ex.c ****     case TIM_CHANNEL_2:    
2134:Drivers/STM32F7xx_HAL_Driver/Src/stm32f7xx_hal_tim_ex.c ****       {
2135:Drivers/STM32F7xx_HAL_Driver/Src/stm32f7xx_hal_tim_ex.c ****         if(sClearInputConfig->ClearInputState != RESET)
2136:Drivers/STM32F7xx_HAL_Driver/Src/stm32f7xx_hal_tim_ex.c ****         {
2137:Drivers/STM32F7xx_HAL_Driver/Src/stm32f7xx_hal_tim_ex.c ****           /* Enable the Ocref clear feature for Channel 2 */
2138:Drivers/STM32F7xx_HAL_Driver/Src/stm32f7xx_hal_tim_ex.c ****           htim->Instance->CCMR1 |= TIM_CCMR1_OC2CE;
2139:Drivers/STM32F7xx_HAL_Driver/Src/stm32f7xx_hal_tim_ex.c ****         }
2140:Drivers/STM32F7xx_HAL_Driver/Src/stm32f7xx_hal_tim_ex.c ****         else
2141:Drivers/STM32F7xx_HAL_Driver/Src/stm32f7xx_hal_tim_ex.c ****         {
