ARM GAS  /tmp/ccS7nfBM.s 			page 1


   1              		.cpu cortex-m7
   2              		.eabi_attribute 27, 1
   3              		.eabi_attribute 28, 1
   4              		.eabi_attribute 20, 1
   5              		.eabi_attribute 21, 1
   6              		.eabi_attribute 23, 3
   7              		.eabi_attribute 24, 1
   8              		.eabi_attribute 25, 1
   9              		.eabi_attribute 26, 1
  10              		.eabi_attribute 30, 2
  11              		.eabi_attribute 34, 1
  12              		.eabi_attribute 18, 4
  13              		.file	"stm32f7xx_hal_dma_ex.c"
  14              		.text
  15              	.Ltext0:
  16              		.cfi_sections	.debug_frame
  17              		.section	.text.HAL_DMAEx_MultiBufferStart,"ax",%progbits
  18              		.align	1
  19              		.p2align 2,,3
  20              		.global	HAL_DMAEx_MultiBufferStart
  21              		.syntax unified
  22              		.thumb
  23              		.thumb_func
  24              		.fpu fpv4-sp-d16
  26              	HAL_DMAEx_MultiBufferStart:
  27              	.LFB138:
  28              		.file 1 "Drivers/STM32F7xx_HAL_Driver/Src/stm32f7xx_hal_dma_ex.c"
   1:Drivers/STM32F7xx_HAL_Driver/Src/stm32f7xx_hal_dma_ex.c **** /**
   2:Drivers/STM32F7xx_HAL_Driver/Src/stm32f7xx_hal_dma_ex.c ****   ******************************************************************************
   3:Drivers/STM32F7xx_HAL_Driver/Src/stm32f7xx_hal_dma_ex.c ****   * @file    stm32f7xx_hal_dma_ex.c
   4:Drivers/STM32F7xx_HAL_Driver/Src/stm32f7xx_hal_dma_ex.c ****   * @author  MCD Application Team
   5:Drivers/STM32F7xx_HAL_Driver/Src/stm32f7xx_hal_dma_ex.c ****   * @brief   DMA Extension HAL module driver
   6:Drivers/STM32F7xx_HAL_Driver/Src/stm32f7xx_hal_dma_ex.c ****   *         This file provides firmware functions to manage the following 
   7:Drivers/STM32F7xx_HAL_Driver/Src/stm32f7xx_hal_dma_ex.c ****   *         functionalities of the DMA Extension peripheral:
   8:Drivers/STM32F7xx_HAL_Driver/Src/stm32f7xx_hal_dma_ex.c ****   *           + Extended features functions
   9:Drivers/STM32F7xx_HAL_Driver/Src/stm32f7xx_hal_dma_ex.c ****   *
  10:Drivers/STM32F7xx_HAL_Driver/Src/stm32f7xx_hal_dma_ex.c ****   @verbatim
  11:Drivers/STM32F7xx_HAL_Driver/Src/stm32f7xx_hal_dma_ex.c ****   ==============================================================================
  12:Drivers/STM32F7xx_HAL_Driver/Src/stm32f7xx_hal_dma_ex.c ****                         ##### How to use this driver #####
  13:Drivers/STM32F7xx_HAL_Driver/Src/stm32f7xx_hal_dma_ex.c ****   ==============================================================================
  14:Drivers/STM32F7xx_HAL_Driver/Src/stm32f7xx_hal_dma_ex.c ****   [..]
  15:Drivers/STM32F7xx_HAL_Driver/Src/stm32f7xx_hal_dma_ex.c ****   The DMA Extension HAL driver can be used as follows:
  16:Drivers/STM32F7xx_HAL_Driver/Src/stm32f7xx_hal_dma_ex.c ****    (+) Start a multi buffer transfer using the HAL_DMA_MultiBufferStart() function
  17:Drivers/STM32F7xx_HAL_Driver/Src/stm32f7xx_hal_dma_ex.c ****        for polling mode or HAL_DMA_MultiBufferStart_IT() for interrupt mode.
  18:Drivers/STM32F7xx_HAL_Driver/Src/stm32f7xx_hal_dma_ex.c **** 
  19:Drivers/STM32F7xx_HAL_Driver/Src/stm32f7xx_hal_dma_ex.c ****      -@-  In Memory-to-Memory transfer mode, Multi (Double) Buffer mode is not allowed.
  20:Drivers/STM32F7xx_HAL_Driver/Src/stm32f7xx_hal_dma_ex.c ****      -@-  When Multi (Double) Buffer mode is enabled, the transfer is circular by default.
  21:Drivers/STM32F7xx_HAL_Driver/Src/stm32f7xx_hal_dma_ex.c ****      -@-  In Multi (Double) buffer mode, it is possible to update the base address for 
  22:Drivers/STM32F7xx_HAL_Driver/Src/stm32f7xx_hal_dma_ex.c ****           the AHB memory port on the fly (DMA_SxM0AR or DMA_SxM1AR) when the stream is enabled.
  23:Drivers/STM32F7xx_HAL_Driver/Src/stm32f7xx_hal_dma_ex.c ****   
  24:Drivers/STM32F7xx_HAL_Driver/Src/stm32f7xx_hal_dma_ex.c ****   @endverbatim
  25:Drivers/STM32F7xx_HAL_Driver/Src/stm32f7xx_hal_dma_ex.c ****   ******************************************************************************
  26:Drivers/STM32F7xx_HAL_Driver/Src/stm32f7xx_hal_dma_ex.c ****   * @attention
  27:Drivers/STM32F7xx_HAL_Driver/Src/stm32f7xx_hal_dma_ex.c ****   *
  28:Drivers/STM32F7xx_HAL_Driver/Src/stm32f7xx_hal_dma_ex.c ****   * <h2><center>&copy; COPYRIGHT(c) 2017 STMicroelectronics</center></h2>
  29:Drivers/STM32F7xx_HAL_Driver/Src/stm32f7xx_hal_dma_ex.c ****   *
  30:Drivers/STM32F7xx_HAL_Driver/Src/stm32f7xx_hal_dma_ex.c ****   * Redistribution and use in source and binary forms, with or without modification,
ARM GAS  /tmp/ccS7nfBM.s 			page 2


  31:Drivers/STM32F7xx_HAL_Driver/Src/stm32f7xx_hal_dma_ex.c ****   * are permitted provided that the following conditions are met:
  32:Drivers/STM32F7xx_HAL_Driver/Src/stm32f7xx_hal_dma_ex.c ****   *   1. Redistributions of source code must retain the above copyright notice,
  33:Drivers/STM32F7xx_HAL_Driver/Src/stm32f7xx_hal_dma_ex.c ****   *      this list of conditions and the following disclaimer.
  34:Drivers/STM32F7xx_HAL_Driver/Src/stm32f7xx_hal_dma_ex.c ****   *   2. Redistributions in binary form must reproduce the above copyright notice,
  35:Drivers/STM32F7xx_HAL_Driver/Src/stm32f7xx_hal_dma_ex.c ****   *      this list of conditions and the following disclaimer in the documentation
  36:Drivers/STM32F7xx_HAL_Driver/Src/stm32f7xx_hal_dma_ex.c ****   *      and/or other materials provided with the distribution.
  37:Drivers/STM32F7xx_HAL_Driver/Src/stm32f7xx_hal_dma_ex.c ****   *   3. Neither the name of STMicroelectronics nor the names of its contributors
  38:Drivers/STM32F7xx_HAL_Driver/Src/stm32f7xx_hal_dma_ex.c ****   *      may be used to endorse or promote products derived from this software
  39:Drivers/STM32F7xx_HAL_Driver/Src/stm32f7xx_hal_dma_ex.c ****   *      without specific prior written permission.
  40:Drivers/STM32F7xx_HAL_Driver/Src/stm32f7xx_hal_dma_ex.c ****   *
  41:Drivers/STM32F7xx_HAL_Driver/Src/stm32f7xx_hal_dma_ex.c ****   * THIS SOFTWARE IS PROVIDED BY THE COPYRIGHT HOLDERS AND CONTRIBUTORS "AS IS"
  42:Drivers/STM32F7xx_HAL_Driver/Src/stm32f7xx_hal_dma_ex.c ****   * AND ANY EXPRESS OR IMPLIED WARRANTIES, INCLUDING, BUT NOT LIMITED TO, THE
  43:Drivers/STM32F7xx_HAL_Driver/Src/stm32f7xx_hal_dma_ex.c ****   * IMPLIED WARRANTIES OF MERCHANTABILITY AND FITNESS FOR A PARTICULAR PURPOSE ARE
  44:Drivers/STM32F7xx_HAL_Driver/Src/stm32f7xx_hal_dma_ex.c ****   * DISCLAIMED. IN NO EVENT SHALL THE COPYRIGHT HOLDER OR CONTRIBUTORS BE LIABLE
  45:Drivers/STM32F7xx_HAL_Driver/Src/stm32f7xx_hal_dma_ex.c ****   * FOR ANY DIRECT, INDIRECT, INCIDENTAL, SPECIAL, EXEMPLARY, OR CONSEQUENTIAL
  46:Drivers/STM32F7xx_HAL_Driver/Src/stm32f7xx_hal_dma_ex.c ****   * DAMAGES (INCLUDING, BUT NOT LIMITED TO, PROCUREMENT OF SUBSTITUTE GOODS OR
  47:Drivers/STM32F7xx_HAL_Driver/Src/stm32f7xx_hal_dma_ex.c ****   * SERVICES; LOSS OF USE, DATA, OR PROFITS; OR BUSINESS INTERRUPTION) HOWEVER
  48:Drivers/STM32F7xx_HAL_Driver/Src/stm32f7xx_hal_dma_ex.c ****   * CAUSED AND ON ANY THEORY OF LIABILITY, WHETHER IN CONTRACT, STRICT LIABILITY,
  49:Drivers/STM32F7xx_HAL_Driver/Src/stm32f7xx_hal_dma_ex.c ****   * OR TORT (INCLUDING NEGLIGENCE OR OTHERWISE) ARISING IN ANY WAY OUT OF THE USE
  50:Drivers/STM32F7xx_HAL_Driver/Src/stm32f7xx_hal_dma_ex.c ****   * OF THIS SOFTWARE, EVEN IF ADVISED OF THE POSSIBILITY OF SUCH DAMAGE.
  51:Drivers/STM32F7xx_HAL_Driver/Src/stm32f7xx_hal_dma_ex.c ****   *
  52:Drivers/STM32F7xx_HAL_Driver/Src/stm32f7xx_hal_dma_ex.c ****   ******************************************************************************
  53:Drivers/STM32F7xx_HAL_Driver/Src/stm32f7xx_hal_dma_ex.c ****   */
  54:Drivers/STM32F7xx_HAL_Driver/Src/stm32f7xx_hal_dma_ex.c **** 
  55:Drivers/STM32F7xx_HAL_Driver/Src/stm32f7xx_hal_dma_ex.c **** /* Includes ------------------------------------------------------------------*/
  56:Drivers/STM32F7xx_HAL_Driver/Src/stm32f7xx_hal_dma_ex.c **** #include "stm32f7xx_hal.h"
  57:Drivers/STM32F7xx_HAL_Driver/Src/stm32f7xx_hal_dma_ex.c **** 
  58:Drivers/STM32F7xx_HAL_Driver/Src/stm32f7xx_hal_dma_ex.c **** /** @addtogroup STM32F7xx_HAL_Driver
  59:Drivers/STM32F7xx_HAL_Driver/Src/stm32f7xx_hal_dma_ex.c ****   * @{
  60:Drivers/STM32F7xx_HAL_Driver/Src/stm32f7xx_hal_dma_ex.c ****   */
  61:Drivers/STM32F7xx_HAL_Driver/Src/stm32f7xx_hal_dma_ex.c **** 
  62:Drivers/STM32F7xx_HAL_Driver/Src/stm32f7xx_hal_dma_ex.c **** /** @defgroup DMAEx DMAEx
  63:Drivers/STM32F7xx_HAL_Driver/Src/stm32f7xx_hal_dma_ex.c ****   * @brief DMA Extended HAL module driver
  64:Drivers/STM32F7xx_HAL_Driver/Src/stm32f7xx_hal_dma_ex.c ****   * @{
  65:Drivers/STM32F7xx_HAL_Driver/Src/stm32f7xx_hal_dma_ex.c ****   */
  66:Drivers/STM32F7xx_HAL_Driver/Src/stm32f7xx_hal_dma_ex.c **** 
  67:Drivers/STM32F7xx_HAL_Driver/Src/stm32f7xx_hal_dma_ex.c **** #ifdef HAL_DMA_MODULE_ENABLED
  68:Drivers/STM32F7xx_HAL_Driver/Src/stm32f7xx_hal_dma_ex.c **** 
  69:Drivers/STM32F7xx_HAL_Driver/Src/stm32f7xx_hal_dma_ex.c **** /* Private types -------------------------------------------------------------*/
  70:Drivers/STM32F7xx_HAL_Driver/Src/stm32f7xx_hal_dma_ex.c **** /* Private variables ---------------------------------------------------------*/
  71:Drivers/STM32F7xx_HAL_Driver/Src/stm32f7xx_hal_dma_ex.c **** /* Private Constants ---------------------------------------------------------*/
  72:Drivers/STM32F7xx_HAL_Driver/Src/stm32f7xx_hal_dma_ex.c **** /* Private macros ------------------------------------------------------------*/
  73:Drivers/STM32F7xx_HAL_Driver/Src/stm32f7xx_hal_dma_ex.c **** /* Private functions ---------------------------------------------------------*/
  74:Drivers/STM32F7xx_HAL_Driver/Src/stm32f7xx_hal_dma_ex.c **** /** @addtogroup DMAEx_Private_Functions
  75:Drivers/STM32F7xx_HAL_Driver/Src/stm32f7xx_hal_dma_ex.c ****   * @{
  76:Drivers/STM32F7xx_HAL_Driver/Src/stm32f7xx_hal_dma_ex.c ****   */
  77:Drivers/STM32F7xx_HAL_Driver/Src/stm32f7xx_hal_dma_ex.c **** 
  78:Drivers/STM32F7xx_HAL_Driver/Src/stm32f7xx_hal_dma_ex.c **** static void DMA_MultiBufferSetConfig(DMA_HandleTypeDef *hdma, uint32_t SrcAddress, uint32_t DstAddr
  79:Drivers/STM32F7xx_HAL_Driver/Src/stm32f7xx_hal_dma_ex.c **** 
  80:Drivers/STM32F7xx_HAL_Driver/Src/stm32f7xx_hal_dma_ex.c **** /**
  81:Drivers/STM32F7xx_HAL_Driver/Src/stm32f7xx_hal_dma_ex.c ****   * @}
  82:Drivers/STM32F7xx_HAL_Driver/Src/stm32f7xx_hal_dma_ex.c ****   */
  83:Drivers/STM32F7xx_HAL_Driver/Src/stm32f7xx_hal_dma_ex.c **** 
  84:Drivers/STM32F7xx_HAL_Driver/Src/stm32f7xx_hal_dma_ex.c **** /* Exported functions ---------------------------------------------------------*/
  85:Drivers/STM32F7xx_HAL_Driver/Src/stm32f7xx_hal_dma_ex.c **** 
  86:Drivers/STM32F7xx_HAL_Driver/Src/stm32f7xx_hal_dma_ex.c **** /** @addtogroup DMAEx_Exported_Functions
  87:Drivers/STM32F7xx_HAL_Driver/Src/stm32f7xx_hal_dma_ex.c ****   * @{
ARM GAS  /tmp/ccS7nfBM.s 			page 3


  88:Drivers/STM32F7xx_HAL_Driver/Src/stm32f7xx_hal_dma_ex.c ****   */
  89:Drivers/STM32F7xx_HAL_Driver/Src/stm32f7xx_hal_dma_ex.c **** 
  90:Drivers/STM32F7xx_HAL_Driver/Src/stm32f7xx_hal_dma_ex.c **** 
  91:Drivers/STM32F7xx_HAL_Driver/Src/stm32f7xx_hal_dma_ex.c **** /** @addtogroup DMAEx_Exported_Functions_Group1
  92:Drivers/STM32F7xx_HAL_Driver/Src/stm32f7xx_hal_dma_ex.c ****   *
  93:Drivers/STM32F7xx_HAL_Driver/Src/stm32f7xx_hal_dma_ex.c **** @verbatim
  94:Drivers/STM32F7xx_HAL_Driver/Src/stm32f7xx_hal_dma_ex.c ****  ===============================================================================
  95:Drivers/STM32F7xx_HAL_Driver/Src/stm32f7xx_hal_dma_ex.c ****                 #####  Extended features functions  #####
  96:Drivers/STM32F7xx_HAL_Driver/Src/stm32f7xx_hal_dma_ex.c ****  ===============================================================================  
  97:Drivers/STM32F7xx_HAL_Driver/Src/stm32f7xx_hal_dma_ex.c ****     [..]  This section provides functions allowing to:
  98:Drivers/STM32F7xx_HAL_Driver/Src/stm32f7xx_hal_dma_ex.c ****       (+) Configure the source, destination address and data length and 
  99:Drivers/STM32F7xx_HAL_Driver/Src/stm32f7xx_hal_dma_ex.c ****           Start MultiBuffer DMA transfer
 100:Drivers/STM32F7xx_HAL_Driver/Src/stm32f7xx_hal_dma_ex.c ****       (+) Configure the source, destination address and data length and 
 101:Drivers/STM32F7xx_HAL_Driver/Src/stm32f7xx_hal_dma_ex.c ****           Start MultiBuffer DMA transfer with interrupt
 102:Drivers/STM32F7xx_HAL_Driver/Src/stm32f7xx_hal_dma_ex.c ****       (+) Change on the fly the memory0 or memory1 address.
 103:Drivers/STM32F7xx_HAL_Driver/Src/stm32f7xx_hal_dma_ex.c ****       
 104:Drivers/STM32F7xx_HAL_Driver/Src/stm32f7xx_hal_dma_ex.c **** @endverbatim
 105:Drivers/STM32F7xx_HAL_Driver/Src/stm32f7xx_hal_dma_ex.c ****   * @{
 106:Drivers/STM32F7xx_HAL_Driver/Src/stm32f7xx_hal_dma_ex.c ****   */
 107:Drivers/STM32F7xx_HAL_Driver/Src/stm32f7xx_hal_dma_ex.c **** 
 108:Drivers/STM32F7xx_HAL_Driver/Src/stm32f7xx_hal_dma_ex.c **** 
 109:Drivers/STM32F7xx_HAL_Driver/Src/stm32f7xx_hal_dma_ex.c **** /**
 110:Drivers/STM32F7xx_HAL_Driver/Src/stm32f7xx_hal_dma_ex.c ****   * @brief  Starts the multi_buffer DMA Transfer.
 111:Drivers/STM32F7xx_HAL_Driver/Src/stm32f7xx_hal_dma_ex.c ****   * @param  hdma       pointer to a DMA_HandleTypeDef structure that contains
 112:Drivers/STM32F7xx_HAL_Driver/Src/stm32f7xx_hal_dma_ex.c ****   *                     the configuration information for the specified DMA Stream.  
 113:Drivers/STM32F7xx_HAL_Driver/Src/stm32f7xx_hal_dma_ex.c ****   * @param  SrcAddress The source memory Buffer address
 114:Drivers/STM32F7xx_HAL_Driver/Src/stm32f7xx_hal_dma_ex.c ****   * @param  DstAddress The destination memory Buffer address
 115:Drivers/STM32F7xx_HAL_Driver/Src/stm32f7xx_hal_dma_ex.c ****   * @param  SecondMemAddress The second memory Buffer address in case of multi buffer Transfer  
 116:Drivers/STM32F7xx_HAL_Driver/Src/stm32f7xx_hal_dma_ex.c ****   * @param  DataLength The length of data to be transferred from source to destination
 117:Drivers/STM32F7xx_HAL_Driver/Src/stm32f7xx_hal_dma_ex.c ****   * @retval HAL status
 118:Drivers/STM32F7xx_HAL_Driver/Src/stm32f7xx_hal_dma_ex.c ****   */
 119:Drivers/STM32F7xx_HAL_Driver/Src/stm32f7xx_hal_dma_ex.c **** HAL_StatusTypeDef HAL_DMAEx_MultiBufferStart(DMA_HandleTypeDef *hdma, uint32_t SrcAddress, uint32_t
 120:Drivers/STM32F7xx_HAL_Driver/Src/stm32f7xx_hal_dma_ex.c **** {
  29              		.loc 1 120 0
  30              		.cfi_startproc
  31              		@ args = 4, pretend = 0, frame = 0
  32              		@ frame_needed = 0, uses_anonymous_args = 0
  33              		@ link register save eliminated.
  34              	.LVL0:
  35 0000 70B4     		push	{r4, r5, r6}
  36              	.LCFI0:
  37              		.cfi_def_cfa_offset 12
  38              		.cfi_offset 4, -12
  39              		.cfi_offset 5, -8
  40              		.cfi_offset 6, -4
 121:Drivers/STM32F7xx_HAL_Driver/Src/stm32f7xx_hal_dma_ex.c ****   HAL_StatusTypeDef status = HAL_OK;
 122:Drivers/STM32F7xx_HAL_Driver/Src/stm32f7xx_hal_dma_ex.c ****   
 123:Drivers/STM32F7xx_HAL_Driver/Src/stm32f7xx_hal_dma_ex.c ****   /* Check the parameters */
 124:Drivers/STM32F7xx_HAL_Driver/Src/stm32f7xx_hal_dma_ex.c ****   assert_param(IS_DMA_BUFFER_SIZE(DataLength));
 125:Drivers/STM32F7xx_HAL_Driver/Src/stm32f7xx_hal_dma_ex.c ****   
 126:Drivers/STM32F7xx_HAL_Driver/Src/stm32f7xx_hal_dma_ex.c ****   /* Memory-to-memory transfer not supported in double buffering mode */
 127:Drivers/STM32F7xx_HAL_Driver/Src/stm32f7xx_hal_dma_ex.c ****   if (hdma->Init.Direction == DMA_MEMORY_TO_MEMORY)
  41              		.loc 1 127 0
  42 0002 8568     		ldr	r5, [r0, #8]
  43 0004 802D     		cmp	r5, #128
  44 0006 25D0     		beq	.L10
 128:Drivers/STM32F7xx_HAL_Driver/Src/stm32f7xx_hal_dma_ex.c ****   {
ARM GAS  /tmp/ccS7nfBM.s 			page 4


 129:Drivers/STM32F7xx_HAL_Driver/Src/stm32f7xx_hal_dma_ex.c ****     hdma->ErrorCode = HAL_DMA_ERROR_NOT_SUPPORTED;
 130:Drivers/STM32F7xx_HAL_Driver/Src/stm32f7xx_hal_dma_ex.c ****     status = HAL_ERROR;
 131:Drivers/STM32F7xx_HAL_Driver/Src/stm32f7xx_hal_dma_ex.c ****   }
 132:Drivers/STM32F7xx_HAL_Driver/Src/stm32f7xx_hal_dma_ex.c ****   else
 133:Drivers/STM32F7xx_HAL_Driver/Src/stm32f7xx_hal_dma_ex.c ****   {
 134:Drivers/STM32F7xx_HAL_Driver/Src/stm32f7xx_hal_dma_ex.c ****     /* Process Locked */
 135:Drivers/STM32F7xx_HAL_Driver/Src/stm32f7xx_hal_dma_ex.c ****     __HAL_LOCK(hdma);
  45              		.loc 1 135 0
  46 0008 90F83440 		ldrb	r4, [r0, #52]	@ zero_extendqisi2
  47 000c 012C     		cmp	r4, #1
  48 000e 1DD0     		beq	.L5
  49              		.loc 1 135 0 is_stmt 0 discriminator 2
  50 0010 0126     		movs	r6, #1
 136:Drivers/STM32F7xx_HAL_Driver/Src/stm32f7xx_hal_dma_ex.c ****     
 137:Drivers/STM32F7xx_HAL_Driver/Src/stm32f7xx_hal_dma_ex.c ****     if(HAL_DMA_STATE_READY == hdma->State)
  51              		.loc 1 137 0 is_stmt 1 discriminator 2
  52 0012 90F83540 		ldrb	r4, [r0, #53]	@ zero_extendqisi2
  53 0016 B442     		cmp	r4, r6
 135:Drivers/STM32F7xx_HAL_Driver/Src/stm32f7xx_hal_dma_ex.c ****     
  54              		.loc 1 135 0 discriminator 2
  55 0018 80F83460 		strb	r6, [r0, #52]
  56              		.loc 1 137 0 discriminator 2
  57 001c 16D1     		bne	.L5
 138:Drivers/STM32F7xx_HAL_Driver/Src/stm32f7xx_hal_dma_ex.c ****     {
 139:Drivers/STM32F7xx_HAL_Driver/Src/stm32f7xx_hal_dma_ex.c ****       /* Change DMA peripheral state */
 140:Drivers/STM32F7xx_HAL_Driver/Src/stm32f7xx_hal_dma_ex.c ****       hdma->State = HAL_DMA_STATE_BUSY; 
 141:Drivers/STM32F7xx_HAL_Driver/Src/stm32f7xx_hal_dma_ex.c ****       
 142:Drivers/STM32F7xx_HAL_Driver/Src/stm32f7xx_hal_dma_ex.c ****       /* Enable the double buffer mode */
 143:Drivers/STM32F7xx_HAL_Driver/Src/stm32f7xx_hal_dma_ex.c ****       hdma->Instance->CR |= (uint32_t)DMA_SxCR_DBM;
  58              		.loc 1 143 0
  59 001e 0468     		ldr	r4, [r0]
 140:Drivers/STM32F7xx_HAL_Driver/Src/stm32f7xx_hal_dma_ex.c ****       
  60              		.loc 1 140 0
  61 0020 0226     		movs	r6, #2
  62              	.LBB6:
  63              	.LBB7:
 144:Drivers/STM32F7xx_HAL_Driver/Src/stm32f7xx_hal_dma_ex.c ****       
 145:Drivers/STM32F7xx_HAL_Driver/Src/stm32f7xx_hal_dma_ex.c ****       /* Configure DMA Stream destination address */
 146:Drivers/STM32F7xx_HAL_Driver/Src/stm32f7xx_hal_dma_ex.c ****       hdma->Instance->M1AR = SecondMemAddress;
 147:Drivers/STM32F7xx_HAL_Driver/Src/stm32f7xx_hal_dma_ex.c ****       
 148:Drivers/STM32F7xx_HAL_Driver/Src/stm32f7xx_hal_dma_ex.c ****       /* Configure the source, destination address and the data length */
 149:Drivers/STM32F7xx_HAL_Driver/Src/stm32f7xx_hal_dma_ex.c ****       DMA_MultiBufferSetConfig(hdma, SrcAddress, DstAddress, DataLength);
 150:Drivers/STM32F7xx_HAL_Driver/Src/stm32f7xx_hal_dma_ex.c ****       
 151:Drivers/STM32F7xx_HAL_Driver/Src/stm32f7xx_hal_dma_ex.c ****       /* Enable the peripheral */
 152:Drivers/STM32F7xx_HAL_Driver/Src/stm32f7xx_hal_dma_ex.c ****       __HAL_DMA_ENABLE(hdma);
 153:Drivers/STM32F7xx_HAL_Driver/Src/stm32f7xx_hal_dma_ex.c ****     }
 154:Drivers/STM32F7xx_HAL_Driver/Src/stm32f7xx_hal_dma_ex.c ****     else
 155:Drivers/STM32F7xx_HAL_Driver/Src/stm32f7xx_hal_dma_ex.c ****     {
 156:Drivers/STM32F7xx_HAL_Driver/Src/stm32f7xx_hal_dma_ex.c ****       /* Return error status */
 157:Drivers/STM32F7xx_HAL_Driver/Src/stm32f7xx_hal_dma_ex.c ****       status = HAL_BUSY;
 158:Drivers/STM32F7xx_HAL_Driver/Src/stm32f7xx_hal_dma_ex.c ****     }
 159:Drivers/STM32F7xx_HAL_Driver/Src/stm32f7xx_hal_dma_ex.c ****   }
 160:Drivers/STM32F7xx_HAL_Driver/Src/stm32f7xx_hal_dma_ex.c ****   return status;
 161:Drivers/STM32F7xx_HAL_Driver/Src/stm32f7xx_hal_dma_ex.c **** }
 162:Drivers/STM32F7xx_HAL_Driver/Src/stm32f7xx_hal_dma_ex.c **** 
 163:Drivers/STM32F7xx_HAL_Driver/Src/stm32f7xx_hal_dma_ex.c **** /**
 164:Drivers/STM32F7xx_HAL_Driver/Src/stm32f7xx_hal_dma_ex.c ****   * @brief  Starts the multi_buffer DMA Transfer with interrupt enabled.
ARM GAS  /tmp/ccS7nfBM.s 			page 5


 165:Drivers/STM32F7xx_HAL_Driver/Src/stm32f7xx_hal_dma_ex.c ****   * @param  hdma       pointer to a DMA_HandleTypeDef structure that contains
 166:Drivers/STM32F7xx_HAL_Driver/Src/stm32f7xx_hal_dma_ex.c ****   *                     the configuration information for the specified DMA Stream.  
 167:Drivers/STM32F7xx_HAL_Driver/Src/stm32f7xx_hal_dma_ex.c ****   * @param  SrcAddress The source memory Buffer address
 168:Drivers/STM32F7xx_HAL_Driver/Src/stm32f7xx_hal_dma_ex.c ****   * @param  DstAddress The destination memory Buffer address
 169:Drivers/STM32F7xx_HAL_Driver/Src/stm32f7xx_hal_dma_ex.c ****   * @param  SecondMemAddress The second memory Buffer address in case of multi buffer Transfer  
 170:Drivers/STM32F7xx_HAL_Driver/Src/stm32f7xx_hal_dma_ex.c ****   * @param  DataLength The length of data to be transferred from source to destination
 171:Drivers/STM32F7xx_HAL_Driver/Src/stm32f7xx_hal_dma_ex.c ****   * @retval HAL status
 172:Drivers/STM32F7xx_HAL_Driver/Src/stm32f7xx_hal_dma_ex.c ****   */
 173:Drivers/STM32F7xx_HAL_Driver/Src/stm32f7xx_hal_dma_ex.c **** HAL_StatusTypeDef HAL_DMAEx_MultiBufferStart_IT(DMA_HandleTypeDef *hdma, uint32_t SrcAddress, uint3
 174:Drivers/STM32F7xx_HAL_Driver/Src/stm32f7xx_hal_dma_ex.c **** {
 175:Drivers/STM32F7xx_HAL_Driver/Src/stm32f7xx_hal_dma_ex.c ****   HAL_StatusTypeDef status = HAL_OK;
 176:Drivers/STM32F7xx_HAL_Driver/Src/stm32f7xx_hal_dma_ex.c ****   
 177:Drivers/STM32F7xx_HAL_Driver/Src/stm32f7xx_hal_dma_ex.c ****   /* Check the parameters */
 178:Drivers/STM32F7xx_HAL_Driver/Src/stm32f7xx_hal_dma_ex.c ****   assert_param(IS_DMA_BUFFER_SIZE(DataLength));
 179:Drivers/STM32F7xx_HAL_Driver/Src/stm32f7xx_hal_dma_ex.c ****   
 180:Drivers/STM32F7xx_HAL_Driver/Src/stm32f7xx_hal_dma_ex.c ****   /* Memory-to-memory transfer not supported in double buffering mode */
 181:Drivers/STM32F7xx_HAL_Driver/Src/stm32f7xx_hal_dma_ex.c ****   if (hdma->Init.Direction == DMA_MEMORY_TO_MEMORY)
 182:Drivers/STM32F7xx_HAL_Driver/Src/stm32f7xx_hal_dma_ex.c ****   {
 183:Drivers/STM32F7xx_HAL_Driver/Src/stm32f7xx_hal_dma_ex.c ****     hdma->ErrorCode = HAL_DMA_ERROR_NOT_SUPPORTED;
 184:Drivers/STM32F7xx_HAL_Driver/Src/stm32f7xx_hal_dma_ex.c ****     return HAL_ERROR;
 185:Drivers/STM32F7xx_HAL_Driver/Src/stm32f7xx_hal_dma_ex.c ****   }
 186:Drivers/STM32F7xx_HAL_Driver/Src/stm32f7xx_hal_dma_ex.c ****   
 187:Drivers/STM32F7xx_HAL_Driver/Src/stm32f7xx_hal_dma_ex.c ****   /* Process locked */
 188:Drivers/STM32F7xx_HAL_Driver/Src/stm32f7xx_hal_dma_ex.c ****   __HAL_LOCK(hdma);
 189:Drivers/STM32F7xx_HAL_Driver/Src/stm32f7xx_hal_dma_ex.c ****   
 190:Drivers/STM32F7xx_HAL_Driver/Src/stm32f7xx_hal_dma_ex.c ****   if(HAL_DMA_STATE_READY == hdma->State)
 191:Drivers/STM32F7xx_HAL_Driver/Src/stm32f7xx_hal_dma_ex.c ****   {
 192:Drivers/STM32F7xx_HAL_Driver/Src/stm32f7xx_hal_dma_ex.c ****     /* Change DMA peripheral state */
 193:Drivers/STM32F7xx_HAL_Driver/Src/stm32f7xx_hal_dma_ex.c ****     hdma->State = HAL_DMA_STATE_BUSY;
 194:Drivers/STM32F7xx_HAL_Driver/Src/stm32f7xx_hal_dma_ex.c ****     
 195:Drivers/STM32F7xx_HAL_Driver/Src/stm32f7xx_hal_dma_ex.c ****     /* Initialize the error code */
 196:Drivers/STM32F7xx_HAL_Driver/Src/stm32f7xx_hal_dma_ex.c ****     hdma->ErrorCode = HAL_DMA_ERROR_NONE;
 197:Drivers/STM32F7xx_HAL_Driver/Src/stm32f7xx_hal_dma_ex.c ****     
 198:Drivers/STM32F7xx_HAL_Driver/Src/stm32f7xx_hal_dma_ex.c ****     /* Enable the Double buffer mode */
 199:Drivers/STM32F7xx_HAL_Driver/Src/stm32f7xx_hal_dma_ex.c ****     hdma->Instance->CR |= (uint32_t)DMA_SxCR_DBM;
 200:Drivers/STM32F7xx_HAL_Driver/Src/stm32f7xx_hal_dma_ex.c ****     
 201:Drivers/STM32F7xx_HAL_Driver/Src/stm32f7xx_hal_dma_ex.c ****     /* Configure DMA Stream destination address */
 202:Drivers/STM32F7xx_HAL_Driver/Src/stm32f7xx_hal_dma_ex.c ****     hdma->Instance->M1AR = SecondMemAddress;
 203:Drivers/STM32F7xx_HAL_Driver/Src/stm32f7xx_hal_dma_ex.c ****     
 204:Drivers/STM32F7xx_HAL_Driver/Src/stm32f7xx_hal_dma_ex.c ****     /* Configure the source, destination address and the data length */
 205:Drivers/STM32F7xx_HAL_Driver/Src/stm32f7xx_hal_dma_ex.c ****     DMA_MultiBufferSetConfig(hdma, SrcAddress, DstAddress, DataLength); 
 206:Drivers/STM32F7xx_HAL_Driver/Src/stm32f7xx_hal_dma_ex.c ****     
 207:Drivers/STM32F7xx_HAL_Driver/Src/stm32f7xx_hal_dma_ex.c ****     /* Clear all flags */
 208:Drivers/STM32F7xx_HAL_Driver/Src/stm32f7xx_hal_dma_ex.c ****     __HAL_DMA_CLEAR_FLAG (hdma, __HAL_DMA_GET_TC_FLAG_INDEX(hdma));
 209:Drivers/STM32F7xx_HAL_Driver/Src/stm32f7xx_hal_dma_ex.c ****     __HAL_DMA_CLEAR_FLAG (hdma, __HAL_DMA_GET_HT_FLAG_INDEX(hdma));
 210:Drivers/STM32F7xx_HAL_Driver/Src/stm32f7xx_hal_dma_ex.c ****     __HAL_DMA_CLEAR_FLAG (hdma, __HAL_DMA_GET_TE_FLAG_INDEX(hdma));
 211:Drivers/STM32F7xx_HAL_Driver/Src/stm32f7xx_hal_dma_ex.c ****     __HAL_DMA_CLEAR_FLAG (hdma, __HAL_DMA_GET_DME_FLAG_INDEX(hdma));
 212:Drivers/STM32F7xx_HAL_Driver/Src/stm32f7xx_hal_dma_ex.c ****     __HAL_DMA_CLEAR_FLAG (hdma, __HAL_DMA_GET_FE_FLAG_INDEX(hdma));
 213:Drivers/STM32F7xx_HAL_Driver/Src/stm32f7xx_hal_dma_ex.c ****     
 214:Drivers/STM32F7xx_HAL_Driver/Src/stm32f7xx_hal_dma_ex.c ****     /* Enable Common interrupts*/
 215:Drivers/STM32F7xx_HAL_Driver/Src/stm32f7xx_hal_dma_ex.c ****     hdma->Instance->CR  |= DMA_IT_TC | DMA_IT_TE | DMA_IT_DME;
 216:Drivers/STM32F7xx_HAL_Driver/Src/stm32f7xx_hal_dma_ex.c ****     hdma->Instance->FCR |= DMA_IT_FE;
 217:Drivers/STM32F7xx_HAL_Driver/Src/stm32f7xx_hal_dma_ex.c ****     
 218:Drivers/STM32F7xx_HAL_Driver/Src/stm32f7xx_hal_dma_ex.c ****     if((hdma->XferHalfCpltCallback != NULL) || (hdma->XferM1HalfCpltCallback != NULL))
 219:Drivers/STM32F7xx_HAL_Driver/Src/stm32f7xx_hal_dma_ex.c ****     {
 220:Drivers/STM32F7xx_HAL_Driver/Src/stm32f7xx_hal_dma_ex.c ****       hdma->Instance->CR  |= DMA_IT_HT;
 221:Drivers/STM32F7xx_HAL_Driver/Src/stm32f7xx_hal_dma_ex.c ****     }
ARM GAS  /tmp/ccS7nfBM.s 			page 6


 222:Drivers/STM32F7xx_HAL_Driver/Src/stm32f7xx_hal_dma_ex.c ****     
 223:Drivers/STM32F7xx_HAL_Driver/Src/stm32f7xx_hal_dma_ex.c ****     /* Enable the peripheral */
 224:Drivers/STM32F7xx_HAL_Driver/Src/stm32f7xx_hal_dma_ex.c ****     __HAL_DMA_ENABLE(hdma); 
 225:Drivers/STM32F7xx_HAL_Driver/Src/stm32f7xx_hal_dma_ex.c ****   }
 226:Drivers/STM32F7xx_HAL_Driver/Src/stm32f7xx_hal_dma_ex.c ****   else
 227:Drivers/STM32F7xx_HAL_Driver/Src/stm32f7xx_hal_dma_ex.c ****   {     
 228:Drivers/STM32F7xx_HAL_Driver/Src/stm32f7xx_hal_dma_ex.c ****     /* Process unlocked */
 229:Drivers/STM32F7xx_HAL_Driver/Src/stm32f7xx_hal_dma_ex.c ****     __HAL_UNLOCK(hdma);	  
 230:Drivers/STM32F7xx_HAL_Driver/Src/stm32f7xx_hal_dma_ex.c ****     
 231:Drivers/STM32F7xx_HAL_Driver/Src/stm32f7xx_hal_dma_ex.c ****     /* Return error status */
 232:Drivers/STM32F7xx_HAL_Driver/Src/stm32f7xx_hal_dma_ex.c ****     status = HAL_BUSY;
 233:Drivers/STM32F7xx_HAL_Driver/Src/stm32f7xx_hal_dma_ex.c ****   }  
 234:Drivers/STM32F7xx_HAL_Driver/Src/stm32f7xx_hal_dma_ex.c ****   return status; 
 235:Drivers/STM32F7xx_HAL_Driver/Src/stm32f7xx_hal_dma_ex.c **** }
 236:Drivers/STM32F7xx_HAL_Driver/Src/stm32f7xx_hal_dma_ex.c **** 
 237:Drivers/STM32F7xx_HAL_Driver/Src/stm32f7xx_hal_dma_ex.c **** /**
 238:Drivers/STM32F7xx_HAL_Driver/Src/stm32f7xx_hal_dma_ex.c ****   * @brief  Change the memory0 or memory1 address on the fly.
 239:Drivers/STM32F7xx_HAL_Driver/Src/stm32f7xx_hal_dma_ex.c ****   * @param  hdma       pointer to a DMA_HandleTypeDef structure that contains
 240:Drivers/STM32F7xx_HAL_Driver/Src/stm32f7xx_hal_dma_ex.c ****   *                     the configuration information for the specified DMA Stream.  
 241:Drivers/STM32F7xx_HAL_Driver/Src/stm32f7xx_hal_dma_ex.c ****   * @param  Address    The new address
 242:Drivers/STM32F7xx_HAL_Driver/Src/stm32f7xx_hal_dma_ex.c ****   * @param  memory     the memory to be changed, This parameter can be one of 
 243:Drivers/STM32F7xx_HAL_Driver/Src/stm32f7xx_hal_dma_ex.c ****   *                     the following values:
 244:Drivers/STM32F7xx_HAL_Driver/Src/stm32f7xx_hal_dma_ex.c ****   *                      MEMORY0 /
 245:Drivers/STM32F7xx_HAL_Driver/Src/stm32f7xx_hal_dma_ex.c ****   *                      MEMORY1
 246:Drivers/STM32F7xx_HAL_Driver/Src/stm32f7xx_hal_dma_ex.c ****   * @note   The MEMORY0 address can be changed only when the current transfer use
 247:Drivers/STM32F7xx_HAL_Driver/Src/stm32f7xx_hal_dma_ex.c ****   *         MEMORY1 and the MEMORY1 address can be changed only when the current 
 248:Drivers/STM32F7xx_HAL_Driver/Src/stm32f7xx_hal_dma_ex.c ****   *         transfer use MEMORY0.
 249:Drivers/STM32F7xx_HAL_Driver/Src/stm32f7xx_hal_dma_ex.c ****   * @retval HAL status
 250:Drivers/STM32F7xx_HAL_Driver/Src/stm32f7xx_hal_dma_ex.c ****   */
 251:Drivers/STM32F7xx_HAL_Driver/Src/stm32f7xx_hal_dma_ex.c **** HAL_StatusTypeDef HAL_DMAEx_ChangeMemory(DMA_HandleTypeDef *hdma, uint32_t Address, HAL_DMA_MemoryT
 252:Drivers/STM32F7xx_HAL_Driver/Src/stm32f7xx_hal_dma_ex.c **** {
 253:Drivers/STM32F7xx_HAL_Driver/Src/stm32f7xx_hal_dma_ex.c ****   if(memory == MEMORY0)
 254:Drivers/STM32F7xx_HAL_Driver/Src/stm32f7xx_hal_dma_ex.c ****   {
 255:Drivers/STM32F7xx_HAL_Driver/Src/stm32f7xx_hal_dma_ex.c ****     /* change the memory0 address */
 256:Drivers/STM32F7xx_HAL_Driver/Src/stm32f7xx_hal_dma_ex.c ****     hdma->Instance->M0AR = Address;
 257:Drivers/STM32F7xx_HAL_Driver/Src/stm32f7xx_hal_dma_ex.c ****   }
 258:Drivers/STM32F7xx_HAL_Driver/Src/stm32f7xx_hal_dma_ex.c ****   else
 259:Drivers/STM32F7xx_HAL_Driver/Src/stm32f7xx_hal_dma_ex.c ****   {
 260:Drivers/STM32F7xx_HAL_Driver/Src/stm32f7xx_hal_dma_ex.c ****     /* change the memory1 address */
 261:Drivers/STM32F7xx_HAL_Driver/Src/stm32f7xx_hal_dma_ex.c ****     hdma->Instance->M1AR = Address;
 262:Drivers/STM32F7xx_HAL_Driver/Src/stm32f7xx_hal_dma_ex.c ****   }
 263:Drivers/STM32F7xx_HAL_Driver/Src/stm32f7xx_hal_dma_ex.c ****   
 264:Drivers/STM32F7xx_HAL_Driver/Src/stm32f7xx_hal_dma_ex.c ****   return HAL_OK;
 265:Drivers/STM32F7xx_HAL_Driver/Src/stm32f7xx_hal_dma_ex.c **** }
 266:Drivers/STM32F7xx_HAL_Driver/Src/stm32f7xx_hal_dma_ex.c **** 
 267:Drivers/STM32F7xx_HAL_Driver/Src/stm32f7xx_hal_dma_ex.c **** /**
 268:Drivers/STM32F7xx_HAL_Driver/Src/stm32f7xx_hal_dma_ex.c ****   * @}
 269:Drivers/STM32F7xx_HAL_Driver/Src/stm32f7xx_hal_dma_ex.c ****   */
 270:Drivers/STM32F7xx_HAL_Driver/Src/stm32f7xx_hal_dma_ex.c **** 
 271:Drivers/STM32F7xx_HAL_Driver/Src/stm32f7xx_hal_dma_ex.c **** /**
 272:Drivers/STM32F7xx_HAL_Driver/Src/stm32f7xx_hal_dma_ex.c ****   * @}
 273:Drivers/STM32F7xx_HAL_Driver/Src/stm32f7xx_hal_dma_ex.c ****   */
 274:Drivers/STM32F7xx_HAL_Driver/Src/stm32f7xx_hal_dma_ex.c **** 
 275:Drivers/STM32F7xx_HAL_Driver/Src/stm32f7xx_hal_dma_ex.c **** /** @addtogroup DMAEx_Private_Functions
 276:Drivers/STM32F7xx_HAL_Driver/Src/stm32f7xx_hal_dma_ex.c ****   * @{
 277:Drivers/STM32F7xx_HAL_Driver/Src/stm32f7xx_hal_dma_ex.c ****   */
 278:Drivers/STM32F7xx_HAL_Driver/Src/stm32f7xx_hal_dma_ex.c **** 
ARM GAS  /tmp/ccS7nfBM.s 			page 7


 279:Drivers/STM32F7xx_HAL_Driver/Src/stm32f7xx_hal_dma_ex.c **** /**
 280:Drivers/STM32F7xx_HAL_Driver/Src/stm32f7xx_hal_dma_ex.c ****   * @brief  Set the DMA Transfer parameter.
 281:Drivers/STM32F7xx_HAL_Driver/Src/stm32f7xx_hal_dma_ex.c ****   * @param  hdma       pointer to a DMA_HandleTypeDef structure that contains
 282:Drivers/STM32F7xx_HAL_Driver/Src/stm32f7xx_hal_dma_ex.c ****   *                     the configuration information for the specified DMA Stream.  
 283:Drivers/STM32F7xx_HAL_Driver/Src/stm32f7xx_hal_dma_ex.c ****   * @param  SrcAddress The source memory Buffer address
 284:Drivers/STM32F7xx_HAL_Driver/Src/stm32f7xx_hal_dma_ex.c ****   * @param  DstAddress The destination memory Buffer address
 285:Drivers/STM32F7xx_HAL_Driver/Src/stm32f7xx_hal_dma_ex.c ****   * @param  DataLength The length of data to be transferred from source to destination
 286:Drivers/STM32F7xx_HAL_Driver/Src/stm32f7xx_hal_dma_ex.c ****   * @retval HAL status
 287:Drivers/STM32F7xx_HAL_Driver/Src/stm32f7xx_hal_dma_ex.c ****   */
 288:Drivers/STM32F7xx_HAL_Driver/Src/stm32f7xx_hal_dma_ex.c **** static void DMA_MultiBufferSetConfig(DMA_HandleTypeDef *hdma, uint32_t SrcAddress, uint32_t DstAddr
 289:Drivers/STM32F7xx_HAL_Driver/Src/stm32f7xx_hal_dma_ex.c **** {
 290:Drivers/STM32F7xx_HAL_Driver/Src/stm32f7xx_hal_dma_ex.c ****   /* Configure DMA Stream data length */
 291:Drivers/STM32F7xx_HAL_Driver/Src/stm32f7xx_hal_dma_ex.c ****   hdma->Instance->NDTR = DataLength;
 292:Drivers/STM32F7xx_HAL_Driver/Src/stm32f7xx_hal_dma_ex.c ****   
 293:Drivers/STM32F7xx_HAL_Driver/Src/stm32f7xx_hal_dma_ex.c ****   /* Peripheral to Memory */
 294:Drivers/STM32F7xx_HAL_Driver/Src/stm32f7xx_hal_dma_ex.c ****   if((hdma->Init.Direction) == DMA_MEMORY_TO_PERIPH)
  64              		.loc 1 294 0
  65 0022 402D     		cmp	r5, #64
  66              	.LBE7:
  67              	.LBE6:
 140:Drivers/STM32F7xx_HAL_Driver/Src/stm32f7xx_hal_dma_ex.c ****       
  68              		.loc 1 140 0
  69 0024 80F83560 		strb	r6, [r0, #53]
 143:Drivers/STM32F7xx_HAL_Driver/Src/stm32f7xx_hal_dma_ex.c ****       
  70              		.loc 1 143 0
  71 0028 2068     		ldr	r0, [r4]
  72              	.LVL1:
  73 002a 40F48020 		orr	r0, r0, #262144
  74 002e 2060     		str	r0, [r4]
 146:Drivers/STM32F7xx_HAL_Driver/Src/stm32f7xx_hal_dma_ex.c ****       
  75              		.loc 1 146 0
  76 0030 2361     		str	r3, [r4, #16]
  77              	.LVL2:
  78              	.LBB10:
  79              	.LBB8:
 291:Drivers/STM32F7xx_HAL_Driver/Src/stm32f7xx_hal_dma_ex.c ****   
  80              		.loc 1 291 0
  81 0032 039B     		ldr	r3, [sp, #12]
  82              	.LVL3:
  83 0034 6360     		str	r3, [r4, #4]
  84              	.LVL4:
  85              		.loc 1 294 0
  86 0036 14D0     		beq	.L11
 295:Drivers/STM32F7xx_HAL_Driver/Src/stm32f7xx_hal_dma_ex.c ****   {
 296:Drivers/STM32F7xx_HAL_Driver/Src/stm32f7xx_hal_dma_ex.c ****     /* Configure DMA Stream destination address */
 297:Drivers/STM32F7xx_HAL_Driver/Src/stm32f7xx_hal_dma_ex.c ****     hdma->Instance->PAR = DstAddress;
 298:Drivers/STM32F7xx_HAL_Driver/Src/stm32f7xx_hal_dma_ex.c ****     
 299:Drivers/STM32F7xx_HAL_Driver/Src/stm32f7xx_hal_dma_ex.c ****     /* Configure DMA Stream source address */
 300:Drivers/STM32F7xx_HAL_Driver/Src/stm32f7xx_hal_dma_ex.c ****     hdma->Instance->M0AR = SrcAddress;
 301:Drivers/STM32F7xx_HAL_Driver/Src/stm32f7xx_hal_dma_ex.c ****   }
 302:Drivers/STM32F7xx_HAL_Driver/Src/stm32f7xx_hal_dma_ex.c ****   /* Memory to Peripheral */
 303:Drivers/STM32F7xx_HAL_Driver/Src/stm32f7xx_hal_dma_ex.c ****   else
 304:Drivers/STM32F7xx_HAL_Driver/Src/stm32f7xx_hal_dma_ex.c ****   {
 305:Drivers/STM32F7xx_HAL_Driver/Src/stm32f7xx_hal_dma_ex.c ****     /* Configure DMA Stream source address */
 306:Drivers/STM32F7xx_HAL_Driver/Src/stm32f7xx_hal_dma_ex.c ****     hdma->Instance->PAR = SrcAddress;
  87              		.loc 1 306 0
  88 0038 A160     		str	r1, [r4, #8]
ARM GAS  /tmp/ccS7nfBM.s 			page 8


 307:Drivers/STM32F7xx_HAL_Driver/Src/stm32f7xx_hal_dma_ex.c ****     
 308:Drivers/STM32F7xx_HAL_Driver/Src/stm32f7xx_hal_dma_ex.c ****     /* Configure DMA Stream destination address */
 309:Drivers/STM32F7xx_HAL_Driver/Src/stm32f7xx_hal_dma_ex.c ****     hdma->Instance->M0AR = DstAddress;
  89              		.loc 1 309 0
  90 003a E260     		str	r2, [r4, #12]
  91              	.L7:
  92              	.LVL5:
  93              	.LBE8:
  94              	.LBE10:
 152:Drivers/STM32F7xx_HAL_Driver/Src/stm32f7xx_hal_dma_ex.c ****     }
  95              		.loc 1 152 0
  96 003c 2268     		ldr	r2, [r4]
  97              	.LVL6:
 121:Drivers/STM32F7xx_HAL_Driver/Src/stm32f7xx_hal_dma_ex.c ****   
  98              		.loc 1 121 0
  99 003e 0023     		movs	r3, #0
 152:Drivers/STM32F7xx_HAL_Driver/Src/stm32f7xx_hal_dma_ex.c ****     }
 100              		.loc 1 152 0
 101 0040 42F00102 		orr	r2, r2, #1
 161:Drivers/STM32F7xx_HAL_Driver/Src/stm32f7xx_hal_dma_ex.c **** 
 102              		.loc 1 161 0
 103 0044 1846     		mov	r0, r3
 152:Drivers/STM32F7xx_HAL_Driver/Src/stm32f7xx_hal_dma_ex.c ****     }
 104              		.loc 1 152 0
 105 0046 2260     		str	r2, [r4]
 161:Drivers/STM32F7xx_HAL_Driver/Src/stm32f7xx_hal_dma_ex.c **** 
 106              		.loc 1 161 0
 107 0048 70BC     		pop	{r4, r5, r6}
 108              	.LCFI1:
 109              		.cfi_remember_state
 110              		.cfi_restore 6
 111              		.cfi_restore 5
 112              		.cfi_restore 4
 113              		.cfi_def_cfa_offset 0
 114              	.LVL7:
 115 004a 7047     		bx	lr
 116              	.LVL8:
 117              	.L5:
 118              	.LCFI2:
 119              		.cfi_restore_state
 135:Drivers/STM32F7xx_HAL_Driver/Src/stm32f7xx_hal_dma_ex.c ****     
 120              		.loc 1 135 0
 121 004c 0223     		movs	r3, #2
 122              	.LVL9:
 161:Drivers/STM32F7xx_HAL_Driver/Src/stm32f7xx_hal_dma_ex.c **** 
 123              		.loc 1 161 0
 124 004e 70BC     		pop	{r4, r5, r6}
 125              	.LCFI3:
 126              		.cfi_remember_state
 127              		.cfi_restore 6
 128              		.cfi_restore 5
 129              		.cfi_restore 4
 130              		.cfi_def_cfa_offset 0
 131              	.LVL10:
 132 0050 1846     		mov	r0, r3
 133              	.LVL11:
 134 0052 7047     		bx	lr
ARM GAS  /tmp/ccS7nfBM.s 			page 9


 135              	.LVL12:
 136              	.L10:
 137              	.LCFI4:
 138              		.cfi_restore_state
 129:Drivers/STM32F7xx_HAL_Driver/Src/stm32f7xx_hal_dma_ex.c ****     status = HAL_ERROR;
 139              		.loc 1 129 0
 140 0054 4FF48072 		mov	r2, #256
 141              	.LVL13:
 130:Drivers/STM32F7xx_HAL_Driver/Src/stm32f7xx_hal_dma_ex.c ****   }
 142              		.loc 1 130 0
 143 0058 0123     		movs	r3, #1
 144              	.LVL14:
 129:Drivers/STM32F7xx_HAL_Driver/Src/stm32f7xx_hal_dma_ex.c ****     status = HAL_ERROR;
 145              		.loc 1 129 0
 146 005a 4265     		str	r2, [r0, #84]
 147              	.LVL15:
 161:Drivers/STM32F7xx_HAL_Driver/Src/stm32f7xx_hal_dma_ex.c **** 
 148              		.loc 1 161 0
 149 005c 1846     		mov	r0, r3
 150              	.LVL16:
 151 005e 70BC     		pop	{r4, r5, r6}
 152              	.LCFI5:
 153              		.cfi_remember_state
 154              		.cfi_restore 6
 155              		.cfi_restore 5
 156              		.cfi_restore 4
 157              		.cfi_def_cfa_offset 0
 158              	.LVL17:
 159 0060 7047     		bx	lr
 160              	.LVL18:
 161              	.L11:
 162              	.LCFI6:
 163              		.cfi_restore_state
 164              	.LBB11:
 165              	.LBB9:
 297:Drivers/STM32F7xx_HAL_Driver/Src/stm32f7xx_hal_dma_ex.c ****     
 166              		.loc 1 297 0
 167 0062 A260     		str	r2, [r4, #8]
 300:Drivers/STM32F7xx_HAL_Driver/Src/stm32f7xx_hal_dma_ex.c ****   }
 168              		.loc 1 300 0
 169 0064 E160     		str	r1, [r4, #12]
 170 0066 E9E7     		b	.L7
 171              	.LBE9:
 172              	.LBE11:
 173              		.cfi_endproc
 174              	.LFE138:
 176              		.section	.text.HAL_DMAEx_MultiBufferStart_IT,"ax",%progbits
 177              		.align	1
 178              		.p2align 2,,3
 179              		.global	HAL_DMAEx_MultiBufferStart_IT
 180              		.syntax unified
 181              		.thumb
 182              		.thumb_func
 183              		.fpu fpv4-sp-d16
 185              	HAL_DMAEx_MultiBufferStart_IT:
 186              	.LFB139:
 174:Drivers/STM32F7xx_HAL_Driver/Src/stm32f7xx_hal_dma_ex.c ****   HAL_StatusTypeDef status = HAL_OK;
ARM GAS  /tmp/ccS7nfBM.s 			page 10


 187              		.loc 1 174 0
 188              		.cfi_startproc
 189              		@ args = 4, pretend = 0, frame = 0
 190              		@ frame_needed = 0, uses_anonymous_args = 0
 191              		@ link register save eliminated.
 192              	.LVL19:
 193 0000 F0B4     		push	{r4, r5, r6, r7}
 194              	.LCFI7:
 195              		.cfi_def_cfa_offset 16
 196              		.cfi_offset 4, -16
 197              		.cfi_offset 5, -12
 198              		.cfi_offset 6, -8
 199              		.cfi_offset 7, -4
 181:Drivers/STM32F7xx_HAL_Driver/Src/stm32f7xx_hal_dma_ex.c ****   {
 200              		.loc 1 181 0
 201 0002 8568     		ldr	r5, [r0, #8]
 202 0004 802D     		cmp	r5, #128
 203 0006 5FD0     		beq	.L214
 188:Drivers/STM32F7xx_HAL_Driver/Src/stm32f7xx_hal_dma_ex.c ****   
 204              		.loc 1 188 0
 205 0008 90F83440 		ldrb	r4, [r0, #52]	@ zero_extendqisi2
 206 000c 012C     		cmp	r4, #1
 207 000e 77D0     		beq	.L93
 188:Drivers/STM32F7xx_HAL_Driver/Src/stm32f7xx_hal_dma_ex.c ****   
 208              		.loc 1 188 0 is_stmt 0 discriminator 2
 209 0010 0126     		movs	r6, #1
 190:Drivers/STM32F7xx_HAL_Driver/Src/stm32f7xx_hal_dma_ex.c ****   {
 210              		.loc 1 190 0 is_stmt 1 discriminator 2
 211 0012 90F83540 		ldrb	r4, [r0, #53]	@ zero_extendqisi2
 212 0016 B442     		cmp	r4, r6
 188:Drivers/STM32F7xx_HAL_Driver/Src/stm32f7xx_hal_dma_ex.c ****   
 213              		.loc 1 188 0 discriminator 2
 214 0018 80F83460 		strb	r6, [r0, #52]
 190:Drivers/STM32F7xx_HAL_Driver/Src/stm32f7xx_hal_dma_ex.c ****   {
 215              		.loc 1 190 0 discriminator 2
 216 001c 4DD1     		bne	.L15
 199:Drivers/STM32F7xx_HAL_Driver/Src/stm32f7xx_hal_dma_ex.c ****     
 217              		.loc 1 199 0
 218 001e 0468     		ldr	r4, [r0]
 196:Drivers/STM32F7xx_HAL_Driver/Src/stm32f7xx_hal_dma_ex.c ****     
 219              		.loc 1 196 0
 220 0020 0026     		movs	r6, #0
 193:Drivers/STM32F7xx_HAL_Driver/Src/stm32f7xx_hal_dma_ex.c ****     
 221              		.loc 1 193 0
 222 0022 0227     		movs	r7, #2
 223              	.LBB12:
 224              	.LBB13:
 294:Drivers/STM32F7xx_HAL_Driver/Src/stm32f7xx_hal_dma_ex.c ****   {
 225              		.loc 1 294 0
 226 0024 402D     		cmp	r5, #64
 227              	.LBE13:
 228              	.LBE12:
 193:Drivers/STM32F7xx_HAL_Driver/Src/stm32f7xx_hal_dma_ex.c ****     
 229              		.loc 1 193 0
 230 0026 80F83570 		strb	r7, [r0, #53]
 196:Drivers/STM32F7xx_HAL_Driver/Src/stm32f7xx_hal_dma_ex.c ****     
 231              		.loc 1 196 0
ARM GAS  /tmp/ccS7nfBM.s 			page 11


 232 002a 4665     		str	r6, [r0, #84]
 199:Drivers/STM32F7xx_HAL_Driver/Src/stm32f7xx_hal_dma_ex.c ****     
 233              		.loc 1 199 0
 234 002c 2668     		ldr	r6, [r4]
 235 002e 46F48026 		orr	r6, r6, #262144
 236 0032 2660     		str	r6, [r4]
 202:Drivers/STM32F7xx_HAL_Driver/Src/stm32f7xx_hal_dma_ex.c ****     
 237              		.loc 1 202 0
 238 0034 2361     		str	r3, [r4, #16]
 239              	.LVL20:
 240              	.LBB16:
 241              	.LBB14:
 291:Drivers/STM32F7xx_HAL_Driver/Src/stm32f7xx_hal_dma_ex.c ****   
 242              		.loc 1 291 0
 243 0036 049B     		ldr	r3, [sp, #16]
 244              	.LVL21:
 245 0038 6360     		str	r3, [r4, #4]
 246              	.LVL22:
 294:Drivers/STM32F7xx_HAL_Driver/Src/stm32f7xx_hal_dma_ex.c ****   {
 247              		.loc 1 294 0
 248 003a 4CD0     		beq	.L215
 306:Drivers/STM32F7xx_HAL_Driver/Src/stm32f7xx_hal_dma_ex.c ****     
 249              		.loc 1 306 0
 250 003c A160     		str	r1, [r4, #8]
 251              		.loc 1 309 0
 252 003e E260     		str	r2, [r4, #12]
 253              	.L17:
 254              	.LVL23:
 255 0040 8F4B     		ldr	r3, .L225
 256 0042 904A     		ldr	r2, .L225+4
 257              	.LVL24:
 258 0044 904D     		ldr	r5, .L225+8
 259 0046 9C42     		cmp	r4, r3
 260 0048 18BF     		it	ne
 261 004a 9442     		cmpne	r4, r2
 262 004c 8F49     		ldr	r1, .L225+12
 263              	.LVL25:
 264              	.LBE14:
 265              	.LBE16:
 208:Drivers/STM32F7xx_HAL_Driver/Src/stm32f7xx_hal_dma_ex.c ****     __HAL_DMA_CLEAR_FLAG (hdma, __HAL_DMA_GET_HT_FLAG_INDEX(hdma));
 266              		.loc 1 208 0
 267 004e 02F57A72 		add	r2, r2, #1000
 268 0052 14BF     		ite	ne
 269 0054 0123     		movne	r3, #1
 270 0056 0023     		moveq	r3, #0
 271 0058 AC42     		cmp	r4, r5
 272 005a 0CBF     		ite	eq
 273 005c 0023     		moveq	r3, #0
 274 005e 03F00103 		andne	r3, r3, #1
 275 0062 8C42     		cmp	r4, r1
 276 0064 0CBF     		ite	eq
 277 0066 0023     		moveq	r3, #0
 278 0068 03F00103 		andne	r3, r3, #1
 279 006c 9442     		cmp	r4, r2
 280 006e 35D9     		bls	.L18
 208:Drivers/STM32F7xx_HAL_Driver/Src/stm32f7xx_hal_dma_ex.c ****     __HAL_DMA_CLEAR_FLAG (hdma, __HAL_DMA_GET_HT_FLAG_INDEX(hdma));
 281              		.loc 1 208 0 is_stmt 0 discriminator 3
ARM GAS  /tmp/ccS7nfBM.s 			page 12


 282 0070 002B     		cmp	r3, #0
 283 0072 70D1     		bne	.L216
 208:Drivers/STM32F7xx_HAL_Driver/Src/stm32f7xx_hal_dma_ex.c ****     __HAL_DMA_CLEAR_FLAG (hdma, __HAL_DMA_GET_HT_FLAG_INDEX(hdma));
 284              		.loc 1 208 0
 285 0074 864B     		ldr	r3, .L225+16
 286 0076 2021     		movs	r1, #32
 209:Drivers/STM32F7xx_HAL_Driver/Src/stm32f7xx_hal_dma_ex.c ****     __HAL_DMA_CLEAR_FLAG (hdma, __HAL_DMA_GET_TE_FLAG_INDEX(hdma));
 287              		.loc 1 209 0 is_stmt 1
 288 0078 1022     		movs	r2, #16
 210:Drivers/STM32F7xx_HAL_Driver/Src/stm32f7xx_hal_dma_ex.c ****     __HAL_DMA_CLEAR_FLAG (hdma, __HAL_DMA_GET_DME_FLAG_INDEX(hdma));
 289              		.loc 1 210 0
 290 007a 0825     		movs	r5, #8
 208:Drivers/STM32F7xx_HAL_Driver/Src/stm32f7xx_hal_dma_ex.c ****     __HAL_DMA_CLEAR_FLAG (hdma, __HAL_DMA_GET_HT_FLAG_INDEX(hdma));
 291              		.loc 1 208 0
 292 007c D960     		str	r1, [r3, #12]
 293              	.LVL26:
 211:Drivers/STM32F7xx_HAL_Driver/Src/stm32f7xx_hal_dma_ex.c ****     __HAL_DMA_CLEAR_FLAG (hdma, __HAL_DMA_GET_FE_FLAG_INDEX(hdma));
 294              		.loc 1 211 0
 295 007e 0421     		movs	r1, #4
 209:Drivers/STM32F7xx_HAL_Driver/Src/stm32f7xx_hal_dma_ex.c ****     __HAL_DMA_CLEAR_FLAG (hdma, __HAL_DMA_GET_TE_FLAG_INDEX(hdma));
 296              		.loc 1 209 0
 297 0080 DA60     		str	r2, [r3, #12]
 212:Drivers/STM32F7xx_HAL_Driver/Src/stm32f7xx_hal_dma_ex.c ****     
 298              		.loc 1 212 0
 299 0082 0122     		movs	r2, #1
 210:Drivers/STM32F7xx_HAL_Driver/Src/stm32f7xx_hal_dma_ex.c ****     __HAL_DMA_CLEAR_FLAG (hdma, __HAL_DMA_GET_DME_FLAG_INDEX(hdma));
 300              		.loc 1 210 0
 301 0084 DD60     		str	r5, [r3, #12]
 211:Drivers/STM32F7xx_HAL_Driver/Src/stm32f7xx_hal_dma_ex.c ****     __HAL_DMA_CLEAR_FLAG (hdma, __HAL_DMA_GET_FE_FLAG_INDEX(hdma));
 302              		.loc 1 211 0
 303 0086 D960     		str	r1, [r3, #12]
 304              	.L61:
 212:Drivers/STM32F7xx_HAL_Driver/Src/stm32f7xx_hal_dma_ex.c ****     
 305              		.loc 1 212 0 discriminator 50
 306 0088 814B     		ldr	r3, .L225+16
 307 008a DA60     		str	r2, [r3, #12]
 308              	.L52:
 215:Drivers/STM32F7xx_HAL_Driver/Src/stm32f7xx_hal_dma_ex.c ****     hdma->Instance->FCR |= DMA_IT_FE;
 309              		.loc 1 215 0
 310 008c 2368     		ldr	r3, [r4]
 218:Drivers/STM32F7xx_HAL_Driver/Src/stm32f7xx_hal_dma_ex.c ****     {
 311              		.loc 1 218 0
 312 008e 026C     		ldr	r2, [r0, #64]
 215:Drivers/STM32F7xx_HAL_Driver/Src/stm32f7xx_hal_dma_ex.c ****     hdma->Instance->FCR |= DMA_IT_FE;
 313              		.loc 1 215 0
 314 0090 43F01603 		orr	r3, r3, #22
 315 0094 2360     		str	r3, [r4]
 216:Drivers/STM32F7xx_HAL_Driver/Src/stm32f7xx_hal_dma_ex.c ****     
 316              		.loc 1 216 0
 317 0096 6369     		ldr	r3, [r4, #20]
 318 0098 43F08003 		orr	r3, r3, #128
 319 009c 6361     		str	r3, [r4, #20]
 218:Drivers/STM32F7xx_HAL_Driver/Src/stm32f7xx_hal_dma_ex.c ****     {
 320              		.loc 1 218 0
 321 009e 002A     		cmp	r2, #0
 322 00a0 32D0     		beq	.L217
 323              	.L59:
ARM GAS  /tmp/ccS7nfBM.s 			page 13


 220:Drivers/STM32F7xx_HAL_Driver/Src/stm32f7xx_hal_dma_ex.c ****     }
 324              		.loc 1 220 0
 325 00a2 2368     		ldr	r3, [r4]
 326 00a4 43F00803 		orr	r3, r3, #8
 327 00a8 2360     		str	r3, [r4]
 328              	.L60:
 224:Drivers/STM32F7xx_HAL_Driver/Src/stm32f7xx_hal_dma_ex.c ****   }
 329              		.loc 1 224 0
 330 00aa 2268     		ldr	r2, [r4]
 175:Drivers/STM32F7xx_HAL_Driver/Src/stm32f7xx_hal_dma_ex.c ****   
 331              		.loc 1 175 0
 332 00ac 0023     		movs	r3, #0
 224:Drivers/STM32F7xx_HAL_Driver/Src/stm32f7xx_hal_dma_ex.c ****   }
 333              		.loc 1 224 0
 334 00ae 42F00102 		orr	r2, r2, #1
 235:Drivers/STM32F7xx_HAL_Driver/Src/stm32f7xx_hal_dma_ex.c **** 
 335              		.loc 1 235 0
 336 00b2 1846     		mov	r0, r3
 337              	.LVL27:
 224:Drivers/STM32F7xx_HAL_Driver/Src/stm32f7xx_hal_dma_ex.c ****   }
 338              		.loc 1 224 0
 339 00b4 2260     		str	r2, [r4]
 235:Drivers/STM32F7xx_HAL_Driver/Src/stm32f7xx_hal_dma_ex.c **** 
 340              		.loc 1 235 0
 341 00b6 F0BC     		pop	{r4, r5, r6, r7}
 342              	.LCFI8:
 343              		.cfi_remember_state
 344              		.cfi_restore 7
 345              		.cfi_restore 6
 346              		.cfi_restore 5
 347              		.cfi_restore 4
 348              		.cfi_def_cfa_offset 0
 349 00b8 7047     		bx	lr
 350              	.LVL28:
 351              	.L15:
 352              	.LCFI9:
 353              		.cfi_restore_state
 229:Drivers/STM32F7xx_HAL_Driver/Src/stm32f7xx_hal_dma_ex.c ****     
 354              		.loc 1 229 0
 355 00ba 0022     		movs	r2, #0
 356              	.LVL29:
 232:Drivers/STM32F7xx_HAL_Driver/Src/stm32f7xx_hal_dma_ex.c ****   }  
 357              		.loc 1 232 0
 358 00bc 0223     		movs	r3, #2
 359              	.LVL30:
 229:Drivers/STM32F7xx_HAL_Driver/Src/stm32f7xx_hal_dma_ex.c ****     
 360              		.loc 1 229 0
 361 00be 80F83420 		strb	r2, [r0, #52]
 362              	.LVL31:
 235:Drivers/STM32F7xx_HAL_Driver/Src/stm32f7xx_hal_dma_ex.c **** 
 363              		.loc 1 235 0
 364 00c2 1846     		mov	r0, r3
 365              	.LVL32:
 366 00c4 F0BC     		pop	{r4, r5, r6, r7}
 367              	.LCFI10:
 368              		.cfi_remember_state
 369              		.cfi_restore 7
ARM GAS  /tmp/ccS7nfBM.s 			page 14


 370              		.cfi_restore 6
 371              		.cfi_restore 5
 372              		.cfi_restore 4
 373              		.cfi_def_cfa_offset 0
 374              	.LVL33:
 375 00c6 7047     		bx	lr
 376              	.LVL34:
 377              	.L214:
 378              	.LCFI11:
 379              		.cfi_restore_state
 183:Drivers/STM32F7xx_HAL_Driver/Src/stm32f7xx_hal_dma_ex.c ****     return HAL_ERROR;
 380              		.loc 1 183 0
 381 00c8 4FF48072 		mov	r2, #256
 382              	.LVL35:
 184:Drivers/STM32F7xx_HAL_Driver/Src/stm32f7xx_hal_dma_ex.c ****   }
 383              		.loc 1 184 0
 384 00cc 0123     		movs	r3, #1
 385              	.LVL36:
 183:Drivers/STM32F7xx_HAL_Driver/Src/stm32f7xx_hal_dma_ex.c ****     return HAL_ERROR;
 386              		.loc 1 183 0
 387 00ce 4265     		str	r2, [r0, #84]
 235:Drivers/STM32F7xx_HAL_Driver/Src/stm32f7xx_hal_dma_ex.c **** 
 388              		.loc 1 235 0
 389 00d0 1846     		mov	r0, r3
 390              	.LVL37:
 391 00d2 F0BC     		pop	{r4, r5, r6, r7}
 392              	.LCFI12:
 393              		.cfi_remember_state
 394              		.cfi_restore 7
 395              		.cfi_restore 6
 396              		.cfi_restore 5
 397              		.cfi_restore 4
 398              		.cfi_def_cfa_offset 0
 399              	.LVL38:
 400 00d4 7047     		bx	lr
 401              	.LVL39:
 402              	.L215:
 403              	.LCFI13:
 404              		.cfi_restore_state
 405              	.LBB17:
 406              	.LBB15:
 297:Drivers/STM32F7xx_HAL_Driver/Src/stm32f7xx_hal_dma_ex.c ****     
 407              		.loc 1 297 0
 408 00d6 A260     		str	r2, [r4, #8]
 300:Drivers/STM32F7xx_HAL_Driver/Src/stm32f7xx_hal_dma_ex.c ****   }
 409              		.loc 1 300 0
 410 00d8 E160     		str	r1, [r4, #12]
 411 00da B1E7     		b	.L17
 412              	.LVL40:
 413              	.L18:
 414              	.LBE15:
 415              	.LBE17:
 208:Drivers/STM32F7xx_HAL_Driver/Src/stm32f7xx_hal_dma_ex.c ****     __HAL_DMA_CLEAR_FLAG (hdma, __HAL_DMA_GET_HT_FLAG_INDEX(hdma));
 416              		.loc 1 208 0 discriminator 2
 417 00dc 6D4A     		ldr	r2, .L225+20
 418 00de 9442     		cmp	r4, r2
 419 00e0 16D9     		bls	.L23
ARM GAS  /tmp/ccS7nfBM.s 			page 15


 208:Drivers/STM32F7xx_HAL_Driver/Src/stm32f7xx_hal_dma_ex.c ****     __HAL_DMA_CLEAR_FLAG (hdma, __HAL_DMA_GET_HT_FLAG_INDEX(hdma));
 420              		.loc 1 208 0 is_stmt 0 discriminator 53
 421 00e2 002B     		cmp	r3, #0
 422 00e4 5BD1     		bne	.L218
 208:Drivers/STM32F7xx_HAL_Driver/Src/stm32f7xx_hal_dma_ex.c ****     __HAL_DMA_CLEAR_FLAG (hdma, __HAL_DMA_GET_HT_FLAG_INDEX(hdma));
 423              		.loc 1 208 0
 424 00e6 6A4B     		ldr	r3, .L225+16
 425 00e8 2021     		movs	r1, #32
 209:Drivers/STM32F7xx_HAL_Driver/Src/stm32f7xx_hal_dma_ex.c ****     __HAL_DMA_CLEAR_FLAG (hdma, __HAL_DMA_GET_TE_FLAG_INDEX(hdma));
 426              		.loc 1 209 0 is_stmt 1
 427 00ea 1022     		movs	r2, #16
 210:Drivers/STM32F7xx_HAL_Driver/Src/stm32f7xx_hal_dma_ex.c ****     __HAL_DMA_CLEAR_FLAG (hdma, __HAL_DMA_GET_DME_FLAG_INDEX(hdma));
 428              		.loc 1 210 0
 429 00ec 0825     		movs	r5, #8
 208:Drivers/STM32F7xx_HAL_Driver/Src/stm32f7xx_hal_dma_ex.c ****     __HAL_DMA_CLEAR_FLAG (hdma, __HAL_DMA_GET_HT_FLAG_INDEX(hdma));
 430              		.loc 1 208 0
 431 00ee 9960     		str	r1, [r3, #8]
 432              	.LVL41:
 211:Drivers/STM32F7xx_HAL_Driver/Src/stm32f7xx_hal_dma_ex.c ****     __HAL_DMA_CLEAR_FLAG (hdma, __HAL_DMA_GET_FE_FLAG_INDEX(hdma));
 433              		.loc 1 211 0
 434 00f0 0421     		movs	r1, #4
 209:Drivers/STM32F7xx_HAL_Driver/Src/stm32f7xx_hal_dma_ex.c ****     __HAL_DMA_CLEAR_FLAG (hdma, __HAL_DMA_GET_TE_FLAG_INDEX(hdma));
 435              		.loc 1 209 0
 436 00f2 9A60     		str	r2, [r3, #8]
 212:Drivers/STM32F7xx_HAL_Driver/Src/stm32f7xx_hal_dma_ex.c ****     
 437              		.loc 1 212 0
 438 00f4 0122     		movs	r2, #1
 210:Drivers/STM32F7xx_HAL_Driver/Src/stm32f7xx_hal_dma_ex.c ****     __HAL_DMA_CLEAR_FLAG (hdma, __HAL_DMA_GET_DME_FLAG_INDEX(hdma));
 439              		.loc 1 210 0
 440 00f6 9D60     		str	r5, [r3, #8]
 211:Drivers/STM32F7xx_HAL_Driver/Src/stm32f7xx_hal_dma_ex.c ****     __HAL_DMA_CLEAR_FLAG (hdma, __HAL_DMA_GET_FE_FLAG_INDEX(hdma));
 441              		.loc 1 211 0
 442 00f8 9960     		str	r1, [r3, #8]
 443              	.L53:
 212:Drivers/STM32F7xx_HAL_Driver/Src/stm32f7xx_hal_dma_ex.c ****     
 444              		.loc 1 212 0 discriminator 100
 445 00fa 654B     		ldr	r3, .L225+16
 446 00fc 9A60     		str	r2, [r3, #8]
 447 00fe C5E7     		b	.L52
 448              	.LVL42:
 449              	.L93:
 188:Drivers/STM32F7xx_HAL_Driver/Src/stm32f7xx_hal_dma_ex.c ****   
 450              		.loc 1 188 0
 451 0100 0223     		movs	r3, #2
 452              	.LVL43:
 235:Drivers/STM32F7xx_HAL_Driver/Src/stm32f7xx_hal_dma_ex.c **** 
 453              		.loc 1 235 0
 454 0102 F0BC     		pop	{r4, r5, r6, r7}
 455              	.LCFI14:
 456              		.cfi_remember_state
 457              		.cfi_restore 7
 458              		.cfi_restore 6
 459              		.cfi_restore 5
 460              		.cfi_restore 4
 461              		.cfi_def_cfa_offset 0
 462              	.LVL44:
 463 0104 1846     		mov	r0, r3
ARM GAS  /tmp/ccS7nfBM.s 			page 16


 464              	.LVL45:
 465 0106 7047     		bx	lr
 466              	.LVL46:
 467              	.L217:
 468              	.LCFI15:
 469              		.cfi_restore_state
 218:Drivers/STM32F7xx_HAL_Driver/Src/stm32f7xx_hal_dma_ex.c ****     {
 470              		.loc 1 218 0 discriminator 1
 471 0108 836C     		ldr	r3, [r0, #72]
 472 010a 002B     		cmp	r3, #0
 473 010c C9D1     		bne	.L59
 474 010e CCE7     		b	.L60
 475              	.LVL47:
 476              	.L23:
 208:Drivers/STM32F7xx_HAL_Driver/Src/stm32f7xx_hal_dma_ex.c ****     __HAL_DMA_CLEAR_FLAG (hdma, __HAL_DMA_GET_HT_FLAG_INDEX(hdma));
 477              		.loc 1 208 0 discriminator 52
 478 0110 614A     		ldr	r2, .L225+24
 479 0112 9442     		cmp	r4, r2
 480 0114 0FD9     		bls	.L27
 208:Drivers/STM32F7xx_HAL_Driver/Src/stm32f7xx_hal_dma_ex.c ****     __HAL_DMA_CLEAR_FLAG (hdma, __HAL_DMA_GET_HT_FLAG_INDEX(hdma));
 481              		.loc 1 208 0 is_stmt 0 discriminator 104
 482 0116 002B     		cmp	r3, #0
 483 0118 40F03E81 		bne	.L219
 208:Drivers/STM32F7xx_HAL_Driver/Src/stm32f7xx_hal_dma_ex.c ****     __HAL_DMA_CLEAR_FLAG (hdma, __HAL_DMA_GET_HT_FLAG_INDEX(hdma));
 484              		.loc 1 208 0
 485 011c 5F4B     		ldr	r3, .L225+28
 486 011e 2021     		movs	r1, #32
 209:Drivers/STM32F7xx_HAL_Driver/Src/stm32f7xx_hal_dma_ex.c ****     __HAL_DMA_CLEAR_FLAG (hdma, __HAL_DMA_GET_TE_FLAG_INDEX(hdma));
 487              		.loc 1 209 0 is_stmt 1
 488 0120 1022     		movs	r2, #16
 210:Drivers/STM32F7xx_HAL_Driver/Src/stm32f7xx_hal_dma_ex.c ****     __HAL_DMA_CLEAR_FLAG (hdma, __HAL_DMA_GET_DME_FLAG_INDEX(hdma));
 489              		.loc 1 210 0
 490 0122 0825     		movs	r5, #8
 208:Drivers/STM32F7xx_HAL_Driver/Src/stm32f7xx_hal_dma_ex.c ****     __HAL_DMA_CLEAR_FLAG (hdma, __HAL_DMA_GET_HT_FLAG_INDEX(hdma));
 491              		.loc 1 208 0
 492 0124 D960     		str	r1, [r3, #12]
 493              	.LVL48:
 211:Drivers/STM32F7xx_HAL_Driver/Src/stm32f7xx_hal_dma_ex.c ****     __HAL_DMA_CLEAR_FLAG (hdma, __HAL_DMA_GET_FE_FLAG_INDEX(hdma));
 494              		.loc 1 211 0
 495 0126 0421     		movs	r1, #4
 209:Drivers/STM32F7xx_HAL_Driver/Src/stm32f7xx_hal_dma_ex.c ****     __HAL_DMA_CLEAR_FLAG (hdma, __HAL_DMA_GET_TE_FLAG_INDEX(hdma));
 496              		.loc 1 209 0
 497 0128 DA60     		str	r2, [r3, #12]
 212:Drivers/STM32F7xx_HAL_Driver/Src/stm32f7xx_hal_dma_ex.c ****     
 498              		.loc 1 212 0
 499 012a 0122     		movs	r2, #1
 210:Drivers/STM32F7xx_HAL_Driver/Src/stm32f7xx_hal_dma_ex.c ****     __HAL_DMA_CLEAR_FLAG (hdma, __HAL_DMA_GET_DME_FLAG_INDEX(hdma));
 500              		.loc 1 210 0
 501 012c DD60     		str	r5, [r3, #12]
 211:Drivers/STM32F7xx_HAL_Driver/Src/stm32f7xx_hal_dma_ex.c ****     __HAL_DMA_CLEAR_FLAG (hdma, __HAL_DMA_GET_FE_FLAG_INDEX(hdma));
 502              		.loc 1 211 0
 503 012e D960     		str	r1, [r3, #12]
 504              	.L55:
 212:Drivers/STM32F7xx_HAL_Driver/Src/stm32f7xx_hal_dma_ex.c ****     
 505              		.loc 1 212 0 discriminator 151
 506 0130 5A4B     		ldr	r3, .L225+28
 507 0132 DA60     		str	r2, [r3, #12]
ARM GAS  /tmp/ccS7nfBM.s 			page 17


 508 0134 AAE7     		b	.L52
 509              	.LVL49:
 510              	.L27:
 208:Drivers/STM32F7xx_HAL_Driver/Src/stm32f7xx_hal_dma_ex.c ****     __HAL_DMA_CLEAR_FLAG (hdma, __HAL_DMA_GET_HT_FLAG_INDEX(hdma));
 511              		.loc 1 208 0 discriminator 153
 512 0136 002B     		cmp	r3, #0
 513 0138 40F0BA80 		bne	.L220
 208:Drivers/STM32F7xx_HAL_Driver/Src/stm32f7xx_hal_dma_ex.c ****     __HAL_DMA_CLEAR_FLAG (hdma, __HAL_DMA_GET_HT_FLAG_INDEX(hdma));
 514              		.loc 1 208 0 is_stmt 0
 515 013c 574B     		ldr	r3, .L225+28
 516 013e 2021     		movs	r1, #32
 209:Drivers/STM32F7xx_HAL_Driver/Src/stm32f7xx_hal_dma_ex.c ****     __HAL_DMA_CLEAR_FLAG (hdma, __HAL_DMA_GET_TE_FLAG_INDEX(hdma));
 517              		.loc 1 209 0 is_stmt 1
 518 0140 1022     		movs	r2, #16
 210:Drivers/STM32F7xx_HAL_Driver/Src/stm32f7xx_hal_dma_ex.c ****     __HAL_DMA_CLEAR_FLAG (hdma, __HAL_DMA_GET_DME_FLAG_INDEX(hdma));
 519              		.loc 1 210 0
 520 0142 0825     		movs	r5, #8
 208:Drivers/STM32F7xx_HAL_Driver/Src/stm32f7xx_hal_dma_ex.c ****     __HAL_DMA_CLEAR_FLAG (hdma, __HAL_DMA_GET_HT_FLAG_INDEX(hdma));
 521              		.loc 1 208 0
 522 0144 9960     		str	r1, [r3, #8]
 523              	.LVL50:
 211:Drivers/STM32F7xx_HAL_Driver/Src/stm32f7xx_hal_dma_ex.c ****     __HAL_DMA_CLEAR_FLAG (hdma, __HAL_DMA_GET_FE_FLAG_INDEX(hdma));
 524              		.loc 1 211 0
 525 0146 0421     		movs	r1, #4
 209:Drivers/STM32F7xx_HAL_Driver/Src/stm32f7xx_hal_dma_ex.c ****     __HAL_DMA_CLEAR_FLAG (hdma, __HAL_DMA_GET_TE_FLAG_INDEX(hdma));
 526              		.loc 1 209 0
 527 0148 9A60     		str	r2, [r3, #8]
 212:Drivers/STM32F7xx_HAL_Driver/Src/stm32f7xx_hal_dma_ex.c ****     
 528              		.loc 1 212 0
 529 014a 0122     		movs	r2, #1
 210:Drivers/STM32F7xx_HAL_Driver/Src/stm32f7xx_hal_dma_ex.c ****     __HAL_DMA_CLEAR_FLAG (hdma, __HAL_DMA_GET_DME_FLAG_INDEX(hdma));
 530              		.loc 1 210 0
 531 014c 9D60     		str	r5, [r3, #8]
 211:Drivers/STM32F7xx_HAL_Driver/Src/stm32f7xx_hal_dma_ex.c ****     __HAL_DMA_CLEAR_FLAG (hdma, __HAL_DMA_GET_FE_FLAG_INDEX(hdma));
 532              		.loc 1 211 0
 533 014e 9960     		str	r1, [r3, #8]
 534              	.L57:
 212:Drivers/STM32F7xx_HAL_Driver/Src/stm32f7xx_hal_dma_ex.c ****     
 535              		.loc 1 212 0 discriminator 200
 536 0150 524B     		ldr	r3, .L225+28
 537 0152 9A60     		str	r2, [r3, #8]
 538 0154 9AE7     		b	.L52
 539              	.LVL51:
 540              	.L216:
 208:Drivers/STM32F7xx_HAL_Driver/Src/stm32f7xx_hal_dma_ex.c ****     __HAL_DMA_CLEAR_FLAG (hdma, __HAL_DMA_GET_HT_FLAG_INDEX(hdma));
 541              		.loc 1 208 0 discriminator 11
 542 0156 524B     		ldr	r3, .L225+32
 543 0158 A1F57A71 		sub	r1, r1, #1000
 544 015c A2F57472 		sub	r2, r2, #976
 545 0160 9C42     		cmp	r4, r3
 546 0162 18BF     		it	ne
 547 0164 8C42     		cmpne	r4, r1
 548 0166 14BF     		ite	ne
 549 0168 0123     		movne	r3, #1
 550 016a 0023     		moveq	r3, #0
 551 016c 9442     		cmp	r4, r2
 552 016e 0CBF     		ite	eq
ARM GAS  /tmp/ccS7nfBM.s 			page 18


 553 0170 0023     		moveq	r3, #0
 554 0172 03F00103 		andne	r3, r3, #1
 555 0176 1BB1     		cbz	r3, .L20
 556 0178 4A4B     		ldr	r3, .L225+36
 557 017a 9C42     		cmp	r4, r3
 558 017c 40F08881 		bne	.L221
 559              	.L20:
 208:Drivers/STM32F7xx_HAL_Driver/Src/stm32f7xx_hal_dma_ex.c ****     __HAL_DMA_CLEAR_FLAG (hdma, __HAL_DMA_GET_HT_FLAG_INDEX(hdma));
 560              		.loc 1 208 0 is_stmt 0
 561 0180 434B     		ldr	r3, .L225+16
 562 0182 4FF40061 		mov	r1, #2048
 209:Drivers/STM32F7xx_HAL_Driver/Src/stm32f7xx_hal_dma_ex.c ****     __HAL_DMA_CLEAR_FLAG (hdma, __HAL_DMA_GET_TE_FLAG_INDEX(hdma));
 563              		.loc 1 209 0 is_stmt 1
 564 0186 4FF48062 		mov	r2, #1024
 210:Drivers/STM32F7xx_HAL_Driver/Src/stm32f7xx_hal_dma_ex.c ****     __HAL_DMA_CLEAR_FLAG (hdma, __HAL_DMA_GET_DME_FLAG_INDEX(hdma));
 565              		.loc 1 210 0
 566 018a 4FF40075 		mov	r5, #512
 208:Drivers/STM32F7xx_HAL_Driver/Src/stm32f7xx_hal_dma_ex.c ****     __HAL_DMA_CLEAR_FLAG (hdma, __HAL_DMA_GET_HT_FLAG_INDEX(hdma));
 567              		.loc 1 208 0
 568 018e D960     		str	r1, [r3, #12]
 569              	.LVL52:
 211:Drivers/STM32F7xx_HAL_Driver/Src/stm32f7xx_hal_dma_ex.c ****     __HAL_DMA_CLEAR_FLAG (hdma, __HAL_DMA_GET_FE_FLAG_INDEX(hdma));
 570              		.loc 1 211 0
 571 0190 4FF48071 		mov	r1, #256
 209:Drivers/STM32F7xx_HAL_Driver/Src/stm32f7xx_hal_dma_ex.c ****     __HAL_DMA_CLEAR_FLAG (hdma, __HAL_DMA_GET_TE_FLAG_INDEX(hdma));
 572              		.loc 1 209 0
 573 0194 DA60     		str	r2, [r3, #12]
 212:Drivers/STM32F7xx_HAL_Driver/Src/stm32f7xx_hal_dma_ex.c ****     
 574              		.loc 1 212 0
 575 0196 4022     		movs	r2, #64
 210:Drivers/STM32F7xx_HAL_Driver/Src/stm32f7xx_hal_dma_ex.c ****     __HAL_DMA_CLEAR_FLAG (hdma, __HAL_DMA_GET_DME_FLAG_INDEX(hdma));
 576              		.loc 1 210 0
 577 0198 DD60     		str	r5, [r3, #12]
 211:Drivers/STM32F7xx_HAL_Driver/Src/stm32f7xx_hal_dma_ex.c ****     __HAL_DMA_CLEAR_FLAG (hdma, __HAL_DMA_GET_FE_FLAG_INDEX(hdma));
 578              		.loc 1 211 0
 579 019a D960     		str	r1, [r3, #12]
 580 019c 74E7     		b	.L61
 581              	.LVL53:
 582              	.L218:
 208:Drivers/STM32F7xx_HAL_Driver/Src/stm32f7xx_hal_dma_ex.c ****     __HAL_DMA_CLEAR_FLAG (hdma, __HAL_DMA_GET_HT_FLAG_INDEX(hdma));
 583              		.loc 1 208 0 discriminator 61
 584 019e 424B     		ldr	r3, .L225+40
 585 01a0 303A     		subs	r2, r2, #48
 586 01a2 3F49     		ldr	r1, .L225+32
 587 01a4 9C42     		cmp	r4, r3
 588 01a6 18BF     		it	ne
 589 01a8 8C42     		cmpne	r4, r1
 590 01aa 14BF     		ite	ne
 591 01ac 0123     		movne	r3, #1
 592 01ae 0023     		moveq	r3, #0
 593 01b0 9442     		cmp	r4, r2
 594 01b2 0CBF     		ite	eq
 595 01b4 0023     		moveq	r3, #0
 596 01b6 03F00103 		andne	r3, r3, #1
 597 01ba 1BB1     		cbz	r3, .L95
 598 01bc 394B     		ldr	r3, .L225+36
 599 01be 9C42     		cmp	r4, r3
ARM GAS  /tmp/ccS7nfBM.s 			page 19


 600 01c0 40F0E281 		bne	.L222
 601              	.L95:
 208:Drivers/STM32F7xx_HAL_Driver/Src/stm32f7xx_hal_dma_ex.c ****     __HAL_DMA_CLEAR_FLAG (hdma, __HAL_DMA_GET_HT_FLAG_INDEX(hdma));
 602              		.loc 1 208 0 is_stmt 0
 603 01c4 4FF40065 		mov	r5, #2048
 604              	.L25:
 209:Drivers/STM32F7xx_HAL_Driver/Src/stm32f7xx_hal_dma_ex.c ****     __HAL_DMA_CLEAR_FLAG (hdma, __HAL_DMA_GET_TE_FLAG_INDEX(hdma));
 605              		.loc 1 209 0 is_stmt 1
 606 01c8 354B     		ldr	r3, .L225+32
 607 01ca 374A     		ldr	r2, .L225+40
 608 01cc 3749     		ldr	r1, .L225+44
 609 01ce 9C42     		cmp	r4, r3
 610 01d0 18BF     		it	ne
 611 01d2 9442     		cmpne	r4, r2
 208:Drivers/STM32F7xx_HAL_Driver/Src/stm32f7xx_hal_dma_ex.c ****     __HAL_DMA_CLEAR_FLAG (hdma, __HAL_DMA_GET_HT_FLAG_INDEX(hdma));
 612              		.loc 1 208 0
 613 01d4 C2F8E053 		str	r5, [r2, #992]
 614              	.LVL54:
 209:Drivers/STM32F7xx_HAL_Driver/Src/stm32f7xx_hal_dma_ex.c ****     __HAL_DMA_CLEAR_FLAG (hdma, __HAL_DMA_GET_TE_FLAG_INDEX(hdma));
 615              		.loc 1 209 0
 616 01d8 14BF     		ite	ne
 617 01da 0123     		movne	r3, #1
 618 01dc 0023     		moveq	r3, #0
 619 01de 8C42     		cmp	r4, r1
 620 01e0 0CBF     		ite	eq
 621 01e2 0023     		moveq	r3, #0
 622 01e4 03F00103 		andne	r3, r3, #1
 623 01e8 1BB1     		cbz	r3, .L133
 624 01ea 2E4B     		ldr	r3, .L225+36
 625 01ec 9C42     		cmp	r4, r3
 626 01ee 40F0E481 		bne	.L62
 627              	.L133:
 628 01f2 4FF48065 		mov	r5, #1024
 629              	.L34:
 210:Drivers/STM32F7xx_HAL_Driver/Src/stm32f7xx_hal_dma_ex.c ****     __HAL_DMA_CLEAR_FLAG (hdma, __HAL_DMA_GET_DME_FLAG_INDEX(hdma));
 630              		.loc 1 210 0
 631 01f6 2C4B     		ldr	r3, .L225+40
 632 01f8 294A     		ldr	r2, .L225+32
 633 01fa 2C49     		ldr	r1, .L225+44
 634 01fc 9C42     		cmp	r4, r3
 635 01fe 18BF     		it	ne
 636 0200 9442     		cmpne	r4, r2
 209:Drivers/STM32F7xx_HAL_Driver/Src/stm32f7xx_hal_dma_ex.c ****     __HAL_DMA_CLEAR_FLAG (hdma, __HAL_DMA_GET_TE_FLAG_INDEX(hdma));
 637              		.loc 1 209 0
 638 0202 42F8205C 		str	r5, [r2, #-32]
 210:Drivers/STM32F7xx_HAL_Driver/Src/stm32f7xx_hal_dma_ex.c ****     __HAL_DMA_CLEAR_FLAG (hdma, __HAL_DMA_GET_DME_FLAG_INDEX(hdma));
 639              		.loc 1 210 0
 640 0206 14BF     		ite	ne
 641 0208 0123     		movne	r3, #1
 642 020a 0023     		moveq	r3, #0
 643 020c 8C42     		cmp	r4, r1
 644 020e 0CBF     		ite	eq
 645 0210 0023     		moveq	r3, #0
 646 0212 03F00103 		andne	r3, r3, #1
 647 0216 1BB1     		cbz	r3, .L136
 648 0218 224B     		ldr	r3, .L225+36
 649 021a 9C42     		cmp	r4, r3
ARM GAS  /tmp/ccS7nfBM.s 			page 20


 650 021c 40F0FD81 		bne	.L68
 651              	.L136:
 652 0220 4FF40075 		mov	r5, #512
 653              	.L40:
 211:Drivers/STM32F7xx_HAL_Driver/Src/stm32f7xx_hal_dma_ex.c ****     __HAL_DMA_CLEAR_FLAG (hdma, __HAL_DMA_GET_FE_FLAG_INDEX(hdma));
 654              		.loc 1 211 0
 655 0224 204B     		ldr	r3, .L225+40
 656 0226 1E4A     		ldr	r2, .L225+32
 657 0228 2049     		ldr	r1, .L225+44
 658 022a 9C42     		cmp	r4, r3
 659 022c 18BF     		it	ne
 660 022e 9442     		cmpne	r4, r2
 210:Drivers/STM32F7xx_HAL_Driver/Src/stm32f7xx_hal_dma_ex.c ****     __HAL_DMA_CLEAR_FLAG (hdma, __HAL_DMA_GET_DME_FLAG_INDEX(hdma));
 661              		.loc 1 210 0
 662 0230 42F8205C 		str	r5, [r2, #-32]
 211:Drivers/STM32F7xx_HAL_Driver/Src/stm32f7xx_hal_dma_ex.c ****     __HAL_DMA_CLEAR_FLAG (hdma, __HAL_DMA_GET_FE_FLAG_INDEX(hdma));
 663              		.loc 1 211 0
 664 0234 14BF     		ite	ne
 665 0236 0123     		movne	r3, #1
 666 0238 0023     		moveq	r3, #0
 667 023a 8C42     		cmp	r4, r1
 668 023c 0CBF     		ite	eq
 669 023e 0023     		moveq	r3, #0
 670 0240 03F00103 		andne	r3, r3, #1
 671 0244 1BB1     		cbz	r3, .L139
 672 0246 174B     		ldr	r3, .L225+36
 673 0248 9C42     		cmp	r4, r3
 674 024a 40F0CE81 		bne	.L74
 675              	.L139:
 676 024e 4FF48075 		mov	r5, #256
 677              	.L46:
 212:Drivers/STM32F7xx_HAL_Driver/Src/stm32f7xx_hal_dma_ex.c ****     
 678              		.loc 1 212 0
 679 0252 154B     		ldr	r3, .L225+40
 680 0254 124A     		ldr	r2, .L225+32
 681 0256 1549     		ldr	r1, .L225+44
 682 0258 9C42     		cmp	r4, r3
 683 025a 18BF     		it	ne
 684 025c 9442     		cmpne	r4, r2
 211:Drivers/STM32F7xx_HAL_Driver/Src/stm32f7xx_hal_dma_ex.c ****     __HAL_DMA_CLEAR_FLAG (hdma, __HAL_DMA_GET_FE_FLAG_INDEX(hdma));
 685              		.loc 1 211 0
 686 025e 42F8205C 		str	r5, [r2, #-32]
 212:Drivers/STM32F7xx_HAL_Driver/Src/stm32f7xx_hal_dma_ex.c ****     
 687              		.loc 1 212 0
 688 0262 14BF     		ite	ne
 689 0264 0123     		movne	r3, #1
 690 0266 0023     		moveq	r3, #0
 691 0268 8C42     		cmp	r4, r1
 692 026a 0CBF     		ite	eq
 693 026c 0023     		moveq	r3, #0
 694 026e 03F00103 		andne	r3, r3, #1
 695 0272 1BB1     		cbz	r3, .L142
 696 0274 0B4B     		ldr	r3, .L225+36
 697 0276 9C42     		cmp	r4, r3
 698 0278 40F0E781 		bne	.L80
 699              	.L142:
 700 027c 4022     		movs	r2, #64
ARM GAS  /tmp/ccS7nfBM.s 			page 21


 701 027e 3CE7     		b	.L53
 702              	.L226:
 703              		.align	2
 704              	.L225:
 705 0280 70640240 		.word	1073898608
 706 0284 70600240 		.word	1073897584
 707 0288 10600240 		.word	1073897488
 708 028c 10640240 		.word	1073898512
 709 0290 00640240 		.word	1073898496
 710 0294 B8600240 		.word	1073897656
 711 0298 58600240 		.word	1073897560
 712 029c 00600240 		.word	1073897472
 713 02a0 28640240 		.word	1073898536
 714 02a4 88640240 		.word	1073898632
 715 02a8 28600240 		.word	1073897512
 716 02ac 88600240 		.word	1073897608
 717              	.LVL55:
 718              	.L220:
 208:Drivers/STM32F7xx_HAL_Driver/Src/stm32f7xx_hal_dma_ex.c ****     __HAL_DMA_CLEAR_FLAG (hdma, __HAL_DMA_GET_HT_FLAG_INDEX(hdma));
 719              		.loc 1 208 0 discriminator 161
 720 02b0 734B     		ldr	r3, .L227
 721 02b2 7449     		ldr	r1, .L227+4
 722 02b4 744A     		ldr	r2, .L227+8
 723 02b6 9C42     		cmp	r4, r3
 724 02b8 18BF     		it	ne
 725 02ba 8C42     		cmpne	r4, r1
 726 02bc 14BF     		ite	ne
 727 02be 0123     		movne	r3, #1
 728 02c0 0023     		moveq	r3, #0
 729 02c2 9442     		cmp	r4, r2
 730 02c4 0CBF     		ite	eq
 731 02c6 0023     		moveq	r3, #0
 732 02c8 03F00103 		andne	r3, r3, #1
 733 02cc 1BB1     		cbz	r3, .L99
 734 02ce 6F4B     		ldr	r3, .L227+12
 735 02d0 9C42     		cmp	r4, r3
 736 02d2 40F0D281 		bne	.L223
 737              	.L99:
 208:Drivers/STM32F7xx_HAL_Driver/Src/stm32f7xx_hal_dma_ex.c ****     __HAL_DMA_CLEAR_FLAG (hdma, __HAL_DMA_GET_HT_FLAG_INDEX(hdma));
 738              		.loc 1 208 0 is_stmt 0
 739 02d6 4FF40061 		mov	r1, #2048
 740              	.L32:
 209:Drivers/STM32F7xx_HAL_Driver/Src/stm32f7xx_hal_dma_ex.c ****     __HAL_DMA_CLEAR_FLAG (hdma, __HAL_DMA_GET_TE_FLAG_INDEX(hdma));
 741              		.loc 1 209 0 is_stmt 1
 742 02da 6A4B     		ldr	r3, .L227+4
 743 02dc 684A     		ldr	r2, .L227
 744 02de 6A4D     		ldr	r5, .L227+8
 745 02e0 9C42     		cmp	r4, r3
 746 02e2 18BF     		it	ne
 747 02e4 9442     		cmpne	r4, r2
 208:Drivers/STM32F7xx_HAL_Driver/Src/stm32f7xx_hal_dma_ex.c ****     __HAL_DMA_CLEAR_FLAG (hdma, __HAL_DMA_GET_HT_FLAG_INDEX(hdma));
 748              		.loc 1 208 0
 749 02e6 A2F58562 		sub	r2, r2, #1064
 209:Drivers/STM32F7xx_HAL_Driver/Src/stm32f7xx_hal_dma_ex.c ****     __HAL_DMA_CLEAR_FLAG (hdma, __HAL_DMA_GET_TE_FLAG_INDEX(hdma));
 750              		.loc 1 209 0
 751 02ea 14BF     		ite	ne
 752 02ec 0123     		movne	r3, #1
ARM GAS  /tmp/ccS7nfBM.s 			page 22


 753 02ee 0023     		moveq	r3, #0
 208:Drivers/STM32F7xx_HAL_Driver/Src/stm32f7xx_hal_dma_ex.c ****     __HAL_DMA_CLEAR_FLAG (hdma, __HAL_DMA_GET_HT_FLAG_INDEX(hdma));
 754              		.loc 1 208 0
 755 02f0 9160     		str	r1, [r2, #8]
 756              	.LVL56:
 209:Drivers/STM32F7xx_HAL_Driver/Src/stm32f7xx_hal_dma_ex.c ****     __HAL_DMA_CLEAR_FLAG (hdma, __HAL_DMA_GET_TE_FLAG_INDEX(hdma));
 757              		.loc 1 209 0
 758 02f2 AC42     		cmp	r4, r5
 759 02f4 0CBF     		ite	eq
 760 02f6 0023     		moveq	r3, #0
 761 02f8 03F00103 		andne	r3, r3, #1
 762 02fc 1BB1     		cbz	r3, .L135
 763 02fe 634B     		ldr	r3, .L227+12
 764 0300 9C42     		cmp	r4, r3
 765 0302 40F00582 		bne	.L66
 766              	.L135:
 767 0306 4FF48061 		mov	r1, #1024
 768              	.L38:
 210:Drivers/STM32F7xx_HAL_Driver/Src/stm32f7xx_hal_dma_ex.c ****     __HAL_DMA_CLEAR_FLAG (hdma, __HAL_DMA_GET_DME_FLAG_INDEX(hdma));
 769              		.loc 1 210 0
 770 030a 5E4B     		ldr	r3, .L227+4
 771 030c 5C4A     		ldr	r2, .L227
 772 030e 5E4D     		ldr	r5, .L227+8
 773 0310 9C42     		cmp	r4, r3
 774 0312 18BF     		it	ne
 775 0314 9442     		cmpne	r4, r2
 209:Drivers/STM32F7xx_HAL_Driver/Src/stm32f7xx_hal_dma_ex.c ****     __HAL_DMA_CLEAR_FLAG (hdma, __HAL_DMA_GET_TE_FLAG_INDEX(hdma));
 776              		.loc 1 209 0
 777 0316 A2F58562 		sub	r2, r2, #1064
 210:Drivers/STM32F7xx_HAL_Driver/Src/stm32f7xx_hal_dma_ex.c ****     __HAL_DMA_CLEAR_FLAG (hdma, __HAL_DMA_GET_DME_FLAG_INDEX(hdma));
 778              		.loc 1 210 0
 779 031a 14BF     		ite	ne
 780 031c 0123     		movne	r3, #1
 781 031e 0023     		moveq	r3, #0
 209:Drivers/STM32F7xx_HAL_Driver/Src/stm32f7xx_hal_dma_ex.c ****     __HAL_DMA_CLEAR_FLAG (hdma, __HAL_DMA_GET_TE_FLAG_INDEX(hdma));
 782              		.loc 1 209 0
 783 0320 9160     		str	r1, [r2, #8]
 210:Drivers/STM32F7xx_HAL_Driver/Src/stm32f7xx_hal_dma_ex.c ****     __HAL_DMA_CLEAR_FLAG (hdma, __HAL_DMA_GET_DME_FLAG_INDEX(hdma));
 784              		.loc 1 210 0
 785 0322 AC42     		cmp	r4, r5
 786 0324 0CBF     		ite	eq
 787 0326 0023     		moveq	r3, #0
 788 0328 03F00103 		andne	r3, r3, #1
 789 032c 1BB1     		cbz	r3, .L138
 790 032e 574B     		ldr	r3, .L227+12
 791 0330 9C42     		cmp	r4, r3
 792 0332 40F05382 		bne	.L72
 793              	.L138:
 794 0336 4FF40071 		mov	r1, #512
 795              	.L44:
 211:Drivers/STM32F7xx_HAL_Driver/Src/stm32f7xx_hal_dma_ex.c ****     __HAL_DMA_CLEAR_FLAG (hdma, __HAL_DMA_GET_FE_FLAG_INDEX(hdma));
 796              		.loc 1 211 0
 797 033a 514B     		ldr	r3, .L227
 798 033c 514A     		ldr	r2, .L227+4
 799 033e 524D     		ldr	r5, .L227+8
 800 0340 9C42     		cmp	r4, r3
 801 0342 18BF     		it	ne
ARM GAS  /tmp/ccS7nfBM.s 			page 23


 802 0344 9442     		cmpne	r4, r2
 210:Drivers/STM32F7xx_HAL_Driver/Src/stm32f7xx_hal_dma_ex.c ****     __HAL_DMA_CLEAR_FLAG (hdma, __HAL_DMA_GET_DME_FLAG_INDEX(hdma));
 803              		.loc 1 210 0
 804 0346 42F8201C 		str	r1, [r2, #-32]
 211:Drivers/STM32F7xx_HAL_Driver/Src/stm32f7xx_hal_dma_ex.c ****     __HAL_DMA_CLEAR_FLAG (hdma, __HAL_DMA_GET_FE_FLAG_INDEX(hdma));
 805              		.loc 1 211 0
 806 034a 14BF     		ite	ne
 807 034c 0123     		movne	r3, #1
 808 034e 0023     		moveq	r3, #0
 809 0350 AC42     		cmp	r4, r5
 810 0352 0CBF     		ite	eq
 811 0354 0023     		moveq	r3, #0
 812 0356 03F00103 		andne	r3, r3, #1
 813 035a 1BB1     		cbz	r3, .L141
 814 035c 4B4B     		ldr	r3, .L227+12
 815 035e 9C42     		cmp	r4, r3
 816 0360 40F00E82 		bne	.L78
 817              	.L141:
 818 0364 4FF48071 		mov	r1, #256
 819              	.L50:
 212:Drivers/STM32F7xx_HAL_Driver/Src/stm32f7xx_hal_dma_ex.c ****     
 820              		.loc 1 212 0
 821 0368 464B     		ldr	r3, .L227+4
 822 036a 454A     		ldr	r2, .L227
 823 036c 464D     		ldr	r5, .L227+8
 824 036e 9C42     		cmp	r4, r3
 825 0370 18BF     		it	ne
 826 0372 9442     		cmpne	r4, r2
 211:Drivers/STM32F7xx_HAL_Driver/Src/stm32f7xx_hal_dma_ex.c ****     __HAL_DMA_CLEAR_FLAG (hdma, __HAL_DMA_GET_FE_FLAG_INDEX(hdma));
 827              		.loc 1 211 0
 828 0374 A2F58562 		sub	r2, r2, #1064
 212:Drivers/STM32F7xx_HAL_Driver/Src/stm32f7xx_hal_dma_ex.c ****     
 829              		.loc 1 212 0
 830 0378 14BF     		ite	ne
 831 037a 0123     		movne	r3, #1
 832 037c 0023     		moveq	r3, #0
 211:Drivers/STM32F7xx_HAL_Driver/Src/stm32f7xx_hal_dma_ex.c ****     __HAL_DMA_CLEAR_FLAG (hdma, __HAL_DMA_GET_FE_FLAG_INDEX(hdma));
 833              		.loc 1 211 0
 834 037e 9160     		str	r1, [r2, #8]
 212:Drivers/STM32F7xx_HAL_Driver/Src/stm32f7xx_hal_dma_ex.c ****     
 835              		.loc 1 212 0
 836 0380 AC42     		cmp	r4, r5
 837 0382 0CBF     		ite	eq
 838 0384 0023     		moveq	r3, #0
 839 0386 03F00103 		andne	r3, r3, #1
 840 038a 1BB1     		cbz	r3, .L144
 841 038c 3F4B     		ldr	r3, .L227+12
 842 038e 9C42     		cmp	r4, r3
 843 0390 40F05082 		bne	.L84
 844              	.L144:
 845 0394 4022     		movs	r2, #64
 846 0396 DBE6     		b	.L57
 847              	.LVL57:
 848              	.L219:
 208:Drivers/STM32F7xx_HAL_Driver/Src/stm32f7xx_hal_dma_ex.c ****     __HAL_DMA_CLEAR_FLAG (hdma, __HAL_DMA_GET_HT_FLAG_INDEX(hdma));
 849              		.loc 1 208 0 discriminator 112
 850 0398 3A4B     		ldr	r3, .L227+4
ARM GAS  /tmp/ccS7nfBM.s 			page 24


 851 039a 3032     		adds	r2, r2, #48
 852 039c 3849     		ldr	r1, .L227
 853 039e 9C42     		cmp	r4, r3
 854 03a0 18BF     		it	ne
 855 03a2 8C42     		cmpne	r4, r1
 856 03a4 14BF     		ite	ne
 857 03a6 0123     		movne	r3, #1
 858 03a8 0023     		moveq	r3, #0
 859 03aa 9442     		cmp	r4, r2
 860 03ac 0CBF     		ite	eq
 861 03ae 0023     		moveq	r3, #0
 862 03b0 03F00103 		andne	r3, r3, #1
 863 03b4 1BB1     		cbz	r3, .L97
 864 03b6 354B     		ldr	r3, .L227+12
 865 03b8 9C42     		cmp	r4, r3
 866 03ba 40F07881 		bne	.L224
 867              	.L97:
 208:Drivers/STM32F7xx_HAL_Driver/Src/stm32f7xx_hal_dma_ex.c ****     __HAL_DMA_CLEAR_FLAG (hdma, __HAL_DMA_GET_HT_FLAG_INDEX(hdma));
 868              		.loc 1 208 0 is_stmt 0
 869 03be 4FF40061 		mov	r1, #2048
 870              	.L29:
 209:Drivers/STM32F7xx_HAL_Driver/Src/stm32f7xx_hal_dma_ex.c ****     __HAL_DMA_CLEAR_FLAG (hdma, __HAL_DMA_GET_TE_FLAG_INDEX(hdma));
 871              		.loc 1 209 0 is_stmt 1
 872 03c2 2F4B     		ldr	r3, .L227
 873 03c4 2F4A     		ldr	r2, .L227+4
 874 03c6 304D     		ldr	r5, .L227+8
 875 03c8 9C42     		cmp	r4, r3
 876 03ca 18BF     		it	ne
 877 03cc 9442     		cmpne	r4, r2
 208:Drivers/STM32F7xx_HAL_Driver/Src/stm32f7xx_hal_dma_ex.c ****     __HAL_DMA_CLEAR_FLAG (hdma, __HAL_DMA_GET_HT_FLAG_INDEX(hdma));
 878              		.loc 1 208 0
 879 03ce 42F81C1C 		str	r1, [r2, #-28]
 880              	.LVL58:
 209:Drivers/STM32F7xx_HAL_Driver/Src/stm32f7xx_hal_dma_ex.c ****     __HAL_DMA_CLEAR_FLAG (hdma, __HAL_DMA_GET_TE_FLAG_INDEX(hdma));
 881              		.loc 1 209 0
 882 03d2 14BF     		ite	ne
 883 03d4 0123     		movne	r3, #1
 884 03d6 0023     		moveq	r3, #0
 885 03d8 AC42     		cmp	r4, r5
 886 03da 0CBF     		ite	eq
 887 03dc 0023     		moveq	r3, #0
 888 03de 03F00103 		andne	r3, r3, #1
 889 03e2 1BB1     		cbz	r3, .L134
 890 03e4 294B     		ldr	r3, .L227+12
 891 03e6 9C42     		cmp	r4, r3
 892 03e8 40F07A81 		bne	.L64
 893              	.L134:
 894 03ec 4FF48061 		mov	r1, #1024
 895              	.L36:
 210:Drivers/STM32F7xx_HAL_Driver/Src/stm32f7xx_hal_dma_ex.c ****     __HAL_DMA_CLEAR_FLAG (hdma, __HAL_DMA_GET_DME_FLAG_INDEX(hdma));
 896              		.loc 1 210 0
 897 03f0 244B     		ldr	r3, .L227+4
 898 03f2 234A     		ldr	r2, .L227
 899 03f4 244D     		ldr	r5, .L227+8
 900 03f6 9C42     		cmp	r4, r3
 901 03f8 18BF     		it	ne
 902 03fa 9442     		cmpne	r4, r2
ARM GAS  /tmp/ccS7nfBM.s 			page 25


 209:Drivers/STM32F7xx_HAL_Driver/Src/stm32f7xx_hal_dma_ex.c ****     __HAL_DMA_CLEAR_FLAG (hdma, __HAL_DMA_GET_TE_FLAG_INDEX(hdma));
 903              		.loc 1 209 0
 904 03fc A2F58562 		sub	r2, r2, #1064
 210:Drivers/STM32F7xx_HAL_Driver/Src/stm32f7xx_hal_dma_ex.c ****     __HAL_DMA_CLEAR_FLAG (hdma, __HAL_DMA_GET_DME_FLAG_INDEX(hdma));
 905              		.loc 1 210 0
 906 0400 14BF     		ite	ne
 907 0402 0123     		movne	r3, #1
 908 0404 0023     		moveq	r3, #0
 209:Drivers/STM32F7xx_HAL_Driver/Src/stm32f7xx_hal_dma_ex.c ****     __HAL_DMA_CLEAR_FLAG (hdma, __HAL_DMA_GET_TE_FLAG_INDEX(hdma));
 909              		.loc 1 209 0
 910 0406 D160     		str	r1, [r2, #12]
 210:Drivers/STM32F7xx_HAL_Driver/Src/stm32f7xx_hal_dma_ex.c ****     __HAL_DMA_CLEAR_FLAG (hdma, __HAL_DMA_GET_DME_FLAG_INDEX(hdma));
 911              		.loc 1 210 0
 912 0408 AC42     		cmp	r4, r5
 913 040a 0CBF     		ite	eq
 914 040c 0023     		moveq	r3, #0
 915 040e 03F00103 		andne	r3, r3, #1
 916 0412 1BB1     		cbz	r3, .L137
 917 0414 1D4B     		ldr	r3, .L227+12
 918 0416 9C42     		cmp	r4, r3
 919 0418 40F0CA81 		bne	.L70
 920              	.L137:
 921 041c 4FF40071 		mov	r1, #512
 922              	.L42:
 211:Drivers/STM32F7xx_HAL_Driver/Src/stm32f7xx_hal_dma_ex.c ****     __HAL_DMA_CLEAR_FLAG (hdma, __HAL_DMA_GET_FE_FLAG_INDEX(hdma));
 923              		.loc 1 211 0
 924 0420 174B     		ldr	r3, .L227
 925 0422 184A     		ldr	r2, .L227+4
 926 0424 184D     		ldr	r5, .L227+8
 927 0426 9C42     		cmp	r4, r3
 928 0428 18BF     		it	ne
 929 042a 9442     		cmpne	r4, r2
 210:Drivers/STM32F7xx_HAL_Driver/Src/stm32f7xx_hal_dma_ex.c ****     __HAL_DMA_CLEAR_FLAG (hdma, __HAL_DMA_GET_DME_FLAG_INDEX(hdma));
 930              		.loc 1 210 0
 931 042c 42F81C1C 		str	r1, [r2, #-28]
 211:Drivers/STM32F7xx_HAL_Driver/Src/stm32f7xx_hal_dma_ex.c ****     __HAL_DMA_CLEAR_FLAG (hdma, __HAL_DMA_GET_FE_FLAG_INDEX(hdma));
 932              		.loc 1 211 0
 933 0430 14BF     		ite	ne
 934 0432 0123     		movne	r3, #1
 935 0434 0023     		moveq	r3, #0
 936 0436 AC42     		cmp	r4, r5
 937 0438 0CBF     		ite	eq
 938 043a 0023     		moveq	r3, #0
 939 043c 03F00103 		andne	r3, r3, #1
 940 0440 1BB1     		cbz	r3, .L140
 941 0442 124B     		ldr	r3, .L227+12
 942 0444 9C42     		cmp	r4, r3
 943 0446 40F07B81 		bne	.L76
 944              	.L140:
 945 044a 4FF48071 		mov	r1, #256
 946              	.L48:
 212:Drivers/STM32F7xx_HAL_Driver/Src/stm32f7xx_hal_dma_ex.c ****     
 947              		.loc 1 212 0
 948 044e 0D4B     		ldr	r3, .L227+4
 949 0450 0B4A     		ldr	r2, .L227
 950 0452 0D4D     		ldr	r5, .L227+8
 951 0454 9C42     		cmp	r4, r3
ARM GAS  /tmp/ccS7nfBM.s 			page 26


 952 0456 18BF     		it	ne
 953 0458 9442     		cmpne	r4, r2
 211:Drivers/STM32F7xx_HAL_Driver/Src/stm32f7xx_hal_dma_ex.c ****     __HAL_DMA_CLEAR_FLAG (hdma, __HAL_DMA_GET_FE_FLAG_INDEX(hdma));
 954              		.loc 1 211 0
 955 045a A2F58562 		sub	r2, r2, #1064
 212:Drivers/STM32F7xx_HAL_Driver/Src/stm32f7xx_hal_dma_ex.c ****     
 956              		.loc 1 212 0
 957 045e 14BF     		ite	ne
 958 0460 0123     		movne	r3, #1
 959 0462 0023     		moveq	r3, #0
 211:Drivers/STM32F7xx_HAL_Driver/Src/stm32f7xx_hal_dma_ex.c ****     __HAL_DMA_CLEAR_FLAG (hdma, __HAL_DMA_GET_FE_FLAG_INDEX(hdma));
 960              		.loc 1 211 0
 961 0464 D160     		str	r1, [r2, #12]
 212:Drivers/STM32F7xx_HAL_Driver/Src/stm32f7xx_hal_dma_ex.c ****     
 962              		.loc 1 212 0
 963 0466 AC42     		cmp	r4, r5
 964 0468 0CBF     		ite	eq
 965 046a 0023     		moveq	r3, #0
 966 046c 03F00103 		andne	r3, r3, #1
 967 0470 1BB1     		cbz	r3, .L143
 968 0472 064B     		ldr	r3, .L227+12
 969 0474 9C42     		cmp	r4, r3
 970 0476 40F0C781 		bne	.L82
 971              	.L143:
 972 047a 4022     		movs	r2, #64
 973 047c 58E6     		b	.L55
 974              	.L228:
 975 047e 00BF     		.align	2
 976              	.L227:
 977 0480 28640240 		.word	1073898536
 978 0484 28600240 		.word	1073897512
 979 0488 88600240 		.word	1073897608
 980 048c 88640240 		.word	1073898632
 981              	.LVL59:
 982              	.L221:
 208:Drivers/STM32F7xx_HAL_Driver/Src/stm32f7xx_hal_dma_ex.c ****     __HAL_DMA_CLEAR_FLAG (hdma, __HAL_DMA_GET_HT_FLAG_INDEX(hdma));
 983              		.loc 1 208 0 discriminator 19
 984 0490 483B     		subs	r3, r3, #72
 985 0492 1831     		adds	r1, r1, #24
 986 0494 1832     		adds	r2, r2, #24
 987 0496 9C42     		cmp	r4, r3
 988 0498 18BF     		it	ne
 989 049a 8C42     		cmpne	r4, r1
 990 049c 14BF     		ite	ne
 991 049e 0123     		movne	r3, #1
 992 04a0 0023     		moveq	r3, #0
 993 04a2 9442     		cmp	r4, r2
 994 04a4 0CBF     		ite	eq
 995 04a6 0023     		moveq	r3, #0
 996 04a8 03F00103 		andne	r3, r3, #1
 997 04ac 002B     		cmp	r3, #0
 998 04ae 00F0E281 		beq	.L117
 999 04b2 AF4B     		ldr	r3, .L229
 1000 04b4 9C42     		cmp	r4, r3
 1001 04b6 00F0DE81 		beq	.L117
 208:Drivers/STM32F7xx_HAL_Driver/Src/stm32f7xx_hal_dma_ex.c ****     __HAL_DMA_CLEAR_FLAG (hdma, __HAL_DMA_GET_HT_FLAG_INDEX(hdma));
 1002              		.loc 1 208 0 is_stmt 0
ARM GAS  /tmp/ccS7nfBM.s 			page 27


 1003 04ba 4FF00061 		mov	r1, #134217728
 1004              	.L21:
 209:Drivers/STM32F7xx_HAL_Driver/Src/stm32f7xx_hal_dma_ex.c ****     __HAL_DMA_CLEAR_FLAG (hdma, __HAL_DMA_GET_TE_FLAG_INDEX(hdma));
 1005              		.loc 1 209 0 is_stmt 1
 1006 04be AD4B     		ldr	r3, .L229+4
 1007 04c0 AD4A     		ldr	r2, .L229+8
 1008 04c2 AE4D     		ldr	r5, .L229+12
 1009 04c4 9C42     		cmp	r4, r3
 1010 04c6 18BF     		it	ne
 1011 04c8 9442     		cmpne	r4, r2
 208:Drivers/STM32F7xx_HAL_Driver/Src/stm32f7xx_hal_dma_ex.c ****     __HAL_DMA_CLEAR_FLAG (hdma, __HAL_DMA_GET_HT_FLAG_INDEX(hdma));
 1012              		.loc 1 208 0
 1013 04ca C2F8CC13 		str	r1, [r2, #972]
 1014              	.LVL60:
 209:Drivers/STM32F7xx_HAL_Driver/Src/stm32f7xx_hal_dma_ex.c ****     __HAL_DMA_CLEAR_FLAG (hdma, __HAL_DMA_GET_TE_FLAG_INDEX(hdma));
 1015              		.loc 1 209 0
 1016 04ce 14BF     		ite	ne
 1017 04d0 0123     		movne	r3, #1
 1018 04d2 0023     		moveq	r3, #0
 1019 04d4 AC42     		cmp	r4, r5
 1020 04d6 0CBF     		ite	eq
 1021 04d8 0023     		moveq	r3, #0
 1022 04da 03F00103 		andne	r3, r3, #1
 1023 04de 002B     		cmp	r3, #0
 1024 04e0 00F0C681 		beq	.L145
 1025 04e4 A24B     		ldr	r3, .L229
 1026 04e6 9C42     		cmp	r4, r3
 1027 04e8 00F0C281 		beq	.L145
 1028 04ec 4FF08061 		mov	r1, #67108864
 1029              	.L86:
 210:Drivers/STM32F7xx_HAL_Driver/Src/stm32f7xx_hal_dma_ex.c ****     __HAL_DMA_CLEAR_FLAG (hdma, __HAL_DMA_GET_DME_FLAG_INDEX(hdma));
 1030              		.loc 1 210 0
 1031 04f0 A04B     		ldr	r3, .L229+4
 1032 04f2 A14A     		ldr	r2, .L229+8
 1033 04f4 A14D     		ldr	r5, .L229+12
 1034 04f6 9C42     		cmp	r4, r3
 1035 04f8 18BF     		it	ne
 1036 04fa 9442     		cmpne	r4, r2
 209:Drivers/STM32F7xx_HAL_Driver/Src/stm32f7xx_hal_dma_ex.c ****     __HAL_DMA_CLEAR_FLAG (hdma, __HAL_DMA_GET_TE_FLAG_INDEX(hdma));
 1037              		.loc 1 209 0
 1038 04fc C2F8CC13 		str	r1, [r2, #972]
 210:Drivers/STM32F7xx_HAL_Driver/Src/stm32f7xx_hal_dma_ex.c ****     __HAL_DMA_CLEAR_FLAG (hdma, __HAL_DMA_GET_DME_FLAG_INDEX(hdma));
 1039              		.loc 1 210 0
 1040 0500 14BF     		ite	ne
 1041 0502 0123     		movne	r3, #1
 1042 0504 0023     		moveq	r3, #0
 1043 0506 AC42     		cmp	r4, r5
 1044 0508 0CBF     		ite	eq
 1045 050a 0023     		moveq	r3, #0
 1046 050c 03F00103 		andne	r3, r3, #1
 1047 0510 002B     		cmp	r3, #0
 1048 0512 00F0AA81 		beq	.L146
 1049 0516 964B     		ldr	r3, .L229
 1050 0518 9C42     		cmp	r4, r3
 1051 051a 00F0A681 		beq	.L146
 1052 051e 4FF00071 		mov	r1, #33554432
 1053              	.L88:
ARM GAS  /tmp/ccS7nfBM.s 			page 28


 211:Drivers/STM32F7xx_HAL_Driver/Src/stm32f7xx_hal_dma_ex.c ****     __HAL_DMA_CLEAR_FLAG (hdma, __HAL_DMA_GET_FE_FLAG_INDEX(hdma));
 1054              		.loc 1 211 0
 1055 0522 944B     		ldr	r3, .L229+4
 1056 0524 944A     		ldr	r2, .L229+8
 1057 0526 954D     		ldr	r5, .L229+12
 1058 0528 9C42     		cmp	r4, r3
 1059 052a 18BF     		it	ne
 1060 052c 9442     		cmpne	r4, r2
 210:Drivers/STM32F7xx_HAL_Driver/Src/stm32f7xx_hal_dma_ex.c ****     __HAL_DMA_CLEAR_FLAG (hdma, __HAL_DMA_GET_DME_FLAG_INDEX(hdma));
 1061              		.loc 1 210 0
 1062 052e C2F8CC13 		str	r1, [r2, #972]
 211:Drivers/STM32F7xx_HAL_Driver/Src/stm32f7xx_hal_dma_ex.c ****     __HAL_DMA_CLEAR_FLAG (hdma, __HAL_DMA_GET_FE_FLAG_INDEX(hdma));
 1063              		.loc 1 211 0
 1064 0532 14BF     		ite	ne
 1065 0534 0123     		movne	r3, #1
 1066 0536 0023     		moveq	r3, #0
 1067 0538 AC42     		cmp	r4, r5
 1068 053a 0CBF     		ite	eq
 1069 053c 0023     		moveq	r3, #0
 1070 053e 03F00103 		andne	r3, r3, #1
 1071 0542 002B     		cmp	r3, #0
 1072 0544 00F08E81 		beq	.L147
 1073 0548 894B     		ldr	r3, .L229
 1074 054a 9C42     		cmp	r4, r3
 1075 054c 00F08A81 		beq	.L147
 1076 0550 4FF08071 		mov	r1, #16777216
 1077              	.L90:
 212:Drivers/STM32F7xx_HAL_Driver/Src/stm32f7xx_hal_dma_ex.c ****     
 1078              		.loc 1 212 0
 1079 0554 874B     		ldr	r3, .L229+4
 1080 0556 884A     		ldr	r2, .L229+8
 1081 0558 884D     		ldr	r5, .L229+12
 1082 055a 9C42     		cmp	r4, r3
 1083 055c 18BF     		it	ne
 1084 055e 9442     		cmpne	r4, r2
 211:Drivers/STM32F7xx_HAL_Driver/Src/stm32f7xx_hal_dma_ex.c ****     __HAL_DMA_CLEAR_FLAG (hdma, __HAL_DMA_GET_FE_FLAG_INDEX(hdma));
 1085              		.loc 1 211 0
 1086 0560 C2F8CC13 		str	r1, [r2, #972]
 212:Drivers/STM32F7xx_HAL_Driver/Src/stm32f7xx_hal_dma_ex.c ****     
 1087              		.loc 1 212 0
 1088 0564 14BF     		ite	ne
 1089 0566 0123     		movne	r3, #1
 1090 0568 0023     		moveq	r3, #0
 1091 056a AC42     		cmp	r4, r5
 1092 056c 0CBF     		ite	eq
 1093 056e 0023     		moveq	r3, #0
 1094 0570 03F00103 		andne	r3, r3, #1
 1095 0574 002B     		cmp	r3, #0
 1096 0576 00F07281 		beq	.L148
 1097 057a 7D4B     		ldr	r3, .L229
 1098 057c 9C42     		cmp	r4, r3
 1099 057e 00F06E81 		beq	.L148
 1100 0582 4FF48002 		mov	r2, #4194304
 1101 0586 7FE5     		b	.L61
 1102              	.LVL61:
 1103              	.L222:
 208:Drivers/STM32F7xx_HAL_Driver/Src/stm32f7xx_hal_dma_ex.c ****     __HAL_DMA_CLEAR_FLAG (hdma, __HAL_DMA_GET_HT_FLAG_INDEX(hdma));
ARM GAS  /tmp/ccS7nfBM.s 			page 29


 1104              		.loc 1 208 0 discriminator 69
 1105 0588 483B     		subs	r3, r3, #72
 1106 058a A1F57A71 		sub	r1, r1, #1000
 1107 058e 1832     		adds	r2, r2, #24
 1108 0590 9C42     		cmp	r4, r3
 1109 0592 18BF     		it	ne
 1110 0594 8C42     		cmpne	r4, r1
 1111 0596 14BF     		ite	ne
 1112 0598 0123     		movne	r3, #1
 1113 059a 0023     		moveq	r3, #0
 1114 059c 9442     		cmp	r4, r2
 1115 059e 0CBF     		ite	eq
 1116 05a0 0023     		moveq	r3, #0
 1117 05a2 03F00103 		andne	r3, r3, #1
 1118 05a6 002B     		cmp	r3, #0
 1119 05a8 00F06B81 		beq	.L118
 1120 05ac 704B     		ldr	r3, .L229
 1121 05ae 9C42     		cmp	r4, r3
 1122 05b0 00F06781 		beq	.L118
 208:Drivers/STM32F7xx_HAL_Driver/Src/stm32f7xx_hal_dma_ex.c ****     __HAL_DMA_CLEAR_FLAG (hdma, __HAL_DMA_GET_HT_FLAG_INDEX(hdma));
 1123              		.loc 1 208 0 is_stmt 0
 1124 05b4 4FF00065 		mov	r5, #134217728
 1125 05b8 06E6     		b	.L25
 1126              	.LVL62:
 1127              	.L62:
 209:Drivers/STM32F7xx_HAL_Driver/Src/stm32f7xx_hal_dma_ex.c ****     __HAL_DMA_CLEAR_FLAG (hdma, __HAL_DMA_GET_TE_FLAG_INDEX(hdma));
 1128              		.loc 1 209 0 is_stmt 1 discriminator 69
 1129 05ba 6F4B     		ldr	r3, .L229+8
 1130 05bc 6D49     		ldr	r1, .L229+4
 1131 05be 6F4A     		ldr	r2, .L229+12
 1132 05c0 9C42     		cmp	r4, r3
 1133 05c2 18BF     		it	ne
 1134 05c4 8C42     		cmpne	r4, r1
 1135 05c6 14BF     		ite	ne
 1136 05c8 0123     		movne	r3, #1
 1137 05ca 0023     		moveq	r3, #0
 1138 05cc 9442     		cmp	r4, r2
 1139 05ce 0CBF     		ite	eq
 1140 05d0 0023     		moveq	r3, #0
 1141 05d2 03F00103 		andne	r3, r3, #1
 1142 05d6 002B     		cmp	r3, #0
 1143 05d8 00F05981 		beq	.L121
 1144 05dc 644B     		ldr	r3, .L229
 1145 05de 9C42     		cmp	r4, r3
 1146 05e0 00F05581 		beq	.L121
 209:Drivers/STM32F7xx_HAL_Driver/Src/stm32f7xx_hal_dma_ex.c ****     __HAL_DMA_CLEAR_FLAG (hdma, __HAL_DMA_GET_TE_FLAG_INDEX(hdma));
 1147              		.loc 1 209 0 is_stmt 0
 1148 05e4 4FF08065 		mov	r5, #67108864
 1149 05e8 05E6     		b	.L34
 1150              	.L74:
 211:Drivers/STM32F7xx_HAL_Driver/Src/stm32f7xx_hal_dma_ex.c ****     __HAL_DMA_CLEAR_FLAG (hdma, __HAL_DMA_GET_FE_FLAG_INDEX(hdma));
 1151              		.loc 1 211 0 is_stmt 1 discriminator 69
 1152 05ea 624B     		ldr	r3, .L229+4
 1153 05ec 6249     		ldr	r1, .L229+8
 1154 05ee 634A     		ldr	r2, .L229+12
 1155 05f0 9C42     		cmp	r4, r3
 1156 05f2 18BF     		it	ne
ARM GAS  /tmp/ccS7nfBM.s 			page 30


 1157 05f4 8C42     		cmpne	r4, r1
 1158 05f6 14BF     		ite	ne
 1159 05f8 0123     		movne	r3, #1
 1160 05fa 0023     		moveq	r3, #0
 1161 05fc 9442     		cmp	r4, r2
 1162 05fe 0CBF     		ite	eq
 1163 0600 0023     		moveq	r3, #0
 1164 0602 03F00103 		andne	r3, r3, #1
 1165 0606 002B     		cmp	r3, #0
 1166 0608 00F03E81 		beq	.L127
 1167 060c 584B     		ldr	r3, .L229
 1168 060e 9C42     		cmp	r4, r3
 1169 0610 00F03A81 		beq	.L127
 211:Drivers/STM32F7xx_HAL_Driver/Src/stm32f7xx_hal_dma_ex.c ****     __HAL_DMA_CLEAR_FLAG (hdma, __HAL_DMA_GET_FE_FLAG_INDEX(hdma));
 1170              		.loc 1 211 0 is_stmt 0
 1171 0614 4FF08075 		mov	r5, #16777216
 1172 0618 1BE6     		b	.L46
 1173              	.L68:
 210:Drivers/STM32F7xx_HAL_Driver/Src/stm32f7xx_hal_dma_ex.c ****     __HAL_DMA_CLEAR_FLAG (hdma, __HAL_DMA_GET_DME_FLAG_INDEX(hdma));
 1174              		.loc 1 210 0 is_stmt 1 discriminator 69
 1175 061a 564B     		ldr	r3, .L229+4
 1176 061c 5649     		ldr	r1, .L229+8
 1177 061e 574A     		ldr	r2, .L229+12
 1178 0620 9C42     		cmp	r4, r3
 1179 0622 18BF     		it	ne
 1180 0624 8C42     		cmpne	r4, r1
 1181 0626 14BF     		ite	ne
 1182 0628 0123     		movne	r3, #1
 1183 062a 0023     		moveq	r3, #0
 1184 062c 9442     		cmp	r4, r2
 1185 062e 0CBF     		ite	eq
 1186 0630 0023     		moveq	r3, #0
 1187 0632 03F00103 		andne	r3, r3, #1
 1188 0636 002B     		cmp	r3, #0
 1189 0638 00F02C81 		beq	.L124
 1190 063c 4C4B     		ldr	r3, .L229
 1191 063e 9C42     		cmp	r4, r3
 1192 0640 00F02881 		beq	.L124
 210:Drivers/STM32F7xx_HAL_Driver/Src/stm32f7xx_hal_dma_ex.c ****     __HAL_DMA_CLEAR_FLAG (hdma, __HAL_DMA_GET_DME_FLAG_INDEX(hdma));
 1193              		.loc 1 210 0 is_stmt 0
 1194 0644 4FF00075 		mov	r5, #33554432
 1195 0648 ECE5     		b	.L40
 1196              	.L80:
 212:Drivers/STM32F7xx_HAL_Driver/Src/stm32f7xx_hal_dma_ex.c ****     
 1197              		.loc 1 212 0 is_stmt 1 discriminator 69
 1198 064a 4A4B     		ldr	r3, .L229+4
 1199 064c 4A49     		ldr	r1, .L229+8
 1200 064e 4B4A     		ldr	r2, .L229+12
 1201 0650 9C42     		cmp	r4, r3
 1202 0652 18BF     		it	ne
 1203 0654 8C42     		cmpne	r4, r1
 1204 0656 14BF     		ite	ne
 1205 0658 0123     		movne	r3, #1
 1206 065a 0023     		moveq	r3, #0
 1207 065c 9442     		cmp	r4, r2
 1208 065e 0CBF     		ite	eq
 1209 0660 0023     		moveq	r3, #0
ARM GAS  /tmp/ccS7nfBM.s 			page 31


 1210 0662 03F00103 		andne	r3, r3, #1
 1211 0666 002B     		cmp	r3, #0
 1212 0668 00F00881 		beq	.L130
 1213 066c 404B     		ldr	r3, .L229
 1214 066e 9C42     		cmp	r4, r3
 1215 0670 00F00481 		beq	.L130
 212:Drivers/STM32F7xx_HAL_Driver/Src/stm32f7xx_hal_dma_ex.c ****     
 1216              		.loc 1 212 0 is_stmt 0
 1217 0674 4FF48002 		mov	r2, #4194304
 1218 0678 3FE5     		b	.L53
 1219              	.LVL63:
 1220              	.L223:
 208:Drivers/STM32F7xx_HAL_Driver/Src/stm32f7xx_hal_dma_ex.c ****     __HAL_DMA_CLEAR_FLAG (hdma, __HAL_DMA_GET_HT_FLAG_INDEX(hdma));
 1221              		.loc 1 208 0 is_stmt 1 discriminator 169
 1222 067a A3F58963 		sub	r3, r3, #1096
 1223 067e 01F58361 		add	r1, r1, #1048
 1224 0682 1832     		adds	r2, r2, #24
 1225 0684 9C42     		cmp	r4, r3
 1226 0686 18BF     		it	ne
 1227 0688 8C42     		cmpne	r4, r1
 1228 068a 14BF     		ite	ne
 1229 068c 0123     		movne	r3, #1
 1230 068e 0023     		moveq	r3, #0
 1231 0690 9442     		cmp	r4, r2
 1232 0692 0CBF     		ite	eq
 1233 0694 0023     		moveq	r3, #0
 1234 0696 03F00103 		andne	r3, r3, #1
 1235 069a 002B     		cmp	r3, #0
 1236 069c 00F0FD80 		beq	.L120
 1237 06a0 334B     		ldr	r3, .L229
 1238 06a2 9C42     		cmp	r4, r3
 1239 06a4 00F0F980 		beq	.L120
 208:Drivers/STM32F7xx_HAL_Driver/Src/stm32f7xx_hal_dma_ex.c ****     __HAL_DMA_CLEAR_FLAG (hdma, __HAL_DMA_GET_HT_FLAG_INDEX(hdma));
 1240              		.loc 1 208 0 is_stmt 0
 1241 06a8 4FF00061 		mov	r1, #134217728
 1242 06ac 15E6     		b	.L32
 1243              	.L224:
 208:Drivers/STM32F7xx_HAL_Driver/Src/stm32f7xx_hal_dma_ex.c ****     __HAL_DMA_CLEAR_FLAG (hdma, __HAL_DMA_GET_HT_FLAG_INDEX(hdma));
 1244              		.loc 1 208 0 discriminator 120
 1245 06ae A3F58963 		sub	r3, r3, #1096
 1246 06b2 1831     		adds	r1, r1, #24
 1247 06b4 1832     		adds	r2, r2, #24
 1248 06b6 9C42     		cmp	r4, r3
 1249 06b8 18BF     		it	ne
 1250 06ba 8C42     		cmpne	r4, r1
 1251 06bc 14BF     		ite	ne
 1252 06be 0123     		movne	r3, #1
 1253 06c0 0023     		moveq	r3, #0
 1254 06c2 9442     		cmp	r4, r2
 1255 06c4 0CBF     		ite	eq
 1256 06c6 0023     		moveq	r3, #0
 1257 06c8 03F00103 		andne	r3, r3, #1
 1258 06cc 002B     		cmp	r3, #0
 1259 06ce 00F0EA80 		beq	.L119
 1260 06d2 274B     		ldr	r3, .L229
 1261 06d4 9C42     		cmp	r4, r3
 1262 06d6 00F0E680 		beq	.L119
ARM GAS  /tmp/ccS7nfBM.s 			page 32


 208:Drivers/STM32F7xx_HAL_Driver/Src/stm32f7xx_hal_dma_ex.c ****     __HAL_DMA_CLEAR_FLAG (hdma, __HAL_DMA_GET_HT_FLAG_INDEX(hdma));
 1263              		.loc 1 208 0
 1264 06da 4FF00061 		mov	r1, #134217728
 1265 06de 70E6     		b	.L29
 1266              	.LVL64:
 1267              	.L64:
 209:Drivers/STM32F7xx_HAL_Driver/Src/stm32f7xx_hal_dma_ex.c ****     __HAL_DMA_CLEAR_FLAG (hdma, __HAL_DMA_GET_TE_FLAG_INDEX(hdma));
 1268              		.loc 1 209 0 is_stmt 1 discriminator 120
 1269 06e0 254B     		ldr	r3, .L229+8
 1270 06e2 2449     		ldr	r1, .L229+4
 1271 06e4 254A     		ldr	r2, .L229+12
 1272 06e6 9C42     		cmp	r4, r3
 1273 06e8 18BF     		it	ne
 1274 06ea 8C42     		cmpne	r4, r1
 1275 06ec 14BF     		ite	ne
 1276 06ee 0123     		movne	r3, #1
 1277 06f0 0023     		moveq	r3, #0
 1278 06f2 9442     		cmp	r4, r2
 1279 06f4 0CBF     		ite	eq
 1280 06f6 0023     		moveq	r3, #0
 1281 06f8 03F00103 		andne	r3, r3, #1
 1282 06fc 002B     		cmp	r3, #0
 1283 06fe 00F0DE80 		beq	.L122
 1284 0702 1B4B     		ldr	r3, .L229
 1285 0704 9C42     		cmp	r4, r3
 1286 0706 00F0DA80 		beq	.L122
 209:Drivers/STM32F7xx_HAL_Driver/Src/stm32f7xx_hal_dma_ex.c ****     __HAL_DMA_CLEAR_FLAG (hdma, __HAL_DMA_GET_TE_FLAG_INDEX(hdma));
 1287              		.loc 1 209 0 is_stmt 0
 1288 070a 4FF08061 		mov	r1, #67108864
 1289 070e 6FE6     		b	.L36
 1290              	.L66:
 209:Drivers/STM32F7xx_HAL_Driver/Src/stm32f7xx_hal_dma_ex.c ****     __HAL_DMA_CLEAR_FLAG (hdma, __HAL_DMA_GET_TE_FLAG_INDEX(hdma));
 1291              		.loc 1 209 0 discriminator 169
 1292 0710 184B     		ldr	r3, .L229+4
 1293 0712 1949     		ldr	r1, .L229+8
 1294 0714 194A     		ldr	r2, .L229+12
 1295 0716 9C42     		cmp	r4, r3
 1296 0718 18BF     		it	ne
 1297 071a 8C42     		cmpne	r4, r1
 1298 071c 14BF     		ite	ne
 1299 071e 0123     		movne	r3, #1
 1300 0720 0023     		moveq	r3, #0
 1301 0722 9442     		cmp	r4, r2
 1302 0724 0CBF     		ite	eq
 1303 0726 0023     		moveq	r3, #0
 1304 0728 03F00103 		andne	r3, r3, #1
 1305 072c 002B     		cmp	r3, #0
 1306 072e 00F0C080 		beq	.L123
 1307 0732 0F4B     		ldr	r3, .L229
 1308 0734 9C42     		cmp	r4, r3
 1309 0736 00F0BC80 		beq	.L123
 209:Drivers/STM32F7xx_HAL_Driver/Src/stm32f7xx_hal_dma_ex.c ****     __HAL_DMA_CLEAR_FLAG (hdma, __HAL_DMA_GET_TE_FLAG_INDEX(hdma));
 1310              		.loc 1 209 0
 1311 073a 4FF08061 		mov	r1, #67108864
 1312 073e E4E5     		b	.L38
 1313              	.L76:
 211:Drivers/STM32F7xx_HAL_Driver/Src/stm32f7xx_hal_dma_ex.c ****     __HAL_DMA_CLEAR_FLAG (hdma, __HAL_DMA_GET_FE_FLAG_INDEX(hdma));
ARM GAS  /tmp/ccS7nfBM.s 			page 33


 1314              		.loc 1 211 0 is_stmt 1 discriminator 120
 1315 0740 0D4B     		ldr	r3, .L229+8
 1316 0742 0C49     		ldr	r1, .L229+4
 1317 0744 0D4A     		ldr	r2, .L229+12
 1318 0746 9C42     		cmp	r4, r3
 1319 0748 18BF     		it	ne
 1320 074a 8C42     		cmpne	r4, r1
 1321 074c 14BF     		ite	ne
 1322 074e 0123     		movne	r3, #1
 1323 0750 0023     		moveq	r3, #0
 1324 0752 9442     		cmp	r4, r2
 1325 0754 0CBF     		ite	eq
 1326 0756 0023     		moveq	r3, #0
 1327 0758 03F00103 		andne	r3, r3, #1
 1328 075c 002B     		cmp	r3, #0
 1329 075e 00F0B480 		beq	.L128
 1330 0762 034B     		ldr	r3, .L229
 1331 0764 9C42     		cmp	r4, r3
 1332 0766 00F0B080 		beq	.L128
 211:Drivers/STM32F7xx_HAL_Driver/Src/stm32f7xx_hal_dma_ex.c ****     __HAL_DMA_CLEAR_FLAG (hdma, __HAL_DMA_GET_FE_FLAG_INDEX(hdma));
 1333              		.loc 1 211 0 is_stmt 0
 1334 076a 4FF08071 		mov	r1, #16777216
 1335 076e 6EE6     		b	.L48
 1336              	.L230:
 1337              		.align	2
 1338              	.L229:
 1339 0770 A0640240 		.word	1073898656
 1340 0774 40640240 		.word	1073898560
 1341 0778 40600240 		.word	1073897536
 1342 077c A0600240 		.word	1073897632
 1343              	.L78:
 211:Drivers/STM32F7xx_HAL_Driver/Src/stm32f7xx_hal_dma_ex.c ****     __HAL_DMA_CLEAR_FLAG (hdma, __HAL_DMA_GET_FE_FLAG_INDEX(hdma));
 1344              		.loc 1 211 0 discriminator 169
 1345 0780 554B     		ldr	r3, .L231
 1346 0782 5649     		ldr	r1, .L231+4
 1347 0784 564A     		ldr	r2, .L231+8
 1348 0786 9C42     		cmp	r4, r3
 1349 0788 18BF     		it	ne
 1350 078a 8C42     		cmpne	r4, r1
 1351 078c 14BF     		ite	ne
 1352 078e 0123     		movne	r3, #1
 1353 0790 0023     		moveq	r3, #0
 1354 0792 9442     		cmp	r4, r2
 1355 0794 0CBF     		ite	eq
 1356 0796 0023     		moveq	r3, #0
 1357 0798 03F00103 		andne	r3, r3, #1
 1358 079c 002B     		cmp	r3, #0
 1359 079e 00F08580 		beq	.L129
 1360 07a2 504B     		ldr	r3, .L231+12
 1361 07a4 9C42     		cmp	r4, r3
 1362 07a6 00F08180 		beq	.L129
 211:Drivers/STM32F7xx_HAL_Driver/Src/stm32f7xx_hal_dma_ex.c ****     __HAL_DMA_CLEAR_FLAG (hdma, __HAL_DMA_GET_FE_FLAG_INDEX(hdma));
 1363              		.loc 1 211 0
 1364 07aa 4FF08071 		mov	r1, #16777216
 1365 07ae DBE5     		b	.L50
 1366              	.L70:
 210:Drivers/STM32F7xx_HAL_Driver/Src/stm32f7xx_hal_dma_ex.c ****     __HAL_DMA_CLEAR_FLAG (hdma, __HAL_DMA_GET_DME_FLAG_INDEX(hdma));
ARM GAS  /tmp/ccS7nfBM.s 			page 34


 1367              		.loc 1 210 0 is_stmt 1 discriminator 120
 1368 07b0 4A4B     		ldr	r3, .L231+4
 1369 07b2 4949     		ldr	r1, .L231
 1370 07b4 4A4A     		ldr	r2, .L231+8
 1371 07b6 9C42     		cmp	r4, r3
 1372 07b8 18BF     		it	ne
 1373 07ba 8C42     		cmpne	r4, r1
 1374 07bc 14BF     		ite	ne
 1375 07be 0123     		movne	r3, #1
 1376 07c0 0023     		moveq	r3, #0
 1377 07c2 9442     		cmp	r4, r2
 1378 07c4 0CBF     		ite	eq
 1379 07c6 0023     		moveq	r3, #0
 1380 07c8 03F00103 		andne	r3, r3, #1
 1381 07cc 002B     		cmp	r3, #0
 1382 07ce 79D0     		beq	.L125
 1383 07d0 444B     		ldr	r3, .L231+12
 1384 07d2 9C42     		cmp	r4, r3
 1385 07d4 76D0     		beq	.L125
 210:Drivers/STM32F7xx_HAL_Driver/Src/stm32f7xx_hal_dma_ex.c ****     __HAL_DMA_CLEAR_FLAG (hdma, __HAL_DMA_GET_DME_FLAG_INDEX(hdma));
 1386              		.loc 1 210 0 is_stmt 0
 1387 07d6 4FF00071 		mov	r1, #33554432
 1388 07da 21E6     		b	.L42
 1389              	.L72:
 210:Drivers/STM32F7xx_HAL_Driver/Src/stm32f7xx_hal_dma_ex.c ****     __HAL_DMA_CLEAR_FLAG (hdma, __HAL_DMA_GET_DME_FLAG_INDEX(hdma));
 1390              		.loc 1 210 0 discriminator 169
 1391 07dc 3E4B     		ldr	r3, .L231
 1392 07de 3F49     		ldr	r1, .L231+4
 1393 07e0 3F4A     		ldr	r2, .L231+8
 1394 07e2 9C42     		cmp	r4, r3
 1395 07e4 18BF     		it	ne
 1396 07e6 8C42     		cmpne	r4, r1
 1397 07e8 14BF     		ite	ne
 1398 07ea 0123     		movne	r3, #1
 1399 07ec 0023     		moveq	r3, #0
 1400 07ee 9442     		cmp	r4, r2
 1401 07f0 0CBF     		ite	eq
 1402 07f2 0023     		moveq	r3, #0
 1403 07f4 03F00103 		andne	r3, r3, #1
 1404 07f8 002B     		cmp	r3, #0
 1405 07fa 5DD0     		beq	.L126
 1406 07fc 394B     		ldr	r3, .L231+12
 1407 07fe 9C42     		cmp	r4, r3
 1408 0800 5AD0     		beq	.L126
 210:Drivers/STM32F7xx_HAL_Driver/Src/stm32f7xx_hal_dma_ex.c ****     __HAL_DMA_CLEAR_FLAG (hdma, __HAL_DMA_GET_DME_FLAG_INDEX(hdma));
 1409              		.loc 1 210 0
 1410 0802 4FF00071 		mov	r1, #33554432
 1411 0806 98E5     		b	.L44
 1412              	.L82:
 212:Drivers/STM32F7xx_HAL_Driver/Src/stm32f7xx_hal_dma_ex.c ****     
 1413              		.loc 1 212 0 is_stmt 1 discriminator 120
 1414 0808 344B     		ldr	r3, .L231+4
 1415 080a 3349     		ldr	r1, .L231
 1416 080c 344A     		ldr	r2, .L231+8
 1417 080e 9C42     		cmp	r4, r3
 1418 0810 18BF     		it	ne
 1419 0812 8C42     		cmpne	r4, r1
ARM GAS  /tmp/ccS7nfBM.s 			page 35


 1420 0814 14BF     		ite	ne
 1421 0816 0123     		movne	r3, #1
 1422 0818 0023     		moveq	r3, #0
 1423 081a 9442     		cmp	r4, r2
 1424 081c 0CBF     		ite	eq
 1425 081e 0023     		moveq	r3, #0
 1426 0820 03F00103 		andne	r3, r3, #1
 1427 0824 002B     		cmp	r3, #0
 1428 0826 53D0     		beq	.L131
 1429 0828 2E4B     		ldr	r3, .L231+12
 1430 082a 9C42     		cmp	r4, r3
 1431 082c 50D0     		beq	.L131
 212:Drivers/STM32F7xx_HAL_Driver/Src/stm32f7xx_hal_dma_ex.c ****     
 1432              		.loc 1 212 0 is_stmt 0
 1433 082e 4FF48002 		mov	r2, #4194304
 1434 0832 7DE4     		b	.L55
 1435              	.L84:
 212:Drivers/STM32F7xx_HAL_Driver/Src/stm32f7xx_hal_dma_ex.c ****     
 1436              		.loc 1 212 0 discriminator 169
 1437 0834 294B     		ldr	r3, .L231+4
 1438 0836 2849     		ldr	r1, .L231
 1439 0838 294A     		ldr	r2, .L231+8
 1440 083a 9C42     		cmp	r4, r3
 1441 083c 18BF     		it	ne
 1442 083e 8C42     		cmpne	r4, r1
 1443 0840 14BF     		ite	ne
 1444 0842 0123     		movne	r3, #1
 1445 0844 0023     		moveq	r3, #0
 1446 0846 9442     		cmp	r4, r2
 1447 0848 0CBF     		ite	eq
 1448 084a 0023     		moveq	r3, #0
 1449 084c 03F00103 		andne	r3, r3, #1
 1450 0850 33B3     		cbz	r3, .L132
 1451 0852 244B     		ldr	r3, .L231+12
 1452 0854 9C42     		cmp	r4, r3
 1453 0856 23D0     		beq	.L132
 212:Drivers/STM32F7xx_HAL_Driver/Src/stm32f7xx_hal_dma_ex.c ****     
 1454              		.loc 1 212 0
 1455 0858 4FF48002 		mov	r2, #4194304
 1456 085c 78E4     		b	.L57
 1457              	.L148:
 1458 085e 4FF48032 		mov	r2, #65536
 1459 0862 11E4     		b	.L61
 1460              	.L147:
 211:Drivers/STM32F7xx_HAL_Driver/Src/stm32f7xx_hal_dma_ex.c ****     __HAL_DMA_CLEAR_FLAG (hdma, __HAL_DMA_GET_FE_FLAG_INDEX(hdma));
 1461              		.loc 1 211 0 is_stmt 1
 1462 0864 4FF48021 		mov	r1, #262144
 1463 0868 74E6     		b	.L90
 1464              	.L146:
 210:Drivers/STM32F7xx_HAL_Driver/Src/stm32f7xx_hal_dma_ex.c ****     __HAL_DMA_CLEAR_FLAG (hdma, __HAL_DMA_GET_DME_FLAG_INDEX(hdma));
 1465              		.loc 1 210 0
 1466 086a 4FF40021 		mov	r1, #524288
 1467 086e 58E6     		b	.L88
 1468              	.L145:
 209:Drivers/STM32F7xx_HAL_Driver/Src/stm32f7xx_hal_dma_ex.c ****     __HAL_DMA_CLEAR_FLAG (hdma, __HAL_DMA_GET_TE_FLAG_INDEX(hdma));
 1469              		.loc 1 209 0
 1470 0870 4FF48011 		mov	r1, #1048576
ARM GAS  /tmp/ccS7nfBM.s 			page 36


 1471 0874 3CE6     		b	.L86
 1472              	.LVL65:
 1473              	.L117:
 208:Drivers/STM32F7xx_HAL_Driver/Src/stm32f7xx_hal_dma_ex.c ****     __HAL_DMA_CLEAR_FLAG (hdma, __HAL_DMA_GET_HT_FLAG_INDEX(hdma));
 1474              		.loc 1 208 0
 1475 0876 4FF40011 		mov	r1, #2097152
 1476 087a 20E6     		b	.L21
 1477              	.LVL66:
 1478              	.L130:
 212:Drivers/STM32F7xx_HAL_Driver/Src/stm32f7xx_hal_dma_ex.c ****     
 1479              		.loc 1 212 0
 1480 087c 4FF48032 		mov	r2, #65536
 1481 0880 3BE4     		b	.L53
 1482              	.LVL67:
 1483              	.L118:
 208:Drivers/STM32F7xx_HAL_Driver/Src/stm32f7xx_hal_dma_ex.c ****     __HAL_DMA_CLEAR_FLAG (hdma, __HAL_DMA_GET_HT_FLAG_INDEX(hdma));
 1484              		.loc 1 208 0
 1485 0882 4FF40015 		mov	r5, #2097152
 1486 0886 9FE4     		b	.L25
 1487              	.LVL68:
 1488              	.L127:
 211:Drivers/STM32F7xx_HAL_Driver/Src/stm32f7xx_hal_dma_ex.c ****     __HAL_DMA_CLEAR_FLAG (hdma, __HAL_DMA_GET_FE_FLAG_INDEX(hdma));
 1489              		.loc 1 211 0
 1490 0888 4FF48025 		mov	r5, #262144
 1491 088c E1E4     		b	.L46
 1492              	.L121:
 209:Drivers/STM32F7xx_HAL_Driver/Src/stm32f7xx_hal_dma_ex.c ****     __HAL_DMA_CLEAR_FLAG (hdma, __HAL_DMA_GET_TE_FLAG_INDEX(hdma));
 1493              		.loc 1 209 0
 1494 088e 4FF48015 		mov	r5, #1048576
 1495 0892 B0E4     		b	.L34
 1496              	.L124:
 210:Drivers/STM32F7xx_HAL_Driver/Src/stm32f7xx_hal_dma_ex.c ****     __HAL_DMA_CLEAR_FLAG (hdma, __HAL_DMA_GET_DME_FLAG_INDEX(hdma));
 1497              		.loc 1 210 0
 1498 0894 4FF40025 		mov	r5, #524288
 1499 0898 C4E4     		b	.L40
 1500              	.LVL69:
 1501              	.L120:
 208:Drivers/STM32F7xx_HAL_Driver/Src/stm32f7xx_hal_dma_ex.c ****     __HAL_DMA_CLEAR_FLAG (hdma, __HAL_DMA_GET_HT_FLAG_INDEX(hdma));
 1502              		.loc 1 208 0
 1503 089a 4FF40011 		mov	r1, #2097152
 1504 089e 1CE5     		b	.L32
 1505              	.LVL70:
 1506              	.L132:
 212:Drivers/STM32F7xx_HAL_Driver/Src/stm32f7xx_hal_dma_ex.c ****     
 1507              		.loc 1 212 0
 1508 08a0 4FF48032 		mov	r2, #65536
 1509 08a4 54E4     		b	.L57
 1510              	.LVL71:
 1511              	.L119:
 208:Drivers/STM32F7xx_HAL_Driver/Src/stm32f7xx_hal_dma_ex.c ****     __HAL_DMA_CLEAR_FLAG (hdma, __HAL_DMA_GET_HT_FLAG_INDEX(hdma));
 1512              		.loc 1 208 0
 1513 08a6 4FF40011 		mov	r1, #2097152
 1514 08aa 8AE5     		b	.L29
 1515              	.LVL72:
 1516              	.L129:
 211:Drivers/STM32F7xx_HAL_Driver/Src/stm32f7xx_hal_dma_ex.c ****     __HAL_DMA_CLEAR_FLAG (hdma, __HAL_DMA_GET_FE_FLAG_INDEX(hdma));
 1517              		.loc 1 211 0
ARM GAS  /tmp/ccS7nfBM.s 			page 37


 1518 08ac 4FF48021 		mov	r1, #262144
 1519 08b0 5AE5     		b	.L50
 1520              	.L123:
 209:Drivers/STM32F7xx_HAL_Driver/Src/stm32f7xx_hal_dma_ex.c ****     __HAL_DMA_CLEAR_FLAG (hdma, __HAL_DMA_GET_TE_FLAG_INDEX(hdma));
 1521              		.loc 1 209 0
 1522 08b2 4FF48011 		mov	r1, #1048576
 1523 08b6 28E5     		b	.L38
 1524              	.L126:
 210:Drivers/STM32F7xx_HAL_Driver/Src/stm32f7xx_hal_dma_ex.c ****     __HAL_DMA_CLEAR_FLAG (hdma, __HAL_DMA_GET_DME_FLAG_INDEX(hdma));
 1525              		.loc 1 210 0
 1526 08b8 4FF40021 		mov	r1, #524288
 1527 08bc 3DE5     		b	.L44
 1528              	.L122:
 209:Drivers/STM32F7xx_HAL_Driver/Src/stm32f7xx_hal_dma_ex.c ****     __HAL_DMA_CLEAR_FLAG (hdma, __HAL_DMA_GET_TE_FLAG_INDEX(hdma));
 1529              		.loc 1 209 0
 1530 08be 4FF48011 		mov	r1, #1048576
 1531 08c2 95E5     		b	.L36
 1532              	.L125:
 210:Drivers/STM32F7xx_HAL_Driver/Src/stm32f7xx_hal_dma_ex.c ****     __HAL_DMA_CLEAR_FLAG (hdma, __HAL_DMA_GET_DME_FLAG_INDEX(hdma));
 1533              		.loc 1 210 0
 1534 08c4 4FF40021 		mov	r1, #524288
 1535 08c8 AAE5     		b	.L42
 1536              	.L128:
 211:Drivers/STM32F7xx_HAL_Driver/Src/stm32f7xx_hal_dma_ex.c ****     __HAL_DMA_CLEAR_FLAG (hdma, __HAL_DMA_GET_FE_FLAG_INDEX(hdma));
 1537              		.loc 1 211 0
 1538 08ca 4FF48021 		mov	r1, #262144
 1539 08ce BEE5     		b	.L48
 1540              	.L131:
 212:Drivers/STM32F7xx_HAL_Driver/Src/stm32f7xx_hal_dma_ex.c ****     
 1541              		.loc 1 212 0
 1542 08d0 4FF48032 		mov	r2, #65536
 1543 08d4 2CE4     		b	.L55
 1544              	.L232:
 1545 08d6 00BF     		.align	2
 1546              	.L231:
 1547 08d8 40600240 		.word	1073897536
 1548 08dc 40640240 		.word	1073898560
 1549 08e0 A0600240 		.word	1073897632
 1550 08e4 A0640240 		.word	1073898656
 1551              		.cfi_endproc
 1552              	.LFE139:
 1554              		.section	.text.HAL_DMAEx_ChangeMemory,"ax",%progbits
 1555              		.align	1
 1556              		.p2align 2,,3
 1557              		.global	HAL_DMAEx_ChangeMemory
 1558              		.syntax unified
 1559              		.thumb
 1560              		.thumb_func
 1561              		.fpu fpv4-sp-d16
 1563              	HAL_DMAEx_ChangeMemory:
 1564              	.LFB140:
 252:Drivers/STM32F7xx_HAL_Driver/Src/stm32f7xx_hal_dma_ex.c ****   if(memory == MEMORY0)
 1565              		.loc 1 252 0
 1566              		.cfi_startproc
 1567              		@ args = 0, pretend = 0, frame = 0
 1568              		@ frame_needed = 0, uses_anonymous_args = 0
 1569              		@ link register save eliminated.
ARM GAS  /tmp/ccS7nfBM.s 			page 38


 1570              	.LVL73:
 1571 0000 0368     		ldr	r3, [r0]
 253:Drivers/STM32F7xx_HAL_Driver/Src/stm32f7xx_hal_dma_ex.c ****   {
 1572              		.loc 1 253 0
 1573 0002 12B1     		cbz	r2, .L236
 261:Drivers/STM32F7xx_HAL_Driver/Src/stm32f7xx_hal_dma_ex.c ****   }
 1574              		.loc 1 261 0
 1575 0004 1961     		str	r1, [r3, #16]
 265:Drivers/STM32F7xx_HAL_Driver/Src/stm32f7xx_hal_dma_ex.c **** 
 1576              		.loc 1 265 0
 1577 0006 0020     		movs	r0, #0
 1578              	.LVL74:
 1579 0008 7047     		bx	lr
 1580              	.LVL75:
 1581              	.L236:
 256:Drivers/STM32F7xx_HAL_Driver/Src/stm32f7xx_hal_dma_ex.c ****   }
 1582              		.loc 1 256 0
 1583 000a D960     		str	r1, [r3, #12]
 265:Drivers/STM32F7xx_HAL_Driver/Src/stm32f7xx_hal_dma_ex.c **** 
 1584              		.loc 1 265 0
 1585 000c 0020     		movs	r0, #0
 1586              	.LVL76:
 1587 000e 7047     		bx	lr
 1588              		.cfi_endproc
 1589              	.LFE140:
 1591              		.comm	UpdateFile,4,4
 1592              		.comm	SpiRxData,4,4
 1593              		.comm	SpiTxData,4,4
 1594              		.text
 1595              	.Letext0:
 1596              		.file 2 "/usr/include/newlib/machine/_default_types.h"
 1597              		.file 3 "/usr/include/newlib/sys/lock.h"
 1598              		.file 4 "/usr/include/newlib/sys/_types.h"
 1599              		.file 5 "/usr/lib/gcc/arm-none-eabi/7.3.1/include/stddef.h"
 1600              		.file 6 "/usr/include/newlib/sys/reent.h"
 1601              		.file 7 "/usr/include/newlib/sys/_stdint.h"
 1602              		.file 8 "Inc/main.h"
 1603              		.file 9 "Drivers/CMSIS/Include/core_cm7.h"
 1604              		.file 10 "Drivers/CMSIS/Device/ST/STM32F7xx/Include/system_stm32f7xx.h"
 1605              		.file 11 "Drivers/CMSIS/Device/ST/STM32F7xx/Include/stm32f746xx.h"
 1606              		.file 12 "Drivers/STM32F7xx_HAL_Driver/Inc/stm32f7xx_hal_def.h"
 1607              		.file 13 "Drivers/STM32F7xx_HAL_Driver/Inc/stm32f7xx_hal_dma.h"
 1608              		.file 14 "Drivers/STM32F7xx_HAL_Driver/Inc/stm32f7xx_hal_dma_ex.h"
ARM GAS  /tmp/ccS7nfBM.s 			page 39


DEFINED SYMBOLS
                            *ABS*:0000000000000000 stm32f7xx_hal_dma_ex.c
     /tmp/ccS7nfBM.s:18     .text.HAL_DMAEx_MultiBufferStart:0000000000000000 $t
     /tmp/ccS7nfBM.s:26     .text.HAL_DMAEx_MultiBufferStart:0000000000000000 HAL_DMAEx_MultiBufferStart
     /tmp/ccS7nfBM.s:177    .text.HAL_DMAEx_MultiBufferStart_IT:0000000000000000 $t
     /tmp/ccS7nfBM.s:185    .text.HAL_DMAEx_MultiBufferStart_IT:0000000000000000 HAL_DMAEx_MultiBufferStart_IT
     /tmp/ccS7nfBM.s:705    .text.HAL_DMAEx_MultiBufferStart_IT:0000000000000280 $d
     /tmp/ccS7nfBM.s:720    .text.HAL_DMAEx_MultiBufferStart_IT:00000000000002b0 $t
     /tmp/ccS7nfBM.s:977    .text.HAL_DMAEx_MultiBufferStart_IT:0000000000000480 $d
     /tmp/ccS7nfBM.s:984    .text.HAL_DMAEx_MultiBufferStart_IT:0000000000000490 $t
     /tmp/ccS7nfBM.s:1339   .text.HAL_DMAEx_MultiBufferStart_IT:0000000000000770 $d
     /tmp/ccS7nfBM.s:1345   .text.HAL_DMAEx_MultiBufferStart_IT:0000000000000780 $t
     /tmp/ccS7nfBM.s:1547   .text.HAL_DMAEx_MultiBufferStart_IT:00000000000008d8 $d
     /tmp/ccS7nfBM.s:1555   .text.HAL_DMAEx_ChangeMemory:0000000000000000 $t
     /tmp/ccS7nfBM.s:1563   .text.HAL_DMAEx_ChangeMemory:0000000000000000 HAL_DMAEx_ChangeMemory
                            *COM*:0000000000000004 UpdateFile
                            *COM*:0000000000000004 SpiRxData
                            *COM*:0000000000000004 SpiTxData

NO UNDEFINED SYMBOLS
