ARM GAS  /tmp/cc6CQ8Vx.s 			page 1


   1              		.cpu cortex-m7
   2              		.eabi_attribute 27, 1
   3              		.eabi_attribute 28, 1
   4              		.eabi_attribute 20, 1
   5              		.eabi_attribute 21, 1
   6              		.eabi_attribute 23, 3
   7              		.eabi_attribute 24, 1
   8              		.eabi_attribute 25, 1
   9              		.eabi_attribute 26, 1
  10              		.eabi_attribute 30, 2
  11              		.eabi_attribute 34, 1
  12              		.eabi_attribute 18, 4
  13              		.file	"stm32f7xx_hal_uart.c"
  14              		.text
  15              	.Ltext0:
  16              		.cfi_sections	.debug_frame
  17              		.section	.text.HAL_UART_MspInit,"ax",%progbits
  18              		.align	1
  19              		.p2align 2,,3
  20              		.weak	HAL_UART_MspInit
  21              		.syntax unified
  22              		.thumb
  23              		.thumb_func
  24              		.fpu fpv4-sp-d16
  26              	HAL_UART_MspInit:
  27              	.LFB144:
  28              		.file 1 "Drivers/STM32F7xx_HAL_Driver/Src/stm32f7xx_hal_uart.c"
   1:Drivers/STM32F7xx_HAL_Driver/Src/stm32f7xx_hal_uart.c **** /**
   2:Drivers/STM32F7xx_HAL_Driver/Src/stm32f7xx_hal_uart.c ****   ******************************************************************************
   3:Drivers/STM32F7xx_HAL_Driver/Src/stm32f7xx_hal_uart.c ****   * @file    stm32f7xx_hal_uart.c
   4:Drivers/STM32F7xx_HAL_Driver/Src/stm32f7xx_hal_uart.c ****   * @author  MCD Application Team
   5:Drivers/STM32F7xx_HAL_Driver/Src/stm32f7xx_hal_uart.c ****   * @brief   UART HAL module driver.
   6:Drivers/STM32F7xx_HAL_Driver/Src/stm32f7xx_hal_uart.c ****   *          This file provides firmware functions to manage the following
   7:Drivers/STM32F7xx_HAL_Driver/Src/stm32f7xx_hal_uart.c ****   *          functionalities of the Universal Asynchronous Receiver Transmitter (UART) peripheral:
   8:Drivers/STM32F7xx_HAL_Driver/Src/stm32f7xx_hal_uart.c ****   *           + Initialization and de-initialization functions
   9:Drivers/STM32F7xx_HAL_Driver/Src/stm32f7xx_hal_uart.c ****   *           + IO operation functions
  10:Drivers/STM32F7xx_HAL_Driver/Src/stm32f7xx_hal_uart.c ****   *           + Peripheral Control functions
  11:Drivers/STM32F7xx_HAL_Driver/Src/stm32f7xx_hal_uart.c ****   *           + Peripheral State and Errors functions
  12:Drivers/STM32F7xx_HAL_Driver/Src/stm32f7xx_hal_uart.c ****   *
  13:Drivers/STM32F7xx_HAL_Driver/Src/stm32f7xx_hal_uart.c ****   @verbatim
  14:Drivers/STM32F7xx_HAL_Driver/Src/stm32f7xx_hal_uart.c ****   ==============================================================================
  15:Drivers/STM32F7xx_HAL_Driver/Src/stm32f7xx_hal_uart.c ****                         ##### How to use this driver #####
  16:Drivers/STM32F7xx_HAL_Driver/Src/stm32f7xx_hal_uart.c ****   ==============================================================================
  17:Drivers/STM32F7xx_HAL_Driver/Src/stm32f7xx_hal_uart.c ****   [..]
  18:Drivers/STM32F7xx_HAL_Driver/Src/stm32f7xx_hal_uart.c ****     The UART HAL driver can be used as follows:
  19:Drivers/STM32F7xx_HAL_Driver/Src/stm32f7xx_hal_uart.c **** 
  20:Drivers/STM32F7xx_HAL_Driver/Src/stm32f7xx_hal_uart.c ****     (#) Declare a UART_HandleTypeDef handle structure.
  21:Drivers/STM32F7xx_HAL_Driver/Src/stm32f7xx_hal_uart.c **** 
  22:Drivers/STM32F7xx_HAL_Driver/Src/stm32f7xx_hal_uart.c ****     (#) Initialize the UART low level resources by implementing the HAL_UART_MspInit() API:
  23:Drivers/STM32F7xx_HAL_Driver/Src/stm32f7xx_hal_uart.c ****         (##) Enable the USARTx interface clock.
  24:Drivers/STM32F7xx_HAL_Driver/Src/stm32f7xx_hal_uart.c ****         (##) UART pins configuration:
  25:Drivers/STM32F7xx_HAL_Driver/Src/stm32f7xx_hal_uart.c ****             (+++) Enable the clock for the UART GPIOs.
  26:Drivers/STM32F7xx_HAL_Driver/Src/stm32f7xx_hal_uart.c ****             (+++) Configure these UART pins as alternate function pull-up.
  27:Drivers/STM32F7xx_HAL_Driver/Src/stm32f7xx_hal_uart.c ****         (##) NVIC configuration if you need to use interrupt process (HAL_UART_Transmit_IT()
  28:Drivers/STM32F7xx_HAL_Driver/Src/stm32f7xx_hal_uart.c ****              and HAL_UART_Receive_IT() APIs):
  29:Drivers/STM32F7xx_HAL_Driver/Src/stm32f7xx_hal_uart.c ****             (+++) Configure the USARTx interrupt priority.
  30:Drivers/STM32F7xx_HAL_Driver/Src/stm32f7xx_hal_uart.c ****             (+++) Enable the NVIC USART IRQ handle.
ARM GAS  /tmp/cc6CQ8Vx.s 			page 2


  31:Drivers/STM32F7xx_HAL_Driver/Src/stm32f7xx_hal_uart.c ****         (##) DMA Configuration if you need to use DMA process (HAL_UART_Transmit_DMA()
  32:Drivers/STM32F7xx_HAL_Driver/Src/stm32f7xx_hal_uart.c ****              and HAL_UART_Receive_DMA() APIs):
  33:Drivers/STM32F7xx_HAL_Driver/Src/stm32f7xx_hal_uart.c ****             (+++) Declare a DMA handle structure for the Tx/Rx stream.
  34:Drivers/STM32F7xx_HAL_Driver/Src/stm32f7xx_hal_uart.c ****             (+++) Enable the DMAx interface clock.
  35:Drivers/STM32F7xx_HAL_Driver/Src/stm32f7xx_hal_uart.c ****             (+++) Configure the declared DMA handle structure with the required
  36:Drivers/STM32F7xx_HAL_Driver/Src/stm32f7xx_hal_uart.c ****                   Tx/Rx parameters.
  37:Drivers/STM32F7xx_HAL_Driver/Src/stm32f7xx_hal_uart.c ****             (+++) Configure the DMA Tx/Rx Stream.
  38:Drivers/STM32F7xx_HAL_Driver/Src/stm32f7xx_hal_uart.c ****             (+++) Associate the initialized DMA handle to the UART DMA Tx/Rx handle.
  39:Drivers/STM32F7xx_HAL_Driver/Src/stm32f7xx_hal_uart.c ****             (+++) Configure the priority and enable the NVIC for the transfer complete
  40:Drivers/STM32F7xx_HAL_Driver/Src/stm32f7xx_hal_uart.c ****                   interrupt on the DMA Tx/Rx Stream.
  41:Drivers/STM32F7xx_HAL_Driver/Src/stm32f7xx_hal_uart.c **** 
  42:Drivers/STM32F7xx_HAL_Driver/Src/stm32f7xx_hal_uart.c ****     (#) Program the Baud Rate, Word Length, Stop Bit, Parity, Hardware
  43:Drivers/STM32F7xx_HAL_Driver/Src/stm32f7xx_hal_uart.c ****         flow control and Mode(Receiver/Transmitter) in the Init structure.
  44:Drivers/STM32F7xx_HAL_Driver/Src/stm32f7xx_hal_uart.c **** 
  45:Drivers/STM32F7xx_HAL_Driver/Src/stm32f7xx_hal_uart.c ****     (#) For the UART asynchronous mode, initialize the UART registers by calling
  46:Drivers/STM32F7xx_HAL_Driver/Src/stm32f7xx_hal_uart.c ****         the HAL_UART_Init() API.
  47:Drivers/STM32F7xx_HAL_Driver/Src/stm32f7xx_hal_uart.c **** 
  48:Drivers/STM32F7xx_HAL_Driver/Src/stm32f7xx_hal_uart.c ****     (#) For the UART Half duplex mode, initialize the UART registers by calling
  49:Drivers/STM32F7xx_HAL_Driver/Src/stm32f7xx_hal_uart.c ****         the HAL_HalfDuplex_Init() API.
  50:Drivers/STM32F7xx_HAL_Driver/Src/stm32f7xx_hal_uart.c **** 
  51:Drivers/STM32F7xx_HAL_Driver/Src/stm32f7xx_hal_uart.c ****     (#) For the LIN mode, initialize the UART registers by calling the HAL_LIN_Init() API.
  52:Drivers/STM32F7xx_HAL_Driver/Src/stm32f7xx_hal_uart.c **** 
  53:Drivers/STM32F7xx_HAL_Driver/Src/stm32f7xx_hal_uart.c ****     (#) For the Multi-Processor mode, initialize the UART registers by calling
  54:Drivers/STM32F7xx_HAL_Driver/Src/stm32f7xx_hal_uart.c ****         the HAL_MultiProcessor_Init() API.
  55:Drivers/STM32F7xx_HAL_Driver/Src/stm32f7xx_hal_uart.c **** 
  56:Drivers/STM32F7xx_HAL_Driver/Src/stm32f7xx_hal_uart.c ****      [..]
  57:Drivers/STM32F7xx_HAL_Driver/Src/stm32f7xx_hal_uart.c ****        (@) The specific UART interrupts (Transmission complete interrupt,
  58:Drivers/STM32F7xx_HAL_Driver/Src/stm32f7xx_hal_uart.c ****             RXNE interrupt and Error Interrupts) will be managed using the macros
  59:Drivers/STM32F7xx_HAL_Driver/Src/stm32f7xx_hal_uart.c ****             __HAL_UART_ENABLE_IT() and __HAL_UART_DISABLE_IT() inside the transmit
  60:Drivers/STM32F7xx_HAL_Driver/Src/stm32f7xx_hal_uart.c ****             and receive process.
  61:Drivers/STM32F7xx_HAL_Driver/Src/stm32f7xx_hal_uart.c **** 
  62:Drivers/STM32F7xx_HAL_Driver/Src/stm32f7xx_hal_uart.c ****      [..]
  63:Drivers/STM32F7xx_HAL_Driver/Src/stm32f7xx_hal_uart.c ****        (@) These APIs (HAL_UART_Init() and HAL_HalfDuplex_Init()) configure also the
  64:Drivers/STM32F7xx_HAL_Driver/Src/stm32f7xx_hal_uart.c ****             low level Hardware GPIO, CLOCK, CORTEX...etc) by calling the customized
  65:Drivers/STM32F7xx_HAL_Driver/Src/stm32f7xx_hal_uart.c ****             HAL_UART_MspInit() API.
  66:Drivers/STM32F7xx_HAL_Driver/Src/stm32f7xx_hal_uart.c **** 
  67:Drivers/STM32F7xx_HAL_Driver/Src/stm32f7xx_hal_uart.c ****      [..]
  68:Drivers/STM32F7xx_HAL_Driver/Src/stm32f7xx_hal_uart.c ****         Three operation modes are available within this driver :
  69:Drivers/STM32F7xx_HAL_Driver/Src/stm32f7xx_hal_uart.c **** 
  70:Drivers/STM32F7xx_HAL_Driver/Src/stm32f7xx_hal_uart.c ****      *** Polling mode IO operation ***
  71:Drivers/STM32F7xx_HAL_Driver/Src/stm32f7xx_hal_uart.c ****      =================================
  72:Drivers/STM32F7xx_HAL_Driver/Src/stm32f7xx_hal_uart.c ****      [..]
  73:Drivers/STM32F7xx_HAL_Driver/Src/stm32f7xx_hal_uart.c ****        (+) Send an amount of data in blocking mode using HAL_UART_Transmit()
  74:Drivers/STM32F7xx_HAL_Driver/Src/stm32f7xx_hal_uart.c ****        (+) Receive an amount of data in blocking mode using HAL_UART_Receive()
  75:Drivers/STM32F7xx_HAL_Driver/Src/stm32f7xx_hal_uart.c **** 
  76:Drivers/STM32F7xx_HAL_Driver/Src/stm32f7xx_hal_uart.c ****      *** Interrupt mode IO operation ***
  77:Drivers/STM32F7xx_HAL_Driver/Src/stm32f7xx_hal_uart.c ****      ===================================
  78:Drivers/STM32F7xx_HAL_Driver/Src/stm32f7xx_hal_uart.c ****      [..]
  79:Drivers/STM32F7xx_HAL_Driver/Src/stm32f7xx_hal_uart.c ****        (+) Send an amount of data in non blocking mode using HAL_UART_Transmit_IT()
  80:Drivers/STM32F7xx_HAL_Driver/Src/stm32f7xx_hal_uart.c ****        (+) At transmission end of transfer HAL_UART_TxCpltCallback is executed and user can
  81:Drivers/STM32F7xx_HAL_Driver/Src/stm32f7xx_hal_uart.c ****             add his own code by customization of function pointer HAL_UART_TxCpltCallback
  82:Drivers/STM32F7xx_HAL_Driver/Src/stm32f7xx_hal_uart.c ****        (+) Receive an amount of data in non blocking mode using HAL_UART_Receive_IT()
  83:Drivers/STM32F7xx_HAL_Driver/Src/stm32f7xx_hal_uart.c ****        (+) At reception end of transfer HAL_UART_RxCpltCallback is executed and user can
  84:Drivers/STM32F7xx_HAL_Driver/Src/stm32f7xx_hal_uart.c ****             add his own code by customization of function pointer HAL_UART_RxCpltCallback
  85:Drivers/STM32F7xx_HAL_Driver/Src/stm32f7xx_hal_uart.c ****        (+) In case of transfer Error, HAL_UART_ErrorCallback() function is executed and user can
  86:Drivers/STM32F7xx_HAL_Driver/Src/stm32f7xx_hal_uart.c ****             add his own code by customization of function pointer HAL_UART_ErrorCallback
  87:Drivers/STM32F7xx_HAL_Driver/Src/stm32f7xx_hal_uart.c **** 
ARM GAS  /tmp/cc6CQ8Vx.s 			page 3


  88:Drivers/STM32F7xx_HAL_Driver/Src/stm32f7xx_hal_uart.c ****      *** DMA mode IO operation ***
  89:Drivers/STM32F7xx_HAL_Driver/Src/stm32f7xx_hal_uart.c ****      ==============================
  90:Drivers/STM32F7xx_HAL_Driver/Src/stm32f7xx_hal_uart.c ****      [..]
  91:Drivers/STM32F7xx_HAL_Driver/Src/stm32f7xx_hal_uart.c ****        (+) Send an amount of data in non blocking mode (DMA) using HAL_UART_Transmit_DMA()
  92:Drivers/STM32F7xx_HAL_Driver/Src/stm32f7xx_hal_uart.c ****        (+) At transmission end of half transfer HAL_UART_TxHalfCpltCallback is executed and user ca
  93:Drivers/STM32F7xx_HAL_Driver/Src/stm32f7xx_hal_uart.c ****             add his own code by customization of function pointer HAL_UART_TxHalfCpltCallback
  94:Drivers/STM32F7xx_HAL_Driver/Src/stm32f7xx_hal_uart.c ****        (+) At transmission end of transfer HAL_UART_TxCpltCallback is executed and user can
  95:Drivers/STM32F7xx_HAL_Driver/Src/stm32f7xx_hal_uart.c ****             add his own code by customization of function pointer HAL_UART_TxCpltCallback
  96:Drivers/STM32F7xx_HAL_Driver/Src/stm32f7xx_hal_uart.c ****        (+) Receive an amount of data in non blocking mode (DMA) using HAL_UART_Receive_DMA()
  97:Drivers/STM32F7xx_HAL_Driver/Src/stm32f7xx_hal_uart.c ****        (+) At reception end of half transfer HAL_UART_RxHalfCpltCallback is executed and user can
  98:Drivers/STM32F7xx_HAL_Driver/Src/stm32f7xx_hal_uart.c ****             add his own code by customization of function pointer HAL_UART_RxHalfCpltCallback
  99:Drivers/STM32F7xx_HAL_Driver/Src/stm32f7xx_hal_uart.c ****        (+) At reception end of transfer HAL_UART_RxCpltCallback is executed and user can
 100:Drivers/STM32F7xx_HAL_Driver/Src/stm32f7xx_hal_uart.c ****             add his own code by customization of function pointer HAL_UART_RxCpltCallback
 101:Drivers/STM32F7xx_HAL_Driver/Src/stm32f7xx_hal_uart.c ****        (+) In case of transfer Error, HAL_UART_ErrorCallback() function is executed and user can
 102:Drivers/STM32F7xx_HAL_Driver/Src/stm32f7xx_hal_uart.c ****             add his own code by customization of function pointer HAL_UART_ErrorCallback
 103:Drivers/STM32F7xx_HAL_Driver/Src/stm32f7xx_hal_uart.c ****        (+) Pause the DMA Transfer using HAL_UART_DMAPause()
 104:Drivers/STM32F7xx_HAL_Driver/Src/stm32f7xx_hal_uart.c ****        (+) Resume the DMA Transfer using HAL_UART_DMAResume()
 105:Drivers/STM32F7xx_HAL_Driver/Src/stm32f7xx_hal_uart.c ****        (+) Stop the DMA Transfer using HAL_UART_DMAStop()
 106:Drivers/STM32F7xx_HAL_Driver/Src/stm32f7xx_hal_uart.c **** 
 107:Drivers/STM32F7xx_HAL_Driver/Src/stm32f7xx_hal_uart.c ****      *** UART HAL driver macros list ***
 108:Drivers/STM32F7xx_HAL_Driver/Src/stm32f7xx_hal_uart.c ****      =============================================
 109:Drivers/STM32F7xx_HAL_Driver/Src/stm32f7xx_hal_uart.c ****      [..]
 110:Drivers/STM32F7xx_HAL_Driver/Src/stm32f7xx_hal_uart.c ****        Below the list of most used macros in UART HAL driver.
 111:Drivers/STM32F7xx_HAL_Driver/Src/stm32f7xx_hal_uart.c **** 
 112:Drivers/STM32F7xx_HAL_Driver/Src/stm32f7xx_hal_uart.c ****       (+) __HAL_UART_ENABLE: Enable the UART peripheral
 113:Drivers/STM32F7xx_HAL_Driver/Src/stm32f7xx_hal_uart.c ****       (+) __HAL_UART_DISABLE: Disable the UART peripheral
 114:Drivers/STM32F7xx_HAL_Driver/Src/stm32f7xx_hal_uart.c ****       (+) __HAL_UART_GET_FLAG : Check whether the specified UART flag is set or not
 115:Drivers/STM32F7xx_HAL_Driver/Src/stm32f7xx_hal_uart.c ****       (+) __HAL_UART_CLEAR_IT : Clears the specified UART ISR flag
 116:Drivers/STM32F7xx_HAL_Driver/Src/stm32f7xx_hal_uart.c ****       (+) __HAL_UART_ENABLE_IT: Enable the specified UART interrupt
 117:Drivers/STM32F7xx_HAL_Driver/Src/stm32f7xx_hal_uart.c ****       (+) __HAL_UART_DISABLE_IT: Disable the specified UART interrupt
 118:Drivers/STM32F7xx_HAL_Driver/Src/stm32f7xx_hal_uart.c ****       (+) __HAL_UART_GET_IT_SOURCE: Check whether the specified UART interrupt has occurred or not
 119:Drivers/STM32F7xx_HAL_Driver/Src/stm32f7xx_hal_uart.c **** 
 120:Drivers/STM32F7xx_HAL_Driver/Src/stm32f7xx_hal_uart.c ****      [..]
 121:Drivers/STM32F7xx_HAL_Driver/Src/stm32f7xx_hal_uart.c ****        (@) You can refer to the UART HAL driver header file for more useful macros
 122:Drivers/STM32F7xx_HAL_Driver/Src/stm32f7xx_hal_uart.c **** 
 123:Drivers/STM32F7xx_HAL_Driver/Src/stm32f7xx_hal_uart.c ****   @endverbatim
 124:Drivers/STM32F7xx_HAL_Driver/Src/stm32f7xx_hal_uart.c ****   ******************************************************************************
 125:Drivers/STM32F7xx_HAL_Driver/Src/stm32f7xx_hal_uart.c ****   * @attention
 126:Drivers/STM32F7xx_HAL_Driver/Src/stm32f7xx_hal_uart.c ****   *
 127:Drivers/STM32F7xx_HAL_Driver/Src/stm32f7xx_hal_uart.c ****   * <h2><center>&copy; COPYRIGHT(c) 2017 STMicroelectronics</center></h2>
 128:Drivers/STM32F7xx_HAL_Driver/Src/stm32f7xx_hal_uart.c ****   *
 129:Drivers/STM32F7xx_HAL_Driver/Src/stm32f7xx_hal_uart.c ****   * Redistribution and use in source and binary forms, with or without modification,
 130:Drivers/STM32F7xx_HAL_Driver/Src/stm32f7xx_hal_uart.c ****   * are permitted provided that the following conditions are met:
 131:Drivers/STM32F7xx_HAL_Driver/Src/stm32f7xx_hal_uart.c ****   *   1. Redistributions of source code must retain the above copyright notice,
 132:Drivers/STM32F7xx_HAL_Driver/Src/stm32f7xx_hal_uart.c ****   *      this list of conditions and the following disclaimer.
 133:Drivers/STM32F7xx_HAL_Driver/Src/stm32f7xx_hal_uart.c ****   *   2. Redistributions in binary form must reproduce the above copyright notice,
 134:Drivers/STM32F7xx_HAL_Driver/Src/stm32f7xx_hal_uart.c ****   *      this list of conditions and the following disclaimer in the documentation
 135:Drivers/STM32F7xx_HAL_Driver/Src/stm32f7xx_hal_uart.c ****   *      and/or other materials provided with the distribution.
 136:Drivers/STM32F7xx_HAL_Driver/Src/stm32f7xx_hal_uart.c ****   *   3. Neither the name of STMicroelectronics nor the names of its contributors
 137:Drivers/STM32F7xx_HAL_Driver/Src/stm32f7xx_hal_uart.c ****   *      may be used to endorse or promote products derived from this software
 138:Drivers/STM32F7xx_HAL_Driver/Src/stm32f7xx_hal_uart.c ****   *      without specific prior written permission.
 139:Drivers/STM32F7xx_HAL_Driver/Src/stm32f7xx_hal_uart.c ****   *
 140:Drivers/STM32F7xx_HAL_Driver/Src/stm32f7xx_hal_uart.c ****   * THIS SOFTWARE IS PROVIDED BY THE COPYRIGHT HOLDERS AND CONTRIBUTORS "AS IS"
 141:Drivers/STM32F7xx_HAL_Driver/Src/stm32f7xx_hal_uart.c ****   * AND ANY EXPRESS OR IMPLIED WARRANTIES, INCLUDING, BUT NOT LIMITED TO, THE
 142:Drivers/STM32F7xx_HAL_Driver/Src/stm32f7xx_hal_uart.c ****   * IMPLIED WARRANTIES OF MERCHANTABILITY AND FITNESS FOR A PARTICULAR PURPOSE ARE
 143:Drivers/STM32F7xx_HAL_Driver/Src/stm32f7xx_hal_uart.c ****   * DISCLAIMED. IN NO EVENT SHALL THE COPYRIGHT HOLDER OR CONTRIBUTORS BE LIABLE
 144:Drivers/STM32F7xx_HAL_Driver/Src/stm32f7xx_hal_uart.c ****   * FOR ANY DIRECT, INDIRECT, INCIDENTAL, SPECIAL, EXEMPLARY, OR CONSEQUENTIAL
ARM GAS  /tmp/cc6CQ8Vx.s 			page 4


 145:Drivers/STM32F7xx_HAL_Driver/Src/stm32f7xx_hal_uart.c ****   * DAMAGES (INCLUDING, BUT NOT LIMITED TO, PROCUREMENT OF SUBSTITUTE GOODS OR
 146:Drivers/STM32F7xx_HAL_Driver/Src/stm32f7xx_hal_uart.c ****   * SERVICES; LOSS OF USE, DATA, OR PROFITS; OR BUSINESS INTERRUPTION) HOWEVER
 147:Drivers/STM32F7xx_HAL_Driver/Src/stm32f7xx_hal_uart.c ****   * CAUSED AND ON ANY THEORY OF LIABILITY, WHETHER IN CONTRACT, STRICT LIABILITY,
 148:Drivers/STM32F7xx_HAL_Driver/Src/stm32f7xx_hal_uart.c ****   * OR TORT (INCLUDING NEGLIGENCE OR OTHERWISE) ARISING IN ANY WAY OUT OF THE USE
 149:Drivers/STM32F7xx_HAL_Driver/Src/stm32f7xx_hal_uart.c ****   * OF THIS SOFTWARE, EVEN IF ADVISED OF THE POSSIBILITY OF SUCH DAMAGE.
 150:Drivers/STM32F7xx_HAL_Driver/Src/stm32f7xx_hal_uart.c ****   *
 151:Drivers/STM32F7xx_HAL_Driver/Src/stm32f7xx_hal_uart.c ****   ******************************************************************************
 152:Drivers/STM32F7xx_HAL_Driver/Src/stm32f7xx_hal_uart.c ****   */
 153:Drivers/STM32F7xx_HAL_Driver/Src/stm32f7xx_hal_uart.c **** 
 154:Drivers/STM32F7xx_HAL_Driver/Src/stm32f7xx_hal_uart.c **** /* Includes ------------------------------------------------------------------*/
 155:Drivers/STM32F7xx_HAL_Driver/Src/stm32f7xx_hal_uart.c **** #include "stm32f7xx_hal.h"
 156:Drivers/STM32F7xx_HAL_Driver/Src/stm32f7xx_hal_uart.c **** 
 157:Drivers/STM32F7xx_HAL_Driver/Src/stm32f7xx_hal_uart.c **** /** @addtogroup STM32F7xx_HAL_Driver
 158:Drivers/STM32F7xx_HAL_Driver/Src/stm32f7xx_hal_uart.c ****   * @{
 159:Drivers/STM32F7xx_HAL_Driver/Src/stm32f7xx_hal_uart.c ****   */
 160:Drivers/STM32F7xx_HAL_Driver/Src/stm32f7xx_hal_uart.c **** 
 161:Drivers/STM32F7xx_HAL_Driver/Src/stm32f7xx_hal_uart.c **** /** @defgroup UART UART
 162:Drivers/STM32F7xx_HAL_Driver/Src/stm32f7xx_hal_uart.c ****   * @brief HAL UART module driver
 163:Drivers/STM32F7xx_HAL_Driver/Src/stm32f7xx_hal_uart.c ****   * @{
 164:Drivers/STM32F7xx_HAL_Driver/Src/stm32f7xx_hal_uart.c ****   */
 165:Drivers/STM32F7xx_HAL_Driver/Src/stm32f7xx_hal_uart.c **** 
 166:Drivers/STM32F7xx_HAL_Driver/Src/stm32f7xx_hal_uart.c **** #ifdef HAL_UART_MODULE_ENABLED
 167:Drivers/STM32F7xx_HAL_Driver/Src/stm32f7xx_hal_uart.c **** 
 168:Drivers/STM32F7xx_HAL_Driver/Src/stm32f7xx_hal_uart.c **** /* Private typedef -----------------------------------------------------------*/
 169:Drivers/STM32F7xx_HAL_Driver/Src/stm32f7xx_hal_uart.c **** /* Private define ------------------------------------------------------------*/
 170:Drivers/STM32F7xx_HAL_Driver/Src/stm32f7xx_hal_uart.c **** /** @defgroup UART_Private_Constants UART Private Constants
 171:Drivers/STM32F7xx_HAL_Driver/Src/stm32f7xx_hal_uart.c ****   * @{
 172:Drivers/STM32F7xx_HAL_Driver/Src/stm32f7xx_hal_uart.c ****   */
 173:Drivers/STM32F7xx_HAL_Driver/Src/stm32f7xx_hal_uart.c **** #define UART_CR1_FIELDS  ((uint32_t)(USART_CR1_M | USART_CR1_PCE | USART_CR1_PS | \
 174:Drivers/STM32F7xx_HAL_Driver/Src/stm32f7xx_hal_uart.c ****                                      USART_CR1_TE | USART_CR1_RE | USART_CR1_OVER8))
 175:Drivers/STM32F7xx_HAL_Driver/Src/stm32f7xx_hal_uart.c **** /**
 176:Drivers/STM32F7xx_HAL_Driver/Src/stm32f7xx_hal_uart.c ****   * @}
 177:Drivers/STM32F7xx_HAL_Driver/Src/stm32f7xx_hal_uart.c ****   */
 178:Drivers/STM32F7xx_HAL_Driver/Src/stm32f7xx_hal_uart.c **** /* Private macro -------------------------------------------------------------*/
 179:Drivers/STM32F7xx_HAL_Driver/Src/stm32f7xx_hal_uart.c **** /* Private variables ---------------------------------------------------------*/
 180:Drivers/STM32F7xx_HAL_Driver/Src/stm32f7xx_hal_uart.c **** /* Private function prototypes -----------------------------------------------*/
 181:Drivers/STM32F7xx_HAL_Driver/Src/stm32f7xx_hal_uart.c **** /** @addtogroup UART_Private_Functions
 182:Drivers/STM32F7xx_HAL_Driver/Src/stm32f7xx_hal_uart.c ****   * @{
 183:Drivers/STM32F7xx_HAL_Driver/Src/stm32f7xx_hal_uart.c ****   */
 184:Drivers/STM32F7xx_HAL_Driver/Src/stm32f7xx_hal_uart.c **** static void UART_EndTxTransfer(UART_HandleTypeDef *huart);
 185:Drivers/STM32F7xx_HAL_Driver/Src/stm32f7xx_hal_uart.c **** static void UART_EndRxTransfer(UART_HandleTypeDef *huart);
 186:Drivers/STM32F7xx_HAL_Driver/Src/stm32f7xx_hal_uart.c **** static void UART_DMATransmitCplt(DMA_HandleTypeDef *hdma);
 187:Drivers/STM32F7xx_HAL_Driver/Src/stm32f7xx_hal_uart.c **** static void UART_DMAReceiveCplt(DMA_HandleTypeDef *hdma);
 188:Drivers/STM32F7xx_HAL_Driver/Src/stm32f7xx_hal_uart.c **** static void UART_DMARxHalfCplt(DMA_HandleTypeDef *hdma);
 189:Drivers/STM32F7xx_HAL_Driver/Src/stm32f7xx_hal_uart.c **** static void UART_DMATxHalfCplt(DMA_HandleTypeDef *hdma);
 190:Drivers/STM32F7xx_HAL_Driver/Src/stm32f7xx_hal_uart.c **** static void UART_DMAError(DMA_HandleTypeDef *hdma);
 191:Drivers/STM32F7xx_HAL_Driver/Src/stm32f7xx_hal_uart.c **** static void UART_DMAAbortOnError(DMA_HandleTypeDef *hdma);
 192:Drivers/STM32F7xx_HAL_Driver/Src/stm32f7xx_hal_uart.c **** static HAL_StatusTypeDef UART_Transmit_IT(UART_HandleTypeDef *huart);
 193:Drivers/STM32F7xx_HAL_Driver/Src/stm32f7xx_hal_uart.c **** static HAL_StatusTypeDef UART_EndTransmit_IT(UART_HandleTypeDef *huart);
 194:Drivers/STM32F7xx_HAL_Driver/Src/stm32f7xx_hal_uart.c **** static HAL_StatusTypeDef UART_Receive_IT(UART_HandleTypeDef *huart);
 195:Drivers/STM32F7xx_HAL_Driver/Src/stm32f7xx_hal_uart.c **** /**
 196:Drivers/STM32F7xx_HAL_Driver/Src/stm32f7xx_hal_uart.c ****   * @}
 197:Drivers/STM32F7xx_HAL_Driver/Src/stm32f7xx_hal_uart.c ****   */
 198:Drivers/STM32F7xx_HAL_Driver/Src/stm32f7xx_hal_uart.c **** 
 199:Drivers/STM32F7xx_HAL_Driver/Src/stm32f7xx_hal_uart.c **** /* Exported functions --------------------------------------------------------*/
 200:Drivers/STM32F7xx_HAL_Driver/Src/stm32f7xx_hal_uart.c **** 
 201:Drivers/STM32F7xx_HAL_Driver/Src/stm32f7xx_hal_uart.c **** /** @defgroup UART_Exported_Functions UART Exported Functions
ARM GAS  /tmp/cc6CQ8Vx.s 			page 5


 202:Drivers/STM32F7xx_HAL_Driver/Src/stm32f7xx_hal_uart.c ****   * @{
 203:Drivers/STM32F7xx_HAL_Driver/Src/stm32f7xx_hal_uart.c ****   */
 204:Drivers/STM32F7xx_HAL_Driver/Src/stm32f7xx_hal_uart.c **** 
 205:Drivers/STM32F7xx_HAL_Driver/Src/stm32f7xx_hal_uart.c **** /** @defgroup UART_Exported_Functions_Group1 Initialization and de-initialization functions
 206:Drivers/STM32F7xx_HAL_Driver/Src/stm32f7xx_hal_uart.c ****   *  @brief    Initialization and Configuration functions
 207:Drivers/STM32F7xx_HAL_Driver/Src/stm32f7xx_hal_uart.c ****   *
 208:Drivers/STM32F7xx_HAL_Driver/Src/stm32f7xx_hal_uart.c **** @verbatim
 209:Drivers/STM32F7xx_HAL_Driver/Src/stm32f7xx_hal_uart.c **** ===============================================================================
 210:Drivers/STM32F7xx_HAL_Driver/Src/stm32f7xx_hal_uart.c ****             ##### Initialization and Configuration functions #####
 211:Drivers/STM32F7xx_HAL_Driver/Src/stm32f7xx_hal_uart.c ****  ===============================================================================
 212:Drivers/STM32F7xx_HAL_Driver/Src/stm32f7xx_hal_uart.c ****     [..]
 213:Drivers/STM32F7xx_HAL_Driver/Src/stm32f7xx_hal_uart.c ****     This subsection provides a set of functions allowing to initialize the USARTx or the UARTy
 214:Drivers/STM32F7xx_HAL_Driver/Src/stm32f7xx_hal_uart.c ****     in asynchronous mode.
 215:Drivers/STM32F7xx_HAL_Driver/Src/stm32f7xx_hal_uart.c ****       (+) For the asynchronous mode only these parameters can be configured:
 216:Drivers/STM32F7xx_HAL_Driver/Src/stm32f7xx_hal_uart.c ****         (++) Baud Rate
 217:Drivers/STM32F7xx_HAL_Driver/Src/stm32f7xx_hal_uart.c ****         (++) Word Length
 218:Drivers/STM32F7xx_HAL_Driver/Src/stm32f7xx_hal_uart.c ****         (++) Stop Bit
 219:Drivers/STM32F7xx_HAL_Driver/Src/stm32f7xx_hal_uart.c ****         (++) Parity: If the parity is enabled, then the MSB bit of the data written
 220:Drivers/STM32F7xx_HAL_Driver/Src/stm32f7xx_hal_uart.c ****              in the data register is transmitted but is changed by the parity bit.
 221:Drivers/STM32F7xx_HAL_Driver/Src/stm32f7xx_hal_uart.c ****              Depending on the frame length defined by the M bit (8-bits or 9-bits),
 222:Drivers/STM32F7xx_HAL_Driver/Src/stm32f7xx_hal_uart.c ****              please refer to Reference manual for possible UART frame formats.
 223:Drivers/STM32F7xx_HAL_Driver/Src/stm32f7xx_hal_uart.c ****         (++) Hardware flow control
 224:Drivers/STM32F7xx_HAL_Driver/Src/stm32f7xx_hal_uart.c ****         (++) Receiver/transmitter modes
 225:Drivers/STM32F7xx_HAL_Driver/Src/stm32f7xx_hal_uart.c ****         (++) Over Sampling Method
 226:Drivers/STM32F7xx_HAL_Driver/Src/stm32f7xx_hal_uart.c ****     [..]
 227:Drivers/STM32F7xx_HAL_Driver/Src/stm32f7xx_hal_uart.c ****     The HAL_UART_Init(), HAL_HalfDuplex_Init(), HAL_LIN_Init() and HAL_MultiProcessor_Init() APIs
 228:Drivers/STM32F7xx_HAL_Driver/Src/stm32f7xx_hal_uart.c ****     follow respectively the UART asynchronous, UART Half duplex, LIN and Multi-Processor
 229:Drivers/STM32F7xx_HAL_Driver/Src/stm32f7xx_hal_uart.c ****     configuration procedures (details for the procedures are available in reference manual (RM0329)
 230:Drivers/STM32F7xx_HAL_Driver/Src/stm32f7xx_hal_uart.c **** 
 231:Drivers/STM32F7xx_HAL_Driver/Src/stm32f7xx_hal_uart.c **** @endverbatim
 232:Drivers/STM32F7xx_HAL_Driver/Src/stm32f7xx_hal_uart.c ****   * @{
 233:Drivers/STM32F7xx_HAL_Driver/Src/stm32f7xx_hal_uart.c ****   */
 234:Drivers/STM32F7xx_HAL_Driver/Src/stm32f7xx_hal_uart.c **** 
 235:Drivers/STM32F7xx_HAL_Driver/Src/stm32f7xx_hal_uart.c **** /**
 236:Drivers/STM32F7xx_HAL_Driver/Src/stm32f7xx_hal_uart.c ****   * @brief Initializes the UART mode according to the specified
 237:Drivers/STM32F7xx_HAL_Driver/Src/stm32f7xx_hal_uart.c ****   *         parameters in the UART_InitTypeDef and creates the associated handle .
 238:Drivers/STM32F7xx_HAL_Driver/Src/stm32f7xx_hal_uart.c ****   * @param huart uart handle
 239:Drivers/STM32F7xx_HAL_Driver/Src/stm32f7xx_hal_uart.c ****   * @retval HAL status
 240:Drivers/STM32F7xx_HAL_Driver/Src/stm32f7xx_hal_uart.c ****   */
 241:Drivers/STM32F7xx_HAL_Driver/Src/stm32f7xx_hal_uart.c **** HAL_StatusTypeDef HAL_UART_Init(UART_HandleTypeDef *huart)
 242:Drivers/STM32F7xx_HAL_Driver/Src/stm32f7xx_hal_uart.c **** {
 243:Drivers/STM32F7xx_HAL_Driver/Src/stm32f7xx_hal_uart.c ****   /* Check the UART handle allocation */
 244:Drivers/STM32F7xx_HAL_Driver/Src/stm32f7xx_hal_uart.c ****   if(huart == NULL)
 245:Drivers/STM32F7xx_HAL_Driver/Src/stm32f7xx_hal_uart.c ****   {
 246:Drivers/STM32F7xx_HAL_Driver/Src/stm32f7xx_hal_uart.c ****     return HAL_ERROR;
 247:Drivers/STM32F7xx_HAL_Driver/Src/stm32f7xx_hal_uart.c ****   }
 248:Drivers/STM32F7xx_HAL_Driver/Src/stm32f7xx_hal_uart.c **** 
 249:Drivers/STM32F7xx_HAL_Driver/Src/stm32f7xx_hal_uart.c ****   if(huart->Init.HwFlowCtl != UART_HWCONTROL_NONE)
 250:Drivers/STM32F7xx_HAL_Driver/Src/stm32f7xx_hal_uart.c ****   {
 251:Drivers/STM32F7xx_HAL_Driver/Src/stm32f7xx_hal_uart.c ****     /* Check the parameters */
 252:Drivers/STM32F7xx_HAL_Driver/Src/stm32f7xx_hal_uart.c ****     assert_param(IS_UART_HWFLOW_INSTANCE(huart->Instance));
 253:Drivers/STM32F7xx_HAL_Driver/Src/stm32f7xx_hal_uart.c ****   }
 254:Drivers/STM32F7xx_HAL_Driver/Src/stm32f7xx_hal_uart.c ****   else
 255:Drivers/STM32F7xx_HAL_Driver/Src/stm32f7xx_hal_uart.c ****   {
 256:Drivers/STM32F7xx_HAL_Driver/Src/stm32f7xx_hal_uart.c ****     /* Check the parameters */
 257:Drivers/STM32F7xx_HAL_Driver/Src/stm32f7xx_hal_uart.c ****     assert_param(IS_UART_INSTANCE(huart->Instance));
 258:Drivers/STM32F7xx_HAL_Driver/Src/stm32f7xx_hal_uart.c ****   }
ARM GAS  /tmp/cc6CQ8Vx.s 			page 6


 259:Drivers/STM32F7xx_HAL_Driver/Src/stm32f7xx_hal_uart.c **** 
 260:Drivers/STM32F7xx_HAL_Driver/Src/stm32f7xx_hal_uart.c ****   if(huart->gState == HAL_UART_STATE_RESET)
 261:Drivers/STM32F7xx_HAL_Driver/Src/stm32f7xx_hal_uart.c ****   {
 262:Drivers/STM32F7xx_HAL_Driver/Src/stm32f7xx_hal_uart.c ****     /* Allocate lock resource and initialize it */
 263:Drivers/STM32F7xx_HAL_Driver/Src/stm32f7xx_hal_uart.c ****     huart->Lock = HAL_UNLOCKED;
 264:Drivers/STM32F7xx_HAL_Driver/Src/stm32f7xx_hal_uart.c **** 
 265:Drivers/STM32F7xx_HAL_Driver/Src/stm32f7xx_hal_uart.c ****     /* Init the low level hardware : GPIO, CLOCK */
 266:Drivers/STM32F7xx_HAL_Driver/Src/stm32f7xx_hal_uart.c ****     HAL_UART_MspInit(huart);
 267:Drivers/STM32F7xx_HAL_Driver/Src/stm32f7xx_hal_uart.c ****   }
 268:Drivers/STM32F7xx_HAL_Driver/Src/stm32f7xx_hal_uart.c **** 
 269:Drivers/STM32F7xx_HAL_Driver/Src/stm32f7xx_hal_uart.c ****   huart->gState = HAL_UART_STATE_BUSY;
 270:Drivers/STM32F7xx_HAL_Driver/Src/stm32f7xx_hal_uart.c **** 
 271:Drivers/STM32F7xx_HAL_Driver/Src/stm32f7xx_hal_uart.c ****   /* Disable the Peripheral */
 272:Drivers/STM32F7xx_HAL_Driver/Src/stm32f7xx_hal_uart.c ****   __HAL_UART_DISABLE(huart);
 273:Drivers/STM32F7xx_HAL_Driver/Src/stm32f7xx_hal_uart.c **** 
 274:Drivers/STM32F7xx_HAL_Driver/Src/stm32f7xx_hal_uart.c ****   /* Set the UART Communication parameters */
 275:Drivers/STM32F7xx_HAL_Driver/Src/stm32f7xx_hal_uart.c ****   if (UART_SetConfig(huart) == HAL_ERROR)
 276:Drivers/STM32F7xx_HAL_Driver/Src/stm32f7xx_hal_uart.c ****   {
 277:Drivers/STM32F7xx_HAL_Driver/Src/stm32f7xx_hal_uart.c ****     return HAL_ERROR;
 278:Drivers/STM32F7xx_HAL_Driver/Src/stm32f7xx_hal_uart.c ****   }
 279:Drivers/STM32F7xx_HAL_Driver/Src/stm32f7xx_hal_uart.c **** 
 280:Drivers/STM32F7xx_HAL_Driver/Src/stm32f7xx_hal_uart.c ****   if (huart->AdvancedInit.AdvFeatureInit != UART_ADVFEATURE_NO_INIT)
 281:Drivers/STM32F7xx_HAL_Driver/Src/stm32f7xx_hal_uart.c ****   {
 282:Drivers/STM32F7xx_HAL_Driver/Src/stm32f7xx_hal_uart.c ****     UART_AdvFeatureConfig(huart);
 283:Drivers/STM32F7xx_HAL_Driver/Src/stm32f7xx_hal_uart.c ****   }
 284:Drivers/STM32F7xx_HAL_Driver/Src/stm32f7xx_hal_uart.c **** 
 285:Drivers/STM32F7xx_HAL_Driver/Src/stm32f7xx_hal_uart.c ****   /* In asynchronous mode, the following bits must be kept cleared:
 286:Drivers/STM32F7xx_HAL_Driver/Src/stm32f7xx_hal_uart.c ****   - LINEN and CLKEN bits in the USART_CR2 register,
 287:Drivers/STM32F7xx_HAL_Driver/Src/stm32f7xx_hal_uart.c ****   - SCEN, HDSEL and IREN  bits in the USART_CR3 register.*/
 288:Drivers/STM32F7xx_HAL_Driver/Src/stm32f7xx_hal_uart.c ****   CLEAR_BIT(huart->Instance->CR2, (USART_CR2_LINEN | USART_CR2_CLKEN));
 289:Drivers/STM32F7xx_HAL_Driver/Src/stm32f7xx_hal_uart.c ****   CLEAR_BIT(huart->Instance->CR3, (USART_CR3_SCEN | USART_CR3_HDSEL | USART_CR3_IREN));
 290:Drivers/STM32F7xx_HAL_Driver/Src/stm32f7xx_hal_uart.c **** 
 291:Drivers/STM32F7xx_HAL_Driver/Src/stm32f7xx_hal_uart.c ****   /* Enable the Peripheral */
 292:Drivers/STM32F7xx_HAL_Driver/Src/stm32f7xx_hal_uart.c ****   __HAL_UART_ENABLE(huart);
 293:Drivers/STM32F7xx_HAL_Driver/Src/stm32f7xx_hal_uart.c **** 
 294:Drivers/STM32F7xx_HAL_Driver/Src/stm32f7xx_hal_uart.c ****   /* TEACK and/or REACK to check before moving huart->gState and huart->RxState to Ready */
 295:Drivers/STM32F7xx_HAL_Driver/Src/stm32f7xx_hal_uart.c ****   return (UART_CheckIdleState(huart));
 296:Drivers/STM32F7xx_HAL_Driver/Src/stm32f7xx_hal_uart.c **** }
 297:Drivers/STM32F7xx_HAL_Driver/Src/stm32f7xx_hal_uart.c **** 
 298:Drivers/STM32F7xx_HAL_Driver/Src/stm32f7xx_hal_uart.c **** /**
 299:Drivers/STM32F7xx_HAL_Driver/Src/stm32f7xx_hal_uart.c ****   * @brief Initializes the half-duplex mode according to the specified
 300:Drivers/STM32F7xx_HAL_Driver/Src/stm32f7xx_hal_uart.c ****   *         parameters in the UART_InitTypeDef and creates the associated handle .
 301:Drivers/STM32F7xx_HAL_Driver/Src/stm32f7xx_hal_uart.c ****   * @param huart UART handle
 302:Drivers/STM32F7xx_HAL_Driver/Src/stm32f7xx_hal_uart.c ****   * @retval HAL status
 303:Drivers/STM32F7xx_HAL_Driver/Src/stm32f7xx_hal_uart.c ****   */
 304:Drivers/STM32F7xx_HAL_Driver/Src/stm32f7xx_hal_uart.c **** HAL_StatusTypeDef HAL_HalfDuplex_Init(UART_HandleTypeDef *huart)
 305:Drivers/STM32F7xx_HAL_Driver/Src/stm32f7xx_hal_uart.c **** {
 306:Drivers/STM32F7xx_HAL_Driver/Src/stm32f7xx_hal_uart.c ****   /* Check the UART handle allocation */
 307:Drivers/STM32F7xx_HAL_Driver/Src/stm32f7xx_hal_uart.c ****   if(huart == NULL)
 308:Drivers/STM32F7xx_HAL_Driver/Src/stm32f7xx_hal_uart.c ****   {
 309:Drivers/STM32F7xx_HAL_Driver/Src/stm32f7xx_hal_uart.c ****     return HAL_ERROR;
 310:Drivers/STM32F7xx_HAL_Driver/Src/stm32f7xx_hal_uart.c ****   }
 311:Drivers/STM32F7xx_HAL_Driver/Src/stm32f7xx_hal_uart.c **** 
 312:Drivers/STM32F7xx_HAL_Driver/Src/stm32f7xx_hal_uart.c ****   if(huart->gState == HAL_UART_STATE_RESET)
 313:Drivers/STM32F7xx_HAL_Driver/Src/stm32f7xx_hal_uart.c ****   {
 314:Drivers/STM32F7xx_HAL_Driver/Src/stm32f7xx_hal_uart.c ****     /* Allocate lock resource and initialize it */
 315:Drivers/STM32F7xx_HAL_Driver/Src/stm32f7xx_hal_uart.c ****     huart->Lock = HAL_UNLOCKED;
ARM GAS  /tmp/cc6CQ8Vx.s 			page 7


 316:Drivers/STM32F7xx_HAL_Driver/Src/stm32f7xx_hal_uart.c **** 
 317:Drivers/STM32F7xx_HAL_Driver/Src/stm32f7xx_hal_uart.c ****     /* Init the low level hardware : GPIO, CLOCK */
 318:Drivers/STM32F7xx_HAL_Driver/Src/stm32f7xx_hal_uart.c ****     HAL_UART_MspInit(huart);
 319:Drivers/STM32F7xx_HAL_Driver/Src/stm32f7xx_hal_uart.c ****   }
 320:Drivers/STM32F7xx_HAL_Driver/Src/stm32f7xx_hal_uart.c **** 
 321:Drivers/STM32F7xx_HAL_Driver/Src/stm32f7xx_hal_uart.c ****   huart->gState = HAL_UART_STATE_BUSY;
 322:Drivers/STM32F7xx_HAL_Driver/Src/stm32f7xx_hal_uart.c **** 
 323:Drivers/STM32F7xx_HAL_Driver/Src/stm32f7xx_hal_uart.c ****   /* Disable the Peripheral */
 324:Drivers/STM32F7xx_HAL_Driver/Src/stm32f7xx_hal_uart.c ****   __HAL_UART_DISABLE(huart);
 325:Drivers/STM32F7xx_HAL_Driver/Src/stm32f7xx_hal_uart.c **** 
 326:Drivers/STM32F7xx_HAL_Driver/Src/stm32f7xx_hal_uart.c ****   /* Set the UART Communication parameters */
 327:Drivers/STM32F7xx_HAL_Driver/Src/stm32f7xx_hal_uart.c ****   if (UART_SetConfig(huart) == HAL_ERROR)
 328:Drivers/STM32F7xx_HAL_Driver/Src/stm32f7xx_hal_uart.c ****   {
 329:Drivers/STM32F7xx_HAL_Driver/Src/stm32f7xx_hal_uart.c ****     return HAL_ERROR;
 330:Drivers/STM32F7xx_HAL_Driver/Src/stm32f7xx_hal_uart.c ****   }
 331:Drivers/STM32F7xx_HAL_Driver/Src/stm32f7xx_hal_uart.c **** 
 332:Drivers/STM32F7xx_HAL_Driver/Src/stm32f7xx_hal_uart.c ****   if (huart->AdvancedInit.AdvFeatureInit != UART_ADVFEATURE_NO_INIT)
 333:Drivers/STM32F7xx_HAL_Driver/Src/stm32f7xx_hal_uart.c ****   {
 334:Drivers/STM32F7xx_HAL_Driver/Src/stm32f7xx_hal_uart.c ****     UART_AdvFeatureConfig(huart);
 335:Drivers/STM32F7xx_HAL_Driver/Src/stm32f7xx_hal_uart.c ****   }
 336:Drivers/STM32F7xx_HAL_Driver/Src/stm32f7xx_hal_uart.c **** 
 337:Drivers/STM32F7xx_HAL_Driver/Src/stm32f7xx_hal_uart.c ****   /* In half-duplex mode, the following bits must be kept cleared:
 338:Drivers/STM32F7xx_HAL_Driver/Src/stm32f7xx_hal_uart.c ****   - LINEN and CLKEN bits in the USART_CR2 register,
 339:Drivers/STM32F7xx_HAL_Driver/Src/stm32f7xx_hal_uart.c ****   - SCEN and IREN bits in the USART_CR3 register.*/
 340:Drivers/STM32F7xx_HAL_Driver/Src/stm32f7xx_hal_uart.c ****   CLEAR_BIT(huart->Instance->CR2, (USART_CR2_LINEN | USART_CR2_CLKEN));
 341:Drivers/STM32F7xx_HAL_Driver/Src/stm32f7xx_hal_uart.c ****   CLEAR_BIT(huart->Instance->CR3, (USART_CR3_IREN | USART_CR3_SCEN));
 342:Drivers/STM32F7xx_HAL_Driver/Src/stm32f7xx_hal_uart.c **** 
 343:Drivers/STM32F7xx_HAL_Driver/Src/stm32f7xx_hal_uart.c ****   /* Enable the Half-Duplex mode by setting the HDSEL bit in the CR3 register */
 344:Drivers/STM32F7xx_HAL_Driver/Src/stm32f7xx_hal_uart.c ****   SET_BIT(huart->Instance->CR3, USART_CR3_HDSEL);
 345:Drivers/STM32F7xx_HAL_Driver/Src/stm32f7xx_hal_uart.c **** 
 346:Drivers/STM32F7xx_HAL_Driver/Src/stm32f7xx_hal_uart.c ****   /* Enable the Peripheral */
 347:Drivers/STM32F7xx_HAL_Driver/Src/stm32f7xx_hal_uart.c ****   __HAL_UART_ENABLE(huart);
 348:Drivers/STM32F7xx_HAL_Driver/Src/stm32f7xx_hal_uart.c **** 
 349:Drivers/STM32F7xx_HAL_Driver/Src/stm32f7xx_hal_uart.c ****   /* TEACK and/or REACK to check before moving huart->gState and huart->RxState to Ready */
 350:Drivers/STM32F7xx_HAL_Driver/Src/stm32f7xx_hal_uart.c ****   return (UART_CheckIdleState(huart));
 351:Drivers/STM32F7xx_HAL_Driver/Src/stm32f7xx_hal_uart.c **** }
 352:Drivers/STM32F7xx_HAL_Driver/Src/stm32f7xx_hal_uart.c **** 
 353:Drivers/STM32F7xx_HAL_Driver/Src/stm32f7xx_hal_uart.c **** 
 354:Drivers/STM32F7xx_HAL_Driver/Src/stm32f7xx_hal_uart.c **** /**
 355:Drivers/STM32F7xx_HAL_Driver/Src/stm32f7xx_hal_uart.c ****   * @brief Initialize the LIN mode according to the specified
 356:Drivers/STM32F7xx_HAL_Driver/Src/stm32f7xx_hal_uart.c ****   *        parameters in the UART_InitTypeDef and creates the associated handle .
 357:Drivers/STM32F7xx_HAL_Driver/Src/stm32f7xx_hal_uart.c ****   * @param huart UART handle.
 358:Drivers/STM32F7xx_HAL_Driver/Src/stm32f7xx_hal_uart.c ****   * @param BreakDetectLength specifies the LIN break detection length.
 359:Drivers/STM32F7xx_HAL_Driver/Src/stm32f7xx_hal_uart.c ****   *        This parameter can be one of the following values:
 360:Drivers/STM32F7xx_HAL_Driver/Src/stm32f7xx_hal_uart.c ****   *          @arg @ref UART_LINBREAKDETECTLENGTH_10B 10-bit break detection
 361:Drivers/STM32F7xx_HAL_Driver/Src/stm32f7xx_hal_uart.c ****   *          @arg @ref UART_LINBREAKDETECTLENGTH_11B 11-bit break detection
 362:Drivers/STM32F7xx_HAL_Driver/Src/stm32f7xx_hal_uart.c ****   * @retval HAL status
 363:Drivers/STM32F7xx_HAL_Driver/Src/stm32f7xx_hal_uart.c ****   */
 364:Drivers/STM32F7xx_HAL_Driver/Src/stm32f7xx_hal_uart.c **** HAL_StatusTypeDef HAL_LIN_Init(UART_HandleTypeDef *huart, uint32_t BreakDetectLength)
 365:Drivers/STM32F7xx_HAL_Driver/Src/stm32f7xx_hal_uart.c **** {
 366:Drivers/STM32F7xx_HAL_Driver/Src/stm32f7xx_hal_uart.c ****   /* Check the UART handle allocation */
 367:Drivers/STM32F7xx_HAL_Driver/Src/stm32f7xx_hal_uart.c ****   if(huart == NULL)
 368:Drivers/STM32F7xx_HAL_Driver/Src/stm32f7xx_hal_uart.c ****   {
 369:Drivers/STM32F7xx_HAL_Driver/Src/stm32f7xx_hal_uart.c ****     return HAL_ERROR;
 370:Drivers/STM32F7xx_HAL_Driver/Src/stm32f7xx_hal_uart.c ****   }
 371:Drivers/STM32F7xx_HAL_Driver/Src/stm32f7xx_hal_uart.c **** 
 372:Drivers/STM32F7xx_HAL_Driver/Src/stm32f7xx_hal_uart.c ****   /* Check the parameters */
ARM GAS  /tmp/cc6CQ8Vx.s 			page 8


 373:Drivers/STM32F7xx_HAL_Driver/Src/stm32f7xx_hal_uart.c ****   assert_param(IS_UART_INSTANCE(huart->Instance));
 374:Drivers/STM32F7xx_HAL_Driver/Src/stm32f7xx_hal_uart.c ****   assert_param(IS_UART_LIN_BREAK_DETECT_LENGTH(BreakDetectLength));
 375:Drivers/STM32F7xx_HAL_Driver/Src/stm32f7xx_hal_uart.c ****   assert_param(IS_LIN_WORD_LENGTH(huart->Init.WordLength));
 376:Drivers/STM32F7xx_HAL_Driver/Src/stm32f7xx_hal_uart.c **** 
 377:Drivers/STM32F7xx_HAL_Driver/Src/stm32f7xx_hal_uart.c ****   if(huart->gState == HAL_UART_STATE_RESET)
 378:Drivers/STM32F7xx_HAL_Driver/Src/stm32f7xx_hal_uart.c ****   {
 379:Drivers/STM32F7xx_HAL_Driver/Src/stm32f7xx_hal_uart.c ****     /* Allocate lock resource and initialize it */
 380:Drivers/STM32F7xx_HAL_Driver/Src/stm32f7xx_hal_uart.c ****     huart->Lock = HAL_UNLOCKED;
 381:Drivers/STM32F7xx_HAL_Driver/Src/stm32f7xx_hal_uart.c **** 
 382:Drivers/STM32F7xx_HAL_Driver/Src/stm32f7xx_hal_uart.c ****     /* Init the low level hardware : GPIO, CLOCK */
 383:Drivers/STM32F7xx_HAL_Driver/Src/stm32f7xx_hal_uart.c ****     HAL_UART_MspInit(huart);
 384:Drivers/STM32F7xx_HAL_Driver/Src/stm32f7xx_hal_uart.c ****   }
 385:Drivers/STM32F7xx_HAL_Driver/Src/stm32f7xx_hal_uart.c **** 
 386:Drivers/STM32F7xx_HAL_Driver/Src/stm32f7xx_hal_uart.c ****   huart->gState = HAL_UART_STATE_BUSY;
 387:Drivers/STM32F7xx_HAL_Driver/Src/stm32f7xx_hal_uart.c **** 
 388:Drivers/STM32F7xx_HAL_Driver/Src/stm32f7xx_hal_uart.c ****   /* Disable the Peripheral */
 389:Drivers/STM32F7xx_HAL_Driver/Src/stm32f7xx_hal_uart.c ****   __HAL_UART_DISABLE(huart);
 390:Drivers/STM32F7xx_HAL_Driver/Src/stm32f7xx_hal_uart.c **** 
 391:Drivers/STM32F7xx_HAL_Driver/Src/stm32f7xx_hal_uart.c ****   /* Set the UART Communication parameters */
 392:Drivers/STM32F7xx_HAL_Driver/Src/stm32f7xx_hal_uart.c ****   if (UART_SetConfig(huart) == HAL_ERROR)
 393:Drivers/STM32F7xx_HAL_Driver/Src/stm32f7xx_hal_uart.c ****   {
 394:Drivers/STM32F7xx_HAL_Driver/Src/stm32f7xx_hal_uart.c ****     return HAL_ERROR;
 395:Drivers/STM32F7xx_HAL_Driver/Src/stm32f7xx_hal_uart.c ****   }
 396:Drivers/STM32F7xx_HAL_Driver/Src/stm32f7xx_hal_uart.c **** 
 397:Drivers/STM32F7xx_HAL_Driver/Src/stm32f7xx_hal_uart.c ****   if (huart->AdvancedInit.AdvFeatureInit != UART_ADVFEATURE_NO_INIT)
 398:Drivers/STM32F7xx_HAL_Driver/Src/stm32f7xx_hal_uart.c ****   {
 399:Drivers/STM32F7xx_HAL_Driver/Src/stm32f7xx_hal_uart.c ****     UART_AdvFeatureConfig(huart);
 400:Drivers/STM32F7xx_HAL_Driver/Src/stm32f7xx_hal_uart.c ****   }
 401:Drivers/STM32F7xx_HAL_Driver/Src/stm32f7xx_hal_uart.c **** 
 402:Drivers/STM32F7xx_HAL_Driver/Src/stm32f7xx_hal_uart.c ****   /* In LIN mode, the following bits must be kept cleared:
 403:Drivers/STM32F7xx_HAL_Driver/Src/stm32f7xx_hal_uart.c ****   - LINEN and CLKEN bits in the USART_CR2 register,
 404:Drivers/STM32F7xx_HAL_Driver/Src/stm32f7xx_hal_uart.c ****   - SCEN and IREN bits in the USART_CR3 register.*/
 405:Drivers/STM32F7xx_HAL_Driver/Src/stm32f7xx_hal_uart.c ****   CLEAR_BIT(huart->Instance->CR2, USART_CR2_CLKEN);
 406:Drivers/STM32F7xx_HAL_Driver/Src/stm32f7xx_hal_uart.c ****   CLEAR_BIT(huart->Instance->CR3, (USART_CR3_HDSEL | USART_CR3_IREN | USART_CR3_SCEN));
 407:Drivers/STM32F7xx_HAL_Driver/Src/stm32f7xx_hal_uart.c **** 
 408:Drivers/STM32F7xx_HAL_Driver/Src/stm32f7xx_hal_uart.c ****   /* Enable the LIN mode by setting the LINEN bit in the CR2 register */
 409:Drivers/STM32F7xx_HAL_Driver/Src/stm32f7xx_hal_uart.c ****   SET_BIT(huart->Instance->CR2, USART_CR2_LINEN);
 410:Drivers/STM32F7xx_HAL_Driver/Src/stm32f7xx_hal_uart.c **** 
 411:Drivers/STM32F7xx_HAL_Driver/Src/stm32f7xx_hal_uart.c ****   /* Set the USART LIN Break detection length. */
 412:Drivers/STM32F7xx_HAL_Driver/Src/stm32f7xx_hal_uart.c ****   MODIFY_REG(huart->Instance->CR2, USART_CR2_LBDL, BreakDetectLength);
 413:Drivers/STM32F7xx_HAL_Driver/Src/stm32f7xx_hal_uart.c **** 
 414:Drivers/STM32F7xx_HAL_Driver/Src/stm32f7xx_hal_uart.c ****   /* Enable the Peripheral */
 415:Drivers/STM32F7xx_HAL_Driver/Src/stm32f7xx_hal_uart.c ****   __HAL_UART_ENABLE(huart);
 416:Drivers/STM32F7xx_HAL_Driver/Src/stm32f7xx_hal_uart.c **** 
 417:Drivers/STM32F7xx_HAL_Driver/Src/stm32f7xx_hal_uart.c ****   /* TEACK and/or REACK to check before moving huart->gState and huart->RxState to Ready */
 418:Drivers/STM32F7xx_HAL_Driver/Src/stm32f7xx_hal_uart.c ****   return (UART_CheckIdleState(huart));
 419:Drivers/STM32F7xx_HAL_Driver/Src/stm32f7xx_hal_uart.c **** }
 420:Drivers/STM32F7xx_HAL_Driver/Src/stm32f7xx_hal_uart.c **** 
 421:Drivers/STM32F7xx_HAL_Driver/Src/stm32f7xx_hal_uart.c **** 
 422:Drivers/STM32F7xx_HAL_Driver/Src/stm32f7xx_hal_uart.c **** /**
 423:Drivers/STM32F7xx_HAL_Driver/Src/stm32f7xx_hal_uart.c ****   * @brief Initialize the multiprocessor mode according to the specified
 424:Drivers/STM32F7xx_HAL_Driver/Src/stm32f7xx_hal_uart.c ****   *        parameters in the UART_InitTypeDef and initialize the associated handle.
 425:Drivers/STM32F7xx_HAL_Driver/Src/stm32f7xx_hal_uart.c ****   * @param huart UART handle.
 426:Drivers/STM32F7xx_HAL_Driver/Src/stm32f7xx_hal_uart.c ****   * @param Address UART node address (4-, 6-, 7- or 8-bit long).
 427:Drivers/STM32F7xx_HAL_Driver/Src/stm32f7xx_hal_uart.c ****   * @param WakeUpMethod specifies the UART wakeup method.
 428:Drivers/STM32F7xx_HAL_Driver/Src/stm32f7xx_hal_uart.c ****   *        This parameter can be one of the following values:
 429:Drivers/STM32F7xx_HAL_Driver/Src/stm32f7xx_hal_uart.c ****   *          @arg @ref UART_WAKEUPMETHOD_IDLELINE WakeUp by an idle line detection
ARM GAS  /tmp/cc6CQ8Vx.s 			page 9


 430:Drivers/STM32F7xx_HAL_Driver/Src/stm32f7xx_hal_uart.c ****   *          @arg @ref UART_WAKEUPMETHOD_ADDRESSMARK WakeUp by an address mark
 431:Drivers/STM32F7xx_HAL_Driver/Src/stm32f7xx_hal_uart.c ****   * @note  If the user resorts to idle line detection wake up, the Address parameter
 432:Drivers/STM32F7xx_HAL_Driver/Src/stm32f7xx_hal_uart.c ****   *        is useless and ignored by the initialization function.
 433:Drivers/STM32F7xx_HAL_Driver/Src/stm32f7xx_hal_uart.c ****   * @note  If the user resorts to address mark wake up, the address length detection
 434:Drivers/STM32F7xx_HAL_Driver/Src/stm32f7xx_hal_uart.c ****   *        is configured by default to 4 bits only. For the UART to be able to
 435:Drivers/STM32F7xx_HAL_Driver/Src/stm32f7xx_hal_uart.c ****   *        manage 6-, 7- or 8-bit long addresses detection
 436:Drivers/STM32F7xx_HAL_Driver/Src/stm32f7xx_hal_uart.c ****   * @retval HAL status
 437:Drivers/STM32F7xx_HAL_Driver/Src/stm32f7xx_hal_uart.c ****   */
 438:Drivers/STM32F7xx_HAL_Driver/Src/stm32f7xx_hal_uart.c **** HAL_StatusTypeDef HAL_MultiProcessor_Init(UART_HandleTypeDef *huart, uint8_t Address, uint32_t Wake
 439:Drivers/STM32F7xx_HAL_Driver/Src/stm32f7xx_hal_uart.c **** {
 440:Drivers/STM32F7xx_HAL_Driver/Src/stm32f7xx_hal_uart.c ****   /* Check the UART handle allocation */
 441:Drivers/STM32F7xx_HAL_Driver/Src/stm32f7xx_hal_uart.c ****   if(huart == NULL)
 442:Drivers/STM32F7xx_HAL_Driver/Src/stm32f7xx_hal_uart.c ****   {
 443:Drivers/STM32F7xx_HAL_Driver/Src/stm32f7xx_hal_uart.c ****     return HAL_ERROR;
 444:Drivers/STM32F7xx_HAL_Driver/Src/stm32f7xx_hal_uart.c ****   }
 445:Drivers/STM32F7xx_HAL_Driver/Src/stm32f7xx_hal_uart.c **** 
 446:Drivers/STM32F7xx_HAL_Driver/Src/stm32f7xx_hal_uart.c ****   /* Check the wake up method parameter */
 447:Drivers/STM32F7xx_HAL_Driver/Src/stm32f7xx_hal_uart.c ****   assert_param(IS_UART_WAKEUPMETHOD(WakeUpMethod));
 448:Drivers/STM32F7xx_HAL_Driver/Src/stm32f7xx_hal_uart.c **** 
 449:Drivers/STM32F7xx_HAL_Driver/Src/stm32f7xx_hal_uart.c ****   if(huart->gState == HAL_UART_STATE_RESET)
 450:Drivers/STM32F7xx_HAL_Driver/Src/stm32f7xx_hal_uart.c ****   {
 451:Drivers/STM32F7xx_HAL_Driver/Src/stm32f7xx_hal_uart.c ****     /* Allocate lock resource and initialize it */
 452:Drivers/STM32F7xx_HAL_Driver/Src/stm32f7xx_hal_uart.c ****     huart->Lock = HAL_UNLOCKED;
 453:Drivers/STM32F7xx_HAL_Driver/Src/stm32f7xx_hal_uart.c **** 
 454:Drivers/STM32F7xx_HAL_Driver/Src/stm32f7xx_hal_uart.c ****     /* Init the low level hardware : GPIO, CLOCK */
 455:Drivers/STM32F7xx_HAL_Driver/Src/stm32f7xx_hal_uart.c ****     HAL_UART_MspInit(huart);
 456:Drivers/STM32F7xx_HAL_Driver/Src/stm32f7xx_hal_uart.c ****   }
 457:Drivers/STM32F7xx_HAL_Driver/Src/stm32f7xx_hal_uart.c **** 
 458:Drivers/STM32F7xx_HAL_Driver/Src/stm32f7xx_hal_uart.c ****   huart->gState = HAL_UART_STATE_BUSY;
 459:Drivers/STM32F7xx_HAL_Driver/Src/stm32f7xx_hal_uart.c **** 
 460:Drivers/STM32F7xx_HAL_Driver/Src/stm32f7xx_hal_uart.c ****   /* Disable the Peripheral */
 461:Drivers/STM32F7xx_HAL_Driver/Src/stm32f7xx_hal_uart.c ****   __HAL_UART_DISABLE(huart);
 462:Drivers/STM32F7xx_HAL_Driver/Src/stm32f7xx_hal_uart.c **** 
 463:Drivers/STM32F7xx_HAL_Driver/Src/stm32f7xx_hal_uart.c ****   /* Set the UART Communication parameters */
 464:Drivers/STM32F7xx_HAL_Driver/Src/stm32f7xx_hal_uart.c ****   if (UART_SetConfig(huart) == HAL_ERROR)
 465:Drivers/STM32F7xx_HAL_Driver/Src/stm32f7xx_hal_uart.c ****   {
 466:Drivers/STM32F7xx_HAL_Driver/Src/stm32f7xx_hal_uart.c ****     return HAL_ERROR;
 467:Drivers/STM32F7xx_HAL_Driver/Src/stm32f7xx_hal_uart.c ****   }
 468:Drivers/STM32F7xx_HAL_Driver/Src/stm32f7xx_hal_uart.c **** 
 469:Drivers/STM32F7xx_HAL_Driver/Src/stm32f7xx_hal_uart.c ****   if (huart->AdvancedInit.AdvFeatureInit != UART_ADVFEATURE_NO_INIT)
 470:Drivers/STM32F7xx_HAL_Driver/Src/stm32f7xx_hal_uart.c ****   {
 471:Drivers/STM32F7xx_HAL_Driver/Src/stm32f7xx_hal_uart.c ****     UART_AdvFeatureConfig(huart);
 472:Drivers/STM32F7xx_HAL_Driver/Src/stm32f7xx_hal_uart.c ****   }
 473:Drivers/STM32F7xx_HAL_Driver/Src/stm32f7xx_hal_uart.c **** 
 474:Drivers/STM32F7xx_HAL_Driver/Src/stm32f7xx_hal_uart.c ****   /* In multiprocessor mode, the following bits must be kept cleared:
 475:Drivers/STM32F7xx_HAL_Driver/Src/stm32f7xx_hal_uart.c ****   - LINEN and CLKEN bits in the USART_CR2 register,
 476:Drivers/STM32F7xx_HAL_Driver/Src/stm32f7xx_hal_uart.c ****   - SCEN, HDSEL and IREN  bits in the USART_CR3 register. */
 477:Drivers/STM32F7xx_HAL_Driver/Src/stm32f7xx_hal_uart.c ****   CLEAR_BIT(huart->Instance->CR2, (USART_CR2_LINEN | USART_CR2_CLKEN));
 478:Drivers/STM32F7xx_HAL_Driver/Src/stm32f7xx_hal_uart.c ****   CLEAR_BIT(huart->Instance->CR3, (USART_CR3_SCEN | USART_CR3_HDSEL | USART_CR3_IREN));
 479:Drivers/STM32F7xx_HAL_Driver/Src/stm32f7xx_hal_uart.c **** 
 480:Drivers/STM32F7xx_HAL_Driver/Src/stm32f7xx_hal_uart.c ****   if (WakeUpMethod == UART_WAKEUPMETHOD_ADDRESSMARK)
 481:Drivers/STM32F7xx_HAL_Driver/Src/stm32f7xx_hal_uart.c ****   {
 482:Drivers/STM32F7xx_HAL_Driver/Src/stm32f7xx_hal_uart.c ****     /* If address mark wake up method is chosen, set the USART address node */
 483:Drivers/STM32F7xx_HAL_Driver/Src/stm32f7xx_hal_uart.c ****     MODIFY_REG(huart->Instance->CR2, USART_CR2_ADD, ((uint32_t)Address << UART_CR2_ADDRESS_LSB_POS)
 484:Drivers/STM32F7xx_HAL_Driver/Src/stm32f7xx_hal_uart.c ****   }
 485:Drivers/STM32F7xx_HAL_Driver/Src/stm32f7xx_hal_uart.c **** 
 486:Drivers/STM32F7xx_HAL_Driver/Src/stm32f7xx_hal_uart.c ****   /* Set the wake up method by setting the WAKE bit in the CR1 register */
ARM GAS  /tmp/cc6CQ8Vx.s 			page 10


 487:Drivers/STM32F7xx_HAL_Driver/Src/stm32f7xx_hal_uart.c ****   MODIFY_REG(huart->Instance->CR1, USART_CR1_WAKE, WakeUpMethod);
 488:Drivers/STM32F7xx_HAL_Driver/Src/stm32f7xx_hal_uart.c **** 
 489:Drivers/STM32F7xx_HAL_Driver/Src/stm32f7xx_hal_uart.c ****   /* Enable the Peripheral */
 490:Drivers/STM32F7xx_HAL_Driver/Src/stm32f7xx_hal_uart.c ****   __HAL_UART_ENABLE(huart);
 491:Drivers/STM32F7xx_HAL_Driver/Src/stm32f7xx_hal_uart.c **** 
 492:Drivers/STM32F7xx_HAL_Driver/Src/stm32f7xx_hal_uart.c ****   /* TEACK and/or REACK to check before moving huart->gState and huart->RxState to Ready */
 493:Drivers/STM32F7xx_HAL_Driver/Src/stm32f7xx_hal_uart.c ****   return (UART_CheckIdleState(huart));
 494:Drivers/STM32F7xx_HAL_Driver/Src/stm32f7xx_hal_uart.c **** }
 495:Drivers/STM32F7xx_HAL_Driver/Src/stm32f7xx_hal_uart.c **** 
 496:Drivers/STM32F7xx_HAL_Driver/Src/stm32f7xx_hal_uart.c **** 
 497:Drivers/STM32F7xx_HAL_Driver/Src/stm32f7xx_hal_uart.c **** /**
 498:Drivers/STM32F7xx_HAL_Driver/Src/stm32f7xx_hal_uart.c ****   * @brief Initialize the RS485 Driver enable feature according to the specified
 499:Drivers/STM32F7xx_HAL_Driver/Src/stm32f7xx_hal_uart.c ****   *         parameters in the UART_InitTypeDef and creates the associated handle.
 500:Drivers/STM32F7xx_HAL_Driver/Src/stm32f7xx_hal_uart.c ****   * @param huart UART handle.
 501:Drivers/STM32F7xx_HAL_Driver/Src/stm32f7xx_hal_uart.c ****   * @param Polarity select the driver enable polarity.
 502:Drivers/STM32F7xx_HAL_Driver/Src/stm32f7xx_hal_uart.c ****   *        This parameter can be one of the following values:
 503:Drivers/STM32F7xx_HAL_Driver/Src/stm32f7xx_hal_uart.c ****   *          @arg @ref UART_DE_POLARITY_HIGH DE signal is active high
 504:Drivers/STM32F7xx_HAL_Driver/Src/stm32f7xx_hal_uart.c ****   *          @arg @ref UART_DE_POLARITY_LOW  DE signal is active low
 505:Drivers/STM32F7xx_HAL_Driver/Src/stm32f7xx_hal_uart.c ****   * @param AssertionTime Driver Enable assertion time:
 506:Drivers/STM32F7xx_HAL_Driver/Src/stm32f7xx_hal_uart.c ****   *                         5-bit value defining the time between the activation of the DE (Driver 
 507:Drivers/STM32F7xx_HAL_Driver/Src/stm32f7xx_hal_uart.c ****   *                         signal and the beginning of the start bit. It is expressed in sample ti
 508:Drivers/STM32F7xx_HAL_Driver/Src/stm32f7xx_hal_uart.c ****   *                         units (1/8 or 1/16 bit time, depending on the oversampling rate)
 509:Drivers/STM32F7xx_HAL_Driver/Src/stm32f7xx_hal_uart.c ****   * @param DeassertionTime Driver Enable deassertion time:
 510:Drivers/STM32F7xx_HAL_Driver/Src/stm32f7xx_hal_uart.c ****   *                         5-bit value defining the time between the end of the last stop bit, in 
 511:Drivers/STM32F7xx_HAL_Driver/Src/stm32f7xx_hal_uart.c ****   *                         transmitted message, and the de-activation of the DE (Driver Enable) si
 512:Drivers/STM32F7xx_HAL_Driver/Src/stm32f7xx_hal_uart.c ****   *                         It is expressed in sample time units (1/8 or 1/16 bit time, depending o
 513:Drivers/STM32F7xx_HAL_Driver/Src/stm32f7xx_hal_uart.c ****   *                         oversampling rate).
 514:Drivers/STM32F7xx_HAL_Driver/Src/stm32f7xx_hal_uart.c ****   * @retval HAL status
 515:Drivers/STM32F7xx_HAL_Driver/Src/stm32f7xx_hal_uart.c ****   */
 516:Drivers/STM32F7xx_HAL_Driver/Src/stm32f7xx_hal_uart.c **** HAL_StatusTypeDef HAL_RS485Ex_Init(UART_HandleTypeDef *huart, uint32_t Polarity, uint32_t Assertion
 517:Drivers/STM32F7xx_HAL_Driver/Src/stm32f7xx_hal_uart.c **** {
 518:Drivers/STM32F7xx_HAL_Driver/Src/stm32f7xx_hal_uart.c ****   uint32_t temp = 0x0;
 519:Drivers/STM32F7xx_HAL_Driver/Src/stm32f7xx_hal_uart.c **** 
 520:Drivers/STM32F7xx_HAL_Driver/Src/stm32f7xx_hal_uart.c ****   /* Check the UART handle allocation */
 521:Drivers/STM32F7xx_HAL_Driver/Src/stm32f7xx_hal_uart.c ****   if(huart == NULL)
 522:Drivers/STM32F7xx_HAL_Driver/Src/stm32f7xx_hal_uart.c ****   {
 523:Drivers/STM32F7xx_HAL_Driver/Src/stm32f7xx_hal_uart.c ****     return HAL_ERROR;
 524:Drivers/STM32F7xx_HAL_Driver/Src/stm32f7xx_hal_uart.c ****   }
 525:Drivers/STM32F7xx_HAL_Driver/Src/stm32f7xx_hal_uart.c ****   /* Check the Driver Enable UART instance */
 526:Drivers/STM32F7xx_HAL_Driver/Src/stm32f7xx_hal_uart.c ****   assert_param(IS_UART_DRIVER_ENABLE_INSTANCE(huart->Instance));
 527:Drivers/STM32F7xx_HAL_Driver/Src/stm32f7xx_hal_uart.c **** 
 528:Drivers/STM32F7xx_HAL_Driver/Src/stm32f7xx_hal_uart.c ****   /* Check the Driver Enable polarity */
 529:Drivers/STM32F7xx_HAL_Driver/Src/stm32f7xx_hal_uart.c ****   assert_param(IS_UART_DE_POLARITY(Polarity));
 530:Drivers/STM32F7xx_HAL_Driver/Src/stm32f7xx_hal_uart.c **** 
 531:Drivers/STM32F7xx_HAL_Driver/Src/stm32f7xx_hal_uart.c ****   /* Check the Driver Enable assertion time */
 532:Drivers/STM32F7xx_HAL_Driver/Src/stm32f7xx_hal_uart.c ****   assert_param(IS_UART_ASSERTIONTIME(AssertionTime));
 533:Drivers/STM32F7xx_HAL_Driver/Src/stm32f7xx_hal_uart.c **** 
 534:Drivers/STM32F7xx_HAL_Driver/Src/stm32f7xx_hal_uart.c ****   /* Check the Driver Enable deassertion time */
 535:Drivers/STM32F7xx_HAL_Driver/Src/stm32f7xx_hal_uart.c ****   assert_param(IS_UART_DEASSERTIONTIME(DeassertionTime));
 536:Drivers/STM32F7xx_HAL_Driver/Src/stm32f7xx_hal_uart.c **** 
 537:Drivers/STM32F7xx_HAL_Driver/Src/stm32f7xx_hal_uart.c ****   if(huart->gState == HAL_UART_STATE_RESET)
 538:Drivers/STM32F7xx_HAL_Driver/Src/stm32f7xx_hal_uart.c ****   {
 539:Drivers/STM32F7xx_HAL_Driver/Src/stm32f7xx_hal_uart.c ****     /* Allocate lock resource and initialize it */
 540:Drivers/STM32F7xx_HAL_Driver/Src/stm32f7xx_hal_uart.c ****     huart->Lock = HAL_UNLOCKED;
 541:Drivers/STM32F7xx_HAL_Driver/Src/stm32f7xx_hal_uart.c **** 
 542:Drivers/STM32F7xx_HAL_Driver/Src/stm32f7xx_hal_uart.c ****     /* Init the low level hardware : GPIO, CLOCK, CORTEX */
 543:Drivers/STM32F7xx_HAL_Driver/Src/stm32f7xx_hal_uart.c ****     HAL_UART_MspInit(huart);
ARM GAS  /tmp/cc6CQ8Vx.s 			page 11


 544:Drivers/STM32F7xx_HAL_Driver/Src/stm32f7xx_hal_uart.c ****   }
 545:Drivers/STM32F7xx_HAL_Driver/Src/stm32f7xx_hal_uart.c **** 
 546:Drivers/STM32F7xx_HAL_Driver/Src/stm32f7xx_hal_uart.c ****   huart->gState = HAL_UART_STATE_BUSY;
 547:Drivers/STM32F7xx_HAL_Driver/Src/stm32f7xx_hal_uart.c **** 
 548:Drivers/STM32F7xx_HAL_Driver/Src/stm32f7xx_hal_uart.c ****   /* Disable the Peripheral */
 549:Drivers/STM32F7xx_HAL_Driver/Src/stm32f7xx_hal_uart.c ****   __HAL_UART_DISABLE(huart);
 550:Drivers/STM32F7xx_HAL_Driver/Src/stm32f7xx_hal_uart.c **** 
 551:Drivers/STM32F7xx_HAL_Driver/Src/stm32f7xx_hal_uart.c ****   /* Set the UART Communication parameters */
 552:Drivers/STM32F7xx_HAL_Driver/Src/stm32f7xx_hal_uart.c ****   if (UART_SetConfig(huart) == HAL_ERROR)
 553:Drivers/STM32F7xx_HAL_Driver/Src/stm32f7xx_hal_uart.c ****   {
 554:Drivers/STM32F7xx_HAL_Driver/Src/stm32f7xx_hal_uart.c ****     return HAL_ERROR;
 555:Drivers/STM32F7xx_HAL_Driver/Src/stm32f7xx_hal_uart.c ****   }
 556:Drivers/STM32F7xx_HAL_Driver/Src/stm32f7xx_hal_uart.c **** 
 557:Drivers/STM32F7xx_HAL_Driver/Src/stm32f7xx_hal_uart.c ****   if(huart->AdvancedInit.AdvFeatureInit != UART_ADVFEATURE_NO_INIT)
 558:Drivers/STM32F7xx_HAL_Driver/Src/stm32f7xx_hal_uart.c ****   {
 559:Drivers/STM32F7xx_HAL_Driver/Src/stm32f7xx_hal_uart.c ****     UART_AdvFeatureConfig(huart);
 560:Drivers/STM32F7xx_HAL_Driver/Src/stm32f7xx_hal_uart.c ****   }
 561:Drivers/STM32F7xx_HAL_Driver/Src/stm32f7xx_hal_uart.c **** 
 562:Drivers/STM32F7xx_HAL_Driver/Src/stm32f7xx_hal_uart.c ****   /* Enable the Driver Enable mode by setting the DEM bit in the CR3 register */
 563:Drivers/STM32F7xx_HAL_Driver/Src/stm32f7xx_hal_uart.c ****   SET_BIT(huart->Instance->CR3, USART_CR3_DEM);
 564:Drivers/STM32F7xx_HAL_Driver/Src/stm32f7xx_hal_uart.c **** 
 565:Drivers/STM32F7xx_HAL_Driver/Src/stm32f7xx_hal_uart.c ****   /* Set the Driver Enable polarity */
 566:Drivers/STM32F7xx_HAL_Driver/Src/stm32f7xx_hal_uart.c ****   MODIFY_REG(huart->Instance->CR3, USART_CR3_DEP, Polarity);
 567:Drivers/STM32F7xx_HAL_Driver/Src/stm32f7xx_hal_uart.c **** 
 568:Drivers/STM32F7xx_HAL_Driver/Src/stm32f7xx_hal_uart.c ****   /* Set the Driver Enable assertion and deassertion times */
 569:Drivers/STM32F7xx_HAL_Driver/Src/stm32f7xx_hal_uart.c ****   temp = (AssertionTime << UART_CR1_DEAT_ADDRESS_LSB_POS);
 570:Drivers/STM32F7xx_HAL_Driver/Src/stm32f7xx_hal_uart.c ****   temp |= (DeassertionTime << UART_CR1_DEDT_ADDRESS_LSB_POS);
 571:Drivers/STM32F7xx_HAL_Driver/Src/stm32f7xx_hal_uart.c ****   MODIFY_REG(huart->Instance->CR1, (USART_CR1_DEDT|USART_CR1_DEAT), temp);
 572:Drivers/STM32F7xx_HAL_Driver/Src/stm32f7xx_hal_uart.c **** 
 573:Drivers/STM32F7xx_HAL_Driver/Src/stm32f7xx_hal_uart.c ****   /* Enable the Peripheral */
 574:Drivers/STM32F7xx_HAL_Driver/Src/stm32f7xx_hal_uart.c ****   __HAL_UART_ENABLE(huart);
 575:Drivers/STM32F7xx_HAL_Driver/Src/stm32f7xx_hal_uart.c **** 
 576:Drivers/STM32F7xx_HAL_Driver/Src/stm32f7xx_hal_uart.c ****   /* TEACK and/or REACK to check before moving huart->gState and huart->RxState to Ready */
 577:Drivers/STM32F7xx_HAL_Driver/Src/stm32f7xx_hal_uart.c ****   return (UART_CheckIdleState(huart));
 578:Drivers/STM32F7xx_HAL_Driver/Src/stm32f7xx_hal_uart.c **** }
 579:Drivers/STM32F7xx_HAL_Driver/Src/stm32f7xx_hal_uart.c **** 
 580:Drivers/STM32F7xx_HAL_Driver/Src/stm32f7xx_hal_uart.c **** /**
 581:Drivers/STM32F7xx_HAL_Driver/Src/stm32f7xx_hal_uart.c ****   * @brief DeInitializes the UART peripheral
 582:Drivers/STM32F7xx_HAL_Driver/Src/stm32f7xx_hal_uart.c ****   * @param huart uart handle
 583:Drivers/STM32F7xx_HAL_Driver/Src/stm32f7xx_hal_uart.c ****   * @retval HAL status
 584:Drivers/STM32F7xx_HAL_Driver/Src/stm32f7xx_hal_uart.c ****   */
 585:Drivers/STM32F7xx_HAL_Driver/Src/stm32f7xx_hal_uart.c **** HAL_StatusTypeDef HAL_UART_DeInit(UART_HandleTypeDef *huart)
 586:Drivers/STM32F7xx_HAL_Driver/Src/stm32f7xx_hal_uart.c **** {
 587:Drivers/STM32F7xx_HAL_Driver/Src/stm32f7xx_hal_uart.c ****   /* Check the UART handle allocation */
 588:Drivers/STM32F7xx_HAL_Driver/Src/stm32f7xx_hal_uart.c ****   if(huart == NULL)
 589:Drivers/STM32F7xx_HAL_Driver/Src/stm32f7xx_hal_uart.c ****   {
 590:Drivers/STM32F7xx_HAL_Driver/Src/stm32f7xx_hal_uart.c ****     return HAL_ERROR;
 591:Drivers/STM32F7xx_HAL_Driver/Src/stm32f7xx_hal_uart.c ****   }
 592:Drivers/STM32F7xx_HAL_Driver/Src/stm32f7xx_hal_uart.c **** 
 593:Drivers/STM32F7xx_HAL_Driver/Src/stm32f7xx_hal_uart.c ****   /* Check the parameters */
 594:Drivers/STM32F7xx_HAL_Driver/Src/stm32f7xx_hal_uart.c ****   assert_param(IS_UART_INSTANCE(huart->Instance));
 595:Drivers/STM32F7xx_HAL_Driver/Src/stm32f7xx_hal_uart.c **** 
 596:Drivers/STM32F7xx_HAL_Driver/Src/stm32f7xx_hal_uart.c ****   huart->gState = HAL_UART_STATE_BUSY;
 597:Drivers/STM32F7xx_HAL_Driver/Src/stm32f7xx_hal_uart.c **** 
 598:Drivers/STM32F7xx_HAL_Driver/Src/stm32f7xx_hal_uart.c ****   /* Disable the Peripheral */
 599:Drivers/STM32F7xx_HAL_Driver/Src/stm32f7xx_hal_uart.c ****   __HAL_UART_DISABLE(huart);
 600:Drivers/STM32F7xx_HAL_Driver/Src/stm32f7xx_hal_uart.c **** 
ARM GAS  /tmp/cc6CQ8Vx.s 			page 12


 601:Drivers/STM32F7xx_HAL_Driver/Src/stm32f7xx_hal_uart.c ****   huart->Instance->CR1 = 0x0U;
 602:Drivers/STM32F7xx_HAL_Driver/Src/stm32f7xx_hal_uart.c ****   huart->Instance->CR2 = 0x0U;
 603:Drivers/STM32F7xx_HAL_Driver/Src/stm32f7xx_hal_uart.c ****   huart->Instance->CR3 = 0x0U;
 604:Drivers/STM32F7xx_HAL_Driver/Src/stm32f7xx_hal_uart.c **** 
 605:Drivers/STM32F7xx_HAL_Driver/Src/stm32f7xx_hal_uart.c ****   /* DeInit the low level hardware */
 606:Drivers/STM32F7xx_HAL_Driver/Src/stm32f7xx_hal_uart.c ****   HAL_UART_MspDeInit(huart);
 607:Drivers/STM32F7xx_HAL_Driver/Src/stm32f7xx_hal_uart.c **** 
 608:Drivers/STM32F7xx_HAL_Driver/Src/stm32f7xx_hal_uart.c ****   huart->ErrorCode = HAL_UART_ERROR_NONE;
 609:Drivers/STM32F7xx_HAL_Driver/Src/stm32f7xx_hal_uart.c ****   huart->gState    = HAL_UART_STATE_RESET;
 610:Drivers/STM32F7xx_HAL_Driver/Src/stm32f7xx_hal_uart.c ****   huart->RxState   = HAL_UART_STATE_RESET;
 611:Drivers/STM32F7xx_HAL_Driver/Src/stm32f7xx_hal_uart.c **** 
 612:Drivers/STM32F7xx_HAL_Driver/Src/stm32f7xx_hal_uart.c ****   /* Process Unlock */
 613:Drivers/STM32F7xx_HAL_Driver/Src/stm32f7xx_hal_uart.c ****   __HAL_UNLOCK(huart);
 614:Drivers/STM32F7xx_HAL_Driver/Src/stm32f7xx_hal_uart.c **** 
 615:Drivers/STM32F7xx_HAL_Driver/Src/stm32f7xx_hal_uart.c ****   return HAL_OK;
 616:Drivers/STM32F7xx_HAL_Driver/Src/stm32f7xx_hal_uart.c **** }
 617:Drivers/STM32F7xx_HAL_Driver/Src/stm32f7xx_hal_uart.c **** 
 618:Drivers/STM32F7xx_HAL_Driver/Src/stm32f7xx_hal_uart.c **** /**
 619:Drivers/STM32F7xx_HAL_Driver/Src/stm32f7xx_hal_uart.c ****   * @brief UART MSP Init
 620:Drivers/STM32F7xx_HAL_Driver/Src/stm32f7xx_hal_uart.c ****   * @param huart uart handle
 621:Drivers/STM32F7xx_HAL_Driver/Src/stm32f7xx_hal_uart.c ****   * @retval None
 622:Drivers/STM32F7xx_HAL_Driver/Src/stm32f7xx_hal_uart.c ****   */
 623:Drivers/STM32F7xx_HAL_Driver/Src/stm32f7xx_hal_uart.c **** __weak void HAL_UART_MspInit(UART_HandleTypeDef *huart)
 624:Drivers/STM32F7xx_HAL_Driver/Src/stm32f7xx_hal_uart.c **** {
  29              		.loc 1 624 0
  30              		.cfi_startproc
  31              		@ args = 0, pretend = 0, frame = 0
  32              		@ frame_needed = 0, uses_anonymous_args = 0
  33              		@ link register save eliminated.
  34              	.LVL0:
 625:Drivers/STM32F7xx_HAL_Driver/Src/stm32f7xx_hal_uart.c ****   /* Prevent unused argument(s) compilation warning */
 626:Drivers/STM32F7xx_HAL_Driver/Src/stm32f7xx_hal_uart.c ****   UNUSED(huart);
 627:Drivers/STM32F7xx_HAL_Driver/Src/stm32f7xx_hal_uart.c **** 
 628:Drivers/STM32F7xx_HAL_Driver/Src/stm32f7xx_hal_uart.c ****   /* NOTE : This function should not be modified, when the callback is needed,
 629:Drivers/STM32F7xx_HAL_Driver/Src/stm32f7xx_hal_uart.c ****             the HAL_UART_MspInit can be implemented in the user file
 630:Drivers/STM32F7xx_HAL_Driver/Src/stm32f7xx_hal_uart.c ****    */
 631:Drivers/STM32F7xx_HAL_Driver/Src/stm32f7xx_hal_uart.c **** }
  35              		.loc 1 631 0
  36 0000 7047     		bx	lr
  37              		.cfi_endproc
  38              	.LFE144:
  40 0002 00BF     		.section	.text.HAL_UART_MspDeInit,"ax",%progbits
  41              		.align	1
  42              		.p2align 2,,3
  43              		.weak	HAL_UART_MspDeInit
  44              		.syntax unified
  45              		.thumb
  46              		.thumb_func
  47              		.fpu fpv4-sp-d16
  49              	HAL_UART_MspDeInit:
  50              	.LFB188:
  51              		.cfi_startproc
  52              		@ args = 0, pretend = 0, frame = 0
  53              		@ frame_needed = 0, uses_anonymous_args = 0
  54              		@ link register save eliminated.
  55 0000 7047     		bx	lr
  56              		.cfi_endproc
ARM GAS  /tmp/cc6CQ8Vx.s 			page 13


  57              	.LFE188:
  59 0002 00BF     		.section	.text.HAL_UART_DeInit,"ax",%progbits
  60              		.align	1
  61              		.p2align 2,,3
  62              		.global	HAL_UART_DeInit
  63              		.syntax unified
  64              		.thumb
  65              		.thumb_func
  66              		.fpu fpv4-sp-d16
  68              	HAL_UART_DeInit:
  69              	.LFB143:
 586:Drivers/STM32F7xx_HAL_Driver/Src/stm32f7xx_hal_uart.c ****   /* Check the UART handle allocation */
  70              		.loc 1 586 0
  71              		.cfi_startproc
  72              		@ args = 0, pretend = 0, frame = 0
  73              		@ frame_needed = 0, uses_anonymous_args = 0
  74              	.LVL1:
 588:Drivers/STM32F7xx_HAL_Driver/Src/stm32f7xx_hal_uart.c ****   {
  75              		.loc 1 588 0
  76 0000 C0B1     		cbz	r0, .L6
 596:Drivers/STM32F7xx_HAL_Driver/Src/stm32f7xx_hal_uart.c **** 
  77              		.loc 1 596 0
  78 0002 2422     		movs	r2, #36
 586:Drivers/STM32F7xx_HAL_Driver/Src/stm32f7xx_hal_uart.c ****   /* Check the UART handle allocation */
  79              		.loc 1 586 0
  80 0004 38B5     		push	{r3, r4, r5, lr}
  81              	.LCFI0:
  82              		.cfi_def_cfa_offset 16
  83              		.cfi_offset 3, -16
  84              		.cfi_offset 4, -12
  85              		.cfi_offset 5, -8
  86              		.cfi_offset 14, -4
 599:Drivers/STM32F7xx_HAL_Driver/Src/stm32f7xx_hal_uart.c **** 
  87              		.loc 1 599 0
  88 0006 0368     		ldr	r3, [r0]
 601:Drivers/STM32F7xx_HAL_Driver/Src/stm32f7xx_hal_uart.c ****   huart->Instance->CR2 = 0x0U;
  89              		.loc 1 601 0
  90 0008 0025     		movs	r5, #0
 596:Drivers/STM32F7xx_HAL_Driver/Src/stm32f7xx_hal_uart.c **** 
  91              		.loc 1 596 0
  92 000a 80F86920 		strb	r2, [r0, #105]
  93 000e 0446     		mov	r4, r0
 599:Drivers/STM32F7xx_HAL_Driver/Src/stm32f7xx_hal_uart.c **** 
  94              		.loc 1 599 0
  95 0010 1A68     		ldr	r2, [r3]
  96 0012 22F00102 		bic	r2, r2, #1
  97 0016 1A60     		str	r2, [r3]
 601:Drivers/STM32F7xx_HAL_Driver/Src/stm32f7xx_hal_uart.c ****   huart->Instance->CR2 = 0x0U;
  98              		.loc 1 601 0
  99 0018 1D60     		str	r5, [r3]
 602:Drivers/STM32F7xx_HAL_Driver/Src/stm32f7xx_hal_uart.c ****   huart->Instance->CR3 = 0x0U;
 100              		.loc 1 602 0
 101 001a 5D60     		str	r5, [r3, #4]
 603:Drivers/STM32F7xx_HAL_Driver/Src/stm32f7xx_hal_uart.c **** 
 102              		.loc 1 603 0
 103 001c 9D60     		str	r5, [r3, #8]
 606:Drivers/STM32F7xx_HAL_Driver/Src/stm32f7xx_hal_uart.c **** 
ARM GAS  /tmp/cc6CQ8Vx.s 			page 14


 104              		.loc 1 606 0
 105 001e FFF7FEFF 		bl	HAL_UART_MspDeInit
 106              	.LVL2:
 608:Drivers/STM32F7xx_HAL_Driver/Src/stm32f7xx_hal_uart.c ****   huart->gState    = HAL_UART_STATE_RESET;
 107              		.loc 1 608 0
 108 0022 E566     		str	r5, [r4, #108]
 613:Drivers/STM32F7xx_HAL_Driver/Src/stm32f7xx_hal_uart.c **** 
 109              		.loc 1 613 0
 110 0024 84F86850 		strb	r5, [r4, #104]
 615:Drivers/STM32F7xx_HAL_Driver/Src/stm32f7xx_hal_uart.c **** }
 111              		.loc 1 615 0
 112 0028 2846     		mov	r0, r5
 609:Drivers/STM32F7xx_HAL_Driver/Src/stm32f7xx_hal_uart.c ****   huart->RxState   = HAL_UART_STATE_RESET;
 113              		.loc 1 609 0
 114 002a 84F86950 		strb	r5, [r4, #105]
 610:Drivers/STM32F7xx_HAL_Driver/Src/stm32f7xx_hal_uart.c **** 
 115              		.loc 1 610 0
 116 002e 84F86A50 		strb	r5, [r4, #106]
 616:Drivers/STM32F7xx_HAL_Driver/Src/stm32f7xx_hal_uart.c **** 
 117              		.loc 1 616 0
 118 0032 38BD     		pop	{r3, r4, r5, pc}
 119              	.LVL3:
 120              	.L6:
 121              	.LCFI1:
 122              		.cfi_def_cfa_offset 0
 123              		.cfi_restore 3
 124              		.cfi_restore 4
 125              		.cfi_restore 5
 126              		.cfi_restore 14
 590:Drivers/STM32F7xx_HAL_Driver/Src/stm32f7xx_hal_uart.c ****   }
 127              		.loc 1 590 0
 128 0034 0120     		movs	r0, #1
 129              	.LVL4:
 616:Drivers/STM32F7xx_HAL_Driver/Src/stm32f7xx_hal_uart.c **** 
 130              		.loc 1 616 0
 131 0036 7047     		bx	lr
 132              		.cfi_endproc
 133              	.LFE143:
 135              		.section	.text.HAL_UART_Transmit,"ax",%progbits
 136              		.align	1
 137              		.p2align 2,,3
 138              		.global	HAL_UART_Transmit
 139              		.syntax unified
 140              		.thumb
 141              		.thumb_func
 142              		.fpu fpv4-sp-d16
 144              	HAL_UART_Transmit:
 145              	.LFB146:
 632:Drivers/STM32F7xx_HAL_Driver/Src/stm32f7xx_hal_uart.c **** 
 633:Drivers/STM32F7xx_HAL_Driver/Src/stm32f7xx_hal_uart.c **** /**
 634:Drivers/STM32F7xx_HAL_Driver/Src/stm32f7xx_hal_uart.c ****   * @brief UART MSP DeInit
 635:Drivers/STM32F7xx_HAL_Driver/Src/stm32f7xx_hal_uart.c ****   * @param huart uart handle
 636:Drivers/STM32F7xx_HAL_Driver/Src/stm32f7xx_hal_uart.c ****   * @retval None
 637:Drivers/STM32F7xx_HAL_Driver/Src/stm32f7xx_hal_uart.c ****   */
 638:Drivers/STM32F7xx_HAL_Driver/Src/stm32f7xx_hal_uart.c **** __weak void HAL_UART_MspDeInit(UART_HandleTypeDef *huart)
 639:Drivers/STM32F7xx_HAL_Driver/Src/stm32f7xx_hal_uart.c **** {
 640:Drivers/STM32F7xx_HAL_Driver/Src/stm32f7xx_hal_uart.c ****   /* Prevent unused argument(s) compilation warning */
ARM GAS  /tmp/cc6CQ8Vx.s 			page 15


 641:Drivers/STM32F7xx_HAL_Driver/Src/stm32f7xx_hal_uart.c ****   UNUSED(huart);
 642:Drivers/STM32F7xx_HAL_Driver/Src/stm32f7xx_hal_uart.c **** 
 643:Drivers/STM32F7xx_HAL_Driver/Src/stm32f7xx_hal_uart.c ****   /* NOTE : This function should not be modified, when the callback is needed,
 644:Drivers/STM32F7xx_HAL_Driver/Src/stm32f7xx_hal_uart.c ****             the HAL_UART_MspDeInit can be implemented in the user file
 645:Drivers/STM32F7xx_HAL_Driver/Src/stm32f7xx_hal_uart.c ****    */
 646:Drivers/STM32F7xx_HAL_Driver/Src/stm32f7xx_hal_uart.c **** }
 647:Drivers/STM32F7xx_HAL_Driver/Src/stm32f7xx_hal_uart.c **** 
 648:Drivers/STM32F7xx_HAL_Driver/Src/stm32f7xx_hal_uart.c **** /**
 649:Drivers/STM32F7xx_HAL_Driver/Src/stm32f7xx_hal_uart.c ****   * @}
 650:Drivers/STM32F7xx_HAL_Driver/Src/stm32f7xx_hal_uart.c ****   */
 651:Drivers/STM32F7xx_HAL_Driver/Src/stm32f7xx_hal_uart.c **** 
 652:Drivers/STM32F7xx_HAL_Driver/Src/stm32f7xx_hal_uart.c **** /** @defgroup UART_Exported_Functions_Group2 IO operation functions
 653:Drivers/STM32F7xx_HAL_Driver/Src/stm32f7xx_hal_uart.c ****   * @brief UART Transmit/Receive functions
 654:Drivers/STM32F7xx_HAL_Driver/Src/stm32f7xx_hal_uart.c ****   *
 655:Drivers/STM32F7xx_HAL_Driver/Src/stm32f7xx_hal_uart.c **** @verbatim
 656:Drivers/STM32F7xx_HAL_Driver/Src/stm32f7xx_hal_uart.c ****  ===============================================================================
 657:Drivers/STM32F7xx_HAL_Driver/Src/stm32f7xx_hal_uart.c ****                       ##### IO operation functions #####
 658:Drivers/STM32F7xx_HAL_Driver/Src/stm32f7xx_hal_uart.c ****  ===============================================================================
 659:Drivers/STM32F7xx_HAL_Driver/Src/stm32f7xx_hal_uart.c ****     This subsection provides a set of functions allowing to manage the UART asynchronous
 660:Drivers/STM32F7xx_HAL_Driver/Src/stm32f7xx_hal_uart.c ****     and Half duplex data transfers.
 661:Drivers/STM32F7xx_HAL_Driver/Src/stm32f7xx_hal_uart.c **** 
 662:Drivers/STM32F7xx_HAL_Driver/Src/stm32f7xx_hal_uart.c ****     (#) There are two mode of transfer:
 663:Drivers/STM32F7xx_HAL_Driver/Src/stm32f7xx_hal_uart.c ****        (+) Blocking mode: The communication is performed in polling mode.
 664:Drivers/STM32F7xx_HAL_Driver/Src/stm32f7xx_hal_uart.c ****            The HAL status of all data processing is returned by the same function
 665:Drivers/STM32F7xx_HAL_Driver/Src/stm32f7xx_hal_uart.c ****            after finishing transfer.
 666:Drivers/STM32F7xx_HAL_Driver/Src/stm32f7xx_hal_uart.c ****        (+) Non-Blocking mode: The communication is performed using Interrupts
 667:Drivers/STM32F7xx_HAL_Driver/Src/stm32f7xx_hal_uart.c ****            or DMA, These API's return the HAL status.
 668:Drivers/STM32F7xx_HAL_Driver/Src/stm32f7xx_hal_uart.c ****            The end of the data processing will be indicated through the
 669:Drivers/STM32F7xx_HAL_Driver/Src/stm32f7xx_hal_uart.c ****            dedicated UART IRQ when using Interrupt mode or the DMA IRQ when
 670:Drivers/STM32F7xx_HAL_Driver/Src/stm32f7xx_hal_uart.c ****            using DMA mode.
 671:Drivers/STM32F7xx_HAL_Driver/Src/stm32f7xx_hal_uart.c ****            The HAL_UART_TxCpltCallback(), HAL_UART_RxCpltCallback() user callbacks
 672:Drivers/STM32F7xx_HAL_Driver/Src/stm32f7xx_hal_uart.c ****            will be executed respectively at the end of the transmit or Receive process
 673:Drivers/STM32F7xx_HAL_Driver/Src/stm32f7xx_hal_uart.c ****            The HAL_UART_ErrorCallback()user callback will be executed when a communication error is
 674:Drivers/STM32F7xx_HAL_Driver/Src/stm32f7xx_hal_uart.c **** 
 675:Drivers/STM32F7xx_HAL_Driver/Src/stm32f7xx_hal_uart.c ****     (#) Blocking mode API's are :
 676:Drivers/STM32F7xx_HAL_Driver/Src/stm32f7xx_hal_uart.c ****         (+) HAL_UART_Transmit()
 677:Drivers/STM32F7xx_HAL_Driver/Src/stm32f7xx_hal_uart.c ****         (+) HAL_UART_Receive()
 678:Drivers/STM32F7xx_HAL_Driver/Src/stm32f7xx_hal_uart.c **** 
 679:Drivers/STM32F7xx_HAL_Driver/Src/stm32f7xx_hal_uart.c ****     (#) Non-Blocking mode API's with Interrupt are :
 680:Drivers/STM32F7xx_HAL_Driver/Src/stm32f7xx_hal_uart.c ****         (+) HAL_UART_Transmit_IT()
 681:Drivers/STM32F7xx_HAL_Driver/Src/stm32f7xx_hal_uart.c ****         (+) HAL_UART_Receive_IT()
 682:Drivers/STM32F7xx_HAL_Driver/Src/stm32f7xx_hal_uart.c ****         (+) HAL_UART_IRQHandler()
 683:Drivers/STM32F7xx_HAL_Driver/Src/stm32f7xx_hal_uart.c ****         (+) UART_Transmit_IT()
 684:Drivers/STM32F7xx_HAL_Driver/Src/stm32f7xx_hal_uart.c ****         (+) UART_Receive_IT()
 685:Drivers/STM32F7xx_HAL_Driver/Src/stm32f7xx_hal_uart.c **** 
 686:Drivers/STM32F7xx_HAL_Driver/Src/stm32f7xx_hal_uart.c ****     (#) Non-Blocking mode API's with DMA are :
 687:Drivers/STM32F7xx_HAL_Driver/Src/stm32f7xx_hal_uart.c ****         (+) HAL_UART_Transmit_DMA()
 688:Drivers/STM32F7xx_HAL_Driver/Src/stm32f7xx_hal_uart.c ****         (+) HAL_UART_Receive_DMA()
 689:Drivers/STM32F7xx_HAL_Driver/Src/stm32f7xx_hal_uart.c ****         (+) HAL_UART_DMAPause()
 690:Drivers/STM32F7xx_HAL_Driver/Src/stm32f7xx_hal_uart.c ****         (+) HAL_UART_DMAResume()
 691:Drivers/STM32F7xx_HAL_Driver/Src/stm32f7xx_hal_uart.c ****         (+) HAL_UART_DMAStop()
 692:Drivers/STM32F7xx_HAL_Driver/Src/stm32f7xx_hal_uart.c **** 
 693:Drivers/STM32F7xx_HAL_Driver/Src/stm32f7xx_hal_uart.c ****     (#) A set of Transfer Complete Callbacks are provided in Non_Blocking mode:
 694:Drivers/STM32F7xx_HAL_Driver/Src/stm32f7xx_hal_uart.c ****         (+) HAL_UART_TxHalfCpltCallback()
 695:Drivers/STM32F7xx_HAL_Driver/Src/stm32f7xx_hal_uart.c ****         (+) HAL_UART_TxCpltCallback()
 696:Drivers/STM32F7xx_HAL_Driver/Src/stm32f7xx_hal_uart.c ****         (+) HAL_UART_RxHalfCpltCallback()
 697:Drivers/STM32F7xx_HAL_Driver/Src/stm32f7xx_hal_uart.c ****         (+) HAL_UART_RxCpltCallback()
ARM GAS  /tmp/cc6CQ8Vx.s 			page 16


 698:Drivers/STM32F7xx_HAL_Driver/Src/stm32f7xx_hal_uart.c ****         (+) HAL_UART_ErrorCallback()
 699:Drivers/STM32F7xx_HAL_Driver/Src/stm32f7xx_hal_uart.c **** 
 700:Drivers/STM32F7xx_HAL_Driver/Src/stm32f7xx_hal_uart.c **** 
 701:Drivers/STM32F7xx_HAL_Driver/Src/stm32f7xx_hal_uart.c ****     -@- In the Half duplex communication, it is forbidden to run the transmit
 702:Drivers/STM32F7xx_HAL_Driver/Src/stm32f7xx_hal_uart.c ****         and receive process in parallel, the UART state HAL_UART_STATE_BUSY_TX_RX can't be useful.
 703:Drivers/STM32F7xx_HAL_Driver/Src/stm32f7xx_hal_uart.c **** 
 704:Drivers/STM32F7xx_HAL_Driver/Src/stm32f7xx_hal_uart.c **** @endverbatim
 705:Drivers/STM32F7xx_HAL_Driver/Src/stm32f7xx_hal_uart.c ****   * @{
 706:Drivers/STM32F7xx_HAL_Driver/Src/stm32f7xx_hal_uart.c ****   */
 707:Drivers/STM32F7xx_HAL_Driver/Src/stm32f7xx_hal_uart.c **** 
 708:Drivers/STM32F7xx_HAL_Driver/Src/stm32f7xx_hal_uart.c **** /**
 709:Drivers/STM32F7xx_HAL_Driver/Src/stm32f7xx_hal_uart.c ****   * @brief Send an amount of data in blocking mode.
 710:Drivers/STM32F7xx_HAL_Driver/Src/stm32f7xx_hal_uart.c ****   * @param huart UART handle.
 711:Drivers/STM32F7xx_HAL_Driver/Src/stm32f7xx_hal_uart.c ****   * @param pData Pointer to data buffer.
 712:Drivers/STM32F7xx_HAL_Driver/Src/stm32f7xx_hal_uart.c ****   * @param Size Amount of data to be sent.
 713:Drivers/STM32F7xx_HAL_Driver/Src/stm32f7xx_hal_uart.c ****   * @param Timeout Timeout duration.
 714:Drivers/STM32F7xx_HAL_Driver/Src/stm32f7xx_hal_uart.c ****   * @retval HAL status
 715:Drivers/STM32F7xx_HAL_Driver/Src/stm32f7xx_hal_uart.c ****   */
 716:Drivers/STM32F7xx_HAL_Driver/Src/stm32f7xx_hal_uart.c **** HAL_StatusTypeDef HAL_UART_Transmit(UART_HandleTypeDef *huart, uint8_t *pData, uint16_t Size, uint3
 717:Drivers/STM32F7xx_HAL_Driver/Src/stm32f7xx_hal_uart.c **** {
 146              		.loc 1 717 0
 147              		.cfi_startproc
 148              		@ args = 0, pretend = 0, frame = 8
 149              		@ frame_needed = 0, uses_anonymous_args = 0
 150              	.LVL5:
 151 0000 2DE9F041 		push	{r4, r5, r6, r7, r8, lr}
 152              	.LCFI2:
 153              		.cfi_def_cfa_offset 24
 154              		.cfi_offset 4, -24
 155              		.cfi_offset 5, -20
 156              		.cfi_offset 6, -16
 157              		.cfi_offset 7, -12
 158              		.cfi_offset 8, -8
 159              		.cfi_offset 14, -4
 160 0004 1E46     		mov	r6, r3
 718:Drivers/STM32F7xx_HAL_Driver/Src/stm32f7xx_hal_uart.c ****   uint16_t* tmp;
 719:Drivers/STM32F7xx_HAL_Driver/Src/stm32f7xx_hal_uart.c ****   uint32_t tickstart = 0U;
 720:Drivers/STM32F7xx_HAL_Driver/Src/stm32f7xx_hal_uart.c **** 
 721:Drivers/STM32F7xx_HAL_Driver/Src/stm32f7xx_hal_uart.c ****   /* Check that a Tx process is not already ongoing */
 722:Drivers/STM32F7xx_HAL_Driver/Src/stm32f7xx_hal_uart.c ****   if(huart->gState == HAL_UART_STATE_READY)
 161              		.loc 1 722 0
 162 0006 90F86930 		ldrb	r3, [r0, #105]	@ zero_extendqisi2
 163              	.LVL6:
 717:Drivers/STM32F7xx_HAL_Driver/Src/stm32f7xx_hal_uart.c ****   uint16_t* tmp;
 164              		.loc 1 717 0
 165 000a 82B0     		sub	sp, sp, #8
 166              	.LCFI3:
 167              		.cfi_def_cfa_offset 32
 168              		.loc 1 722 0
 169 000c 202B     		cmp	r3, #32
 170 000e 47D1     		bne	.L33
 171 0010 8846     		mov	r8, r1
 723:Drivers/STM32F7xx_HAL_Driver/Src/stm32f7xx_hal_uart.c ****   {
 724:Drivers/STM32F7xx_HAL_Driver/Src/stm32f7xx_hal_uart.c ****     if((pData == NULL ) || (Size == 0U))
 172              		.loc 1 724 0
 173 0012 0029     		cmp	r1, #0
 174 0014 48D0     		beq	.L32
ARM GAS  /tmp/cc6CQ8Vx.s 			page 17


 175 0016 B2FA82F3 		clz	r3, r2
 176 001a 0192     		str	r2, [sp, #4]
 177 001c 5B09     		lsrs	r3, r3, #5
 178 001e 002B     		cmp	r3, #0
 179 0020 42D1     		bne	.L32
 725:Drivers/STM32F7xx_HAL_Driver/Src/stm32f7xx_hal_uart.c ****     {
 726:Drivers/STM32F7xx_HAL_Driver/Src/stm32f7xx_hal_uart.c ****       return  HAL_ERROR;
 727:Drivers/STM32F7xx_HAL_Driver/Src/stm32f7xx_hal_uart.c ****     }
 728:Drivers/STM32F7xx_HAL_Driver/Src/stm32f7xx_hal_uart.c **** 
 729:Drivers/STM32F7xx_HAL_Driver/Src/stm32f7xx_hal_uart.c ****     /* Process Locked */
 730:Drivers/STM32F7xx_HAL_Driver/Src/stm32f7xx_hal_uart.c ****     __HAL_LOCK(huart);
 180              		.loc 1 730 0
 181 0022 90F86810 		ldrb	r1, [r0, #104]	@ zero_extendqisi2
 182              	.LVL7:
 183 0026 0546     		mov	r5, r0
 184 0028 0129     		cmp	r1, #1
 185 002a 39D0     		beq	.L33
 731:Drivers/STM32F7xx_HAL_Driver/Src/stm32f7xx_hal_uart.c **** 
 732:Drivers/STM32F7xx_HAL_Driver/Src/stm32f7xx_hal_uart.c ****     huart->ErrorCode = HAL_UART_ERROR_NONE;
 186              		.loc 1 732 0 discriminator 2
 187 002c C366     		str	r3, [r0, #108]
 730:Drivers/STM32F7xx_HAL_Driver/Src/stm32f7xx_hal_uart.c **** 
 188              		.loc 1 730 0 discriminator 2
 189 002e 0121     		movs	r1, #1
 733:Drivers/STM32F7xx_HAL_Driver/Src/stm32f7xx_hal_uart.c ****     huart->gState = HAL_UART_STATE_BUSY_TX;
 190              		.loc 1 733 0 discriminator 2
 191 0030 2123     		movs	r3, #33
 730:Drivers/STM32F7xx_HAL_Driver/Src/stm32f7xx_hal_uart.c **** 
 192              		.loc 1 730 0 discriminator 2
 193 0032 80F86810 		strb	r1, [r0, #104]
 194              		.loc 1 733 0 discriminator 2
 195 0036 80F86930 		strb	r3, [r0, #105]
 734:Drivers/STM32F7xx_HAL_Driver/Src/stm32f7xx_hal_uart.c **** 
 735:Drivers/STM32F7xx_HAL_Driver/Src/stm32f7xx_hal_uart.c ****     /* Init tickstart for timeout managment*/
 736:Drivers/STM32F7xx_HAL_Driver/Src/stm32f7xx_hal_uart.c ****     tickstart = HAL_GetTick();
 196              		.loc 1 736 0 discriminator 2
 197 003a FFF7FEFF 		bl	HAL_GetTick
 198              	.LVL8:
 737:Drivers/STM32F7xx_HAL_Driver/Src/stm32f7xx_hal_uart.c **** 
 738:Drivers/STM32F7xx_HAL_Driver/Src/stm32f7xx_hal_uart.c ****     huart->TxXferSize = Size;
 199              		.loc 1 738 0 discriminator 2
 200 003e 019A     		ldr	r2, [sp, #4]
 736:Drivers/STM32F7xx_HAL_Driver/Src/stm32f7xx_hal_uart.c **** 
 201              		.loc 1 736 0 discriminator 2
 202 0040 0746     		mov	r7, r0
 203              	.LVL9:
 204 0042 2C68     		ldr	r4, [r5]
 205              		.loc 1 738 0 discriminator 2
 206 0044 A5F85020 		strh	r2, [r5, #80]	@ movhi
 739:Drivers/STM32F7xx_HAL_Driver/Src/stm32f7xx_hal_uart.c ****     huart->TxXferCount = Size;
 207              		.loc 1 739 0 discriminator 2
 208 0048 A5F85220 		strh	r2, [r5, #82]	@ movhi
 209              	.LVL10:
 210              	.L13:
 740:Drivers/STM32F7xx_HAL_Driver/Src/stm32f7xx_hal_uart.c ****     while(huart->TxXferCount > 0U)
 211              		.loc 1 740 0
 212 004c B5F85230 		ldrh	r3, [r5, #82]
ARM GAS  /tmp/cc6CQ8Vx.s 			page 18


 213 0050 9BB2     		uxth	r3, r3
 214 0052 C3B1     		cbz	r3, .L24
 215              	.L23:
 741:Drivers/STM32F7xx_HAL_Driver/Src/stm32f7xx_hal_uart.c ****     {
 742:Drivers/STM32F7xx_HAL_Driver/Src/stm32f7xx_hal_uart.c ****       huart->TxXferCount--;
 216              		.loc 1 742 0
 217 0054 B5F85220 		ldrh	r2, [r5, #82]
 218 0058 013A     		subs	r2, r2, #1
 219 005a 92B2     		uxth	r2, r2
 220 005c A5F85220 		strh	r2, [r5, #82]	@ movhi
 221              	.LVL11:
 222              	.L14:
 223 0060 721C     		adds	r2, r6, #1
 224 0062 25D1     		bne	.L17
 225              	.L18:
 226              	.LBB22:
 227              	.LBB23:
 743:Drivers/STM32F7xx_HAL_Driver/Src/stm32f7xx_hal_uart.c ****       if(UART_WaitOnFlagUntilTimeout(huart, UART_FLAG_TXE, RESET, tickstart, Timeout) != HAL_OK)
 744:Drivers/STM32F7xx_HAL_Driver/Src/stm32f7xx_hal_uart.c ****       {
 745:Drivers/STM32F7xx_HAL_Driver/Src/stm32f7xx_hal_uart.c ****         return HAL_TIMEOUT;
 746:Drivers/STM32F7xx_HAL_Driver/Src/stm32f7xx_hal_uart.c ****       }
 747:Drivers/STM32F7xx_HAL_Driver/Src/stm32f7xx_hal_uart.c ****       if ((huart->Init.WordLength == UART_WORDLENGTH_9B) && (huart->Init.Parity == UART_PARITY_NONE
 748:Drivers/STM32F7xx_HAL_Driver/Src/stm32f7xx_hal_uart.c ****       {
 749:Drivers/STM32F7xx_HAL_Driver/Src/stm32f7xx_hal_uart.c ****         tmp = (uint16_t*) pData;
 750:Drivers/STM32F7xx_HAL_Driver/Src/stm32f7xx_hal_uart.c ****         huart->Instance->TDR = (*tmp & (uint16_t)0x01FFU);
 751:Drivers/STM32F7xx_HAL_Driver/Src/stm32f7xx_hal_uart.c ****         pData += 2;
 752:Drivers/STM32F7xx_HAL_Driver/Src/stm32f7xx_hal_uart.c ****       }
 753:Drivers/STM32F7xx_HAL_Driver/Src/stm32f7xx_hal_uart.c ****       else
 754:Drivers/STM32F7xx_HAL_Driver/Src/stm32f7xx_hal_uart.c ****       {
 755:Drivers/STM32F7xx_HAL_Driver/Src/stm32f7xx_hal_uart.c ****         huart->Instance->TDR = (*pData++ & (uint8_t)0xFFU);
 756:Drivers/STM32F7xx_HAL_Driver/Src/stm32f7xx_hal_uart.c ****       }
 757:Drivers/STM32F7xx_HAL_Driver/Src/stm32f7xx_hal_uart.c ****     }
 758:Drivers/STM32F7xx_HAL_Driver/Src/stm32f7xx_hal_uart.c ****     if(UART_WaitOnFlagUntilTimeout(huart, UART_FLAG_TC, RESET, tickstart, Timeout) != HAL_OK)
 759:Drivers/STM32F7xx_HAL_Driver/Src/stm32f7xx_hal_uart.c ****     {
 760:Drivers/STM32F7xx_HAL_Driver/Src/stm32f7xx_hal_uart.c ****       return HAL_TIMEOUT;
 761:Drivers/STM32F7xx_HAL_Driver/Src/stm32f7xx_hal_uart.c ****     }
 762:Drivers/STM32F7xx_HAL_Driver/Src/stm32f7xx_hal_uart.c **** 
 763:Drivers/STM32F7xx_HAL_Driver/Src/stm32f7xx_hal_uart.c ****     /* At end of Tx process, restore huart->gState to Ready */
 764:Drivers/STM32F7xx_HAL_Driver/Src/stm32f7xx_hal_uart.c ****     huart->gState = HAL_UART_STATE_READY;
 765:Drivers/STM32F7xx_HAL_Driver/Src/stm32f7xx_hal_uart.c **** 
 766:Drivers/STM32F7xx_HAL_Driver/Src/stm32f7xx_hal_uart.c ****     /* Process Unlocked */
 767:Drivers/STM32F7xx_HAL_Driver/Src/stm32f7xx_hal_uart.c ****     __HAL_UNLOCK(huart);
 768:Drivers/STM32F7xx_HAL_Driver/Src/stm32f7xx_hal_uart.c **** 
 769:Drivers/STM32F7xx_HAL_Driver/Src/stm32f7xx_hal_uart.c ****     return HAL_OK;
 770:Drivers/STM32F7xx_HAL_Driver/Src/stm32f7xx_hal_uart.c ****   }
 771:Drivers/STM32F7xx_HAL_Driver/Src/stm32f7xx_hal_uart.c ****   else
 772:Drivers/STM32F7xx_HAL_Driver/Src/stm32f7xx_hal_uart.c ****   {
 773:Drivers/STM32F7xx_HAL_Driver/Src/stm32f7xx_hal_uart.c ****     return HAL_BUSY;
 774:Drivers/STM32F7xx_HAL_Driver/Src/stm32f7xx_hal_uart.c ****   }
 775:Drivers/STM32F7xx_HAL_Driver/Src/stm32f7xx_hal_uart.c **** }
 776:Drivers/STM32F7xx_HAL_Driver/Src/stm32f7xx_hal_uart.c **** 
 777:Drivers/STM32F7xx_HAL_Driver/Src/stm32f7xx_hal_uart.c **** /**
 778:Drivers/STM32F7xx_HAL_Driver/Src/stm32f7xx_hal_uart.c ****   * @brief Receive an amount of data in blocking mode.
 779:Drivers/STM32F7xx_HAL_Driver/Src/stm32f7xx_hal_uart.c ****   * @param huart UART handle.
 780:Drivers/STM32F7xx_HAL_Driver/Src/stm32f7xx_hal_uart.c ****   * @param pData pointer to data buffer.
 781:Drivers/STM32F7xx_HAL_Driver/Src/stm32f7xx_hal_uart.c ****   * @param Size amount of data to be received.
 782:Drivers/STM32F7xx_HAL_Driver/Src/stm32f7xx_hal_uart.c ****   * @param Timeout Timeout duration.
ARM GAS  /tmp/cc6CQ8Vx.s 			page 19


 783:Drivers/STM32F7xx_HAL_Driver/Src/stm32f7xx_hal_uart.c ****   * @retval HAL status
 784:Drivers/STM32F7xx_HAL_Driver/Src/stm32f7xx_hal_uart.c ****   */
 785:Drivers/STM32F7xx_HAL_Driver/Src/stm32f7xx_hal_uart.c **** HAL_StatusTypeDef HAL_UART_Receive(UART_HandleTypeDef *huart, uint8_t *pData, uint16_t Size, uint32
 786:Drivers/STM32F7xx_HAL_Driver/Src/stm32f7xx_hal_uart.c **** {
 787:Drivers/STM32F7xx_HAL_Driver/Src/stm32f7xx_hal_uart.c ****   uint16_t* tmp;
 788:Drivers/STM32F7xx_HAL_Driver/Src/stm32f7xx_hal_uart.c ****   uint16_t uhMask;
 789:Drivers/STM32F7xx_HAL_Driver/Src/stm32f7xx_hal_uart.c ****   uint32_t tickstart = 0U;
 790:Drivers/STM32F7xx_HAL_Driver/Src/stm32f7xx_hal_uart.c **** 
 791:Drivers/STM32F7xx_HAL_Driver/Src/stm32f7xx_hal_uart.c ****   /* Check that a Rx process is not already ongoing */
 792:Drivers/STM32F7xx_HAL_Driver/Src/stm32f7xx_hal_uart.c ****   if(huart->RxState == HAL_UART_STATE_READY)
 793:Drivers/STM32F7xx_HAL_Driver/Src/stm32f7xx_hal_uart.c ****   {
 794:Drivers/STM32F7xx_HAL_Driver/Src/stm32f7xx_hal_uart.c ****     if((pData == NULL ) || (Size == 0U))
 795:Drivers/STM32F7xx_HAL_Driver/Src/stm32f7xx_hal_uart.c ****     {
 796:Drivers/STM32F7xx_HAL_Driver/Src/stm32f7xx_hal_uart.c ****       return  HAL_ERROR;
 797:Drivers/STM32F7xx_HAL_Driver/Src/stm32f7xx_hal_uart.c ****     }
 798:Drivers/STM32F7xx_HAL_Driver/Src/stm32f7xx_hal_uart.c **** 
 799:Drivers/STM32F7xx_HAL_Driver/Src/stm32f7xx_hal_uart.c ****     /* Process Locked */
 800:Drivers/STM32F7xx_HAL_Driver/Src/stm32f7xx_hal_uart.c ****     __HAL_LOCK(huart);
 801:Drivers/STM32F7xx_HAL_Driver/Src/stm32f7xx_hal_uart.c **** 
 802:Drivers/STM32F7xx_HAL_Driver/Src/stm32f7xx_hal_uart.c ****     huart->ErrorCode = HAL_UART_ERROR_NONE;
 803:Drivers/STM32F7xx_HAL_Driver/Src/stm32f7xx_hal_uart.c ****     huart->RxState = HAL_UART_STATE_BUSY_RX;
 804:Drivers/STM32F7xx_HAL_Driver/Src/stm32f7xx_hal_uart.c **** 
 805:Drivers/STM32F7xx_HAL_Driver/Src/stm32f7xx_hal_uart.c ****     /* Init tickstart for timeout managment*/
 806:Drivers/STM32F7xx_HAL_Driver/Src/stm32f7xx_hal_uart.c ****     tickstart = HAL_GetTick();
 807:Drivers/STM32F7xx_HAL_Driver/Src/stm32f7xx_hal_uart.c **** 
 808:Drivers/STM32F7xx_HAL_Driver/Src/stm32f7xx_hal_uart.c ****     huart->RxXferSize = Size;
 809:Drivers/STM32F7xx_HAL_Driver/Src/stm32f7xx_hal_uart.c ****     huart->RxXferCount = Size;
 810:Drivers/STM32F7xx_HAL_Driver/Src/stm32f7xx_hal_uart.c **** 
 811:Drivers/STM32F7xx_HAL_Driver/Src/stm32f7xx_hal_uart.c ****     /* Computation of UART mask to apply to RDR register */
 812:Drivers/STM32F7xx_HAL_Driver/Src/stm32f7xx_hal_uart.c ****     UART_MASK_COMPUTATION(huart);
 813:Drivers/STM32F7xx_HAL_Driver/Src/stm32f7xx_hal_uart.c ****     uhMask = huart->Mask;
 814:Drivers/STM32F7xx_HAL_Driver/Src/stm32f7xx_hal_uart.c **** 
 815:Drivers/STM32F7xx_HAL_Driver/Src/stm32f7xx_hal_uart.c ****     /* as long as data have to be received */
 816:Drivers/STM32F7xx_HAL_Driver/Src/stm32f7xx_hal_uart.c ****     while(huart->RxXferCount > 0U)
 817:Drivers/STM32F7xx_HAL_Driver/Src/stm32f7xx_hal_uart.c ****     {
 818:Drivers/STM32F7xx_HAL_Driver/Src/stm32f7xx_hal_uart.c ****       huart->RxXferCount--;
 819:Drivers/STM32F7xx_HAL_Driver/Src/stm32f7xx_hal_uart.c ****       if(UART_WaitOnFlagUntilTimeout(huart, UART_FLAG_RXNE, RESET, tickstart, Timeout) != HAL_OK)
 820:Drivers/STM32F7xx_HAL_Driver/Src/stm32f7xx_hal_uart.c ****       {
 821:Drivers/STM32F7xx_HAL_Driver/Src/stm32f7xx_hal_uart.c ****         return HAL_TIMEOUT;
 822:Drivers/STM32F7xx_HAL_Driver/Src/stm32f7xx_hal_uart.c ****       }
 823:Drivers/STM32F7xx_HAL_Driver/Src/stm32f7xx_hal_uart.c ****       if ((huart->Init.WordLength == UART_WORDLENGTH_9B) && (huart->Init.Parity == UART_PARITY_NONE
 824:Drivers/STM32F7xx_HAL_Driver/Src/stm32f7xx_hal_uart.c ****       {
 825:Drivers/STM32F7xx_HAL_Driver/Src/stm32f7xx_hal_uart.c ****         tmp = (uint16_t*) pData ;
 826:Drivers/STM32F7xx_HAL_Driver/Src/stm32f7xx_hal_uart.c ****         *tmp = (uint16_t)(huart->Instance->RDR & uhMask);
 827:Drivers/STM32F7xx_HAL_Driver/Src/stm32f7xx_hal_uart.c ****         pData +=2U;
 828:Drivers/STM32F7xx_HAL_Driver/Src/stm32f7xx_hal_uart.c ****       }
 829:Drivers/STM32F7xx_HAL_Driver/Src/stm32f7xx_hal_uart.c ****       else
 830:Drivers/STM32F7xx_HAL_Driver/Src/stm32f7xx_hal_uart.c ****       {
 831:Drivers/STM32F7xx_HAL_Driver/Src/stm32f7xx_hal_uart.c ****         *pData++ = (uint8_t)(huart->Instance->RDR & (uint8_t)uhMask);
 832:Drivers/STM32F7xx_HAL_Driver/Src/stm32f7xx_hal_uart.c ****       }
 833:Drivers/STM32F7xx_HAL_Driver/Src/stm32f7xx_hal_uart.c ****     }
 834:Drivers/STM32F7xx_HAL_Driver/Src/stm32f7xx_hal_uart.c **** 
 835:Drivers/STM32F7xx_HAL_Driver/Src/stm32f7xx_hal_uart.c ****     /* At end of Rx process, restore huart->RxState to Ready */
 836:Drivers/STM32F7xx_HAL_Driver/Src/stm32f7xx_hal_uart.c ****     huart->RxState = HAL_UART_STATE_READY;
 837:Drivers/STM32F7xx_HAL_Driver/Src/stm32f7xx_hal_uart.c **** 
 838:Drivers/STM32F7xx_HAL_Driver/Src/stm32f7xx_hal_uart.c ****     /* Process Unlocked */
 839:Drivers/STM32F7xx_HAL_Driver/Src/stm32f7xx_hal_uart.c ****     __HAL_UNLOCK(huart);
ARM GAS  /tmp/cc6CQ8Vx.s 			page 20


 840:Drivers/STM32F7xx_HAL_Driver/Src/stm32f7xx_hal_uart.c **** 
 841:Drivers/STM32F7xx_HAL_Driver/Src/stm32f7xx_hal_uart.c ****     return HAL_OK;
 842:Drivers/STM32F7xx_HAL_Driver/Src/stm32f7xx_hal_uart.c ****   }
 843:Drivers/STM32F7xx_HAL_Driver/Src/stm32f7xx_hal_uart.c ****   else
 844:Drivers/STM32F7xx_HAL_Driver/Src/stm32f7xx_hal_uart.c ****   {
 845:Drivers/STM32F7xx_HAL_Driver/Src/stm32f7xx_hal_uart.c ****     return HAL_BUSY;
 846:Drivers/STM32F7xx_HAL_Driver/Src/stm32f7xx_hal_uart.c ****   }
 847:Drivers/STM32F7xx_HAL_Driver/Src/stm32f7xx_hal_uart.c **** }
 848:Drivers/STM32F7xx_HAL_Driver/Src/stm32f7xx_hal_uart.c **** 
 849:Drivers/STM32F7xx_HAL_Driver/Src/stm32f7xx_hal_uart.c **** /**
 850:Drivers/STM32F7xx_HAL_Driver/Src/stm32f7xx_hal_uart.c ****   * @brief Send an amount of data in interrupt mode.
 851:Drivers/STM32F7xx_HAL_Driver/Src/stm32f7xx_hal_uart.c ****   * @param huart UART handle.
 852:Drivers/STM32F7xx_HAL_Driver/Src/stm32f7xx_hal_uart.c ****   * @param pData pointer to data buffer.
 853:Drivers/STM32F7xx_HAL_Driver/Src/stm32f7xx_hal_uart.c ****   * @param Size amount of data to be sent.
 854:Drivers/STM32F7xx_HAL_Driver/Src/stm32f7xx_hal_uart.c ****   * @retval HAL status
 855:Drivers/STM32F7xx_HAL_Driver/Src/stm32f7xx_hal_uart.c ****   */
 856:Drivers/STM32F7xx_HAL_Driver/Src/stm32f7xx_hal_uart.c **** HAL_StatusTypeDef HAL_UART_Transmit_IT(UART_HandleTypeDef *huart, uint8_t *pData, uint16_t Size)
 857:Drivers/STM32F7xx_HAL_Driver/Src/stm32f7xx_hal_uart.c **** {
 858:Drivers/STM32F7xx_HAL_Driver/Src/stm32f7xx_hal_uart.c ****   /* Check that a Tx process is not already ongoing */
 859:Drivers/STM32F7xx_HAL_Driver/Src/stm32f7xx_hal_uart.c ****   if(huart->gState == HAL_UART_STATE_READY)
 860:Drivers/STM32F7xx_HAL_Driver/Src/stm32f7xx_hal_uart.c ****   {
 861:Drivers/STM32F7xx_HAL_Driver/Src/stm32f7xx_hal_uart.c ****     if((pData == NULL ) || (Size == 0U))
 862:Drivers/STM32F7xx_HAL_Driver/Src/stm32f7xx_hal_uart.c ****     {
 863:Drivers/STM32F7xx_HAL_Driver/Src/stm32f7xx_hal_uart.c ****       return HAL_ERROR;
 864:Drivers/STM32F7xx_HAL_Driver/Src/stm32f7xx_hal_uart.c ****     }
 865:Drivers/STM32F7xx_HAL_Driver/Src/stm32f7xx_hal_uart.c **** 
 866:Drivers/STM32F7xx_HAL_Driver/Src/stm32f7xx_hal_uart.c ****     /* Process Locked */
 867:Drivers/STM32F7xx_HAL_Driver/Src/stm32f7xx_hal_uart.c ****     __HAL_LOCK(huart);
 868:Drivers/STM32F7xx_HAL_Driver/Src/stm32f7xx_hal_uart.c **** 
 869:Drivers/STM32F7xx_HAL_Driver/Src/stm32f7xx_hal_uart.c ****     huart->pTxBuffPtr = pData;
 870:Drivers/STM32F7xx_HAL_Driver/Src/stm32f7xx_hal_uart.c ****     huart->TxXferSize = Size;
 871:Drivers/STM32F7xx_HAL_Driver/Src/stm32f7xx_hal_uart.c ****     huart->TxXferCount = Size;
 872:Drivers/STM32F7xx_HAL_Driver/Src/stm32f7xx_hal_uart.c **** 
 873:Drivers/STM32F7xx_HAL_Driver/Src/stm32f7xx_hal_uart.c ****     huart->ErrorCode = HAL_UART_ERROR_NONE;
 874:Drivers/STM32F7xx_HAL_Driver/Src/stm32f7xx_hal_uart.c ****     huart->gState = HAL_UART_STATE_BUSY_TX;
 875:Drivers/STM32F7xx_HAL_Driver/Src/stm32f7xx_hal_uart.c **** 
 876:Drivers/STM32F7xx_HAL_Driver/Src/stm32f7xx_hal_uart.c ****     /* Process Unlocked */
 877:Drivers/STM32F7xx_HAL_Driver/Src/stm32f7xx_hal_uart.c ****     __HAL_UNLOCK(huart);
 878:Drivers/STM32F7xx_HAL_Driver/Src/stm32f7xx_hal_uart.c **** 
 879:Drivers/STM32F7xx_HAL_Driver/Src/stm32f7xx_hal_uart.c ****     /* Enable the UART Transmit Data Register Empty Interrupt */
 880:Drivers/STM32F7xx_HAL_Driver/Src/stm32f7xx_hal_uart.c ****     SET_BIT(huart->Instance->CR1, USART_CR1_TXEIE);
 881:Drivers/STM32F7xx_HAL_Driver/Src/stm32f7xx_hal_uart.c **** 
 882:Drivers/STM32F7xx_HAL_Driver/Src/stm32f7xx_hal_uart.c ****     return HAL_OK;
 883:Drivers/STM32F7xx_HAL_Driver/Src/stm32f7xx_hal_uart.c ****   }
 884:Drivers/STM32F7xx_HAL_Driver/Src/stm32f7xx_hal_uart.c ****   else
 885:Drivers/STM32F7xx_HAL_Driver/Src/stm32f7xx_hal_uart.c ****   {
 886:Drivers/STM32F7xx_HAL_Driver/Src/stm32f7xx_hal_uart.c ****     return HAL_BUSY;
 887:Drivers/STM32F7xx_HAL_Driver/Src/stm32f7xx_hal_uart.c ****   }
 888:Drivers/STM32F7xx_HAL_Driver/Src/stm32f7xx_hal_uart.c **** }
 889:Drivers/STM32F7xx_HAL_Driver/Src/stm32f7xx_hal_uart.c **** 
 890:Drivers/STM32F7xx_HAL_Driver/Src/stm32f7xx_hal_uart.c **** /**
 891:Drivers/STM32F7xx_HAL_Driver/Src/stm32f7xx_hal_uart.c ****   * @brief Receive an amount of data in interrupt mode.
 892:Drivers/STM32F7xx_HAL_Driver/Src/stm32f7xx_hal_uart.c ****   * @param huart UART handle.
 893:Drivers/STM32F7xx_HAL_Driver/Src/stm32f7xx_hal_uart.c ****   * @param pData pointer to data buffer.
 894:Drivers/STM32F7xx_HAL_Driver/Src/stm32f7xx_hal_uart.c ****   * @param Size amount of data to be received.
 895:Drivers/STM32F7xx_HAL_Driver/Src/stm32f7xx_hal_uart.c ****   * @retval HAL status
 896:Drivers/STM32F7xx_HAL_Driver/Src/stm32f7xx_hal_uart.c ****   */
ARM GAS  /tmp/cc6CQ8Vx.s 			page 21


 897:Drivers/STM32F7xx_HAL_Driver/Src/stm32f7xx_hal_uart.c **** HAL_StatusTypeDef HAL_UART_Receive_IT(UART_HandleTypeDef *huart, uint8_t *pData, uint16_t Size)
 898:Drivers/STM32F7xx_HAL_Driver/Src/stm32f7xx_hal_uart.c **** {
 899:Drivers/STM32F7xx_HAL_Driver/Src/stm32f7xx_hal_uart.c ****   /* Check that a Rx process is not already ongoing */
 900:Drivers/STM32F7xx_HAL_Driver/Src/stm32f7xx_hal_uart.c ****   if(huart->RxState == HAL_UART_STATE_READY)
 901:Drivers/STM32F7xx_HAL_Driver/Src/stm32f7xx_hal_uart.c ****   {
 902:Drivers/STM32F7xx_HAL_Driver/Src/stm32f7xx_hal_uart.c ****     if((pData == NULL ) || (Size == 0U))
 903:Drivers/STM32F7xx_HAL_Driver/Src/stm32f7xx_hal_uart.c ****     {
 904:Drivers/STM32F7xx_HAL_Driver/Src/stm32f7xx_hal_uart.c ****       return HAL_ERROR;
 905:Drivers/STM32F7xx_HAL_Driver/Src/stm32f7xx_hal_uart.c ****     }
 906:Drivers/STM32F7xx_HAL_Driver/Src/stm32f7xx_hal_uart.c **** 
 907:Drivers/STM32F7xx_HAL_Driver/Src/stm32f7xx_hal_uart.c ****     /* Process Locked */
 908:Drivers/STM32F7xx_HAL_Driver/Src/stm32f7xx_hal_uart.c ****     __HAL_LOCK(huart);
 909:Drivers/STM32F7xx_HAL_Driver/Src/stm32f7xx_hal_uart.c **** 
 910:Drivers/STM32F7xx_HAL_Driver/Src/stm32f7xx_hal_uart.c ****     huart->pRxBuffPtr = pData;
 911:Drivers/STM32F7xx_HAL_Driver/Src/stm32f7xx_hal_uart.c ****     huart->RxXferSize = Size;
 912:Drivers/STM32F7xx_HAL_Driver/Src/stm32f7xx_hal_uart.c ****     huart->RxXferCount = Size;
 913:Drivers/STM32F7xx_HAL_Driver/Src/stm32f7xx_hal_uart.c **** 
 914:Drivers/STM32F7xx_HAL_Driver/Src/stm32f7xx_hal_uart.c ****     /* Computation of UART mask to apply to RDR register */
 915:Drivers/STM32F7xx_HAL_Driver/Src/stm32f7xx_hal_uart.c ****     UART_MASK_COMPUTATION(huart);
 916:Drivers/STM32F7xx_HAL_Driver/Src/stm32f7xx_hal_uart.c **** 
 917:Drivers/STM32F7xx_HAL_Driver/Src/stm32f7xx_hal_uart.c ****     huart->ErrorCode = HAL_UART_ERROR_NONE;
 918:Drivers/STM32F7xx_HAL_Driver/Src/stm32f7xx_hal_uart.c ****     huart->RxState = HAL_UART_STATE_BUSY_RX;
 919:Drivers/STM32F7xx_HAL_Driver/Src/stm32f7xx_hal_uart.c **** 
 920:Drivers/STM32F7xx_HAL_Driver/Src/stm32f7xx_hal_uart.c ****     /* Process Unlocked */
 921:Drivers/STM32F7xx_HAL_Driver/Src/stm32f7xx_hal_uart.c ****     __HAL_UNLOCK(huart);
 922:Drivers/STM32F7xx_HAL_Driver/Src/stm32f7xx_hal_uart.c **** 
 923:Drivers/STM32F7xx_HAL_Driver/Src/stm32f7xx_hal_uart.c ****     /* Enable the UART Error Interrupt: (Frame error, noise error, overrun error) */
 924:Drivers/STM32F7xx_HAL_Driver/Src/stm32f7xx_hal_uart.c ****     SET_BIT(huart->Instance->CR3, USART_CR3_EIE);
 925:Drivers/STM32F7xx_HAL_Driver/Src/stm32f7xx_hal_uart.c **** 
 926:Drivers/STM32F7xx_HAL_Driver/Src/stm32f7xx_hal_uart.c ****     /* Enable the UART Parity Error and Data Register not empty Interrupts */
 927:Drivers/STM32F7xx_HAL_Driver/Src/stm32f7xx_hal_uart.c ****     SET_BIT(huart->Instance->CR1, USART_CR1_PEIE | USART_CR1_RXNEIE);
 928:Drivers/STM32F7xx_HAL_Driver/Src/stm32f7xx_hal_uart.c **** 
 929:Drivers/STM32F7xx_HAL_Driver/Src/stm32f7xx_hal_uart.c ****     return HAL_OK;
 930:Drivers/STM32F7xx_HAL_Driver/Src/stm32f7xx_hal_uart.c ****   }
 931:Drivers/STM32F7xx_HAL_Driver/Src/stm32f7xx_hal_uart.c ****   else
 932:Drivers/STM32F7xx_HAL_Driver/Src/stm32f7xx_hal_uart.c ****   {
 933:Drivers/STM32F7xx_HAL_Driver/Src/stm32f7xx_hal_uart.c ****     return HAL_BUSY;
 934:Drivers/STM32F7xx_HAL_Driver/Src/stm32f7xx_hal_uart.c ****   }
 935:Drivers/STM32F7xx_HAL_Driver/Src/stm32f7xx_hal_uart.c **** }
 936:Drivers/STM32F7xx_HAL_Driver/Src/stm32f7xx_hal_uart.c **** 
 937:Drivers/STM32F7xx_HAL_Driver/Src/stm32f7xx_hal_uart.c **** /**
 938:Drivers/STM32F7xx_HAL_Driver/Src/stm32f7xx_hal_uart.c ****   * @brief Send an amount of data in DMA mode.
 939:Drivers/STM32F7xx_HAL_Driver/Src/stm32f7xx_hal_uart.c ****   * @param huart UART handle.
 940:Drivers/STM32F7xx_HAL_Driver/Src/stm32f7xx_hal_uart.c ****   * @param pData pointer to data buffer.
 941:Drivers/STM32F7xx_HAL_Driver/Src/stm32f7xx_hal_uart.c ****   * @param Size amount of data to be sent.
 942:Drivers/STM32F7xx_HAL_Driver/Src/stm32f7xx_hal_uart.c ****   * @retval HAL status
 943:Drivers/STM32F7xx_HAL_Driver/Src/stm32f7xx_hal_uart.c ****   */
 944:Drivers/STM32F7xx_HAL_Driver/Src/stm32f7xx_hal_uart.c **** HAL_StatusTypeDef HAL_UART_Transmit_DMA(UART_HandleTypeDef *huart, uint8_t *pData, uint16_t Size)
 945:Drivers/STM32F7xx_HAL_Driver/Src/stm32f7xx_hal_uart.c **** {
 946:Drivers/STM32F7xx_HAL_Driver/Src/stm32f7xx_hal_uart.c ****   uint32_t *tmp;
 947:Drivers/STM32F7xx_HAL_Driver/Src/stm32f7xx_hal_uart.c **** 
 948:Drivers/STM32F7xx_HAL_Driver/Src/stm32f7xx_hal_uart.c ****   /* Check that a Tx process is not already ongoing */
 949:Drivers/STM32F7xx_HAL_Driver/Src/stm32f7xx_hal_uart.c ****   if(huart->gState == HAL_UART_STATE_READY)
 950:Drivers/STM32F7xx_HAL_Driver/Src/stm32f7xx_hal_uart.c ****   {
 951:Drivers/STM32F7xx_HAL_Driver/Src/stm32f7xx_hal_uart.c ****     if((pData == NULL ) || (Size == 0U))
 952:Drivers/STM32F7xx_HAL_Driver/Src/stm32f7xx_hal_uart.c ****     {
 953:Drivers/STM32F7xx_HAL_Driver/Src/stm32f7xx_hal_uart.c ****       return HAL_ERROR;
ARM GAS  /tmp/cc6CQ8Vx.s 			page 22


 954:Drivers/STM32F7xx_HAL_Driver/Src/stm32f7xx_hal_uart.c ****     }
 955:Drivers/STM32F7xx_HAL_Driver/Src/stm32f7xx_hal_uart.c **** 
 956:Drivers/STM32F7xx_HAL_Driver/Src/stm32f7xx_hal_uart.c ****     /* Process Locked */
 957:Drivers/STM32F7xx_HAL_Driver/Src/stm32f7xx_hal_uart.c ****     __HAL_LOCK(huart);
 958:Drivers/STM32F7xx_HAL_Driver/Src/stm32f7xx_hal_uart.c **** 
 959:Drivers/STM32F7xx_HAL_Driver/Src/stm32f7xx_hal_uart.c ****     huart->pTxBuffPtr = pData;
 960:Drivers/STM32F7xx_HAL_Driver/Src/stm32f7xx_hal_uart.c ****     huart->TxXferSize = Size;
 961:Drivers/STM32F7xx_HAL_Driver/Src/stm32f7xx_hal_uart.c ****     huart->TxXferCount = Size;
 962:Drivers/STM32F7xx_HAL_Driver/Src/stm32f7xx_hal_uart.c **** 
 963:Drivers/STM32F7xx_HAL_Driver/Src/stm32f7xx_hal_uart.c ****     huart->ErrorCode = HAL_UART_ERROR_NONE;
 964:Drivers/STM32F7xx_HAL_Driver/Src/stm32f7xx_hal_uart.c ****     huart->gState = HAL_UART_STATE_BUSY_TX;
 965:Drivers/STM32F7xx_HAL_Driver/Src/stm32f7xx_hal_uart.c **** 
 966:Drivers/STM32F7xx_HAL_Driver/Src/stm32f7xx_hal_uart.c ****     /* Set the UART DMA transfer complete callback */
 967:Drivers/STM32F7xx_HAL_Driver/Src/stm32f7xx_hal_uart.c ****     huart->hdmatx->XferCpltCallback = UART_DMATransmitCplt;
 968:Drivers/STM32F7xx_HAL_Driver/Src/stm32f7xx_hal_uart.c **** 
 969:Drivers/STM32F7xx_HAL_Driver/Src/stm32f7xx_hal_uart.c ****     /* Set the UART DMA Half transfer complete callback */
 970:Drivers/STM32F7xx_HAL_Driver/Src/stm32f7xx_hal_uart.c ****     huart->hdmatx->XferHalfCpltCallback = UART_DMATxHalfCplt;
 971:Drivers/STM32F7xx_HAL_Driver/Src/stm32f7xx_hal_uart.c **** 
 972:Drivers/STM32F7xx_HAL_Driver/Src/stm32f7xx_hal_uart.c ****     /* Set the DMA error callback */
 973:Drivers/STM32F7xx_HAL_Driver/Src/stm32f7xx_hal_uart.c ****     huart->hdmatx->XferErrorCallback = UART_DMAError;
 974:Drivers/STM32F7xx_HAL_Driver/Src/stm32f7xx_hal_uart.c **** 
 975:Drivers/STM32F7xx_HAL_Driver/Src/stm32f7xx_hal_uart.c ****     /* Set the DMA abort callback */
 976:Drivers/STM32F7xx_HAL_Driver/Src/stm32f7xx_hal_uart.c ****     huart->hdmatx->XferAbortCallback = NULL;
 977:Drivers/STM32F7xx_HAL_Driver/Src/stm32f7xx_hal_uart.c **** 
 978:Drivers/STM32F7xx_HAL_Driver/Src/stm32f7xx_hal_uart.c ****     /* Enable the UART transmit DMA channel */
 979:Drivers/STM32F7xx_HAL_Driver/Src/stm32f7xx_hal_uart.c ****     tmp = (uint32_t*)&pData;
 980:Drivers/STM32F7xx_HAL_Driver/Src/stm32f7xx_hal_uart.c ****     HAL_DMA_Start_IT(huart->hdmatx, *(uint32_t*)tmp, (uint32_t)&huart->Instance->TDR, Size);
 981:Drivers/STM32F7xx_HAL_Driver/Src/stm32f7xx_hal_uart.c **** 
 982:Drivers/STM32F7xx_HAL_Driver/Src/stm32f7xx_hal_uart.c ****     /* Clear the TC flag in the SR register by writing 0 to it */
 983:Drivers/STM32F7xx_HAL_Driver/Src/stm32f7xx_hal_uart.c ****     __HAL_UART_CLEAR_IT(huart, UART_FLAG_TC);
 984:Drivers/STM32F7xx_HAL_Driver/Src/stm32f7xx_hal_uart.c **** 
 985:Drivers/STM32F7xx_HAL_Driver/Src/stm32f7xx_hal_uart.c ****     /* Process Unlocked */
 986:Drivers/STM32F7xx_HAL_Driver/Src/stm32f7xx_hal_uart.c ****     __HAL_UNLOCK(huart);
 987:Drivers/STM32F7xx_HAL_Driver/Src/stm32f7xx_hal_uart.c **** 
 988:Drivers/STM32F7xx_HAL_Driver/Src/stm32f7xx_hal_uart.c ****     /* Enable the DMA transfer for transmit request by setting the DMAT bit
 989:Drivers/STM32F7xx_HAL_Driver/Src/stm32f7xx_hal_uart.c ****        in the UART CR3 register */
 990:Drivers/STM32F7xx_HAL_Driver/Src/stm32f7xx_hal_uart.c ****     SET_BIT(huart->Instance->CR3, USART_CR3_DMAT);
 991:Drivers/STM32F7xx_HAL_Driver/Src/stm32f7xx_hal_uart.c **** 
 992:Drivers/STM32F7xx_HAL_Driver/Src/stm32f7xx_hal_uart.c ****     return HAL_OK;
 993:Drivers/STM32F7xx_HAL_Driver/Src/stm32f7xx_hal_uart.c ****   }
 994:Drivers/STM32F7xx_HAL_Driver/Src/stm32f7xx_hal_uart.c ****   else
 995:Drivers/STM32F7xx_HAL_Driver/Src/stm32f7xx_hal_uart.c ****   {
 996:Drivers/STM32F7xx_HAL_Driver/Src/stm32f7xx_hal_uart.c ****     return HAL_BUSY;
 997:Drivers/STM32F7xx_HAL_Driver/Src/stm32f7xx_hal_uart.c ****   }
 998:Drivers/STM32F7xx_HAL_Driver/Src/stm32f7xx_hal_uart.c **** }
 999:Drivers/STM32F7xx_HAL_Driver/Src/stm32f7xx_hal_uart.c **** 
1000:Drivers/STM32F7xx_HAL_Driver/Src/stm32f7xx_hal_uart.c **** /**
1001:Drivers/STM32F7xx_HAL_Driver/Src/stm32f7xx_hal_uart.c ****   * @brief Receive an amount of data in DMA mode.
1002:Drivers/STM32F7xx_HAL_Driver/Src/stm32f7xx_hal_uart.c ****   * @param huart UART handle.
1003:Drivers/STM32F7xx_HAL_Driver/Src/stm32f7xx_hal_uart.c ****   * @param pData pointer to data buffer.
1004:Drivers/STM32F7xx_HAL_Driver/Src/stm32f7xx_hal_uart.c ****   * @param Size amount of data to be received.
1005:Drivers/STM32F7xx_HAL_Driver/Src/stm32f7xx_hal_uart.c ****   * @note   When the UART parity is enabled (PCE = 1), the received data contain
1006:Drivers/STM32F7xx_HAL_Driver/Src/stm32f7xx_hal_uart.c ****   *         the parity bit (MSB position).
1007:Drivers/STM32F7xx_HAL_Driver/Src/stm32f7xx_hal_uart.c ****   * @retval HAL status
1008:Drivers/STM32F7xx_HAL_Driver/Src/stm32f7xx_hal_uart.c ****   */
1009:Drivers/STM32F7xx_HAL_Driver/Src/stm32f7xx_hal_uart.c **** HAL_StatusTypeDef HAL_UART_Receive_DMA(UART_HandleTypeDef *huart, uint8_t *pData, uint16_t Size)
1010:Drivers/STM32F7xx_HAL_Driver/Src/stm32f7xx_hal_uart.c **** {
ARM GAS  /tmp/cc6CQ8Vx.s 			page 23


1011:Drivers/STM32F7xx_HAL_Driver/Src/stm32f7xx_hal_uart.c ****   uint32_t *tmp;
1012:Drivers/STM32F7xx_HAL_Driver/Src/stm32f7xx_hal_uart.c **** 
1013:Drivers/STM32F7xx_HAL_Driver/Src/stm32f7xx_hal_uart.c ****   /* Check that a Rx process is not already ongoing */
1014:Drivers/STM32F7xx_HAL_Driver/Src/stm32f7xx_hal_uart.c ****   if(huart->RxState == HAL_UART_STATE_READY)
1015:Drivers/STM32F7xx_HAL_Driver/Src/stm32f7xx_hal_uart.c ****   {
1016:Drivers/STM32F7xx_HAL_Driver/Src/stm32f7xx_hal_uart.c ****     if((pData == NULL ) || (Size == 0U))
1017:Drivers/STM32F7xx_HAL_Driver/Src/stm32f7xx_hal_uart.c ****     {
1018:Drivers/STM32F7xx_HAL_Driver/Src/stm32f7xx_hal_uart.c ****       return HAL_ERROR;
1019:Drivers/STM32F7xx_HAL_Driver/Src/stm32f7xx_hal_uart.c ****     }
1020:Drivers/STM32F7xx_HAL_Driver/Src/stm32f7xx_hal_uart.c **** 
1021:Drivers/STM32F7xx_HAL_Driver/Src/stm32f7xx_hal_uart.c ****     /* Process Locked */
1022:Drivers/STM32F7xx_HAL_Driver/Src/stm32f7xx_hal_uart.c ****     __HAL_LOCK(huart);
1023:Drivers/STM32F7xx_HAL_Driver/Src/stm32f7xx_hal_uart.c **** 
1024:Drivers/STM32F7xx_HAL_Driver/Src/stm32f7xx_hal_uart.c ****     huart->pRxBuffPtr = pData;
1025:Drivers/STM32F7xx_HAL_Driver/Src/stm32f7xx_hal_uart.c ****     huart->RxXferSize = Size;
1026:Drivers/STM32F7xx_HAL_Driver/Src/stm32f7xx_hal_uart.c **** 
1027:Drivers/STM32F7xx_HAL_Driver/Src/stm32f7xx_hal_uart.c ****     huart->ErrorCode = HAL_UART_ERROR_NONE;
1028:Drivers/STM32F7xx_HAL_Driver/Src/stm32f7xx_hal_uart.c ****     huart->RxState = HAL_UART_STATE_BUSY_RX;
1029:Drivers/STM32F7xx_HAL_Driver/Src/stm32f7xx_hal_uart.c **** 
1030:Drivers/STM32F7xx_HAL_Driver/Src/stm32f7xx_hal_uart.c ****     /* Set the UART DMA transfer complete callback */
1031:Drivers/STM32F7xx_HAL_Driver/Src/stm32f7xx_hal_uart.c ****     huart->hdmarx->XferCpltCallback = UART_DMAReceiveCplt;
1032:Drivers/STM32F7xx_HAL_Driver/Src/stm32f7xx_hal_uart.c **** 
1033:Drivers/STM32F7xx_HAL_Driver/Src/stm32f7xx_hal_uart.c ****     /* Set the UART DMA Half transfer complete callback */
1034:Drivers/STM32F7xx_HAL_Driver/Src/stm32f7xx_hal_uart.c ****     huart->hdmarx->XferHalfCpltCallback = UART_DMARxHalfCplt;
1035:Drivers/STM32F7xx_HAL_Driver/Src/stm32f7xx_hal_uart.c **** 
1036:Drivers/STM32F7xx_HAL_Driver/Src/stm32f7xx_hal_uart.c ****     /* Set the DMA error callback */
1037:Drivers/STM32F7xx_HAL_Driver/Src/stm32f7xx_hal_uart.c ****     huart->hdmarx->XferErrorCallback = UART_DMAError;
1038:Drivers/STM32F7xx_HAL_Driver/Src/stm32f7xx_hal_uart.c **** 
1039:Drivers/STM32F7xx_HAL_Driver/Src/stm32f7xx_hal_uart.c ****     /* Set the DMA abort callback */
1040:Drivers/STM32F7xx_HAL_Driver/Src/stm32f7xx_hal_uart.c ****     huart->hdmarx->XferAbortCallback = NULL;
1041:Drivers/STM32F7xx_HAL_Driver/Src/stm32f7xx_hal_uart.c **** 
1042:Drivers/STM32F7xx_HAL_Driver/Src/stm32f7xx_hal_uart.c ****     /* Enable the DMA channel */
1043:Drivers/STM32F7xx_HAL_Driver/Src/stm32f7xx_hal_uart.c ****     tmp = (uint32_t*)&pData;
1044:Drivers/STM32F7xx_HAL_Driver/Src/stm32f7xx_hal_uart.c ****     HAL_DMA_Start_IT(huart->hdmarx, (uint32_t)&huart->Instance->RDR, *(uint32_t*)tmp, Size);
1045:Drivers/STM32F7xx_HAL_Driver/Src/stm32f7xx_hal_uart.c **** 
1046:Drivers/STM32F7xx_HAL_Driver/Src/stm32f7xx_hal_uart.c ****     /* Process Unlocked */
1047:Drivers/STM32F7xx_HAL_Driver/Src/stm32f7xx_hal_uart.c ****     __HAL_UNLOCK(huart);
1048:Drivers/STM32F7xx_HAL_Driver/Src/stm32f7xx_hal_uart.c **** 
1049:Drivers/STM32F7xx_HAL_Driver/Src/stm32f7xx_hal_uart.c ****     /* Enable the UART Parity Error Interrupt */
1050:Drivers/STM32F7xx_HAL_Driver/Src/stm32f7xx_hal_uart.c ****     SET_BIT(huart->Instance->CR1, USART_CR1_PEIE);
1051:Drivers/STM32F7xx_HAL_Driver/Src/stm32f7xx_hal_uart.c **** 
1052:Drivers/STM32F7xx_HAL_Driver/Src/stm32f7xx_hal_uart.c ****     /* Enable the UART Error Interrupt: (Frame error, noise error, overrun error) */
1053:Drivers/STM32F7xx_HAL_Driver/Src/stm32f7xx_hal_uart.c ****     SET_BIT(huart->Instance->CR3, USART_CR3_EIE);
1054:Drivers/STM32F7xx_HAL_Driver/Src/stm32f7xx_hal_uart.c **** 
1055:Drivers/STM32F7xx_HAL_Driver/Src/stm32f7xx_hal_uart.c ****     /* Enable the DMA transfer for the receiver request by setting the DMAR bit
1056:Drivers/STM32F7xx_HAL_Driver/Src/stm32f7xx_hal_uart.c ****     in the UART CR3 register */
1057:Drivers/STM32F7xx_HAL_Driver/Src/stm32f7xx_hal_uart.c ****     SET_BIT(huart->Instance->CR3, USART_CR3_DMAR);
1058:Drivers/STM32F7xx_HAL_Driver/Src/stm32f7xx_hal_uart.c **** 
1059:Drivers/STM32F7xx_HAL_Driver/Src/stm32f7xx_hal_uart.c ****     return HAL_OK;
1060:Drivers/STM32F7xx_HAL_Driver/Src/stm32f7xx_hal_uart.c ****   }
1061:Drivers/STM32F7xx_HAL_Driver/Src/stm32f7xx_hal_uart.c ****   else
1062:Drivers/STM32F7xx_HAL_Driver/Src/stm32f7xx_hal_uart.c ****   {
1063:Drivers/STM32F7xx_HAL_Driver/Src/stm32f7xx_hal_uart.c ****     return HAL_BUSY;
1064:Drivers/STM32F7xx_HAL_Driver/Src/stm32f7xx_hal_uart.c ****   }
1065:Drivers/STM32F7xx_HAL_Driver/Src/stm32f7xx_hal_uart.c **** }
1066:Drivers/STM32F7xx_HAL_Driver/Src/stm32f7xx_hal_uart.c **** 
1067:Drivers/STM32F7xx_HAL_Driver/Src/stm32f7xx_hal_uart.c **** /**
ARM GAS  /tmp/cc6CQ8Vx.s 			page 24


1068:Drivers/STM32F7xx_HAL_Driver/Src/stm32f7xx_hal_uart.c ****   * @brief Pause the DMA Transfer.
1069:Drivers/STM32F7xx_HAL_Driver/Src/stm32f7xx_hal_uart.c ****   * @param huart UART handle.
1070:Drivers/STM32F7xx_HAL_Driver/Src/stm32f7xx_hal_uart.c ****   * @retval HAL status
1071:Drivers/STM32F7xx_HAL_Driver/Src/stm32f7xx_hal_uart.c ****   */
1072:Drivers/STM32F7xx_HAL_Driver/Src/stm32f7xx_hal_uart.c **** HAL_StatusTypeDef HAL_UART_DMAPause(UART_HandleTypeDef *huart)
1073:Drivers/STM32F7xx_HAL_Driver/Src/stm32f7xx_hal_uart.c **** {
1074:Drivers/STM32F7xx_HAL_Driver/Src/stm32f7xx_hal_uart.c ****   /* Process Locked */
1075:Drivers/STM32F7xx_HAL_Driver/Src/stm32f7xx_hal_uart.c ****   __HAL_LOCK(huart);
1076:Drivers/STM32F7xx_HAL_Driver/Src/stm32f7xx_hal_uart.c **** 
1077:Drivers/STM32F7xx_HAL_Driver/Src/stm32f7xx_hal_uart.c ****   if ((huart->gState == HAL_UART_STATE_BUSY_TX) &&
1078:Drivers/STM32F7xx_HAL_Driver/Src/stm32f7xx_hal_uart.c ****       (HAL_IS_BIT_SET(huart->Instance->CR3, USART_CR3_DMAT)))
1079:Drivers/STM32F7xx_HAL_Driver/Src/stm32f7xx_hal_uart.c ****   {
1080:Drivers/STM32F7xx_HAL_Driver/Src/stm32f7xx_hal_uart.c ****     /* Disable the UART DMA Tx request */
1081:Drivers/STM32F7xx_HAL_Driver/Src/stm32f7xx_hal_uart.c ****     CLEAR_BIT(huart->Instance->CR3, USART_CR3_DMAT);
1082:Drivers/STM32F7xx_HAL_Driver/Src/stm32f7xx_hal_uart.c ****   }
1083:Drivers/STM32F7xx_HAL_Driver/Src/stm32f7xx_hal_uart.c ****   if ((huart->RxState == HAL_UART_STATE_BUSY_RX) &&
1084:Drivers/STM32F7xx_HAL_Driver/Src/stm32f7xx_hal_uart.c ****       (HAL_IS_BIT_SET(huart->Instance->CR3, USART_CR3_DMAR)))
1085:Drivers/STM32F7xx_HAL_Driver/Src/stm32f7xx_hal_uart.c ****   {
1086:Drivers/STM32F7xx_HAL_Driver/Src/stm32f7xx_hal_uart.c ****     /* Disable PE and ERR (Frame error, noise error, overrun error) interrupts */
1087:Drivers/STM32F7xx_HAL_Driver/Src/stm32f7xx_hal_uart.c ****     CLEAR_BIT(huart->Instance->CR1, USART_CR1_PEIE);
1088:Drivers/STM32F7xx_HAL_Driver/Src/stm32f7xx_hal_uart.c ****     CLEAR_BIT(huart->Instance->CR3, USART_CR3_EIE);
1089:Drivers/STM32F7xx_HAL_Driver/Src/stm32f7xx_hal_uart.c **** 
1090:Drivers/STM32F7xx_HAL_Driver/Src/stm32f7xx_hal_uart.c ****     /* Disable the UART DMA Rx request */
1091:Drivers/STM32F7xx_HAL_Driver/Src/stm32f7xx_hal_uart.c ****     CLEAR_BIT(huart->Instance->CR3, USART_CR3_DMAR);
1092:Drivers/STM32F7xx_HAL_Driver/Src/stm32f7xx_hal_uart.c ****   }
1093:Drivers/STM32F7xx_HAL_Driver/Src/stm32f7xx_hal_uart.c **** 
1094:Drivers/STM32F7xx_HAL_Driver/Src/stm32f7xx_hal_uart.c ****   /* Process Unlocked */
1095:Drivers/STM32F7xx_HAL_Driver/Src/stm32f7xx_hal_uart.c ****   __HAL_UNLOCK(huart);
1096:Drivers/STM32F7xx_HAL_Driver/Src/stm32f7xx_hal_uart.c **** 
1097:Drivers/STM32F7xx_HAL_Driver/Src/stm32f7xx_hal_uart.c ****   return HAL_OK;
1098:Drivers/STM32F7xx_HAL_Driver/Src/stm32f7xx_hal_uart.c **** }
1099:Drivers/STM32F7xx_HAL_Driver/Src/stm32f7xx_hal_uart.c **** 
1100:Drivers/STM32F7xx_HAL_Driver/Src/stm32f7xx_hal_uart.c **** /**
1101:Drivers/STM32F7xx_HAL_Driver/Src/stm32f7xx_hal_uart.c ****   * @brief Resume the DMA Transfer.
1102:Drivers/STM32F7xx_HAL_Driver/Src/stm32f7xx_hal_uart.c ****   * @param huart UART handle.
1103:Drivers/STM32F7xx_HAL_Driver/Src/stm32f7xx_hal_uart.c ****   * @retval HAL status
1104:Drivers/STM32F7xx_HAL_Driver/Src/stm32f7xx_hal_uart.c ****   */
1105:Drivers/STM32F7xx_HAL_Driver/Src/stm32f7xx_hal_uart.c **** HAL_StatusTypeDef HAL_UART_DMAResume(UART_HandleTypeDef *huart)
1106:Drivers/STM32F7xx_HAL_Driver/Src/stm32f7xx_hal_uart.c **** {
1107:Drivers/STM32F7xx_HAL_Driver/Src/stm32f7xx_hal_uart.c ****   /* Process Locked */
1108:Drivers/STM32F7xx_HAL_Driver/Src/stm32f7xx_hal_uart.c ****   __HAL_LOCK(huart);
1109:Drivers/STM32F7xx_HAL_Driver/Src/stm32f7xx_hal_uart.c **** 
1110:Drivers/STM32F7xx_HAL_Driver/Src/stm32f7xx_hal_uart.c ****   if(huart->gState == HAL_UART_STATE_BUSY_TX)
1111:Drivers/STM32F7xx_HAL_Driver/Src/stm32f7xx_hal_uart.c ****   {
1112:Drivers/STM32F7xx_HAL_Driver/Src/stm32f7xx_hal_uart.c ****     /* Enable the UART DMA Tx request */
1113:Drivers/STM32F7xx_HAL_Driver/Src/stm32f7xx_hal_uart.c ****     SET_BIT(huart->Instance->CR3, USART_CR3_DMAT);
1114:Drivers/STM32F7xx_HAL_Driver/Src/stm32f7xx_hal_uart.c ****   }
1115:Drivers/STM32F7xx_HAL_Driver/Src/stm32f7xx_hal_uart.c ****   if(huart->RxState == HAL_UART_STATE_BUSY_RX)
1116:Drivers/STM32F7xx_HAL_Driver/Src/stm32f7xx_hal_uart.c ****   {
1117:Drivers/STM32F7xx_HAL_Driver/Src/stm32f7xx_hal_uart.c ****     /* Clear the Overrun flag before resuming the Rx transfer*/
1118:Drivers/STM32F7xx_HAL_Driver/Src/stm32f7xx_hal_uart.c ****     __HAL_UART_CLEAR_IT(huart, UART_CLEAR_OREF);
1119:Drivers/STM32F7xx_HAL_Driver/Src/stm32f7xx_hal_uart.c **** 
1120:Drivers/STM32F7xx_HAL_Driver/Src/stm32f7xx_hal_uart.c ****     /* Reenable PE and ERR (Frame error, noise error, overrun error) interrupts */
1121:Drivers/STM32F7xx_HAL_Driver/Src/stm32f7xx_hal_uart.c ****     SET_BIT(huart->Instance->CR1, USART_CR1_PEIE);
1122:Drivers/STM32F7xx_HAL_Driver/Src/stm32f7xx_hal_uart.c ****     SET_BIT(huart->Instance->CR3, USART_CR3_EIE);
1123:Drivers/STM32F7xx_HAL_Driver/Src/stm32f7xx_hal_uart.c **** 
1124:Drivers/STM32F7xx_HAL_Driver/Src/stm32f7xx_hal_uart.c ****     /* Enable the UART DMA Rx request */
ARM GAS  /tmp/cc6CQ8Vx.s 			page 25


1125:Drivers/STM32F7xx_HAL_Driver/Src/stm32f7xx_hal_uart.c ****     SET_BIT(huart->Instance->CR3, USART_CR3_DMAR);
1126:Drivers/STM32F7xx_HAL_Driver/Src/stm32f7xx_hal_uart.c ****   }
1127:Drivers/STM32F7xx_HAL_Driver/Src/stm32f7xx_hal_uart.c **** 
1128:Drivers/STM32F7xx_HAL_Driver/Src/stm32f7xx_hal_uart.c ****   /* If the UART peripheral is still not enabled, enable it */
1129:Drivers/STM32F7xx_HAL_Driver/Src/stm32f7xx_hal_uart.c ****   if ((huart->Instance->CR1 & USART_CR1_UE) == 0U)
1130:Drivers/STM32F7xx_HAL_Driver/Src/stm32f7xx_hal_uart.c ****   {
1131:Drivers/STM32F7xx_HAL_Driver/Src/stm32f7xx_hal_uart.c ****     /* Enable UART peripheral */
1132:Drivers/STM32F7xx_HAL_Driver/Src/stm32f7xx_hal_uart.c ****     __HAL_UART_ENABLE(huart);
1133:Drivers/STM32F7xx_HAL_Driver/Src/stm32f7xx_hal_uart.c ****   }
1134:Drivers/STM32F7xx_HAL_Driver/Src/stm32f7xx_hal_uart.c **** 
1135:Drivers/STM32F7xx_HAL_Driver/Src/stm32f7xx_hal_uart.c ****   return HAL_OK;
1136:Drivers/STM32F7xx_HAL_Driver/Src/stm32f7xx_hal_uart.c **** }
1137:Drivers/STM32F7xx_HAL_Driver/Src/stm32f7xx_hal_uart.c **** 
1138:Drivers/STM32F7xx_HAL_Driver/Src/stm32f7xx_hal_uart.c **** /**
1139:Drivers/STM32F7xx_HAL_Driver/Src/stm32f7xx_hal_uart.c ****   * @brief Stop the DMA Transfer.
1140:Drivers/STM32F7xx_HAL_Driver/Src/stm32f7xx_hal_uart.c ****   * @param huart UART handle.
1141:Drivers/STM32F7xx_HAL_Driver/Src/stm32f7xx_hal_uart.c ****   * @retval HAL status
1142:Drivers/STM32F7xx_HAL_Driver/Src/stm32f7xx_hal_uart.c ****   */
1143:Drivers/STM32F7xx_HAL_Driver/Src/stm32f7xx_hal_uart.c **** HAL_StatusTypeDef HAL_UART_DMAStop(UART_HandleTypeDef *huart)
1144:Drivers/STM32F7xx_HAL_Driver/Src/stm32f7xx_hal_uart.c **** {
1145:Drivers/STM32F7xx_HAL_Driver/Src/stm32f7xx_hal_uart.c ****   /* The Lock is not implemented on this API to allow the user application
1146:Drivers/STM32F7xx_HAL_Driver/Src/stm32f7xx_hal_uart.c ****      to call the HAL UART API under callbacks HAL_UART_TxCpltCallback() / HAL_UART_RxCpltCallback()
1147:Drivers/STM32F7xx_HAL_Driver/Src/stm32f7xx_hal_uart.c ****      HAL_UART_TxHalfCpltCallback / HAL_UART_RxHalfCpltCallback:
1148:Drivers/STM32F7xx_HAL_Driver/Src/stm32f7xx_hal_uart.c ****      indeed, when HAL_DMA_Abort() API is called, the DMA TX/RX Transfer or Half Transfer complete
1149:Drivers/STM32F7xx_HAL_Driver/Src/stm32f7xx_hal_uart.c ****      interrupt is generated if the DMA transfer interruption occurs at the middle or at the end of
1150:Drivers/STM32F7xx_HAL_Driver/Src/stm32f7xx_hal_uart.c ****      the stream and the corresponding call back is executed. */
1151:Drivers/STM32F7xx_HAL_Driver/Src/stm32f7xx_hal_uart.c **** 
1152:Drivers/STM32F7xx_HAL_Driver/Src/stm32f7xx_hal_uart.c ****   /* Stop UART DMA Tx request if ongoing */
1153:Drivers/STM32F7xx_HAL_Driver/Src/stm32f7xx_hal_uart.c ****   if ((huart->gState == HAL_UART_STATE_BUSY_TX) &&
1154:Drivers/STM32F7xx_HAL_Driver/Src/stm32f7xx_hal_uart.c ****       (HAL_IS_BIT_SET(huart->Instance->CR3, USART_CR3_DMAT)))
1155:Drivers/STM32F7xx_HAL_Driver/Src/stm32f7xx_hal_uart.c ****   {
1156:Drivers/STM32F7xx_HAL_Driver/Src/stm32f7xx_hal_uart.c ****     CLEAR_BIT(huart->Instance->CR3, USART_CR3_DMAT);
1157:Drivers/STM32F7xx_HAL_Driver/Src/stm32f7xx_hal_uart.c **** 
1158:Drivers/STM32F7xx_HAL_Driver/Src/stm32f7xx_hal_uart.c ****     /* Abort the UART DMA Tx channel */
1159:Drivers/STM32F7xx_HAL_Driver/Src/stm32f7xx_hal_uart.c ****     if(huart->hdmatx != NULL)
1160:Drivers/STM32F7xx_HAL_Driver/Src/stm32f7xx_hal_uart.c ****     {
1161:Drivers/STM32F7xx_HAL_Driver/Src/stm32f7xx_hal_uart.c ****       HAL_DMA_Abort(huart->hdmatx);
1162:Drivers/STM32F7xx_HAL_Driver/Src/stm32f7xx_hal_uart.c ****     }
1163:Drivers/STM32F7xx_HAL_Driver/Src/stm32f7xx_hal_uart.c **** 
1164:Drivers/STM32F7xx_HAL_Driver/Src/stm32f7xx_hal_uart.c ****     UART_EndTxTransfer(huart);
1165:Drivers/STM32F7xx_HAL_Driver/Src/stm32f7xx_hal_uart.c ****   }
1166:Drivers/STM32F7xx_HAL_Driver/Src/stm32f7xx_hal_uart.c **** 
1167:Drivers/STM32F7xx_HAL_Driver/Src/stm32f7xx_hal_uart.c ****   /* Stop UART DMA Rx request if ongoing */
1168:Drivers/STM32F7xx_HAL_Driver/Src/stm32f7xx_hal_uart.c ****   if ((huart->RxState == HAL_UART_STATE_BUSY_RX) &&
1169:Drivers/STM32F7xx_HAL_Driver/Src/stm32f7xx_hal_uart.c ****       (HAL_IS_BIT_SET(huart->Instance->CR3, USART_CR3_DMAR)))
1170:Drivers/STM32F7xx_HAL_Driver/Src/stm32f7xx_hal_uart.c ****   {
1171:Drivers/STM32F7xx_HAL_Driver/Src/stm32f7xx_hal_uart.c ****     CLEAR_BIT(huart->Instance->CR3, USART_CR3_DMAR);
1172:Drivers/STM32F7xx_HAL_Driver/Src/stm32f7xx_hal_uart.c **** 
1173:Drivers/STM32F7xx_HAL_Driver/Src/stm32f7xx_hal_uart.c ****     /* Abort the UART DMA Rx channel */
1174:Drivers/STM32F7xx_HAL_Driver/Src/stm32f7xx_hal_uart.c ****     if(huart->hdmarx != NULL)
1175:Drivers/STM32F7xx_HAL_Driver/Src/stm32f7xx_hal_uart.c ****     {
1176:Drivers/STM32F7xx_HAL_Driver/Src/stm32f7xx_hal_uart.c ****       HAL_DMA_Abort(huart->hdmarx);
1177:Drivers/STM32F7xx_HAL_Driver/Src/stm32f7xx_hal_uart.c ****     }
1178:Drivers/STM32F7xx_HAL_Driver/Src/stm32f7xx_hal_uart.c **** 
1179:Drivers/STM32F7xx_HAL_Driver/Src/stm32f7xx_hal_uart.c ****     UART_EndRxTransfer(huart);
1180:Drivers/STM32F7xx_HAL_Driver/Src/stm32f7xx_hal_uart.c ****   }
1181:Drivers/STM32F7xx_HAL_Driver/Src/stm32f7xx_hal_uart.c **** 
ARM GAS  /tmp/cc6CQ8Vx.s 			page 26


1182:Drivers/STM32F7xx_HAL_Driver/Src/stm32f7xx_hal_uart.c ****   return HAL_OK;
1183:Drivers/STM32F7xx_HAL_Driver/Src/stm32f7xx_hal_uart.c **** }
1184:Drivers/STM32F7xx_HAL_Driver/Src/stm32f7xx_hal_uart.c **** 
1185:Drivers/STM32F7xx_HAL_Driver/Src/stm32f7xx_hal_uart.c **** /**
1186:Drivers/STM32F7xx_HAL_Driver/Src/stm32f7xx_hal_uart.c ****   * @brief This function handles UART interrupt request.
1187:Drivers/STM32F7xx_HAL_Driver/Src/stm32f7xx_hal_uart.c ****   * @param huart uart handle
1188:Drivers/STM32F7xx_HAL_Driver/Src/stm32f7xx_hal_uart.c ****   * @retval None
1189:Drivers/STM32F7xx_HAL_Driver/Src/stm32f7xx_hal_uart.c ****   */
1190:Drivers/STM32F7xx_HAL_Driver/Src/stm32f7xx_hal_uart.c **** void HAL_UART_IRQHandler(UART_HandleTypeDef *huart)
1191:Drivers/STM32F7xx_HAL_Driver/Src/stm32f7xx_hal_uart.c **** {
1192:Drivers/STM32F7xx_HAL_Driver/Src/stm32f7xx_hal_uart.c ****   uint32_t isrflags   = READ_REG(huart->Instance->ISR);
1193:Drivers/STM32F7xx_HAL_Driver/Src/stm32f7xx_hal_uart.c ****   uint32_t cr1its     = READ_REG(huart->Instance->CR1);
1194:Drivers/STM32F7xx_HAL_Driver/Src/stm32f7xx_hal_uart.c ****   uint32_t cr3its     = READ_REG(huart->Instance->CR3);
1195:Drivers/STM32F7xx_HAL_Driver/Src/stm32f7xx_hal_uart.c ****   uint32_t errorflags;
1196:Drivers/STM32F7xx_HAL_Driver/Src/stm32f7xx_hal_uart.c **** 
1197:Drivers/STM32F7xx_HAL_Driver/Src/stm32f7xx_hal_uart.c ****   /* If no error occurs */
1198:Drivers/STM32F7xx_HAL_Driver/Src/stm32f7xx_hal_uart.c ****   errorflags = (isrflags & (uint32_t)(USART_ISR_PE | USART_ISR_FE | USART_ISR_ORE | USART_ISR_NE));
1199:Drivers/STM32F7xx_HAL_Driver/Src/stm32f7xx_hal_uart.c ****   if (errorflags == RESET)
1200:Drivers/STM32F7xx_HAL_Driver/Src/stm32f7xx_hal_uart.c ****   {
1201:Drivers/STM32F7xx_HAL_Driver/Src/stm32f7xx_hal_uart.c ****     /* UART in mode Receiver ---------------------------------------------------*/
1202:Drivers/STM32F7xx_HAL_Driver/Src/stm32f7xx_hal_uart.c ****     if(((isrflags & USART_ISR_RXNE) != RESET) && ((cr1its & USART_CR1_RXNEIE) != RESET))
1203:Drivers/STM32F7xx_HAL_Driver/Src/stm32f7xx_hal_uart.c ****     {
1204:Drivers/STM32F7xx_HAL_Driver/Src/stm32f7xx_hal_uart.c ****       UART_Receive_IT(huart);
1205:Drivers/STM32F7xx_HAL_Driver/Src/stm32f7xx_hal_uart.c ****       return;
1206:Drivers/STM32F7xx_HAL_Driver/Src/stm32f7xx_hal_uart.c ****     }
1207:Drivers/STM32F7xx_HAL_Driver/Src/stm32f7xx_hal_uart.c ****   }
1208:Drivers/STM32F7xx_HAL_Driver/Src/stm32f7xx_hal_uart.c **** 
1209:Drivers/STM32F7xx_HAL_Driver/Src/stm32f7xx_hal_uart.c ****   /* If some errors occur */
1210:Drivers/STM32F7xx_HAL_Driver/Src/stm32f7xx_hal_uart.c ****   if(   (errorflags != RESET)
1211:Drivers/STM32F7xx_HAL_Driver/Src/stm32f7xx_hal_uart.c ****      && (   ((cr3its & USART_CR3_EIE) != RESET)
1212:Drivers/STM32F7xx_HAL_Driver/Src/stm32f7xx_hal_uart.c ****          || ((cr1its & (USART_CR1_RXNEIE | USART_CR1_PEIE)) != RESET)) )
1213:Drivers/STM32F7xx_HAL_Driver/Src/stm32f7xx_hal_uart.c ****   {
1214:Drivers/STM32F7xx_HAL_Driver/Src/stm32f7xx_hal_uart.c **** 
1215:Drivers/STM32F7xx_HAL_Driver/Src/stm32f7xx_hal_uart.c ****     /* UART parity error interrupt occurred -------------------------------------*/
1216:Drivers/STM32F7xx_HAL_Driver/Src/stm32f7xx_hal_uart.c ****     if(((isrflags & USART_ISR_PE) != RESET) && ((cr1its & USART_CR1_PEIE) != RESET))
1217:Drivers/STM32F7xx_HAL_Driver/Src/stm32f7xx_hal_uart.c ****     {
1218:Drivers/STM32F7xx_HAL_Driver/Src/stm32f7xx_hal_uart.c ****       __HAL_UART_CLEAR_IT(huart, UART_CLEAR_PEF);
1219:Drivers/STM32F7xx_HAL_Driver/Src/stm32f7xx_hal_uart.c **** 
1220:Drivers/STM32F7xx_HAL_Driver/Src/stm32f7xx_hal_uart.c ****       huart->ErrorCode |= HAL_UART_ERROR_PE;
1221:Drivers/STM32F7xx_HAL_Driver/Src/stm32f7xx_hal_uart.c ****     }
1222:Drivers/STM32F7xx_HAL_Driver/Src/stm32f7xx_hal_uart.c **** 
1223:Drivers/STM32F7xx_HAL_Driver/Src/stm32f7xx_hal_uart.c ****     /* UART frame error interrupt occurred --------------------------------------*/
1224:Drivers/STM32F7xx_HAL_Driver/Src/stm32f7xx_hal_uart.c ****     if(((isrflags & USART_ISR_FE) != RESET) && ((cr3its & USART_CR3_EIE) != RESET))
1225:Drivers/STM32F7xx_HAL_Driver/Src/stm32f7xx_hal_uart.c ****     {
1226:Drivers/STM32F7xx_HAL_Driver/Src/stm32f7xx_hal_uart.c ****       __HAL_UART_CLEAR_IT(huart, UART_CLEAR_FEF);
1227:Drivers/STM32F7xx_HAL_Driver/Src/stm32f7xx_hal_uart.c **** 
1228:Drivers/STM32F7xx_HAL_Driver/Src/stm32f7xx_hal_uart.c ****       huart->ErrorCode |= HAL_UART_ERROR_FE;
1229:Drivers/STM32F7xx_HAL_Driver/Src/stm32f7xx_hal_uart.c ****     }
1230:Drivers/STM32F7xx_HAL_Driver/Src/stm32f7xx_hal_uart.c **** 
1231:Drivers/STM32F7xx_HAL_Driver/Src/stm32f7xx_hal_uart.c ****     /* UART noise error interrupt occurred --------------------------------------*/
1232:Drivers/STM32F7xx_HAL_Driver/Src/stm32f7xx_hal_uart.c ****     if(((isrflags & USART_ISR_NE) != RESET) && ((cr3its & USART_CR3_EIE) != RESET))
1233:Drivers/STM32F7xx_HAL_Driver/Src/stm32f7xx_hal_uart.c ****     {
1234:Drivers/STM32F7xx_HAL_Driver/Src/stm32f7xx_hal_uart.c ****       __HAL_UART_CLEAR_IT(huart, UART_CLEAR_NEF);
1235:Drivers/STM32F7xx_HAL_Driver/Src/stm32f7xx_hal_uart.c **** 
1236:Drivers/STM32F7xx_HAL_Driver/Src/stm32f7xx_hal_uart.c ****       huart->ErrorCode |= HAL_UART_ERROR_NE;
1237:Drivers/STM32F7xx_HAL_Driver/Src/stm32f7xx_hal_uart.c ****     }
1238:Drivers/STM32F7xx_HAL_Driver/Src/stm32f7xx_hal_uart.c ****     
ARM GAS  /tmp/cc6CQ8Vx.s 			page 27


1239:Drivers/STM32F7xx_HAL_Driver/Src/stm32f7xx_hal_uart.c ****     /* UART Over-Run interrupt occurred -----------------------------------------*/
1240:Drivers/STM32F7xx_HAL_Driver/Src/stm32f7xx_hal_uart.c ****     if(((isrflags & USART_ISR_ORE) != RESET) &&
1241:Drivers/STM32F7xx_HAL_Driver/Src/stm32f7xx_hal_uart.c ****        (((cr1its & USART_CR1_RXNEIE) != RESET) || ((cr3its & USART_CR3_EIE) != RESET)))
1242:Drivers/STM32F7xx_HAL_Driver/Src/stm32f7xx_hal_uart.c ****     {
1243:Drivers/STM32F7xx_HAL_Driver/Src/stm32f7xx_hal_uart.c ****       __HAL_UART_CLEAR_IT(huart, UART_CLEAR_OREF);
1244:Drivers/STM32F7xx_HAL_Driver/Src/stm32f7xx_hal_uart.c **** 
1245:Drivers/STM32F7xx_HAL_Driver/Src/stm32f7xx_hal_uart.c ****       huart->ErrorCode |= HAL_UART_ERROR_ORE;
1246:Drivers/STM32F7xx_HAL_Driver/Src/stm32f7xx_hal_uart.c ****     }
1247:Drivers/STM32F7xx_HAL_Driver/Src/stm32f7xx_hal_uart.c **** 
1248:Drivers/STM32F7xx_HAL_Driver/Src/stm32f7xx_hal_uart.c ****     /* Call UART Error Call back function if need be --------------------------*/
1249:Drivers/STM32F7xx_HAL_Driver/Src/stm32f7xx_hal_uart.c ****     if(huart->ErrorCode != HAL_UART_ERROR_NONE)
1250:Drivers/STM32F7xx_HAL_Driver/Src/stm32f7xx_hal_uart.c ****     {
1251:Drivers/STM32F7xx_HAL_Driver/Src/stm32f7xx_hal_uart.c ****       /* UART in mode Receiver ---------------------------------------------------*/
1252:Drivers/STM32F7xx_HAL_Driver/Src/stm32f7xx_hal_uart.c ****       if(((isrflags & USART_ISR_RXNE) != RESET) && ((cr1its & USART_CR1_RXNEIE) != RESET))
1253:Drivers/STM32F7xx_HAL_Driver/Src/stm32f7xx_hal_uart.c ****       {
1254:Drivers/STM32F7xx_HAL_Driver/Src/stm32f7xx_hal_uart.c ****         UART_Receive_IT(huart);
1255:Drivers/STM32F7xx_HAL_Driver/Src/stm32f7xx_hal_uart.c ****       }
1256:Drivers/STM32F7xx_HAL_Driver/Src/stm32f7xx_hal_uart.c **** 
1257:Drivers/STM32F7xx_HAL_Driver/Src/stm32f7xx_hal_uart.c ****       /* If Overrun error occurs, or if any error occurs in DMA mode reception,
1258:Drivers/STM32F7xx_HAL_Driver/Src/stm32f7xx_hal_uart.c ****          consider error as blocking */
1259:Drivers/STM32F7xx_HAL_Driver/Src/stm32f7xx_hal_uart.c ****       if (((huart->ErrorCode & HAL_UART_ERROR_ORE) != RESET) ||
1260:Drivers/STM32F7xx_HAL_Driver/Src/stm32f7xx_hal_uart.c ****           (HAL_IS_BIT_SET(huart->Instance->CR3, USART_CR3_DMAR)))
1261:Drivers/STM32F7xx_HAL_Driver/Src/stm32f7xx_hal_uart.c ****       {
1262:Drivers/STM32F7xx_HAL_Driver/Src/stm32f7xx_hal_uart.c ****         /* Blocking error : transfer is aborted
1263:Drivers/STM32F7xx_HAL_Driver/Src/stm32f7xx_hal_uart.c ****            Set the UART state ready to be able to start again the process,
1264:Drivers/STM32F7xx_HAL_Driver/Src/stm32f7xx_hal_uart.c ****            Disable Rx Interrupts, and disable Rx DMA request, if ongoing */
1265:Drivers/STM32F7xx_HAL_Driver/Src/stm32f7xx_hal_uart.c ****         UART_EndRxTransfer(huart);
1266:Drivers/STM32F7xx_HAL_Driver/Src/stm32f7xx_hal_uart.c **** 
1267:Drivers/STM32F7xx_HAL_Driver/Src/stm32f7xx_hal_uart.c ****         /* Disable the UART DMA Rx request if enabled */
1268:Drivers/STM32F7xx_HAL_Driver/Src/stm32f7xx_hal_uart.c ****         if (HAL_IS_BIT_SET(huart->Instance->CR3, USART_CR3_DMAR))
1269:Drivers/STM32F7xx_HAL_Driver/Src/stm32f7xx_hal_uart.c ****         {
1270:Drivers/STM32F7xx_HAL_Driver/Src/stm32f7xx_hal_uart.c ****           CLEAR_BIT(huart->Instance->CR3, USART_CR3_DMAR);
1271:Drivers/STM32F7xx_HAL_Driver/Src/stm32f7xx_hal_uart.c **** 
1272:Drivers/STM32F7xx_HAL_Driver/Src/stm32f7xx_hal_uart.c ****           /* Abort the UART DMA Rx channel */
1273:Drivers/STM32F7xx_HAL_Driver/Src/stm32f7xx_hal_uart.c ****           if(huart->hdmarx != NULL)
1274:Drivers/STM32F7xx_HAL_Driver/Src/stm32f7xx_hal_uart.c ****           {
1275:Drivers/STM32F7xx_HAL_Driver/Src/stm32f7xx_hal_uart.c ****             /* Set the UART DMA Abort callback :
1276:Drivers/STM32F7xx_HAL_Driver/Src/stm32f7xx_hal_uart.c ****             will lead to call HAL_UART_ErrorCallback() at end of DMA abort procedure */
1277:Drivers/STM32F7xx_HAL_Driver/Src/stm32f7xx_hal_uart.c ****             huart->hdmarx->XferAbortCallback = UART_DMAAbortOnError;
1278:Drivers/STM32F7xx_HAL_Driver/Src/stm32f7xx_hal_uart.c **** 
1279:Drivers/STM32F7xx_HAL_Driver/Src/stm32f7xx_hal_uart.c ****             /* Abort DMA RX */
1280:Drivers/STM32F7xx_HAL_Driver/Src/stm32f7xx_hal_uart.c ****             if(HAL_DMA_Abort_IT(huart->hdmarx) != HAL_OK)
1281:Drivers/STM32F7xx_HAL_Driver/Src/stm32f7xx_hal_uart.c ****             {
1282:Drivers/STM32F7xx_HAL_Driver/Src/stm32f7xx_hal_uart.c ****               /* Call Directly huart->hdmarx->XferAbortCallback function in case of error */
1283:Drivers/STM32F7xx_HAL_Driver/Src/stm32f7xx_hal_uart.c ****               huart->hdmarx->XferAbortCallback(huart->hdmarx);
1284:Drivers/STM32F7xx_HAL_Driver/Src/stm32f7xx_hal_uart.c ****             }
1285:Drivers/STM32F7xx_HAL_Driver/Src/stm32f7xx_hal_uart.c ****           }
1286:Drivers/STM32F7xx_HAL_Driver/Src/stm32f7xx_hal_uart.c ****           else
1287:Drivers/STM32F7xx_HAL_Driver/Src/stm32f7xx_hal_uart.c ****           {
1288:Drivers/STM32F7xx_HAL_Driver/Src/stm32f7xx_hal_uart.c ****             /* Call user error callback */
1289:Drivers/STM32F7xx_HAL_Driver/Src/stm32f7xx_hal_uart.c ****             HAL_UART_ErrorCallback(huart);
1290:Drivers/STM32F7xx_HAL_Driver/Src/stm32f7xx_hal_uart.c ****           }
1291:Drivers/STM32F7xx_HAL_Driver/Src/stm32f7xx_hal_uart.c ****         }
1292:Drivers/STM32F7xx_HAL_Driver/Src/stm32f7xx_hal_uart.c ****         else
1293:Drivers/STM32F7xx_HAL_Driver/Src/stm32f7xx_hal_uart.c ****         {
1294:Drivers/STM32F7xx_HAL_Driver/Src/stm32f7xx_hal_uart.c ****           /* Call user error callback */
1295:Drivers/STM32F7xx_HAL_Driver/Src/stm32f7xx_hal_uart.c ****           HAL_UART_ErrorCallback(huart);
ARM GAS  /tmp/cc6CQ8Vx.s 			page 28


1296:Drivers/STM32F7xx_HAL_Driver/Src/stm32f7xx_hal_uart.c ****         }
1297:Drivers/STM32F7xx_HAL_Driver/Src/stm32f7xx_hal_uart.c ****       }
1298:Drivers/STM32F7xx_HAL_Driver/Src/stm32f7xx_hal_uart.c ****       else
1299:Drivers/STM32F7xx_HAL_Driver/Src/stm32f7xx_hal_uart.c ****       {
1300:Drivers/STM32F7xx_HAL_Driver/Src/stm32f7xx_hal_uart.c ****         /* Non Blocking error : transfer could go on.
1301:Drivers/STM32F7xx_HAL_Driver/Src/stm32f7xx_hal_uart.c ****            Error is notified to user through user error callback */
1302:Drivers/STM32F7xx_HAL_Driver/Src/stm32f7xx_hal_uart.c ****         HAL_UART_ErrorCallback(huart);
1303:Drivers/STM32F7xx_HAL_Driver/Src/stm32f7xx_hal_uart.c ****         huart->ErrorCode = HAL_UART_ERROR_NONE;
1304:Drivers/STM32F7xx_HAL_Driver/Src/stm32f7xx_hal_uart.c ****       }
1305:Drivers/STM32F7xx_HAL_Driver/Src/stm32f7xx_hal_uart.c ****     }
1306:Drivers/STM32F7xx_HAL_Driver/Src/stm32f7xx_hal_uart.c ****     return;
1307:Drivers/STM32F7xx_HAL_Driver/Src/stm32f7xx_hal_uart.c **** 
1308:Drivers/STM32F7xx_HAL_Driver/Src/stm32f7xx_hal_uart.c ****   } /* End if some error occurs */
1309:Drivers/STM32F7xx_HAL_Driver/Src/stm32f7xx_hal_uart.c **** 
1310:Drivers/STM32F7xx_HAL_Driver/Src/stm32f7xx_hal_uart.c ****   /* UART in mode Transmitter ------------------------------------------------*/
1311:Drivers/STM32F7xx_HAL_Driver/Src/stm32f7xx_hal_uart.c ****   if(((isrflags & USART_ISR_TXE) != RESET) && ((cr1its & USART_CR1_TXEIE) != RESET))
1312:Drivers/STM32F7xx_HAL_Driver/Src/stm32f7xx_hal_uart.c ****   {
1313:Drivers/STM32F7xx_HAL_Driver/Src/stm32f7xx_hal_uart.c ****     UART_Transmit_IT(huart);
1314:Drivers/STM32F7xx_HAL_Driver/Src/stm32f7xx_hal_uart.c ****     return;
1315:Drivers/STM32F7xx_HAL_Driver/Src/stm32f7xx_hal_uart.c ****   }
1316:Drivers/STM32F7xx_HAL_Driver/Src/stm32f7xx_hal_uart.c **** 
1317:Drivers/STM32F7xx_HAL_Driver/Src/stm32f7xx_hal_uart.c ****   /* UART in mode Transmitter (transmission end) -----------------------------*/
1318:Drivers/STM32F7xx_HAL_Driver/Src/stm32f7xx_hal_uart.c ****   if(((isrflags & USART_ISR_TC) != RESET) && ((cr1its & USART_CR1_TCIE) != RESET))
1319:Drivers/STM32F7xx_HAL_Driver/Src/stm32f7xx_hal_uart.c ****   {
1320:Drivers/STM32F7xx_HAL_Driver/Src/stm32f7xx_hal_uart.c ****     UART_EndTransmit_IT(huart);
1321:Drivers/STM32F7xx_HAL_Driver/Src/stm32f7xx_hal_uart.c ****     return;
1322:Drivers/STM32F7xx_HAL_Driver/Src/stm32f7xx_hal_uart.c ****   }
1323:Drivers/STM32F7xx_HAL_Driver/Src/stm32f7xx_hal_uart.c **** 
1324:Drivers/STM32F7xx_HAL_Driver/Src/stm32f7xx_hal_uart.c **** }
1325:Drivers/STM32F7xx_HAL_Driver/Src/stm32f7xx_hal_uart.c **** 
1326:Drivers/STM32F7xx_HAL_Driver/Src/stm32f7xx_hal_uart.c **** /**
1327:Drivers/STM32F7xx_HAL_Driver/Src/stm32f7xx_hal_uart.c ****   * @brief  This function handles UART Communication Timeout.
1328:Drivers/STM32F7xx_HAL_Driver/Src/stm32f7xx_hal_uart.c ****   * @param  huart UART handle
1329:Drivers/STM32F7xx_HAL_Driver/Src/stm32f7xx_hal_uart.c ****   * @param  Flag specifies the UART flag to check.
1330:Drivers/STM32F7xx_HAL_Driver/Src/stm32f7xx_hal_uart.c ****   * @param  Status The new Flag status (SET or RESET).
1331:Drivers/STM32F7xx_HAL_Driver/Src/stm32f7xx_hal_uart.c ****   * @param  Tickstart Tick start value
1332:Drivers/STM32F7xx_HAL_Driver/Src/stm32f7xx_hal_uart.c ****   * @param  Timeout Timeout duration
1333:Drivers/STM32F7xx_HAL_Driver/Src/stm32f7xx_hal_uart.c ****   * @retval HAL status
1334:Drivers/STM32F7xx_HAL_Driver/Src/stm32f7xx_hal_uart.c ****   */
1335:Drivers/STM32F7xx_HAL_Driver/Src/stm32f7xx_hal_uart.c **** HAL_StatusTypeDef UART_WaitOnFlagUntilTimeout(UART_HandleTypeDef *huart, uint32_t Flag, FlagStatus 
1336:Drivers/STM32F7xx_HAL_Driver/Src/stm32f7xx_hal_uart.c **** {
1337:Drivers/STM32F7xx_HAL_Driver/Src/stm32f7xx_hal_uart.c ****   /* Wait until flag is set */
1338:Drivers/STM32F7xx_HAL_Driver/Src/stm32f7xx_hal_uart.c ****   while((__HAL_UART_GET_FLAG(huart, Flag) ? SET : RESET) == Status)
 228              		.loc 1 1338 0
 229 0064 E269     		ldr	r2, [r4, #28]
 230 0066 1306     		lsls	r3, r2, #24
 231 0068 FCD5     		bpl	.L18
 232              	.L19:
 233              	.LVL12:
 234              	.LBE23:
 235              	.LBE22:
 747:Drivers/STM32F7xx_HAL_Driver/Src/stm32f7xx_hal_uart.c ****       {
 236              		.loc 1 747 0
 237 006a AB68     		ldr	r3, [r5, #8]
 238 006c B3F5805F 		cmp	r3, #4096
 239 0070 3CD0     		beq	.L45
 240              	.L21:
ARM GAS  /tmp/cc6CQ8Vx.s 			page 29


 241              	.LVL13:
 755:Drivers/STM32F7xx_HAL_Driver/Src/stm32f7xx_hal_uart.c ****       }
 242              		.loc 1 755 0
 243 0072 98F80030 		ldrb	r3, [r8]	@ zero_extendqisi2
 244 0076 08F10108 		add	r8, r8, #1
 245              	.LVL14:
 246 007a A362     		str	r3, [r4, #40]
 740:Drivers/STM32F7xx_HAL_Driver/Src/stm32f7xx_hal_uart.c ****     {
 247              		.loc 1 740 0
 248 007c B5F85230 		ldrh	r3, [r5, #82]
 249 0080 9BB2     		uxth	r3, r3
 250 0082 002B     		cmp	r3, #0
 251 0084 E6D1     		bne	.L23
 252              	.L24:
 253 0086 711C     		adds	r1, r6, #1
 254 0088 39D1     		bne	.L27
 255              	.L28:
 256              	.LBB25:
 257              	.LBB26:
 258              		.loc 1 1338 0
 259 008a E369     		ldr	r3, [r4, #28]
 260 008c 5A06     		lsls	r2, r3, #25
 261 008e FCD5     		bpl	.L28
 262              	.L29:
 263              	.LBE26:
 264              	.LBE25:
 767:Drivers/STM32F7xx_HAL_Driver/Src/stm32f7xx_hal_uart.c **** 
 265              		.loc 1 767 0
 266 0090 0023     		movs	r3, #0
 764:Drivers/STM32F7xx_HAL_Driver/Src/stm32f7xx_hal_uart.c **** 
 267              		.loc 1 764 0
 268 0092 2022     		movs	r2, #32
 769:Drivers/STM32F7xx_HAL_Driver/Src/stm32f7xx_hal_uart.c ****   }
 269              		.loc 1 769 0
 270 0094 1846     		mov	r0, r3
 764:Drivers/STM32F7xx_HAL_Driver/Src/stm32f7xx_hal_uart.c **** 
 271              		.loc 1 764 0
 272 0096 85F86920 		strb	r2, [r5, #105]
 767:Drivers/STM32F7xx_HAL_Driver/Src/stm32f7xx_hal_uart.c **** 
 273              		.loc 1 767 0
 274 009a 85F86830 		strb	r3, [r5, #104]
 769:Drivers/STM32F7xx_HAL_Driver/Src/stm32f7xx_hal_uart.c ****   }
 275              		.loc 1 769 0
 276 009e 00E0     		b	.L12
 277              	.LVL15:
 278              	.L33:
 773:Drivers/STM32F7xx_HAL_Driver/Src/stm32f7xx_hal_uart.c ****   }
 279              		.loc 1 773 0
 280 00a0 0220     		movs	r0, #2
 281              	.LVL16:
 282              	.L12:
 775:Drivers/STM32F7xx_HAL_Driver/Src/stm32f7xx_hal_uart.c **** 
 283              		.loc 1 775 0
 284 00a2 02B0     		add	sp, sp, #8
 285              	.LCFI4:
 286              		.cfi_remember_state
 287              		.cfi_def_cfa_offset 24
ARM GAS  /tmp/cc6CQ8Vx.s 			page 30


 288              		@ sp needed
 289 00a4 BDE8F081 		pop	{r4, r5, r6, r7, r8, pc}
 290              	.LVL17:
 291              	.L32:
 292              	.LCFI5:
 293              		.cfi_restore_state
 726:Drivers/STM32F7xx_HAL_Driver/Src/stm32f7xx_hal_uart.c ****     }
 294              		.loc 1 726 0
 295 00a8 0120     		movs	r0, #1
 296              	.LVL18:
 775:Drivers/STM32F7xx_HAL_Driver/Src/stm32f7xx_hal_uart.c **** 
 297              		.loc 1 775 0
 298 00aa 02B0     		add	sp, sp, #8
 299              	.LCFI6:
 300              		.cfi_remember_state
 301              		.cfi_def_cfa_offset 24
 302              		@ sp needed
 303 00ac BDE8F081 		pop	{r4, r5, r6, r7, r8, pc}
 304              	.LVL19:
 305              	.L17:
 306              	.LCFI7:
 307              		.cfi_restore_state
 308              	.LBB34:
 309              	.LBB24:
 310              		.loc 1 1338 0
 311 00b0 E369     		ldr	r3, [r4, #28]
 312 00b2 1806     		lsls	r0, r3, #24
 313 00b4 D9D4     		bmi	.L19
1339:Drivers/STM32F7xx_HAL_Driver/Src/stm32f7xx_hal_uart.c ****   {
1340:Drivers/STM32F7xx_HAL_Driver/Src/stm32f7xx_hal_uart.c ****     /* Check for the Timeout */
1341:Drivers/STM32F7xx_HAL_Driver/Src/stm32f7xx_hal_uart.c ****     if(Timeout != HAL_MAX_DELAY)
1342:Drivers/STM32F7xx_HAL_Driver/Src/stm32f7xx_hal_uart.c ****     {
1343:Drivers/STM32F7xx_HAL_Driver/Src/stm32f7xx_hal_uart.c ****       if((Timeout == 0U)||((HAL_GetTick()-Tickstart) >=  Timeout))
 314              		.loc 1 1343 0
 315 00b6 2EB1     		cbz	r6, .L25
 316 00b8 FFF7FEFF 		bl	HAL_GetTick
 317              	.LVL20:
 318 00bc C01B     		subs	r0, r0, r7
 319 00be 2C68     		ldr	r4, [r5]
 320 00c0 8642     		cmp	r6, r0
 321 00c2 CDD8     		bhi	.L14
 322              	.LVL21:
 323              	.L25:
 324              	.LBE24:
 325              	.LBE34:
 326              	.LBB35:
 327              	.LBB31:
 328              	.LBB27:
 329              	.LBB28:
1344:Drivers/STM32F7xx_HAL_Driver/Src/stm32f7xx_hal_uart.c ****       {
1345:Drivers/STM32F7xx_HAL_Driver/Src/stm32f7xx_hal_uart.c ****         /* Disable TXE, RXNE, PE and ERR (Frame error, noise error, overrun error) interrupts for t
1346:Drivers/STM32F7xx_HAL_Driver/Src/stm32f7xx_hal_uart.c ****         CLEAR_BIT(huart->Instance->CR1, (USART_CR1_RXNEIE | USART_CR1_PEIE | USART_CR1_TXEIE));
 330              		.loc 1 1346 0
 331 00c4 2368     		ldr	r3, [r4]
1347:Drivers/STM32F7xx_HAL_Driver/Src/stm32f7xx_hal_uart.c ****         CLEAR_BIT(huart->Instance->CR3, USART_CR3_EIE);
1348:Drivers/STM32F7xx_HAL_Driver/Src/stm32f7xx_hal_uart.c **** 
1349:Drivers/STM32F7xx_HAL_Driver/Src/stm32f7xx_hal_uart.c ****         huart->gState = HAL_UART_STATE_READY;
ARM GAS  /tmp/cc6CQ8Vx.s 			page 31


 332              		.loc 1 1349 0
 333 00c6 2022     		movs	r2, #32
1350:Drivers/STM32F7xx_HAL_Driver/Src/stm32f7xx_hal_uart.c ****         huart->RxState = HAL_UART_STATE_READY;
1351:Drivers/STM32F7xx_HAL_Driver/Src/stm32f7xx_hal_uart.c **** 
1352:Drivers/STM32F7xx_HAL_Driver/Src/stm32f7xx_hal_uart.c ****         /* Process Unlocked */
1353:Drivers/STM32F7xx_HAL_Driver/Src/stm32f7xx_hal_uart.c ****         __HAL_UNLOCK(huart);
 334              		.loc 1 1353 0
 335 00c8 0021     		movs	r1, #0
 336              	.LBE28:
 337              	.LBE27:
 338              	.LBE31:
 339              	.LBE35:
 760:Drivers/STM32F7xx_HAL_Driver/Src/stm32f7xx_hal_uart.c ****     }
 340              		.loc 1 760 0
 341 00ca 0320     		movs	r0, #3
 342              	.LBB36:
 343              	.LBB32:
 344              	.LBB30:
 345              	.LBB29:
1346:Drivers/STM32F7xx_HAL_Driver/Src/stm32f7xx_hal_uart.c ****         CLEAR_BIT(huart->Instance->CR3, USART_CR3_EIE);
 346              		.loc 1 1346 0
 347 00cc 23F4D073 		bic	r3, r3, #416
 348 00d0 2360     		str	r3, [r4]
1347:Drivers/STM32F7xx_HAL_Driver/Src/stm32f7xx_hal_uart.c **** 
 349              		.loc 1 1347 0
 350 00d2 A368     		ldr	r3, [r4, #8]
 351 00d4 23F00103 		bic	r3, r3, #1
 352 00d8 A360     		str	r3, [r4, #8]
1349:Drivers/STM32F7xx_HAL_Driver/Src/stm32f7xx_hal_uart.c ****         huart->RxState = HAL_UART_STATE_READY;
 353              		.loc 1 1349 0
 354 00da 85F86920 		strb	r2, [r5, #105]
 355              		.loc 1 1353 0
 356 00de 85F86810 		strb	r1, [r5, #104]
 357              	.LVL22:
1350:Drivers/STM32F7xx_HAL_Driver/Src/stm32f7xx_hal_uart.c **** 
 358              		.loc 1 1350 0
 359 00e2 85F86A20 		strb	r2, [r5, #106]
 360              	.LBE29:
 361              	.LBE30:
 362              	.LBE32:
 363              	.LBE36:
 775:Drivers/STM32F7xx_HAL_Driver/Src/stm32f7xx_hal_uart.c **** 
 364              		.loc 1 775 0
 365 00e6 02B0     		add	sp, sp, #8
 366              	.LCFI8:
 367              		.cfi_remember_state
 368              		.cfi_def_cfa_offset 24
 369              		@ sp needed
 370 00e8 BDE8F081 		pop	{r4, r5, r6, r7, r8, pc}
 371              	.LVL23:
 372              	.L45:
 373              	.LCFI9:
 374              		.cfi_restore_state
 747:Drivers/STM32F7xx_HAL_Driver/Src/stm32f7xx_hal_uart.c ****       {
 375              		.loc 1 747 0 discriminator 1
 376 00ec 2B69     		ldr	r3, [r5, #16]
 377 00ee 002B     		cmp	r3, #0
ARM GAS  /tmp/cc6CQ8Vx.s 			page 32


 378 00f0 BFD1     		bne	.L21
 379              	.LVL24:
 750:Drivers/STM32F7xx_HAL_Driver/Src/stm32f7xx_hal_uart.c ****         pData += 2;
 380              		.loc 1 750 0
 381 00f2 38F8023B 		ldrh	r3, [r8], #2
 382              	.LVL25:
 383 00f6 C3F30803 		ubfx	r3, r3, #0, #9
 384 00fa A362     		str	r3, [r4, #40]
 385              	.LVL26:
 751:Drivers/STM32F7xx_HAL_Driver/Src/stm32f7xx_hal_uart.c ****       }
 386              		.loc 1 751 0
 387 00fc A6E7     		b	.L13
 388              	.LVL27:
 389              	.L27:
 390              	.LBB37:
 391              	.LBB33:
1338:Drivers/STM32F7xx_HAL_Driver/Src/stm32f7xx_hal_uart.c ****   {
 392              		.loc 1 1338 0
 393 00fe E369     		ldr	r3, [r4, #28]
 394 0100 5B06     		lsls	r3, r3, #25
 395 0102 C5D4     		bmi	.L29
1343:Drivers/STM32F7xx_HAL_Driver/Src/stm32f7xx_hal_uart.c ****       {
 396              		.loc 1 1343 0
 397 0104 002E     		cmp	r6, #0
 398 0106 DDD0     		beq	.L25
 399 0108 FFF7FEFF 		bl	HAL_GetTick
 400              	.LVL28:
 401 010c C01B     		subs	r0, r0, r7
 402 010e 2C68     		ldr	r4, [r5]
 403 0110 8642     		cmp	r6, r0
 404 0112 B8D8     		bhi	.L24
 405 0114 D6E7     		b	.L25
 406              	.LBE33:
 407              	.LBE37:
 408              		.cfi_endproc
 409              	.LFE146:
 411 0116 00BF     		.section	.text.HAL_UART_Receive,"ax",%progbits
 412              		.align	1
 413              		.p2align 2,,3
 414              		.global	HAL_UART_Receive
 415              		.syntax unified
 416              		.thumb
 417              		.thumb_func
 418              		.fpu fpv4-sp-d16
 420              	HAL_UART_Receive:
 421              	.LFB147:
 786:Drivers/STM32F7xx_HAL_Driver/Src/stm32f7xx_hal_uart.c ****   uint16_t* tmp;
 422              		.loc 1 786 0
 423              		.cfi_startproc
 424              		@ args = 0, pretend = 0, frame = 8
 425              		@ frame_needed = 0, uses_anonymous_args = 0
 426              	.LVL29:
 427 0000 2DE9F043 		push	{r4, r5, r6, r7, r8, r9, lr}
 428              	.LCFI10:
 429              		.cfi_def_cfa_offset 28
 430              		.cfi_offset 4, -28
 431              		.cfi_offset 5, -24
ARM GAS  /tmp/cc6CQ8Vx.s 			page 33


 432              		.cfi_offset 6, -20
 433              		.cfi_offset 7, -16
 434              		.cfi_offset 8, -12
 435              		.cfi_offset 9, -8
 436              		.cfi_offset 14, -4
 437 0004 9946     		mov	r9, r3
 792:Drivers/STM32F7xx_HAL_Driver/Src/stm32f7xx_hal_uart.c ****   {
 438              		.loc 1 792 0
 439 0006 90F86A30 		ldrb	r3, [r0, #106]	@ zero_extendqisi2
 440              	.LVL30:
 786:Drivers/STM32F7xx_HAL_Driver/Src/stm32f7xx_hal_uart.c ****   uint16_t* tmp;
 441              		.loc 1 786 0
 442 000a 83B0     		sub	sp, sp, #12
 443              	.LCFI11:
 444              		.cfi_def_cfa_offset 40
 792:Drivers/STM32F7xx_HAL_Driver/Src/stm32f7xx_hal_uart.c ****   {
 445              		.loc 1 792 0
 446 000c 202B     		cmp	r3, #32
 447 000e 50D1     		bne	.L66
 448 0010 8846     		mov	r8, r1
 794:Drivers/STM32F7xx_HAL_Driver/Src/stm32f7xx_hal_uart.c ****     {
 449              		.loc 1 794 0
 450 0012 0029     		cmp	r1, #0
 451 0014 51D0     		beq	.L65
 452 0016 B2FA82F3 		clz	r3, r2
 453 001a 0192     		str	r2, [sp, #4]
 454 001c 5B09     		lsrs	r3, r3, #5
 455 001e 002B     		cmp	r3, #0
 456 0020 4BD1     		bne	.L65
 800:Drivers/STM32F7xx_HAL_Driver/Src/stm32f7xx_hal_uart.c **** 
 457              		.loc 1 800 0
 458 0022 90F86810 		ldrb	r1, [r0, #104]	@ zero_extendqisi2
 459              	.LVL31:
 460 0026 0546     		mov	r5, r0
 461 0028 0129     		cmp	r1, #1
 462 002a 42D0     		beq	.L66
 802:Drivers/STM32F7xx_HAL_Driver/Src/stm32f7xx_hal_uart.c ****     huart->RxState = HAL_UART_STATE_BUSY_RX;
 463              		.loc 1 802 0 discriminator 2
 464 002c C366     		str	r3, [r0, #108]
 800:Drivers/STM32F7xx_HAL_Driver/Src/stm32f7xx_hal_uart.c **** 
 465              		.loc 1 800 0 discriminator 2
 466 002e 0121     		movs	r1, #1
 803:Drivers/STM32F7xx_HAL_Driver/Src/stm32f7xx_hal_uart.c **** 
 467              		.loc 1 803 0 discriminator 2
 468 0030 2223     		movs	r3, #34
 800:Drivers/STM32F7xx_HAL_Driver/Src/stm32f7xx_hal_uart.c **** 
 469              		.loc 1 800 0 discriminator 2
 470 0032 80F86810 		strb	r1, [r0, #104]
 803:Drivers/STM32F7xx_HAL_Driver/Src/stm32f7xx_hal_uart.c **** 
 471              		.loc 1 803 0 discriminator 2
 472 0036 80F86A30 		strb	r3, [r0, #106]
 806:Drivers/STM32F7xx_HAL_Driver/Src/stm32f7xx_hal_uart.c **** 
 473              		.loc 1 806 0 discriminator 2
 474 003a FFF7FEFF 		bl	HAL_GetTick
 475              	.LVL32:
 812:Drivers/STM32F7xx_HAL_Driver/Src/stm32f7xx_hal_uart.c ****     uhMask = huart->Mask;
 476              		.loc 1 812 0 discriminator 2
ARM GAS  /tmp/cc6CQ8Vx.s 			page 34


 477 003e AB68     		ldr	r3, [r5, #8]
 808:Drivers/STM32F7xx_HAL_Driver/Src/stm32f7xx_hal_uart.c ****     huart->RxXferCount = Size;
 478              		.loc 1 808 0 discriminator 2
 479 0040 019A     		ldr	r2, [sp, #4]
 806:Drivers/STM32F7xx_HAL_Driver/Src/stm32f7xx_hal_uart.c **** 
 480              		.loc 1 806 0 discriminator 2
 481 0042 0746     		mov	r7, r0
 482              	.LVL33:
 812:Drivers/STM32F7xx_HAL_Driver/Src/stm32f7xx_hal_uart.c ****     uhMask = huart->Mask;
 483              		.loc 1 812 0 discriminator 2
 484 0044 B3F5805F 		cmp	r3, #4096
 808:Drivers/STM32F7xx_HAL_Driver/Src/stm32f7xx_hal_uart.c ****     huart->RxXferCount = Size;
 485              		.loc 1 808 0 discriminator 2
 486 0048 A5F85820 		strh	r2, [r5, #88]	@ movhi
 809:Drivers/STM32F7xx_HAL_Driver/Src/stm32f7xx_hal_uart.c **** 
 487              		.loc 1 809 0 discriminator 2
 488 004c A5F85A20 		strh	r2, [r5, #90]	@ movhi
 812:Drivers/STM32F7xx_HAL_Driver/Src/stm32f7xx_hal_uart.c ****     uhMask = huart->Mask;
 489              		.loc 1 812 0 discriminator 2
 490 0050 5FD0     		beq	.L80
 491 0052 002B     		cmp	r3, #0
 492 0054 65D1     		bne	.L51
 812:Drivers/STM32F7xx_HAL_Driver/Src/stm32f7xx_hal_uart.c ****     uhMask = huart->Mask;
 493              		.loc 1 812 0 is_stmt 0 discriminator 5
 494 0056 2B69     		ldr	r3, [r5, #16]
 495 0058 002B     		cmp	r3, #0
 496 005a 68D1     		bne	.L53
 497              	.L49:
 812:Drivers/STM32F7xx_HAL_Driver/Src/stm32f7xx_hal_uart.c ****     uhMask = huart->Mask;
 498              		.loc 1 812 0 discriminator 4
 499 005c FF26     		movs	r6, #255
 500 005e A5F85C60 		strh	r6, [r5, #92]	@ movhi
 501              	.LVL34:
 502              	.L54:
 816:Drivers/STM32F7xx_HAL_Driver/Src/stm32f7xx_hal_uart.c ****     {
 503              		.loc 1 816 0 is_stmt 1
 504 0062 B5F85A00 		ldrh	r0, [r5, #90]
 505 0066 80B2     		uxth	r0, r0
 506 0068 D8B1     		cbz	r0, .L81
 507              	.L63:
 818:Drivers/STM32F7xx_HAL_Driver/Src/stm32f7xx_hal_uart.c ****       if(UART_WaitOnFlagUntilTimeout(huart, UART_FLAG_RXNE, RESET, tickstart, Timeout) != HAL_OK)
 508              		.loc 1 818 0
 509 006a B5F85A20 		ldrh	r2, [r5, #90]
 510 006e 013A     		subs	r2, r2, #1
 511 0070 92B2     		uxth	r2, r2
 512 0072 A5F85A20 		strh	r2, [r5, #90]	@ movhi
 513              	.LVL35:
 514              	.L55:
 515 0076 B9F1FF3F 		cmp	r9, #-1
 516              	.LBB42:
 517              	.LBB43:
1338:Drivers/STM32F7xx_HAL_Driver/Src/stm32f7xx_hal_uart.c ****   {
 518              		.loc 1 1338 0
 519 007a 2C68     		ldr	r4, [r5]
 520 007c 21D1     		bne	.L57
 521              	.L58:
 522 007e E269     		ldr	r2, [r4, #28]
ARM GAS  /tmp/cc6CQ8Vx.s 			page 35


 523 0080 9206     		lsls	r2, r2, #26
 524 0082 FCD5     		bpl	.L58
 525              	.L59:
 526              	.LVL36:
 527              	.LBE43:
 528              	.LBE42:
 823:Drivers/STM32F7xx_HAL_Driver/Src/stm32f7xx_hal_uart.c ****       {
 529              		.loc 1 823 0
 530 0084 AB68     		ldr	r3, [r5, #8]
 531 0086 B3F5805F 		cmp	r3, #4096
 532 008a 3AD0     		beq	.L82
 533              	.L61:
 534              	.LVL37:
 831:Drivers/STM32F7xx_HAL_Driver/Src/stm32f7xx_hal_uart.c ****       }
 535              		.loc 1 831 0
 536 008c 636A     		ldr	r3, [r4, #36]
 537 008e 08F10108 		add	r8, r8, #1
 538              	.LVL38:
 539 0092 3340     		ands	r3, r3, r6
 540 0094 08F8013C 		strb	r3, [r8, #-1]
 816:Drivers/STM32F7xx_HAL_Driver/Src/stm32f7xx_hal_uart.c ****     {
 541              		.loc 1 816 0
 542 0098 B5F85A00 		ldrh	r0, [r5, #90]
 543 009c 80B2     		uxth	r0, r0
 544 009e 0028     		cmp	r0, #0
 545 00a0 E3D1     		bne	.L63
 546              	.L81:
 836:Drivers/STM32F7xx_HAL_Driver/Src/stm32f7xx_hal_uart.c **** 
 547              		.loc 1 836 0
 548 00a2 2023     		movs	r3, #32
 839:Drivers/STM32F7xx_HAL_Driver/Src/stm32f7xx_hal_uart.c **** 
 549              		.loc 1 839 0
 550 00a4 85F86800 		strb	r0, [r5, #104]
 836:Drivers/STM32F7xx_HAL_Driver/Src/stm32f7xx_hal_uart.c **** 
 551              		.loc 1 836 0
 552 00a8 85F86A30 		strb	r3, [r5, #106]
 847:Drivers/STM32F7xx_HAL_Driver/Src/stm32f7xx_hal_uart.c **** 
 553              		.loc 1 847 0
 554 00ac 03B0     		add	sp, sp, #12
 555              	.LCFI12:
 556              		.cfi_remember_state
 557              		.cfi_def_cfa_offset 28
 558              		@ sp needed
 559 00ae BDE8F083 		pop	{r4, r5, r6, r7, r8, r9, pc}
 560              	.LVL39:
 561              	.L66:
 562              	.LCFI13:
 563              		.cfi_restore_state
 845:Drivers/STM32F7xx_HAL_Driver/Src/stm32f7xx_hal_uart.c ****   }
 564              		.loc 1 845 0
 565 00b2 0220     		movs	r0, #2
 566              	.LVL40:
 847:Drivers/STM32F7xx_HAL_Driver/Src/stm32f7xx_hal_uart.c **** 
 567              		.loc 1 847 0
 568 00b4 03B0     		add	sp, sp, #12
 569              	.LCFI14:
 570              		.cfi_remember_state
ARM GAS  /tmp/cc6CQ8Vx.s 			page 36


 571              		.cfi_def_cfa_offset 28
 572              		@ sp needed
 573 00b6 BDE8F083 		pop	{r4, r5, r6, r7, r8, r9, pc}
 574              	.LVL41:
 575              	.L65:
 576              	.LCFI15:
 577              		.cfi_restore_state
 796:Drivers/STM32F7xx_HAL_Driver/Src/stm32f7xx_hal_uart.c ****     }
 578              		.loc 1 796 0
 579 00ba 0120     		movs	r0, #1
 580              	.LVL42:
 847:Drivers/STM32F7xx_HAL_Driver/Src/stm32f7xx_hal_uart.c **** 
 581              		.loc 1 847 0
 582 00bc 03B0     		add	sp, sp, #12
 583              	.LCFI16:
 584              		.cfi_remember_state
 585              		.cfi_def_cfa_offset 28
 586              		@ sp needed
 587 00be BDE8F083 		pop	{r4, r5, r6, r7, r8, r9, pc}
 588              	.LVL43:
 589              	.L57:
 590              	.LCFI17:
 591              		.cfi_restore_state
 592              	.LBB50:
 593              	.LBB48:
1338:Drivers/STM32F7xx_HAL_Driver/Src/stm32f7xx_hal_uart.c ****   {
 594              		.loc 1 1338 0
 595 00c2 E369     		ldr	r3, [r4, #28]
 596 00c4 9B06     		lsls	r3, r3, #26
 597 00c6 DDD4     		bmi	.L59
1343:Drivers/STM32F7xx_HAL_Driver/Src/stm32f7xx_hal_uart.c ****       {
 598              		.loc 1 1343 0
 599 00c8 B9F1000F 		cmp	r9, #0
 600 00cc 05D0     		beq	.L56
 601 00ce FFF7FEFF 		bl	HAL_GetTick
 602              	.LVL44:
 603 00d2 C01B     		subs	r0, r0, r7
 604 00d4 8145     		cmp	r9, r0
 605 00d6 CED8     		bhi	.L55
 606 00d8 2C68     		ldr	r4, [r5]
 607              	.L56:
 608              	.LVL45:
 609              	.LBB44:
 610              	.LBB45:
1346:Drivers/STM32F7xx_HAL_Driver/Src/stm32f7xx_hal_uart.c ****         CLEAR_BIT(huart->Instance->CR3, USART_CR3_EIE);
 611              		.loc 1 1346 0
 612 00da 2368     		ldr	r3, [r4]
1349:Drivers/STM32F7xx_HAL_Driver/Src/stm32f7xx_hal_uart.c ****         huart->RxState = HAL_UART_STATE_READY;
 613              		.loc 1 1349 0
 614 00dc 2022     		movs	r2, #32
 615              		.loc 1 1353 0
 616 00de 0021     		movs	r1, #0
 617              	.LBE45:
 618              	.LBE44:
 619              	.LBE48:
 620              	.LBE50:
 821:Drivers/STM32F7xx_HAL_Driver/Src/stm32f7xx_hal_uart.c ****       }
ARM GAS  /tmp/cc6CQ8Vx.s 			page 37


 621              		.loc 1 821 0
 622 00e0 0320     		movs	r0, #3
 623              	.LBB51:
 624              	.LBB49:
 625              	.LBB47:
 626              	.LBB46:
1346:Drivers/STM32F7xx_HAL_Driver/Src/stm32f7xx_hal_uart.c ****         CLEAR_BIT(huart->Instance->CR3, USART_CR3_EIE);
 627              		.loc 1 1346 0
 628 00e2 23F4D073 		bic	r3, r3, #416
 629 00e6 2360     		str	r3, [r4]
1347:Drivers/STM32F7xx_HAL_Driver/Src/stm32f7xx_hal_uart.c **** 
 630              		.loc 1 1347 0
 631 00e8 A368     		ldr	r3, [r4, #8]
 632 00ea 23F00103 		bic	r3, r3, #1
 633 00ee A360     		str	r3, [r4, #8]
1349:Drivers/STM32F7xx_HAL_Driver/Src/stm32f7xx_hal_uart.c ****         huart->RxState = HAL_UART_STATE_READY;
 634              		.loc 1 1349 0
 635 00f0 85F86920 		strb	r2, [r5, #105]
 636              		.loc 1 1353 0
 637 00f4 85F86810 		strb	r1, [r5, #104]
 638              	.LVL46:
1350:Drivers/STM32F7xx_HAL_Driver/Src/stm32f7xx_hal_uart.c **** 
 639              		.loc 1 1350 0
 640 00f8 85F86A20 		strb	r2, [r5, #106]
 641              	.LBE46:
 642              	.LBE47:
 643              	.LBE49:
 644              	.LBE51:
 847:Drivers/STM32F7xx_HAL_Driver/Src/stm32f7xx_hal_uart.c **** 
 645              		.loc 1 847 0
 646 00fc 03B0     		add	sp, sp, #12
 647              	.LCFI18:
 648              		.cfi_remember_state
 649              		.cfi_def_cfa_offset 28
 650              		@ sp needed
 651 00fe BDE8F083 		pop	{r4, r5, r6, r7, r8, r9, pc}
 652              	.LVL47:
 653              	.L82:
 654              	.LCFI19:
 655              		.cfi_restore_state
 823:Drivers/STM32F7xx_HAL_Driver/Src/stm32f7xx_hal_uart.c ****       {
 656              		.loc 1 823 0 discriminator 1
 657 0102 2B69     		ldr	r3, [r5, #16]
 658 0104 002B     		cmp	r3, #0
 659 0106 C1D1     		bne	.L61
 660              	.LVL48:
 826:Drivers/STM32F7xx_HAL_Driver/Src/stm32f7xx_hal_uart.c ****         pData +=2U;
 661              		.loc 1 826 0
 662 0108 636A     		ldr	r3, [r4, #36]
 663 010a 3340     		ands	r3, r3, r6
 664 010c 28F8023B 		strh	r3, [r8], #2	@ movhi
 665              	.LVL49:
 827:Drivers/STM32F7xx_HAL_Driver/Src/stm32f7xx_hal_uart.c ****       }
 666              		.loc 1 827 0
 667 0110 A7E7     		b	.L54
 668              	.LVL50:
 669              	.L80:
ARM GAS  /tmp/cc6CQ8Vx.s 			page 38


 812:Drivers/STM32F7xx_HAL_Driver/Src/stm32f7xx_hal_uart.c ****     uhMask = huart->Mask;
 670              		.loc 1 812 0 discriminator 1
 671 0112 2B69     		ldr	r3, [r5, #16]
 672 0114 002B     		cmp	r3, #0
 673 0116 A1D1     		bne	.L49
 812:Drivers/STM32F7xx_HAL_Driver/Src/stm32f7xx_hal_uart.c ****     uhMask = huart->Mask;
 674              		.loc 1 812 0 is_stmt 0 discriminator 3
 675 0118 40F2FF16 		movw	r6, #511
 676 011c A5F85C60 		strh	r6, [r5, #92]	@ movhi
 677 0120 9FE7     		b	.L54
 678              	.L51:
 812:Drivers/STM32F7xx_HAL_Driver/Src/stm32f7xx_hal_uart.c ****     uhMask = huart->Mask;
 679              		.loc 1 812 0 discriminator 6
 680 0122 B3F1805F 		cmp	r3, #268435456
 681 0126 06D0     		beq	.L52
 682 0128 B5F85C60 		ldrh	r6, [r5, #92]
 683 012c 99E7     		b	.L54
 684              	.L53:
 812:Drivers/STM32F7xx_HAL_Driver/Src/stm32f7xx_hal_uart.c ****     uhMask = huart->Mask;
 685              		.loc 1 812 0 discriminator 8
 686 012e 7F26     		movs	r6, #127
 687 0130 A5F85C60 		strh	r6, [r5, #92]	@ movhi
 688 0134 95E7     		b	.L54
 689              	.L52:
 812:Drivers/STM32F7xx_HAL_Driver/Src/stm32f7xx_hal_uart.c ****     uhMask = huart->Mask;
 690              		.loc 1 812 0 discriminator 9
 691 0136 2B69     		ldr	r3, [r5, #16]
 692 0138 002B     		cmp	r3, #0
 693 013a F8D0     		beq	.L53
 812:Drivers/STM32F7xx_HAL_Driver/Src/stm32f7xx_hal_uart.c ****     uhMask = huart->Mask;
 694              		.loc 1 812 0 discriminator 11
 695 013c 3F26     		movs	r6, #63
 696 013e A5F85C60 		strh	r6, [r5, #92]	@ movhi
 697              	.LVL51:
 816:Drivers/STM32F7xx_HAL_Driver/Src/stm32f7xx_hal_uart.c ****     {
 698              		.loc 1 816 0 is_stmt 1 discriminator 11
 699 0142 8EE7     		b	.L54
 700              		.cfi_endproc
 701              	.LFE147:
 703              		.section	.text.HAL_UART_Transmit_IT,"ax",%progbits
 704              		.align	1
 705              		.p2align 2,,3
 706              		.global	HAL_UART_Transmit_IT
 707              		.syntax unified
 708              		.thumb
 709              		.thumb_func
 710              		.fpu fpv4-sp-d16
 712              	HAL_UART_Transmit_IT:
 713              	.LFB148:
 857:Drivers/STM32F7xx_HAL_Driver/Src/stm32f7xx_hal_uart.c ****   /* Check that a Tx process is not already ongoing */
 714              		.loc 1 857 0
 715              		.cfi_startproc
 716              		@ args = 0, pretend = 0, frame = 0
 717              		@ frame_needed = 0, uses_anonymous_args = 0
 718              		@ link register save eliminated.
 719              	.LVL52:
 720 0000 0346     		mov	r3, r0
ARM GAS  /tmp/cc6CQ8Vx.s 			page 39


 859:Drivers/STM32F7xx_HAL_Driver/Src/stm32f7xx_hal_uart.c ****   {
 721              		.loc 1 859 0
 722 0002 90F86900 		ldrb	r0, [r0, #105]	@ zero_extendqisi2
 723              	.LVL53:
 724 0006 2028     		cmp	r0, #32
 725 0008 1CD1     		bne	.L85
 861:Drivers/STM32F7xx_HAL_Driver/Src/stm32f7xx_hal_uart.c ****     {
 726              		.loc 1 861 0
 727 000a E9B1     		cbz	r1, .L89
 857:Drivers/STM32F7xx_HAL_Driver/Src/stm32f7xx_hal_uart.c ****   /* Check that a Tx process is not already ongoing */
 728              		.loc 1 857 0
 729 000c 70B4     		push	{r4, r5, r6}
 730              	.LCFI20:
 731              		.cfi_def_cfa_offset 12
 732              		.cfi_offset 4, -12
 733              		.cfi_offset 5, -8
 734              		.cfi_offset 6, -4
 861:Drivers/STM32F7xx_HAL_Driver/Src/stm32f7xx_hal_uart.c ****     {
 735              		.loc 1 861 0
 736 000e B2FA82F4 		clz	r4, r2
 737 0012 6409     		lsrs	r4, r4, #5
 738 0014 D4B9     		cbnz	r4, .L86
 867:Drivers/STM32F7xx_HAL_Driver/Src/stm32f7xx_hal_uart.c **** 
 739              		.loc 1 867 0
 740 0016 93F86800 		ldrb	r0, [r3, #104]	@ zero_extendqisi2
 741 001a 0128     		cmp	r0, #1
 742 001c 19D0     		beq	.L87
 874:Drivers/STM32F7xx_HAL_Driver/Src/stm32f7xx_hal_uart.c **** 
 743              		.loc 1 874 0 discriminator 2
 744 001e 2120     		movs	r0, #33
 880:Drivers/STM32F7xx_HAL_Driver/Src/stm32f7xx_hal_uart.c **** 
 745              		.loc 1 880 0 discriminator 2
 746 0020 1E68     		ldr	r6, [r3]
 871:Drivers/STM32F7xx_HAL_Driver/Src/stm32f7xx_hal_uart.c **** 
 747              		.loc 1 871 0 discriminator 2
 748 0022 A3F85220 		strh	r2, [r3, #82]	@ movhi
 873:Drivers/STM32F7xx_HAL_Driver/Src/stm32f7xx_hal_uart.c ****     huart->gState = HAL_UART_STATE_BUSY_TX;
 749              		.loc 1 873 0 discriminator 2
 750 0026 DC66     		str	r4, [r3, #108]
 874:Drivers/STM32F7xx_HAL_Driver/Src/stm32f7xx_hal_uart.c **** 
 751              		.loc 1 874 0 discriminator 2
 752 0028 83F86900 		strb	r0, [r3, #105]
 882:Drivers/STM32F7xx_HAL_Driver/Src/stm32f7xx_hal_uart.c ****   }
 753              		.loc 1 882 0 discriminator 2
 754 002c 2046     		mov	r0, r4
 880:Drivers/STM32F7xx_HAL_Driver/Src/stm32f7xx_hal_uart.c **** 
 755              		.loc 1 880 0 discriminator 2
 756 002e 3568     		ldr	r5, [r6]
 869:Drivers/STM32F7xx_HAL_Driver/Src/stm32f7xx_hal_uart.c ****     huart->TxXferSize = Size;
 757              		.loc 1 869 0 discriminator 2
 758 0030 D964     		str	r1, [r3, #76]
 880:Drivers/STM32F7xx_HAL_Driver/Src/stm32f7xx_hal_uart.c **** 
 759              		.loc 1 880 0 discriminator 2
 760 0032 45F08005 		orr	r5, r5, #128
 870:Drivers/STM32F7xx_HAL_Driver/Src/stm32f7xx_hal_uart.c ****     huart->TxXferCount = Size;
 761              		.loc 1 870 0 discriminator 2
 762 0036 A3F85020 		strh	r2, [r3, #80]	@ movhi
ARM GAS  /tmp/cc6CQ8Vx.s 			page 40


 877:Drivers/STM32F7xx_HAL_Driver/Src/stm32f7xx_hal_uart.c **** 
 763              		.loc 1 877 0 discriminator 2
 764 003a 83F86840 		strb	r4, [r3, #104]
 880:Drivers/STM32F7xx_HAL_Driver/Src/stm32f7xx_hal_uart.c **** 
 765              		.loc 1 880 0 discriminator 2
 766 003e 3560     		str	r5, [r6]
 767              	.L84:
 888:Drivers/STM32F7xx_HAL_Driver/Src/stm32f7xx_hal_uart.c **** 
 768              		.loc 1 888 0
 769 0040 70BC     		pop	{r4, r5, r6}
 770              	.LCFI21:
 771              		.cfi_restore 6
 772              		.cfi_restore 5
 773              		.cfi_restore 4
 774              		.cfi_def_cfa_offset 0
 775 0042 7047     		bx	lr
 776              	.L85:
 886:Drivers/STM32F7xx_HAL_Driver/Src/stm32f7xx_hal_uart.c ****   }
 777              		.loc 1 886 0
 778 0044 0220     		movs	r0, #2
 779 0046 7047     		bx	lr
 780              	.L89:
 863:Drivers/STM32F7xx_HAL_Driver/Src/stm32f7xx_hal_uart.c ****     }
 781              		.loc 1 863 0
 782 0048 0120     		movs	r0, #1
 888:Drivers/STM32F7xx_HAL_Driver/Src/stm32f7xx_hal_uart.c **** 
 783              		.loc 1 888 0
 784 004a 7047     		bx	lr
 785              	.L86:
 786              	.LCFI22:
 787              		.cfi_def_cfa_offset 12
 788              		.cfi_offset 4, -12
 789              		.cfi_offset 5, -8
 790              		.cfi_offset 6, -4
 863:Drivers/STM32F7xx_HAL_Driver/Src/stm32f7xx_hal_uart.c ****     }
 791              		.loc 1 863 0
 792 004c 0120     		movs	r0, #1
 888:Drivers/STM32F7xx_HAL_Driver/Src/stm32f7xx_hal_uart.c **** 
 793              		.loc 1 888 0
 794 004e 70BC     		pop	{r4, r5, r6}
 795              	.LCFI23:
 796              		.cfi_remember_state
 797              		.cfi_restore 6
 798              		.cfi_restore 5
 799              		.cfi_restore 4
 800              		.cfi_def_cfa_offset 0
 801 0050 7047     		bx	lr
 802              	.L87:
 803              	.LCFI24:
 804              		.cfi_restore_state
 886:Drivers/STM32F7xx_HAL_Driver/Src/stm32f7xx_hal_uart.c ****   }
 805              		.loc 1 886 0
 806 0052 0220     		movs	r0, #2
 807 0054 F4E7     		b	.L84
 808              		.cfi_endproc
 809              	.LFE148:
 811 0056 00BF     		.section	.text.HAL_UART_Receive_IT,"ax",%progbits
ARM GAS  /tmp/cc6CQ8Vx.s 			page 41


 812              		.align	1
 813              		.p2align 2,,3
 814              		.global	HAL_UART_Receive_IT
 815              		.syntax unified
 816              		.thumb
 817              		.thumb_func
 818              		.fpu fpv4-sp-d16
 820              	HAL_UART_Receive_IT:
 821              	.LFB149:
 898:Drivers/STM32F7xx_HAL_Driver/Src/stm32f7xx_hal_uart.c ****   /* Check that a Rx process is not already ongoing */
 822              		.loc 1 898 0
 823              		.cfi_startproc
 824              		@ args = 0, pretend = 0, frame = 0
 825              		@ frame_needed = 0, uses_anonymous_args = 0
 826              		@ link register save eliminated.
 827              	.LVL54:
 828 0000 0346     		mov	r3, r0
 900:Drivers/STM32F7xx_HAL_Driver/Src/stm32f7xx_hal_uart.c ****   {
 829              		.loc 1 900 0
 830 0002 90F86A00 		ldrb	r0, [r0, #106]	@ zero_extendqisi2
 831              	.LVL55:
 832 0006 2028     		cmp	r0, #32
 833 0008 2DD1     		bne	.L102
 902:Drivers/STM32F7xx_HAL_Driver/Src/stm32f7xx_hal_uart.c ****     {
 834              		.loc 1 902 0
 835 000a 71B3     		cbz	r1, .L101
 836 000c 6AB3     		cbz	r2, .L101
 908:Drivers/STM32F7xx_HAL_Driver/Src/stm32f7xx_hal_uart.c **** 
 837              		.loc 1 908 0
 838 000e 93F86800 		ldrb	r0, [r3, #104]	@ zero_extendqisi2
 839 0012 0128     		cmp	r0, #1
 840 0014 27D0     		beq	.L102
 915:Drivers/STM32F7xx_HAL_Driver/Src/stm32f7xx_hal_uart.c **** 
 841              		.loc 1 915 0 discriminator 2
 842 0016 9868     		ldr	r0, [r3, #8]
 898:Drivers/STM32F7xx_HAL_Driver/Src/stm32f7xx_hal_uart.c ****   /* Check that a Rx process is not already ongoing */
 843              		.loc 1 898 0 discriminator 2
 844 0018 10B4     		push	{r4}
 845              	.LCFI25:
 846              		.cfi_def_cfa_offset 4
 847              		.cfi_offset 4, -4
 915:Drivers/STM32F7xx_HAL_Driver/Src/stm32f7xx_hal_uart.c **** 
 848              		.loc 1 915 0 discriminator 2
 849 001a B0F5805F 		cmp	r0, #4096
 908:Drivers/STM32F7xx_HAL_Driver/Src/stm32f7xx_hal_uart.c **** 
 850              		.loc 1 908 0 discriminator 2
 851 001e 4FF00104 		mov	r4, #1
 910:Drivers/STM32F7xx_HAL_Driver/Src/stm32f7xx_hal_uart.c ****     huart->RxXferSize = Size;
 852              		.loc 1 910 0 discriminator 2
 853 0022 5965     		str	r1, [r3, #84]
 911:Drivers/STM32F7xx_HAL_Driver/Src/stm32f7xx_hal_uart.c ****     huart->RxXferCount = Size;
 854              		.loc 1 911 0 discriminator 2
 855 0024 A3F85820 		strh	r2, [r3, #88]	@ movhi
 912:Drivers/STM32F7xx_HAL_Driver/Src/stm32f7xx_hal_uart.c **** 
 856              		.loc 1 912 0 discriminator 2
 857 0028 A3F85A20 		strh	r2, [r3, #90]	@ movhi
 908:Drivers/STM32F7xx_HAL_Driver/Src/stm32f7xx_hal_uart.c **** 
ARM GAS  /tmp/cc6CQ8Vx.s 			page 42


 858              		.loc 1 908 0 discriminator 2
 859 002c 83F86840 		strb	r4, [r3, #104]
 915:Drivers/STM32F7xx_HAL_Driver/Src/stm32f7xx_hal_uart.c **** 
 860              		.loc 1 915 0 discriminator 2
 861 0030 1DD0     		beq	.L113
 862 0032 40BB     		cbnz	r0, .L98
 915:Drivers/STM32F7xx_HAL_Driver/Src/stm32f7xx_hal_uart.c **** 
 863              		.loc 1 915 0 is_stmt 0 discriminator 5
 864 0034 1A69     		ldr	r2, [r3, #16]
 865              	.LVL56:
 866 0036 12BB     		cbnz	r2, .L99
 867              	.L96:
 915:Drivers/STM32F7xx_HAL_Driver/Src/stm32f7xx_hal_uart.c **** 
 868              		.loc 1 915 0 discriminator 4
 869 0038 FF22     		movs	r2, #255
 870 003a A3F85C20 		strh	r2, [r3, #92]	@ movhi
 871              	.L97:
 917:Drivers/STM32F7xx_HAL_Driver/Src/stm32f7xx_hal_uart.c ****     huart->RxState = HAL_UART_STATE_BUSY_RX;
 872              		.loc 1 917 0 is_stmt 1
 873 003e 0024     		movs	r4, #0
 924:Drivers/STM32F7xx_HAL_Driver/Src/stm32f7xx_hal_uart.c **** 
 874              		.loc 1 924 0
 875 0040 1A68     		ldr	r2, [r3]
 918:Drivers/STM32F7xx_HAL_Driver/Src/stm32f7xx_hal_uart.c **** 
 876              		.loc 1 918 0
 877 0042 2221     		movs	r1, #34
 878              	.LVL57:
 917:Drivers/STM32F7xx_HAL_Driver/Src/stm32f7xx_hal_uart.c ****     huart->RxState = HAL_UART_STATE_BUSY_RX;
 879              		.loc 1 917 0
 880 0044 DC66     		str	r4, [r3, #108]
 929:Drivers/STM32F7xx_HAL_Driver/Src/stm32f7xx_hal_uart.c ****   }
 881              		.loc 1 929 0
 882 0046 2046     		mov	r0, r4
 918:Drivers/STM32F7xx_HAL_Driver/Src/stm32f7xx_hal_uart.c **** 
 883              		.loc 1 918 0
 884 0048 83F86A10 		strb	r1, [r3, #106]
 924:Drivers/STM32F7xx_HAL_Driver/Src/stm32f7xx_hal_uart.c **** 
 885              		.loc 1 924 0
 886 004c 9168     		ldr	r1, [r2, #8]
 921:Drivers/STM32F7xx_HAL_Driver/Src/stm32f7xx_hal_uart.c **** 
 887              		.loc 1 921 0
 888 004e 83F86840 		strb	r4, [r3, #104]
 924:Drivers/STM32F7xx_HAL_Driver/Src/stm32f7xx_hal_uart.c **** 
 889              		.loc 1 924 0
 890 0052 41F00101 		orr	r1, r1, #1
 935:Drivers/STM32F7xx_HAL_Driver/Src/stm32f7xx_hal_uart.c **** 
 891              		.loc 1 935 0
 892 0056 5DF8044B 		ldr	r4, [sp], #4
 893              	.LCFI26:
 894              		.cfi_restore 4
 895              		.cfi_def_cfa_offset 0
 924:Drivers/STM32F7xx_HAL_Driver/Src/stm32f7xx_hal_uart.c **** 
 896              		.loc 1 924 0
 897 005a 9160     		str	r1, [r2, #8]
 927:Drivers/STM32F7xx_HAL_Driver/Src/stm32f7xx_hal_uart.c **** 
 898              		.loc 1 927 0
 899 005c 1368     		ldr	r3, [r2]
ARM GAS  /tmp/cc6CQ8Vx.s 			page 43


 900              	.LVL58:
 901 005e 43F49073 		orr	r3, r3, #288
 902 0062 1360     		str	r3, [r2]
 935:Drivers/STM32F7xx_HAL_Driver/Src/stm32f7xx_hal_uart.c **** 
 903              		.loc 1 935 0
 904 0064 7047     		bx	lr
 905              	.LVL59:
 906              	.L102:
 933:Drivers/STM32F7xx_HAL_Driver/Src/stm32f7xx_hal_uart.c ****   }
 907              		.loc 1 933 0
 908 0066 0220     		movs	r0, #2
 935:Drivers/STM32F7xx_HAL_Driver/Src/stm32f7xx_hal_uart.c **** 
 909              		.loc 1 935 0
 910 0068 7047     		bx	lr
 911              	.L101:
 904:Drivers/STM32F7xx_HAL_Driver/Src/stm32f7xx_hal_uart.c ****     }
 912              		.loc 1 904 0
 913 006a 0120     		movs	r0, #1
 914 006c 7047     		bx	lr
 915              	.L113:
 916              	.LCFI27:
 917              		.cfi_def_cfa_offset 4
 918              		.cfi_offset 4, -4
 915:Drivers/STM32F7xx_HAL_Driver/Src/stm32f7xx_hal_uart.c **** 
 919              		.loc 1 915 0 discriminator 1
 920 006e 1A69     		ldr	r2, [r3, #16]
 921              	.LVL60:
 922 0070 002A     		cmp	r2, #0
 923 0072 E1D1     		bne	.L96
 915:Drivers/STM32F7xx_HAL_Driver/Src/stm32f7xx_hal_uart.c **** 
 924              		.loc 1 915 0 is_stmt 0 discriminator 3
 925 0074 40F2FF12 		movw	r2, #511
 926 0078 A3F85C20 		strh	r2, [r3, #92]	@ movhi
 927 007c DFE7     		b	.L97
 928              	.L99:
 915:Drivers/STM32F7xx_HAL_Driver/Src/stm32f7xx_hal_uart.c **** 
 929              		.loc 1 915 0 discriminator 8
 930 007e 7F22     		movs	r2, #127
 931 0080 A3F85C20 		strh	r2, [r3, #92]	@ movhi
 932 0084 DBE7     		b	.L97
 933              	.LVL61:
 934              	.L98:
 915:Drivers/STM32F7xx_HAL_Driver/Src/stm32f7xx_hal_uart.c **** 
 935              		.loc 1 915 0 discriminator 6
 936 0086 B0F1805F 		cmp	r0, #268435456
 937 008a D8D1     		bne	.L97
 915:Drivers/STM32F7xx_HAL_Driver/Src/stm32f7xx_hal_uart.c **** 
 938              		.loc 1 915 0 discriminator 9
 939 008c 1A69     		ldr	r2, [r3, #16]
 940              	.LVL62:
 941 008e 002A     		cmp	r2, #0
 942 0090 F5D0     		beq	.L99
 915:Drivers/STM32F7xx_HAL_Driver/Src/stm32f7xx_hal_uart.c **** 
 943              		.loc 1 915 0 discriminator 11
 944 0092 3F22     		movs	r2, #63
 945 0094 A3F85C20 		strh	r2, [r3, #92]	@ movhi
 946 0098 D1E7     		b	.L97
ARM GAS  /tmp/cc6CQ8Vx.s 			page 44


 947              		.cfi_endproc
 948              	.LFE149:
 950 009a 00BF     		.section	.text.HAL_UART_Transmit_DMA,"ax",%progbits
 951              		.align	1
 952              		.p2align 2,,3
 953              		.global	HAL_UART_Transmit_DMA
 954              		.syntax unified
 955              		.thumb
 956              		.thumb_func
 957              		.fpu fpv4-sp-d16
 959              	HAL_UART_Transmit_DMA:
 960              	.LFB150:
 945:Drivers/STM32F7xx_HAL_Driver/Src/stm32f7xx_hal_uart.c ****   uint32_t *tmp;
 961              		.loc 1 945 0 is_stmt 1
 962              		.cfi_startproc
 963              		@ args = 0, pretend = 0, frame = 0
 964              		@ frame_needed = 0, uses_anonymous_args = 0
 965              	.LVL63:
 966 0000 F8B5     		push	{r3, r4, r5, r6, r7, lr}
 967              	.LCFI28:
 968              		.cfi_def_cfa_offset 24
 969              		.cfi_offset 3, -24
 970              		.cfi_offset 4, -20
 971              		.cfi_offset 5, -16
 972              		.cfi_offset 6, -12
 973              		.cfi_offset 7, -8
 974              		.cfi_offset 14, -4
 949:Drivers/STM32F7xx_HAL_Driver/Src/stm32f7xx_hal_uart.c ****   {
 975              		.loc 1 949 0
 976 0002 90F86940 		ldrb	r4, [r0, #105]	@ zero_extendqisi2
 977 0006 202C     		cmp	r4, #32
 978 0008 2ED1     		bne	.L118
 951:Drivers/STM32F7xx_HAL_Driver/Src/stm32f7xx_hal_uart.c ****     {
 979              		.loc 1 951 0
 980 000a 79B3     		cbz	r1, .L117
 981 000c B2FA82F5 		clz	r5, r2
 982 0010 6D09     		lsrs	r5, r5, #5
 983 0012 5DBB     		cbnz	r5, .L117
 957:Drivers/STM32F7xx_HAL_Driver/Src/stm32f7xx_hal_uart.c **** 
 984              		.loc 1 957 0
 985 0014 90F86840 		ldrb	r4, [r0, #104]	@ zero_extendqisi2
 986 0018 012C     		cmp	r4, #1
 987 001a 25D0     		beq	.L118
 988 001c 0446     		mov	r4, r0
 957:Drivers/STM32F7xx_HAL_Driver/Src/stm32f7xx_hal_uart.c **** 
 989              		.loc 1 957 0 is_stmt 0 discriminator 2
 990 001e 0126     		movs	r6, #1
 980:Drivers/STM32F7xx_HAL_Driver/Src/stm32f7xx_hal_uart.c **** 
 991              		.loc 1 980 0 is_stmt 1 discriminator 2
 992 0020 1346     		mov	r3, r2
 964:Drivers/STM32F7xx_HAL_Driver/Src/stm32f7xx_hal_uart.c **** 
 993              		.loc 1 964 0 discriminator 2
 994 0022 2120     		movs	r0, #33
 995              	.LVL64:
 961:Drivers/STM32F7xx_HAL_Driver/Src/stm32f7xx_hal_uart.c **** 
 996              		.loc 1 961 0 discriminator 2
 997 0024 A4F85220 		strh	r2, [r4, #82]	@ movhi
ARM GAS  /tmp/cc6CQ8Vx.s 			page 45


 960:Drivers/STM32F7xx_HAL_Driver/Src/stm32f7xx_hal_uart.c ****     huart->TxXferCount = Size;
 998              		.loc 1 960 0 discriminator 2
 999 0028 A4F85020 		strh	r2, [r4, #80]	@ movhi
 957:Drivers/STM32F7xx_HAL_Driver/Src/stm32f7xx_hal_uart.c **** 
 1000              		.loc 1 957 0 discriminator 2
 1001 002c 84F86860 		strb	r6, [r4, #104]
 967:Drivers/STM32F7xx_HAL_Driver/Src/stm32f7xx_hal_uart.c **** 
 1002              		.loc 1 967 0 discriminator 2
 1003 0030 226E     		ldr	r2, [r4, #96]
 1004              	.LVL65:
 1005 0032 0F4E     		ldr	r6, .L120
 963:Drivers/STM32F7xx_HAL_Driver/Src/stm32f7xx_hal_uart.c ****     huart->gState = HAL_UART_STATE_BUSY_TX;
 1006              		.loc 1 963 0 discriminator 2
 1007 0034 E566     		str	r5, [r4, #108]
 1008              	.LVL66:
 959:Drivers/STM32F7xx_HAL_Driver/Src/stm32f7xx_hal_uart.c ****     huart->TxXferSize = Size;
 1009              		.loc 1 959 0 discriminator 2
 1010 0036 E164     		str	r1, [r4, #76]
 964:Drivers/STM32F7xx_HAL_Driver/Src/stm32f7xx_hal_uart.c **** 
 1011              		.loc 1 964 0 discriminator 2
 1012 0038 84F86900 		strb	r0, [r4, #105]
 980:Drivers/STM32F7xx_HAL_Driver/Src/stm32f7xx_hal_uart.c **** 
 1013              		.loc 1 980 0 discriminator 2
 1014 003c 1046     		mov	r0, r2
 967:Drivers/STM32F7xx_HAL_Driver/Src/stm32f7xx_hal_uart.c **** 
 1015              		.loc 1 967 0 discriminator 2
 1016 003e D663     		str	r6, [r2, #60]
 970:Drivers/STM32F7xx_HAL_Driver/Src/stm32f7xx_hal_uart.c **** 
 1017              		.loc 1 970 0 discriminator 2
 1018 0040 0C4F     		ldr	r7, .L120+4
 973:Drivers/STM32F7xx_HAL_Driver/Src/stm32f7xx_hal_uart.c **** 
 1019              		.loc 1 973 0 discriminator 2
 1020 0042 0D4E     		ldr	r6, .L120+8
 976:Drivers/STM32F7xx_HAL_Driver/Src/stm32f7xx_hal_uart.c **** 
 1021              		.loc 1 976 0 discriminator 2
 1022 0044 1565     		str	r5, [r2, #80]
 1023              	.LVL67:
 970:Drivers/STM32F7xx_HAL_Driver/Src/stm32f7xx_hal_uart.c **** 
 1024              		.loc 1 970 0 discriminator 2
 1025 0046 1764     		str	r7, [r2, #64]
 973:Drivers/STM32F7xx_HAL_Driver/Src/stm32f7xx_hal_uart.c **** 
 1026              		.loc 1 973 0 discriminator 2
 1027 0048 D664     		str	r6, [r2, #76]
 980:Drivers/STM32F7xx_HAL_Driver/Src/stm32f7xx_hal_uart.c **** 
 1028              		.loc 1 980 0 discriminator 2
 1029 004a 2268     		ldr	r2, [r4]
 1030 004c 2832     		adds	r2, r2, #40
 1031 004e FFF7FEFF 		bl	HAL_DMA_Start_IT
 1032              	.LVL68:
 983:Drivers/STM32F7xx_HAL_Driver/Src/stm32f7xx_hal_uart.c **** 
 1033              		.loc 1 983 0 discriminator 2
 1034 0052 2368     		ldr	r3, [r4]
 1035 0054 4022     		movs	r2, #64
 992:Drivers/STM32F7xx_HAL_Driver/Src/stm32f7xx_hal_uart.c ****   }
 1036              		.loc 1 992 0 discriminator 2
 1037 0056 2846     		mov	r0, r5
 983:Drivers/STM32F7xx_HAL_Driver/Src/stm32f7xx_hal_uart.c **** 
ARM GAS  /tmp/cc6CQ8Vx.s 			page 46


 1038              		.loc 1 983 0 discriminator 2
 1039 0058 1A62     		str	r2, [r3, #32]
 990:Drivers/STM32F7xx_HAL_Driver/Src/stm32f7xx_hal_uart.c **** 
 1040              		.loc 1 990 0 discriminator 2
 1041 005a 9A68     		ldr	r2, [r3, #8]
 986:Drivers/STM32F7xx_HAL_Driver/Src/stm32f7xx_hal_uart.c **** 
 1042              		.loc 1 986 0 discriminator 2
 1043 005c 84F86850 		strb	r5, [r4, #104]
 990:Drivers/STM32F7xx_HAL_Driver/Src/stm32f7xx_hal_uart.c **** 
 1044              		.loc 1 990 0 discriminator 2
 1045 0060 42F08002 		orr	r2, r2, #128
 1046 0064 9A60     		str	r2, [r3, #8]
 998:Drivers/STM32F7xx_HAL_Driver/Src/stm32f7xx_hal_uart.c **** 
 1047              		.loc 1 998 0 discriminator 2
 1048 0066 F8BD     		pop	{r3, r4, r5, r6, r7, pc}
 1049              	.LVL69:
 1050              	.L118:
 996:Drivers/STM32F7xx_HAL_Driver/Src/stm32f7xx_hal_uart.c ****   }
 1051              		.loc 1 996 0
 1052 0068 0220     		movs	r0, #2
 1053              	.LVL70:
 998:Drivers/STM32F7xx_HAL_Driver/Src/stm32f7xx_hal_uart.c **** 
 1054              		.loc 1 998 0
 1055 006a F8BD     		pop	{r3, r4, r5, r6, r7, pc}
 1056              	.LVL71:
 1057              	.L117:
 953:Drivers/STM32F7xx_HAL_Driver/Src/stm32f7xx_hal_uart.c ****     }
 1058              		.loc 1 953 0
 1059 006c 0120     		movs	r0, #1
 1060              	.LVL72:
 998:Drivers/STM32F7xx_HAL_Driver/Src/stm32f7xx_hal_uart.c **** 
 1061              		.loc 1 998 0
 1062 006e F8BD     		pop	{r3, r4, r5, r6, r7, pc}
 1063              	.L121:
 1064              		.align	2
 1065              	.L120:
 1066 0070 00000000 		.word	UART_DMATransmitCplt
 1067 0074 00000000 		.word	UART_DMATxHalfCplt
 1068 0078 00000000 		.word	UART_DMAError
 1069              		.cfi_endproc
 1070              	.LFE150:
 1072              		.section	.text.HAL_UART_Receive_DMA,"ax",%progbits
 1073              		.align	1
 1074              		.p2align 2,,3
 1075              		.global	HAL_UART_Receive_DMA
 1076              		.syntax unified
 1077              		.thumb
 1078              		.thumb_func
 1079              		.fpu fpv4-sp-d16
 1081              	HAL_UART_Receive_DMA:
 1082              	.LFB151:
1010:Drivers/STM32F7xx_HAL_Driver/Src/stm32f7xx_hal_uart.c ****   uint32_t *tmp;
 1083              		.loc 1 1010 0
 1084              		.cfi_startproc
 1085              		@ args = 0, pretend = 0, frame = 0
 1086              		@ frame_needed = 0, uses_anonymous_args = 0
 1087              	.LVL73:
ARM GAS  /tmp/cc6CQ8Vx.s 			page 47


 1088 0000 F8B5     		push	{r3, r4, r5, r6, r7, lr}
 1089              	.LCFI29:
 1090              		.cfi_def_cfa_offset 24
 1091              		.cfi_offset 3, -24
 1092              		.cfi_offset 4, -20
 1093              		.cfi_offset 5, -16
 1094              		.cfi_offset 6, -12
 1095              		.cfi_offset 7, -8
 1096              		.cfi_offset 14, -4
1014:Drivers/STM32F7xx_HAL_Driver/Src/stm32f7xx_hal_uart.c ****   {
 1097              		.loc 1 1014 0
 1098 0002 90F86A30 		ldrb	r3, [r0, #106]	@ zero_extendqisi2
 1099 0006 202B     		cmp	r3, #32
 1100 0008 35D1     		bne	.L126
1016:Drivers/STM32F7xx_HAL_Driver/Src/stm32f7xx_hal_uart.c ****     {
 1101              		.loc 1 1016 0
 1102 000a 0029     		cmp	r1, #0
 1103 000c 35D0     		beq	.L125
 1104 000e B2FA82F5 		clz	r5, r2
 1105 0012 6D09     		lsrs	r5, r5, #5
 1106 0014 002D     		cmp	r5, #0
 1107 0016 30D1     		bne	.L125
1022:Drivers/STM32F7xx_HAL_Driver/Src/stm32f7xx_hal_uart.c **** 
 1108              		.loc 1 1022 0
 1109 0018 90F86830 		ldrb	r3, [r0, #104]	@ zero_extendqisi2
 1110 001c 012B     		cmp	r3, #1
 1111 001e 2AD0     		beq	.L126
 1112 0020 0446     		mov	r4, r0
 1113 0022 1346     		mov	r3, r2
 1114 0024 0A46     		mov	r2, r1
 1115              	.LVL74:
1028:Drivers/STM32F7xx_HAL_Driver/Src/stm32f7xx_hal_uart.c **** 
 1116              		.loc 1 1028 0 discriminator 2
 1117 0026 2221     		movs	r1, #34
 1118              	.LVL75:
1031:Drivers/STM32F7xx_HAL_Driver/Src/stm32f7xx_hal_uart.c **** 
 1119              		.loc 1 1031 0 discriminator 2
 1120 0028 666E     		ldr	r6, [r4, #100]
1022:Drivers/STM32F7xx_HAL_Driver/Src/stm32f7xx_hal_uart.c **** 
 1121              		.loc 1 1022 0 discriminator 2
 1122 002a 0120     		movs	r0, #1
 1123              	.LVL76:
1027:Drivers/STM32F7xx_HAL_Driver/Src/stm32f7xx_hal_uart.c ****     huart->RxState = HAL_UART_STATE_BUSY_RX;
 1124              		.loc 1 1027 0 discriminator 2
 1125 002c E566     		str	r5, [r4, #108]
1031:Drivers/STM32F7xx_HAL_Driver/Src/stm32f7xx_hal_uart.c **** 
 1126              		.loc 1 1031 0 discriminator 2
 1127 002e 144F     		ldr	r7, .L128
1028:Drivers/STM32F7xx_HAL_Driver/Src/stm32f7xx_hal_uart.c **** 
 1128              		.loc 1 1028 0 discriminator 2
 1129 0030 84F86A10 		strb	r1, [r4, #106]
1034:Drivers/STM32F7xx_HAL_Driver/Src/stm32f7xx_hal_uart.c **** 
 1130              		.loc 1 1034 0 discriminator 2
 1131 0034 1349     		ldr	r1, .L128+4
1024:Drivers/STM32F7xx_HAL_Driver/Src/stm32f7xx_hal_uart.c ****     huart->RxXferSize = Size;
 1132              		.loc 1 1024 0 discriminator 2
 1133 0036 6265     		str	r2, [r4, #84]
ARM GAS  /tmp/cc6CQ8Vx.s 			page 48


1025:Drivers/STM32F7xx_HAL_Driver/Src/stm32f7xx_hal_uart.c **** 
 1134              		.loc 1 1025 0 discriminator 2
 1135 0038 A4F85830 		strh	r3, [r4, #88]	@ movhi
1022:Drivers/STM32F7xx_HAL_Driver/Src/stm32f7xx_hal_uart.c **** 
 1136              		.loc 1 1022 0 discriminator 2
 1137 003c 84F86800 		strb	r0, [r4, #104]
1044:Drivers/STM32F7xx_HAL_Driver/Src/stm32f7xx_hal_uart.c **** 
 1138              		.loc 1 1044 0 discriminator 2
 1139 0040 3046     		mov	r0, r6
1040:Drivers/STM32F7xx_HAL_Driver/Src/stm32f7xx_hal_uart.c **** 
 1140              		.loc 1 1040 0 discriminator 2
 1141 0042 3565     		str	r5, [r6, #80]
 1142              	.LVL77:
1034:Drivers/STM32F7xx_HAL_Driver/Src/stm32f7xx_hal_uart.c **** 
 1143              		.loc 1 1034 0 discriminator 2
 1144 0044 C6E90F71 		strd	r7, r1, [r6, #60]
1044:Drivers/STM32F7xx_HAL_Driver/Src/stm32f7xx_hal_uart.c **** 
 1145              		.loc 1 1044 0 discriminator 2
 1146 0048 2168     		ldr	r1, [r4]
1037:Drivers/STM32F7xx_HAL_Driver/Src/stm32f7xx_hal_uart.c **** 
 1147              		.loc 1 1037 0 discriminator 2
 1148 004a 0F4F     		ldr	r7, .L128+8
1044:Drivers/STM32F7xx_HAL_Driver/Src/stm32f7xx_hal_uart.c **** 
 1149              		.loc 1 1044 0 discriminator 2
 1150 004c 2431     		adds	r1, r1, #36
1037:Drivers/STM32F7xx_HAL_Driver/Src/stm32f7xx_hal_uart.c **** 
 1151              		.loc 1 1037 0 discriminator 2
 1152 004e F764     		str	r7, [r6, #76]
1044:Drivers/STM32F7xx_HAL_Driver/Src/stm32f7xx_hal_uart.c **** 
 1153              		.loc 1 1044 0 discriminator 2
 1154 0050 FFF7FEFF 		bl	HAL_DMA_Start_IT
 1155              	.LVL78:
1050:Drivers/STM32F7xx_HAL_Driver/Src/stm32f7xx_hal_uart.c **** 
 1156              		.loc 1 1050 0 discriminator 2
 1157 0054 2368     		ldr	r3, [r4]
1047:Drivers/STM32F7xx_HAL_Driver/Src/stm32f7xx_hal_uart.c **** 
 1158              		.loc 1 1047 0 discriminator 2
 1159 0056 84F86850 		strb	r5, [r4, #104]
1059:Drivers/STM32F7xx_HAL_Driver/Src/stm32f7xx_hal_uart.c ****   }
 1160              		.loc 1 1059 0 discriminator 2
 1161 005a 2846     		mov	r0, r5
1050:Drivers/STM32F7xx_HAL_Driver/Src/stm32f7xx_hal_uart.c **** 
 1162              		.loc 1 1050 0 discriminator 2
 1163 005c 1A68     		ldr	r2, [r3]
 1164 005e 42F48072 		orr	r2, r2, #256
 1165 0062 1A60     		str	r2, [r3]
1053:Drivers/STM32F7xx_HAL_Driver/Src/stm32f7xx_hal_uart.c **** 
 1166              		.loc 1 1053 0 discriminator 2
 1167 0064 9A68     		ldr	r2, [r3, #8]
 1168 0066 42F00102 		orr	r2, r2, #1
 1169 006a 9A60     		str	r2, [r3, #8]
1057:Drivers/STM32F7xx_HAL_Driver/Src/stm32f7xx_hal_uart.c **** 
 1170              		.loc 1 1057 0 discriminator 2
 1171 006c 9A68     		ldr	r2, [r3, #8]
 1172 006e 42F04002 		orr	r2, r2, #64
 1173 0072 9A60     		str	r2, [r3, #8]
1065:Drivers/STM32F7xx_HAL_Driver/Src/stm32f7xx_hal_uart.c **** 
ARM GAS  /tmp/cc6CQ8Vx.s 			page 49


 1174              		.loc 1 1065 0 discriminator 2
 1175 0074 F8BD     		pop	{r3, r4, r5, r6, r7, pc}
 1176              	.LVL79:
 1177              	.L126:
1063:Drivers/STM32F7xx_HAL_Driver/Src/stm32f7xx_hal_uart.c ****   }
 1178              		.loc 1 1063 0
 1179 0076 0220     		movs	r0, #2
 1180              	.LVL80:
1065:Drivers/STM32F7xx_HAL_Driver/Src/stm32f7xx_hal_uart.c **** 
 1181              		.loc 1 1065 0
 1182 0078 F8BD     		pop	{r3, r4, r5, r6, r7, pc}
 1183              	.LVL81:
 1184              	.L125:
1018:Drivers/STM32F7xx_HAL_Driver/Src/stm32f7xx_hal_uart.c ****     }
 1185              		.loc 1 1018 0
 1186 007a 0120     		movs	r0, #1
 1187              	.LVL82:
1065:Drivers/STM32F7xx_HAL_Driver/Src/stm32f7xx_hal_uart.c **** 
 1188              		.loc 1 1065 0
 1189 007c F8BD     		pop	{r3, r4, r5, r6, r7, pc}
 1190              	.L129:
 1191 007e 00BF     		.align	2
 1192              	.L128:
 1193 0080 00000000 		.word	UART_DMAReceiveCplt
 1194 0084 00000000 		.word	UART_DMARxHalfCplt
 1195 0088 00000000 		.word	UART_DMAError
 1196              		.cfi_endproc
 1197              	.LFE151:
 1199              		.section	.text.HAL_UART_DMAPause,"ax",%progbits
 1200              		.align	1
 1201              		.p2align 2,,3
 1202              		.global	HAL_UART_DMAPause
 1203              		.syntax unified
 1204              		.thumb
 1205              		.thumb_func
 1206              		.fpu fpv4-sp-d16
 1208              	HAL_UART_DMAPause:
 1209              	.LFB152:
1073:Drivers/STM32F7xx_HAL_Driver/Src/stm32f7xx_hal_uart.c ****   /* Process Locked */
 1210              		.loc 1 1073 0
 1211              		.cfi_startproc
 1212              		@ args = 0, pretend = 0, frame = 0
 1213              		@ frame_needed = 0, uses_anonymous_args = 0
 1214              		@ link register save eliminated.
 1215              	.LVL83:
1075:Drivers/STM32F7xx_HAL_Driver/Src/stm32f7xx_hal_uart.c **** 
 1216              		.loc 1 1075 0
 1217 0000 90F86830 		ldrb	r3, [r0, #104]	@ zero_extendqisi2
 1218 0004 012B     		cmp	r3, #1
 1219 0006 30D0     		beq	.L134
1077:Drivers/STM32F7xx_HAL_Driver/Src/stm32f7xx_hal_uart.c ****       (HAL_IS_BIT_SET(huart->Instance->CR3, USART_CR3_DMAT)))
 1220              		.loc 1 1077 0 discriminator 2
 1221 0008 90F86930 		ldrb	r3, [r0, #105]	@ zero_extendqisi2
1075:Drivers/STM32F7xx_HAL_Driver/Src/stm32f7xx_hal_uart.c **** 
 1222              		.loc 1 1075 0 discriminator 2
 1223 000c 0122     		movs	r2, #1
1077:Drivers/STM32F7xx_HAL_Driver/Src/stm32f7xx_hal_uart.c ****       (HAL_IS_BIT_SET(huart->Instance->CR3, USART_CR3_DMAT)))
ARM GAS  /tmp/cc6CQ8Vx.s 			page 50


 1224              		.loc 1 1077 0 discriminator 2
 1225 000e 212B     		cmp	r3, #33
1075:Drivers/STM32F7xx_HAL_Driver/Src/stm32f7xx_hal_uart.c **** 
 1226              		.loc 1 1075 0 discriminator 2
 1227 0010 80F86820 		strb	r2, [r0, #104]
1077:Drivers/STM32F7xx_HAL_Driver/Src/stm32f7xx_hal_uart.c ****       (HAL_IS_BIT_SET(huart->Instance->CR3, USART_CR3_DMAT)))
 1228              		.loc 1 1077 0 discriminator 2
 1229 0014 08D0     		beq	.L141
 1230              	.L132:
1083:Drivers/STM32F7xx_HAL_Driver/Src/stm32f7xx_hal_uart.c ****       (HAL_IS_BIT_SET(huart->Instance->CR3, USART_CR3_DMAR)))
 1231              		.loc 1 1083 0
 1232 0016 90F86A30 		ldrb	r3, [r0, #106]	@ zero_extendqisi2
 1233 001a 222B     		cmp	r3, #34
 1234 001c 10D0     		beq	.L142
 1235              	.L133:
1095:Drivers/STM32F7xx_HAL_Driver/Src/stm32f7xx_hal_uart.c **** 
 1236              		.loc 1 1095 0
 1237 001e 0023     		movs	r3, #0
 1238 0020 80F86830 		strb	r3, [r0, #104]
1097:Drivers/STM32F7xx_HAL_Driver/Src/stm32f7xx_hal_uart.c **** }
 1239              		.loc 1 1097 0
 1240 0024 1846     		mov	r0, r3
 1241              	.LVL84:
 1242 0026 7047     		bx	lr
 1243              	.LVL85:
 1244              	.L141:
1078:Drivers/STM32F7xx_HAL_Driver/Src/stm32f7xx_hal_uart.c ****   {
 1245              		.loc 1 1078 0 discriminator 1
 1246 0028 0368     		ldr	r3, [r0]
 1247 002a 9A68     		ldr	r2, [r3, #8]
1077:Drivers/STM32F7xx_HAL_Driver/Src/stm32f7xx_hal_uart.c ****       (HAL_IS_BIT_SET(huart->Instance->CR3, USART_CR3_DMAT)))
 1248              		.loc 1 1077 0 discriminator 1
 1249 002c 1106     		lsls	r1, r2, #24
 1250 002e F2D5     		bpl	.L132
1081:Drivers/STM32F7xx_HAL_Driver/Src/stm32f7xx_hal_uart.c ****   }
 1251              		.loc 1 1081 0
 1252 0030 9A68     		ldr	r2, [r3, #8]
 1253 0032 22F08002 		bic	r2, r2, #128
 1254 0036 9A60     		str	r2, [r3, #8]
1083:Drivers/STM32F7xx_HAL_Driver/Src/stm32f7xx_hal_uart.c ****       (HAL_IS_BIT_SET(huart->Instance->CR3, USART_CR3_DMAR)))
 1255              		.loc 1 1083 0
 1256 0038 90F86A30 		ldrb	r3, [r0, #106]	@ zero_extendqisi2
 1257 003c 222B     		cmp	r3, #34
 1258 003e EED1     		bne	.L133
 1259              	.L142:
1084:Drivers/STM32F7xx_HAL_Driver/Src/stm32f7xx_hal_uart.c ****   {
 1260              		.loc 1 1084 0 discriminator 1
 1261 0040 0368     		ldr	r3, [r0]
 1262 0042 9A68     		ldr	r2, [r3, #8]
1083:Drivers/STM32F7xx_HAL_Driver/Src/stm32f7xx_hal_uart.c ****       (HAL_IS_BIT_SET(huart->Instance->CR3, USART_CR3_DMAR)))
 1263              		.loc 1 1083 0 discriminator 1
 1264 0044 5206     		lsls	r2, r2, #25
 1265 0046 EAD5     		bpl	.L133
1087:Drivers/STM32F7xx_HAL_Driver/Src/stm32f7xx_hal_uart.c ****     CLEAR_BIT(huart->Instance->CR3, USART_CR3_EIE);
 1266              		.loc 1 1087 0
 1267 0048 1A68     		ldr	r2, [r3]
 1268 004a 22F48072 		bic	r2, r2, #256
ARM GAS  /tmp/cc6CQ8Vx.s 			page 51


 1269 004e 1A60     		str	r2, [r3]
1088:Drivers/STM32F7xx_HAL_Driver/Src/stm32f7xx_hal_uart.c **** 
 1270              		.loc 1 1088 0
 1271 0050 9A68     		ldr	r2, [r3, #8]
 1272 0052 22F00102 		bic	r2, r2, #1
 1273 0056 9A60     		str	r2, [r3, #8]
1091:Drivers/STM32F7xx_HAL_Driver/Src/stm32f7xx_hal_uart.c ****   }
 1274              		.loc 1 1091 0
 1275 0058 9A68     		ldr	r2, [r3, #8]
 1276 005a 22F04002 		bic	r2, r2, #64
 1277 005e 9A60     		str	r2, [r3, #8]
1095:Drivers/STM32F7xx_HAL_Driver/Src/stm32f7xx_hal_uart.c **** 
 1278              		.loc 1 1095 0
 1279 0060 0023     		movs	r3, #0
 1280 0062 80F86830 		strb	r3, [r0, #104]
1097:Drivers/STM32F7xx_HAL_Driver/Src/stm32f7xx_hal_uart.c **** }
 1281              		.loc 1 1097 0
 1282 0066 1846     		mov	r0, r3
 1283              	.LVL86:
 1284 0068 7047     		bx	lr
 1285              	.LVL87:
 1286              	.L134:
1075:Drivers/STM32F7xx_HAL_Driver/Src/stm32f7xx_hal_uart.c **** 
 1287              		.loc 1 1075 0
 1288 006a 0220     		movs	r0, #2
 1289              	.LVL88:
1098:Drivers/STM32F7xx_HAL_Driver/Src/stm32f7xx_hal_uart.c **** 
 1290              		.loc 1 1098 0
 1291 006c 7047     		bx	lr
 1292              		.cfi_endproc
 1293              	.LFE152:
 1295 006e 00BF     		.section	.text.HAL_UART_DMAResume,"ax",%progbits
 1296              		.align	1
 1297              		.p2align 2,,3
 1298              		.global	HAL_UART_DMAResume
 1299              		.syntax unified
 1300              		.thumb
 1301              		.thumb_func
 1302              		.fpu fpv4-sp-d16
 1304              	HAL_UART_DMAResume:
 1305              	.LFB153:
1106:Drivers/STM32F7xx_HAL_Driver/Src/stm32f7xx_hal_uart.c ****   /* Process Locked */
 1306              		.loc 1 1106 0
 1307              		.cfi_startproc
 1308              		@ args = 0, pretend = 0, frame = 0
 1309              		@ frame_needed = 0, uses_anonymous_args = 0
 1310              		@ link register save eliminated.
 1311              	.LVL89:
1108:Drivers/STM32F7xx_HAL_Driver/Src/stm32f7xx_hal_uart.c **** 
 1312              		.loc 1 1108 0
 1313 0000 90F86830 		ldrb	r3, [r0, #104]	@ zero_extendqisi2
 1314 0004 012B     		cmp	r3, #1
 1315 0006 28D0     		beq	.L147
1110:Drivers/STM32F7xx_HAL_Driver/Src/stm32f7xx_hal_uart.c ****   {
 1316              		.loc 1 1110 0 discriminator 2
 1317 0008 90F86920 		ldrb	r2, [r0, #105]	@ zero_extendqisi2
1108:Drivers/STM32F7xx_HAL_Driver/Src/stm32f7xx_hal_uart.c **** 
ARM GAS  /tmp/cc6CQ8Vx.s 			page 52


 1318              		.loc 1 1108 0 discriminator 2
 1319 000c 0121     		movs	r1, #1
 1320 000e 0368     		ldr	r3, [r0]
1110:Drivers/STM32F7xx_HAL_Driver/Src/stm32f7xx_hal_uart.c ****   {
 1321              		.loc 1 1110 0 discriminator 2
 1322 0010 212A     		cmp	r2, #33
1108:Drivers/STM32F7xx_HAL_Driver/Src/stm32f7xx_hal_uart.c **** 
 1323              		.loc 1 1108 0 discriminator 2
 1324 0012 80F86810 		strb	r1, [r0, #104]
1110:Drivers/STM32F7xx_HAL_Driver/Src/stm32f7xx_hal_uart.c ****   {
 1325              		.loc 1 1110 0 discriminator 2
 1326 0016 03D1     		bne	.L145
1113:Drivers/STM32F7xx_HAL_Driver/Src/stm32f7xx_hal_uart.c ****   }
 1327              		.loc 1 1113 0
 1328 0018 9A68     		ldr	r2, [r3, #8]
 1329 001a 42F08002 		orr	r2, r2, #128
 1330 001e 9A60     		str	r2, [r3, #8]
 1331              	.L145:
1115:Drivers/STM32F7xx_HAL_Driver/Src/stm32f7xx_hal_uart.c ****   {
 1332              		.loc 1 1115 0
 1333 0020 90F86A20 		ldrb	r2, [r0, #106]	@ zero_extendqisi2
 1334 0024 222A     		cmp	r2, #34
 1335 0026 0DD1     		bne	.L146
1118:Drivers/STM32F7xx_HAL_Driver/Src/stm32f7xx_hal_uart.c **** 
 1336              		.loc 1 1118 0
 1337 0028 0822     		movs	r2, #8
 1338 002a 1A62     		str	r2, [r3, #32]
1121:Drivers/STM32F7xx_HAL_Driver/Src/stm32f7xx_hal_uart.c ****     SET_BIT(huart->Instance->CR3, USART_CR3_EIE);
 1339              		.loc 1 1121 0
 1340 002c 1A68     		ldr	r2, [r3]
 1341 002e 42F48072 		orr	r2, r2, #256
 1342 0032 1A60     		str	r2, [r3]
1122:Drivers/STM32F7xx_HAL_Driver/Src/stm32f7xx_hal_uart.c **** 
 1343              		.loc 1 1122 0
 1344 0034 9A68     		ldr	r2, [r3, #8]
 1345 0036 42F00102 		orr	r2, r2, #1
 1346 003a 9A60     		str	r2, [r3, #8]
1125:Drivers/STM32F7xx_HAL_Driver/Src/stm32f7xx_hal_uart.c ****   }
 1347              		.loc 1 1125 0
 1348 003c 9A68     		ldr	r2, [r3, #8]
 1349 003e 42F04002 		orr	r2, r2, #64
 1350 0042 9A60     		str	r2, [r3, #8]
 1351              	.L146:
1129:Drivers/STM32F7xx_HAL_Driver/Src/stm32f7xx_hal_uart.c ****   {
 1352              		.loc 1 1129 0
 1353 0044 1868     		ldr	r0, [r3]
 1354              	.LVL90:
 1355 0046 10F00100 		ands	r0, r0, #1
 1356 004a 04D1     		bne	.L148
1132:Drivers/STM32F7xx_HAL_Driver/Src/stm32f7xx_hal_uart.c ****   }
 1357              		.loc 1 1132 0
 1358 004c 1A68     		ldr	r2, [r3]
 1359 004e 42F00102 		orr	r2, r2, #1
 1360 0052 1A60     		str	r2, [r3]
 1361 0054 7047     		bx	lr
 1362              	.L148:
1135:Drivers/STM32F7xx_HAL_Driver/Src/stm32f7xx_hal_uart.c **** }
ARM GAS  /tmp/cc6CQ8Vx.s 			page 53


 1363              		.loc 1 1135 0
 1364 0056 0020     		movs	r0, #0
1136:Drivers/STM32F7xx_HAL_Driver/Src/stm32f7xx_hal_uart.c **** 
 1365              		.loc 1 1136 0
 1366 0058 7047     		bx	lr
 1367              	.LVL91:
 1368              	.L147:
1108:Drivers/STM32F7xx_HAL_Driver/Src/stm32f7xx_hal_uart.c **** 
 1369              		.loc 1 1108 0
 1370 005a 0220     		movs	r0, #2
 1371              	.LVL92:
 1372 005c 7047     		bx	lr
 1373              		.cfi_endproc
 1374              	.LFE153:
 1376 005e 00BF     		.section	.text.HAL_UART_DMAStop,"ax",%progbits
 1377              		.align	1
 1378              		.p2align 2,,3
 1379              		.global	HAL_UART_DMAStop
 1380              		.syntax unified
 1381              		.thumb
 1382              		.thumb_func
 1383              		.fpu fpv4-sp-d16
 1385              	HAL_UART_DMAStop:
 1386              	.LFB154:
1144:Drivers/STM32F7xx_HAL_Driver/Src/stm32f7xx_hal_uart.c ****   /* The Lock is not implemented on this API to allow the user application
 1387              		.loc 1 1144 0
 1388              		.cfi_startproc
 1389              		@ args = 0, pretend = 0, frame = 0
 1390              		@ frame_needed = 0, uses_anonymous_args = 0
 1391              	.LVL93:
1153:Drivers/STM32F7xx_HAL_Driver/Src/stm32f7xx_hal_uart.c ****       (HAL_IS_BIT_SET(huart->Instance->CR3, USART_CR3_DMAT)))
 1392              		.loc 1 1153 0
 1393 0000 90F86930 		ldrb	r3, [r0, #105]	@ zero_extendqisi2
 1394 0004 212B     		cmp	r3, #33
1144:Drivers/STM32F7xx_HAL_Driver/Src/stm32f7xx_hal_uart.c ****   /* The Lock is not implemented on this API to allow the user application
 1395              		.loc 1 1144 0
 1396 0006 10B5     		push	{r4, lr}
 1397              	.LCFI30:
 1398              		.cfi_def_cfa_offset 8
 1399              		.cfi_offset 4, -8
 1400              		.cfi_offset 14, -4
1144:Drivers/STM32F7xx_HAL_Driver/Src/stm32f7xx_hal_uart.c ****   /* The Lock is not implemented on this API to allow the user application
 1401              		.loc 1 1144 0
 1402 0008 0446     		mov	r4, r0
1153:Drivers/STM32F7xx_HAL_Driver/Src/stm32f7xx_hal_uart.c ****       (HAL_IS_BIT_SET(huart->Instance->CR3, USART_CR3_DMAT)))
 1403              		.loc 1 1153 0
 1404 000a 1FD0     		beq	.L167
 1405              	.LVL94:
 1406              	.L150:
1168:Drivers/STM32F7xx_HAL_Driver/Src/stm32f7xx_hal_uart.c ****       (HAL_IS_BIT_SET(huart->Instance->CR3, USART_CR3_DMAR)))
 1407              		.loc 1 1168 0
 1408 000c 94F86A30 		ldrb	r3, [r4, #106]	@ zero_extendqisi2
 1409 0010 222B     		cmp	r3, #34
 1410 0012 01D0     		beq	.L168
 1411              	.L152:
1183:Drivers/STM32F7xx_HAL_Driver/Src/stm32f7xx_hal_uart.c **** 
 1412              		.loc 1 1183 0
ARM GAS  /tmp/cc6CQ8Vx.s 			page 54


 1413 0014 0020     		movs	r0, #0
 1414 0016 10BD     		pop	{r4, pc}
 1415              	.LVL95:
 1416              	.L168:
1169:Drivers/STM32F7xx_HAL_Driver/Src/stm32f7xx_hal_uart.c ****   {
 1417              		.loc 1 1169 0 discriminator 1
 1418 0018 2368     		ldr	r3, [r4]
 1419 001a 9A68     		ldr	r2, [r3, #8]
1168:Drivers/STM32F7xx_HAL_Driver/Src/stm32f7xx_hal_uart.c ****       (HAL_IS_BIT_SET(huart->Instance->CR3, USART_CR3_DMAR)))
 1420              		.loc 1 1168 0 discriminator 1
 1421 001c 5206     		lsls	r2, r2, #25
 1422 001e F9D5     		bpl	.L152
1171:Drivers/STM32F7xx_HAL_Driver/Src/stm32f7xx_hal_uart.c **** 
 1423              		.loc 1 1171 0
 1424 0020 9A68     		ldr	r2, [r3, #8]
1174:Drivers/STM32F7xx_HAL_Driver/Src/stm32f7xx_hal_uart.c ****     {
 1425              		.loc 1 1174 0
 1426 0022 606E     		ldr	r0, [r4, #100]
1171:Drivers/STM32F7xx_HAL_Driver/Src/stm32f7xx_hal_uart.c **** 
 1427              		.loc 1 1171 0
 1428 0024 22F04002 		bic	r2, r2, #64
 1429 0028 9A60     		str	r2, [r3, #8]
1174:Drivers/STM32F7xx_HAL_Driver/Src/stm32f7xx_hal_uart.c ****     {
 1430              		.loc 1 1174 0
 1431 002a 10B1     		cbz	r0, .L153
1176:Drivers/STM32F7xx_HAL_Driver/Src/stm32f7xx_hal_uart.c ****     }
 1432              		.loc 1 1176 0
 1433 002c FFF7FEFF 		bl	HAL_DMA_Abort
 1434              	.LVL96:
 1435 0030 2368     		ldr	r3, [r4]
 1436              	.L153:
 1437              	.LVL97:
 1438              	.LBB52:
 1439              	.LBB53:
1354:Drivers/STM32F7xx_HAL_Driver/Src/stm32f7xx_hal_uart.c ****         return HAL_TIMEOUT;
1355:Drivers/STM32F7xx_HAL_Driver/Src/stm32f7xx_hal_uart.c ****       }
1356:Drivers/STM32F7xx_HAL_Driver/Src/stm32f7xx_hal_uart.c ****     }
1357:Drivers/STM32F7xx_HAL_Driver/Src/stm32f7xx_hal_uart.c ****   }
1358:Drivers/STM32F7xx_HAL_Driver/Src/stm32f7xx_hal_uart.c ****   return HAL_OK;
1359:Drivers/STM32F7xx_HAL_Driver/Src/stm32f7xx_hal_uart.c **** }
1360:Drivers/STM32F7xx_HAL_Driver/Src/stm32f7xx_hal_uart.c **** 
1361:Drivers/STM32F7xx_HAL_Driver/Src/stm32f7xx_hal_uart.c **** /**
1362:Drivers/STM32F7xx_HAL_Driver/Src/stm32f7xx_hal_uart.c ****   * @brief DMA UART transmit process complete callback
1363:Drivers/STM32F7xx_HAL_Driver/Src/stm32f7xx_hal_uart.c ****   * @param hdma DMA handle
1364:Drivers/STM32F7xx_HAL_Driver/Src/stm32f7xx_hal_uart.c ****   * @retval None
1365:Drivers/STM32F7xx_HAL_Driver/Src/stm32f7xx_hal_uart.c ****   */
1366:Drivers/STM32F7xx_HAL_Driver/Src/stm32f7xx_hal_uart.c **** static void UART_DMATransmitCplt(DMA_HandleTypeDef *hdma)
1367:Drivers/STM32F7xx_HAL_Driver/Src/stm32f7xx_hal_uart.c **** {
1368:Drivers/STM32F7xx_HAL_Driver/Src/stm32f7xx_hal_uart.c ****   UART_HandleTypeDef* huart = ( UART_HandleTypeDef* )((DMA_HandleTypeDef* )hdma)->Parent;
1369:Drivers/STM32F7xx_HAL_Driver/Src/stm32f7xx_hal_uart.c **** 
1370:Drivers/STM32F7xx_HAL_Driver/Src/stm32f7xx_hal_uart.c ****   /* DMA Normal mode*/
1371:Drivers/STM32F7xx_HAL_Driver/Src/stm32f7xx_hal_uart.c ****   if((hdma->Instance->CR & DMA_SxCR_CIRC) == 0U)
1372:Drivers/STM32F7xx_HAL_Driver/Src/stm32f7xx_hal_uart.c ****   {
1373:Drivers/STM32F7xx_HAL_Driver/Src/stm32f7xx_hal_uart.c ****     huart->TxXferCount = 0U;
1374:Drivers/STM32F7xx_HAL_Driver/Src/stm32f7xx_hal_uart.c **** 
1375:Drivers/STM32F7xx_HAL_Driver/Src/stm32f7xx_hal_uart.c ****     /* Disable the DMA transfer for transmit request by setting the DMAT bit
1376:Drivers/STM32F7xx_HAL_Driver/Src/stm32f7xx_hal_uart.c ****        in the UART CR3 register */
ARM GAS  /tmp/cc6CQ8Vx.s 			page 55


1377:Drivers/STM32F7xx_HAL_Driver/Src/stm32f7xx_hal_uart.c ****     CLEAR_BIT(huart->Instance->CR3, USART_CR3_DMAT);
1378:Drivers/STM32F7xx_HAL_Driver/Src/stm32f7xx_hal_uart.c **** 
1379:Drivers/STM32F7xx_HAL_Driver/Src/stm32f7xx_hal_uart.c ****     /* Enable the UART Transmit Complete Interrupt */
1380:Drivers/STM32F7xx_HAL_Driver/Src/stm32f7xx_hal_uart.c ****     SET_BIT(huart->Instance->CR1, USART_CR1_TCIE);
1381:Drivers/STM32F7xx_HAL_Driver/Src/stm32f7xx_hal_uart.c ****   }
1382:Drivers/STM32F7xx_HAL_Driver/Src/stm32f7xx_hal_uart.c ****   /* DMA Circular mode */
1383:Drivers/STM32F7xx_HAL_Driver/Src/stm32f7xx_hal_uart.c ****   else
1384:Drivers/STM32F7xx_HAL_Driver/Src/stm32f7xx_hal_uart.c ****   {
1385:Drivers/STM32F7xx_HAL_Driver/Src/stm32f7xx_hal_uart.c ****     HAL_UART_TxCpltCallback(huart);
1386:Drivers/STM32F7xx_HAL_Driver/Src/stm32f7xx_hal_uart.c ****   }
1387:Drivers/STM32F7xx_HAL_Driver/Src/stm32f7xx_hal_uart.c **** }
1388:Drivers/STM32F7xx_HAL_Driver/Src/stm32f7xx_hal_uart.c **** 
1389:Drivers/STM32F7xx_HAL_Driver/Src/stm32f7xx_hal_uart.c **** /**
1390:Drivers/STM32F7xx_HAL_Driver/Src/stm32f7xx_hal_uart.c ****   * @brief DMA UART transmit process half complete callback
1391:Drivers/STM32F7xx_HAL_Driver/Src/stm32f7xx_hal_uart.c ****   * @param hdma  DMA handle
1392:Drivers/STM32F7xx_HAL_Driver/Src/stm32f7xx_hal_uart.c ****   * @retval None
1393:Drivers/STM32F7xx_HAL_Driver/Src/stm32f7xx_hal_uart.c ****   */
1394:Drivers/STM32F7xx_HAL_Driver/Src/stm32f7xx_hal_uart.c **** static void UART_DMATxHalfCplt(DMA_HandleTypeDef *hdma)
1395:Drivers/STM32F7xx_HAL_Driver/Src/stm32f7xx_hal_uart.c **** {
1396:Drivers/STM32F7xx_HAL_Driver/Src/stm32f7xx_hal_uart.c ****   UART_HandleTypeDef* huart = (UART_HandleTypeDef*)((DMA_HandleTypeDef*)hdma)->Parent;
1397:Drivers/STM32F7xx_HAL_Driver/Src/stm32f7xx_hal_uart.c **** 
1398:Drivers/STM32F7xx_HAL_Driver/Src/stm32f7xx_hal_uart.c ****   HAL_UART_TxHalfCpltCallback(huart);
1399:Drivers/STM32F7xx_HAL_Driver/Src/stm32f7xx_hal_uart.c **** }
1400:Drivers/STM32F7xx_HAL_Driver/Src/stm32f7xx_hal_uart.c **** 
1401:Drivers/STM32F7xx_HAL_Driver/Src/stm32f7xx_hal_uart.c **** /**
1402:Drivers/STM32F7xx_HAL_Driver/Src/stm32f7xx_hal_uart.c ****   * @brief DMA UART receive process complete callback
1403:Drivers/STM32F7xx_HAL_Driver/Src/stm32f7xx_hal_uart.c ****   * @param hdma DMA handle
1404:Drivers/STM32F7xx_HAL_Driver/Src/stm32f7xx_hal_uart.c ****   * @retval None
1405:Drivers/STM32F7xx_HAL_Driver/Src/stm32f7xx_hal_uart.c ****   */
1406:Drivers/STM32F7xx_HAL_Driver/Src/stm32f7xx_hal_uart.c **** static void UART_DMAReceiveCplt(DMA_HandleTypeDef *hdma)
1407:Drivers/STM32F7xx_HAL_Driver/Src/stm32f7xx_hal_uart.c **** {
1408:Drivers/STM32F7xx_HAL_Driver/Src/stm32f7xx_hal_uart.c ****   UART_HandleTypeDef* huart = ( UART_HandleTypeDef* )((DMA_HandleTypeDef* )hdma)->Parent;
1409:Drivers/STM32F7xx_HAL_Driver/Src/stm32f7xx_hal_uart.c **** 
1410:Drivers/STM32F7xx_HAL_Driver/Src/stm32f7xx_hal_uart.c ****   /* DMA Normal mode */
1411:Drivers/STM32F7xx_HAL_Driver/Src/stm32f7xx_hal_uart.c ****   if((hdma->Instance->CR & DMA_SxCR_CIRC) == 0U)
1412:Drivers/STM32F7xx_HAL_Driver/Src/stm32f7xx_hal_uart.c ****   {
1413:Drivers/STM32F7xx_HAL_Driver/Src/stm32f7xx_hal_uart.c ****     huart->RxXferCount = 0U;
1414:Drivers/STM32F7xx_HAL_Driver/Src/stm32f7xx_hal_uart.c **** 
1415:Drivers/STM32F7xx_HAL_Driver/Src/stm32f7xx_hal_uart.c ****     /* Disable PE and ERR (Frame error, noise error, overrun error) interrupts */
1416:Drivers/STM32F7xx_HAL_Driver/Src/stm32f7xx_hal_uart.c ****     CLEAR_BIT(huart->Instance->CR1, USART_CR1_PEIE);
1417:Drivers/STM32F7xx_HAL_Driver/Src/stm32f7xx_hal_uart.c ****     CLEAR_BIT(huart->Instance->CR3, USART_CR3_EIE);
1418:Drivers/STM32F7xx_HAL_Driver/Src/stm32f7xx_hal_uart.c **** 
1419:Drivers/STM32F7xx_HAL_Driver/Src/stm32f7xx_hal_uart.c ****     /* Disable the DMA transfer for the receiver request by setting the DMAR bit
1420:Drivers/STM32F7xx_HAL_Driver/Src/stm32f7xx_hal_uart.c ****     in the UART CR3 register */
1421:Drivers/STM32F7xx_HAL_Driver/Src/stm32f7xx_hal_uart.c ****     CLEAR_BIT(huart->Instance->CR3, USART_CR3_DMAR);
1422:Drivers/STM32F7xx_HAL_Driver/Src/stm32f7xx_hal_uart.c **** 
1423:Drivers/STM32F7xx_HAL_Driver/Src/stm32f7xx_hal_uart.c **** 	/* At end of Rx process, restore huart->RxState to Ready */
1424:Drivers/STM32F7xx_HAL_Driver/Src/stm32f7xx_hal_uart.c ****     huart->RxState = HAL_UART_STATE_READY;
1425:Drivers/STM32F7xx_HAL_Driver/Src/stm32f7xx_hal_uart.c ****   }
1426:Drivers/STM32F7xx_HAL_Driver/Src/stm32f7xx_hal_uart.c ****   HAL_UART_RxCpltCallback(huart);
1427:Drivers/STM32F7xx_HAL_Driver/Src/stm32f7xx_hal_uart.c **** }
1428:Drivers/STM32F7xx_HAL_Driver/Src/stm32f7xx_hal_uart.c **** 
1429:Drivers/STM32F7xx_HAL_Driver/Src/stm32f7xx_hal_uart.c **** /**
1430:Drivers/STM32F7xx_HAL_Driver/Src/stm32f7xx_hal_uart.c ****   * @brief DMA UART receive process half complete callback
1431:Drivers/STM32F7xx_HAL_Driver/Src/stm32f7xx_hal_uart.c ****   * @param hdma  DMA handle
1432:Drivers/STM32F7xx_HAL_Driver/Src/stm32f7xx_hal_uart.c ****   * @retval None
1433:Drivers/STM32F7xx_HAL_Driver/Src/stm32f7xx_hal_uart.c ****   */
ARM GAS  /tmp/cc6CQ8Vx.s 			page 56


1434:Drivers/STM32F7xx_HAL_Driver/Src/stm32f7xx_hal_uart.c **** static void UART_DMARxHalfCplt(DMA_HandleTypeDef *hdma)
1435:Drivers/STM32F7xx_HAL_Driver/Src/stm32f7xx_hal_uart.c **** {
1436:Drivers/STM32F7xx_HAL_Driver/Src/stm32f7xx_hal_uart.c ****   UART_HandleTypeDef* huart = (UART_HandleTypeDef*)((DMA_HandleTypeDef*)hdma)->Parent;
1437:Drivers/STM32F7xx_HAL_Driver/Src/stm32f7xx_hal_uart.c **** 
1438:Drivers/STM32F7xx_HAL_Driver/Src/stm32f7xx_hal_uart.c ****   HAL_UART_RxHalfCpltCallback(huart);
1439:Drivers/STM32F7xx_HAL_Driver/Src/stm32f7xx_hal_uart.c **** }
1440:Drivers/STM32F7xx_HAL_Driver/Src/stm32f7xx_hal_uart.c **** 
1441:Drivers/STM32F7xx_HAL_Driver/Src/stm32f7xx_hal_uart.c **** /**
1442:Drivers/STM32F7xx_HAL_Driver/Src/stm32f7xx_hal_uart.c ****   * @brief DMA UART communication error callback
1443:Drivers/STM32F7xx_HAL_Driver/Src/stm32f7xx_hal_uart.c ****   * @param hdma DMA handle
1444:Drivers/STM32F7xx_HAL_Driver/Src/stm32f7xx_hal_uart.c ****   * @retval None
1445:Drivers/STM32F7xx_HAL_Driver/Src/stm32f7xx_hal_uart.c ****   */
1446:Drivers/STM32F7xx_HAL_Driver/Src/stm32f7xx_hal_uart.c **** static void UART_DMAError(DMA_HandleTypeDef *hdma)
1447:Drivers/STM32F7xx_HAL_Driver/Src/stm32f7xx_hal_uart.c **** {
1448:Drivers/STM32F7xx_HAL_Driver/Src/stm32f7xx_hal_uart.c ****   UART_HandleTypeDef* huart = ( UART_HandleTypeDef* )((DMA_HandleTypeDef* )hdma)->Parent;
1449:Drivers/STM32F7xx_HAL_Driver/Src/stm32f7xx_hal_uart.c ****   huart->RxXferCount = 0U;
1450:Drivers/STM32F7xx_HAL_Driver/Src/stm32f7xx_hal_uart.c ****   huart->TxXferCount = 0U;
1451:Drivers/STM32F7xx_HAL_Driver/Src/stm32f7xx_hal_uart.c ****   /* Stop UART DMA Tx request if ongoing */
1452:Drivers/STM32F7xx_HAL_Driver/Src/stm32f7xx_hal_uart.c ****   if (  (huart->gState == HAL_UART_STATE_BUSY_TX)
1453:Drivers/STM32F7xx_HAL_Driver/Src/stm32f7xx_hal_uart.c ****       &&(HAL_IS_BIT_SET(huart->Instance->CR3, USART_CR3_DMAT)) )
1454:Drivers/STM32F7xx_HAL_Driver/Src/stm32f7xx_hal_uart.c ****   {
1455:Drivers/STM32F7xx_HAL_Driver/Src/stm32f7xx_hal_uart.c ****     UART_EndTxTransfer(huart);
1456:Drivers/STM32F7xx_HAL_Driver/Src/stm32f7xx_hal_uart.c ****   }
1457:Drivers/STM32F7xx_HAL_Driver/Src/stm32f7xx_hal_uart.c **** 
1458:Drivers/STM32F7xx_HAL_Driver/Src/stm32f7xx_hal_uart.c ****   /* Stop UART DMA Rx request if ongoing */
1459:Drivers/STM32F7xx_HAL_Driver/Src/stm32f7xx_hal_uart.c ****   if (  (huart->RxState == HAL_UART_STATE_BUSY_RX)
1460:Drivers/STM32F7xx_HAL_Driver/Src/stm32f7xx_hal_uart.c ****       &&(HAL_IS_BIT_SET(huart->Instance->CR3, USART_CR3_DMAR)) )
1461:Drivers/STM32F7xx_HAL_Driver/Src/stm32f7xx_hal_uart.c ****   {
1462:Drivers/STM32F7xx_HAL_Driver/Src/stm32f7xx_hal_uart.c ****     UART_EndRxTransfer(huart);
1463:Drivers/STM32F7xx_HAL_Driver/Src/stm32f7xx_hal_uart.c ****   }
1464:Drivers/STM32F7xx_HAL_Driver/Src/stm32f7xx_hal_uart.c ****   SET_BIT(huart->ErrorCode, HAL_UART_ERROR_DMA);
1465:Drivers/STM32F7xx_HAL_Driver/Src/stm32f7xx_hal_uart.c ****   HAL_UART_ErrorCallback(huart);
1466:Drivers/STM32F7xx_HAL_Driver/Src/stm32f7xx_hal_uart.c **** }
1467:Drivers/STM32F7xx_HAL_Driver/Src/stm32f7xx_hal_uart.c **** 
1468:Drivers/STM32F7xx_HAL_Driver/Src/stm32f7xx_hal_uart.c **** /**
1469:Drivers/STM32F7xx_HAL_Driver/Src/stm32f7xx_hal_uart.c ****   * @brief DMA UART communication abort callback, when call by HAL services on Error
1470:Drivers/STM32F7xx_HAL_Driver/Src/stm32f7xx_hal_uart.c ****   *        (To be called at end of DMA Abort procedure following error occurrence).
1471:Drivers/STM32F7xx_HAL_Driver/Src/stm32f7xx_hal_uart.c ****   * @param hdma DMA handle.
1472:Drivers/STM32F7xx_HAL_Driver/Src/stm32f7xx_hal_uart.c ****   * @retval None
1473:Drivers/STM32F7xx_HAL_Driver/Src/stm32f7xx_hal_uart.c ****   */
1474:Drivers/STM32F7xx_HAL_Driver/Src/stm32f7xx_hal_uart.c **** static void UART_DMAAbortOnError(DMA_HandleTypeDef *hdma)
1475:Drivers/STM32F7xx_HAL_Driver/Src/stm32f7xx_hal_uart.c **** {
1476:Drivers/STM32F7xx_HAL_Driver/Src/stm32f7xx_hal_uart.c ****   UART_HandleTypeDef* huart = (UART_HandleTypeDef*)(hdma->Parent);
1477:Drivers/STM32F7xx_HAL_Driver/Src/stm32f7xx_hal_uart.c ****   huart->RxXferCount = 0U;
1478:Drivers/STM32F7xx_HAL_Driver/Src/stm32f7xx_hal_uart.c ****   huart->TxXferCount = 0U;
1479:Drivers/STM32F7xx_HAL_Driver/Src/stm32f7xx_hal_uart.c **** 
1480:Drivers/STM32F7xx_HAL_Driver/Src/stm32f7xx_hal_uart.c ****   HAL_UART_ErrorCallback(huart);
1481:Drivers/STM32F7xx_HAL_Driver/Src/stm32f7xx_hal_uart.c **** }
1482:Drivers/STM32F7xx_HAL_Driver/Src/stm32f7xx_hal_uart.c **** 
1483:Drivers/STM32F7xx_HAL_Driver/Src/stm32f7xx_hal_uart.c **** /**
1484:Drivers/STM32F7xx_HAL_Driver/Src/stm32f7xx_hal_uart.c ****   * @brief Tx Transfer completed callbacks
1485:Drivers/STM32F7xx_HAL_Driver/Src/stm32f7xx_hal_uart.c ****   * @param huart uart handle
1486:Drivers/STM32F7xx_HAL_Driver/Src/stm32f7xx_hal_uart.c ****   * @retval None
1487:Drivers/STM32F7xx_HAL_Driver/Src/stm32f7xx_hal_uart.c ****   */
1488:Drivers/STM32F7xx_HAL_Driver/Src/stm32f7xx_hal_uart.c ****  __weak void HAL_UART_TxCpltCallback(UART_HandleTypeDef *huart)
1489:Drivers/STM32F7xx_HAL_Driver/Src/stm32f7xx_hal_uart.c **** {
1490:Drivers/STM32F7xx_HAL_Driver/Src/stm32f7xx_hal_uart.c ****   /* Prevent unused argument(s) compilation warning */
ARM GAS  /tmp/cc6CQ8Vx.s 			page 57


1491:Drivers/STM32F7xx_HAL_Driver/Src/stm32f7xx_hal_uart.c ****   UNUSED(huart);
1492:Drivers/STM32F7xx_HAL_Driver/Src/stm32f7xx_hal_uart.c **** 
1493:Drivers/STM32F7xx_HAL_Driver/Src/stm32f7xx_hal_uart.c ****   /* NOTE : This function should not be modified, when the callback is needed,
1494:Drivers/STM32F7xx_HAL_Driver/Src/stm32f7xx_hal_uart.c ****             the HAL_UART_TxCpltCallback can be implemented in the user file
1495:Drivers/STM32F7xx_HAL_Driver/Src/stm32f7xx_hal_uart.c ****    */
1496:Drivers/STM32F7xx_HAL_Driver/Src/stm32f7xx_hal_uart.c **** }
1497:Drivers/STM32F7xx_HAL_Driver/Src/stm32f7xx_hal_uart.c **** 
1498:Drivers/STM32F7xx_HAL_Driver/Src/stm32f7xx_hal_uart.c **** /**
1499:Drivers/STM32F7xx_HAL_Driver/Src/stm32f7xx_hal_uart.c ****   * @brief  Tx Half Transfer completed callbacks.
1500:Drivers/STM32F7xx_HAL_Driver/Src/stm32f7xx_hal_uart.c ****   * @param  huart UART handle
1501:Drivers/STM32F7xx_HAL_Driver/Src/stm32f7xx_hal_uart.c ****   * @retval None
1502:Drivers/STM32F7xx_HAL_Driver/Src/stm32f7xx_hal_uart.c ****   */
1503:Drivers/STM32F7xx_HAL_Driver/Src/stm32f7xx_hal_uart.c ****  __weak void HAL_UART_TxHalfCpltCallback(UART_HandleTypeDef *huart)
1504:Drivers/STM32F7xx_HAL_Driver/Src/stm32f7xx_hal_uart.c **** {
1505:Drivers/STM32F7xx_HAL_Driver/Src/stm32f7xx_hal_uart.c ****   /* Prevent unused argument(s) compilation warning */
1506:Drivers/STM32F7xx_HAL_Driver/Src/stm32f7xx_hal_uart.c ****   UNUSED(huart);
1507:Drivers/STM32F7xx_HAL_Driver/Src/stm32f7xx_hal_uart.c **** 
1508:Drivers/STM32F7xx_HAL_Driver/Src/stm32f7xx_hal_uart.c ****   /* NOTE: This function should not be modified, when the callback is needed,
1509:Drivers/STM32F7xx_HAL_Driver/Src/stm32f7xx_hal_uart.c ****            the HAL_UART_TxHalfCpltCallback can be implemented in the user file
1510:Drivers/STM32F7xx_HAL_Driver/Src/stm32f7xx_hal_uart.c ****    */
1511:Drivers/STM32F7xx_HAL_Driver/Src/stm32f7xx_hal_uart.c **** }
1512:Drivers/STM32F7xx_HAL_Driver/Src/stm32f7xx_hal_uart.c **** 
1513:Drivers/STM32F7xx_HAL_Driver/Src/stm32f7xx_hal_uart.c **** /**
1514:Drivers/STM32F7xx_HAL_Driver/Src/stm32f7xx_hal_uart.c ****   * @brief Rx Transfer completed callbacks
1515:Drivers/STM32F7xx_HAL_Driver/Src/stm32f7xx_hal_uart.c ****   * @param huart uart handle
1516:Drivers/STM32F7xx_HAL_Driver/Src/stm32f7xx_hal_uart.c ****   * @retval None
1517:Drivers/STM32F7xx_HAL_Driver/Src/stm32f7xx_hal_uart.c ****   */
1518:Drivers/STM32F7xx_HAL_Driver/Src/stm32f7xx_hal_uart.c **** __weak void HAL_UART_RxCpltCallback(UART_HandleTypeDef *huart)
1519:Drivers/STM32F7xx_HAL_Driver/Src/stm32f7xx_hal_uart.c **** {
1520:Drivers/STM32F7xx_HAL_Driver/Src/stm32f7xx_hal_uart.c ****   /* Prevent unused argument(s) compilation warning */
1521:Drivers/STM32F7xx_HAL_Driver/Src/stm32f7xx_hal_uart.c ****   UNUSED(huart);
1522:Drivers/STM32F7xx_HAL_Driver/Src/stm32f7xx_hal_uart.c **** 
1523:Drivers/STM32F7xx_HAL_Driver/Src/stm32f7xx_hal_uart.c ****   /* NOTE : This function should not be modified, when the callback is needed,
1524:Drivers/STM32F7xx_HAL_Driver/Src/stm32f7xx_hal_uart.c ****             the HAL_UART_RxCpltCallback can be implemented in the user file
1525:Drivers/STM32F7xx_HAL_Driver/Src/stm32f7xx_hal_uart.c ****    */
1526:Drivers/STM32F7xx_HAL_Driver/Src/stm32f7xx_hal_uart.c **** }
1527:Drivers/STM32F7xx_HAL_Driver/Src/stm32f7xx_hal_uart.c **** 
1528:Drivers/STM32F7xx_HAL_Driver/Src/stm32f7xx_hal_uart.c **** /**
1529:Drivers/STM32F7xx_HAL_Driver/Src/stm32f7xx_hal_uart.c ****   * @brief  Rx Half Transfer completed callbacks.
1530:Drivers/STM32F7xx_HAL_Driver/Src/stm32f7xx_hal_uart.c ****   * @param  huart UART handle
1531:Drivers/STM32F7xx_HAL_Driver/Src/stm32f7xx_hal_uart.c ****   * @retval None
1532:Drivers/STM32F7xx_HAL_Driver/Src/stm32f7xx_hal_uart.c ****   */
1533:Drivers/STM32F7xx_HAL_Driver/Src/stm32f7xx_hal_uart.c **** __weak void HAL_UART_RxHalfCpltCallback(UART_HandleTypeDef *huart)
1534:Drivers/STM32F7xx_HAL_Driver/Src/stm32f7xx_hal_uart.c **** {
1535:Drivers/STM32F7xx_HAL_Driver/Src/stm32f7xx_hal_uart.c ****   /* Prevent unused argument(s) compilation warning */
1536:Drivers/STM32F7xx_HAL_Driver/Src/stm32f7xx_hal_uart.c ****   UNUSED(huart);
1537:Drivers/STM32F7xx_HAL_Driver/Src/stm32f7xx_hal_uart.c **** 
1538:Drivers/STM32F7xx_HAL_Driver/Src/stm32f7xx_hal_uart.c ****   /* NOTE: This function should not be modified, when the callback is needed,
1539:Drivers/STM32F7xx_HAL_Driver/Src/stm32f7xx_hal_uart.c ****            the HAL_UART_RxHalfCpltCallback can be implemented in the user file
1540:Drivers/STM32F7xx_HAL_Driver/Src/stm32f7xx_hal_uart.c ****    */
1541:Drivers/STM32F7xx_HAL_Driver/Src/stm32f7xx_hal_uart.c **** }
1542:Drivers/STM32F7xx_HAL_Driver/Src/stm32f7xx_hal_uart.c **** 
1543:Drivers/STM32F7xx_HAL_Driver/Src/stm32f7xx_hal_uart.c **** /**
1544:Drivers/STM32F7xx_HAL_Driver/Src/stm32f7xx_hal_uart.c ****   * @brief UART error callbacks
1545:Drivers/STM32F7xx_HAL_Driver/Src/stm32f7xx_hal_uart.c ****   * @param huart uart handle
1546:Drivers/STM32F7xx_HAL_Driver/Src/stm32f7xx_hal_uart.c ****   * @retval None
1547:Drivers/STM32F7xx_HAL_Driver/Src/stm32f7xx_hal_uart.c ****   */
ARM GAS  /tmp/cc6CQ8Vx.s 			page 58


1548:Drivers/STM32F7xx_HAL_Driver/Src/stm32f7xx_hal_uart.c ****  __weak void HAL_UART_ErrorCallback(UART_HandleTypeDef *huart)
1549:Drivers/STM32F7xx_HAL_Driver/Src/stm32f7xx_hal_uart.c **** {
1550:Drivers/STM32F7xx_HAL_Driver/Src/stm32f7xx_hal_uart.c ****   /* Prevent unused argument(s) compilation warning */
1551:Drivers/STM32F7xx_HAL_Driver/Src/stm32f7xx_hal_uart.c ****   UNUSED(huart);
1552:Drivers/STM32F7xx_HAL_Driver/Src/stm32f7xx_hal_uart.c **** 
1553:Drivers/STM32F7xx_HAL_Driver/Src/stm32f7xx_hal_uart.c ****   /* NOTE : This function should not be modified, when the callback is needed,
1554:Drivers/STM32F7xx_HAL_Driver/Src/stm32f7xx_hal_uart.c ****             the HAL_UART_ErrorCallback can be implemented in the user file
1555:Drivers/STM32F7xx_HAL_Driver/Src/stm32f7xx_hal_uart.c ****    */
1556:Drivers/STM32F7xx_HAL_Driver/Src/stm32f7xx_hal_uart.c **** }
1557:Drivers/STM32F7xx_HAL_Driver/Src/stm32f7xx_hal_uart.c **** 
1558:Drivers/STM32F7xx_HAL_Driver/Src/stm32f7xx_hal_uart.c **** /**
1559:Drivers/STM32F7xx_HAL_Driver/Src/stm32f7xx_hal_uart.c ****   * @brief Send an amount of data in interrupt mode
1560:Drivers/STM32F7xx_HAL_Driver/Src/stm32f7xx_hal_uart.c ****   *         Function called under interruption only, once
1561:Drivers/STM32F7xx_HAL_Driver/Src/stm32f7xx_hal_uart.c ****   *         interruptions have been enabled by HAL_UART_Transmit_IT()
1562:Drivers/STM32F7xx_HAL_Driver/Src/stm32f7xx_hal_uart.c ****   * @param  huart UART handle
1563:Drivers/STM32F7xx_HAL_Driver/Src/stm32f7xx_hal_uart.c ****   * @retval HAL status
1564:Drivers/STM32F7xx_HAL_Driver/Src/stm32f7xx_hal_uart.c ****   */
1565:Drivers/STM32F7xx_HAL_Driver/Src/stm32f7xx_hal_uart.c **** static HAL_StatusTypeDef UART_Transmit_IT(UART_HandleTypeDef *huart)
1566:Drivers/STM32F7xx_HAL_Driver/Src/stm32f7xx_hal_uart.c **** {
1567:Drivers/STM32F7xx_HAL_Driver/Src/stm32f7xx_hal_uart.c ****   uint16_t* tmp;
1568:Drivers/STM32F7xx_HAL_Driver/Src/stm32f7xx_hal_uart.c **** 
1569:Drivers/STM32F7xx_HAL_Driver/Src/stm32f7xx_hal_uart.c ****   /* Check that a Tx process is ongoing */
1570:Drivers/STM32F7xx_HAL_Driver/Src/stm32f7xx_hal_uart.c ****   if (huart->gState == HAL_UART_STATE_BUSY_TX)
1571:Drivers/STM32F7xx_HAL_Driver/Src/stm32f7xx_hal_uart.c ****   {
1572:Drivers/STM32F7xx_HAL_Driver/Src/stm32f7xx_hal_uart.c **** 
1573:Drivers/STM32F7xx_HAL_Driver/Src/stm32f7xx_hal_uart.c ****     if(huart->TxXferCount == 0U)
1574:Drivers/STM32F7xx_HAL_Driver/Src/stm32f7xx_hal_uart.c ****     {
1575:Drivers/STM32F7xx_HAL_Driver/Src/stm32f7xx_hal_uart.c ****       /* Disable the UART Transmit Data Register Empty Interrupt */
1576:Drivers/STM32F7xx_HAL_Driver/Src/stm32f7xx_hal_uart.c ****       CLEAR_BIT(huart->Instance->CR1, USART_CR1_TXEIE);
1577:Drivers/STM32F7xx_HAL_Driver/Src/stm32f7xx_hal_uart.c **** 
1578:Drivers/STM32F7xx_HAL_Driver/Src/stm32f7xx_hal_uart.c ****       /* Enable the UART Transmit Complete Interrupt */
1579:Drivers/STM32F7xx_HAL_Driver/Src/stm32f7xx_hal_uart.c ****       SET_BIT(huart->Instance->CR1, USART_CR1_TCIE);
1580:Drivers/STM32F7xx_HAL_Driver/Src/stm32f7xx_hal_uart.c **** 
1581:Drivers/STM32F7xx_HAL_Driver/Src/stm32f7xx_hal_uart.c ****       return HAL_OK;
1582:Drivers/STM32F7xx_HAL_Driver/Src/stm32f7xx_hal_uart.c ****     }
1583:Drivers/STM32F7xx_HAL_Driver/Src/stm32f7xx_hal_uart.c ****     else
1584:Drivers/STM32F7xx_HAL_Driver/Src/stm32f7xx_hal_uart.c ****     {
1585:Drivers/STM32F7xx_HAL_Driver/Src/stm32f7xx_hal_uart.c ****       if ((huart->Init.WordLength == UART_WORDLENGTH_9B) && (huart->Init.Parity == UART_PARITY_NONE
1586:Drivers/STM32F7xx_HAL_Driver/Src/stm32f7xx_hal_uart.c ****       {
1587:Drivers/STM32F7xx_HAL_Driver/Src/stm32f7xx_hal_uart.c ****         tmp = (uint16_t*) huart->pTxBuffPtr;
1588:Drivers/STM32F7xx_HAL_Driver/Src/stm32f7xx_hal_uart.c ****         huart->Instance->TDR = (*tmp & (uint16_t)0x01FFU);
1589:Drivers/STM32F7xx_HAL_Driver/Src/stm32f7xx_hal_uart.c ****         huart->pTxBuffPtr += 2U;
1590:Drivers/STM32F7xx_HAL_Driver/Src/stm32f7xx_hal_uart.c ****       }
1591:Drivers/STM32F7xx_HAL_Driver/Src/stm32f7xx_hal_uart.c ****       else
1592:Drivers/STM32F7xx_HAL_Driver/Src/stm32f7xx_hal_uart.c ****       {
1593:Drivers/STM32F7xx_HAL_Driver/Src/stm32f7xx_hal_uart.c ****         huart->Instance->TDR = (uint8_t)(*huart->pTxBuffPtr++ & (uint8_t)0xFFU);
1594:Drivers/STM32F7xx_HAL_Driver/Src/stm32f7xx_hal_uart.c ****       }
1595:Drivers/STM32F7xx_HAL_Driver/Src/stm32f7xx_hal_uart.c **** 
1596:Drivers/STM32F7xx_HAL_Driver/Src/stm32f7xx_hal_uart.c ****       huart->TxXferCount--;
1597:Drivers/STM32F7xx_HAL_Driver/Src/stm32f7xx_hal_uart.c **** 
1598:Drivers/STM32F7xx_HAL_Driver/Src/stm32f7xx_hal_uart.c ****       return HAL_OK;
1599:Drivers/STM32F7xx_HAL_Driver/Src/stm32f7xx_hal_uart.c ****     }
1600:Drivers/STM32F7xx_HAL_Driver/Src/stm32f7xx_hal_uart.c ****   }
1601:Drivers/STM32F7xx_HAL_Driver/Src/stm32f7xx_hal_uart.c ****   else
1602:Drivers/STM32F7xx_HAL_Driver/Src/stm32f7xx_hal_uart.c ****   {
1603:Drivers/STM32F7xx_HAL_Driver/Src/stm32f7xx_hal_uart.c ****     return HAL_BUSY;
1604:Drivers/STM32F7xx_HAL_Driver/Src/stm32f7xx_hal_uart.c ****   }
ARM GAS  /tmp/cc6CQ8Vx.s 			page 59


1605:Drivers/STM32F7xx_HAL_Driver/Src/stm32f7xx_hal_uart.c **** }
1606:Drivers/STM32F7xx_HAL_Driver/Src/stm32f7xx_hal_uart.c **** 
1607:Drivers/STM32F7xx_HAL_Driver/Src/stm32f7xx_hal_uart.c **** /**
1608:Drivers/STM32F7xx_HAL_Driver/Src/stm32f7xx_hal_uart.c ****   * @brief  Wrap up transmission in non-blocking mode.
1609:Drivers/STM32F7xx_HAL_Driver/Src/stm32f7xx_hal_uart.c ****   * @param  huart pointer to a UART_HandleTypeDef structure that contains
1610:Drivers/STM32F7xx_HAL_Driver/Src/stm32f7xx_hal_uart.c ****   *                the configuration information for the specified UART module.
1611:Drivers/STM32F7xx_HAL_Driver/Src/stm32f7xx_hal_uart.c ****   * @retval HAL status
1612:Drivers/STM32F7xx_HAL_Driver/Src/stm32f7xx_hal_uart.c ****   */
1613:Drivers/STM32F7xx_HAL_Driver/Src/stm32f7xx_hal_uart.c **** static HAL_StatusTypeDef UART_EndTransmit_IT(UART_HandleTypeDef *huart)
1614:Drivers/STM32F7xx_HAL_Driver/Src/stm32f7xx_hal_uart.c **** {
1615:Drivers/STM32F7xx_HAL_Driver/Src/stm32f7xx_hal_uart.c ****   /* Disable the UART Transmit Complete Interrupt */
1616:Drivers/STM32F7xx_HAL_Driver/Src/stm32f7xx_hal_uart.c ****   CLEAR_BIT(huart->Instance->CR1, USART_CR1_TCIE);
1617:Drivers/STM32F7xx_HAL_Driver/Src/stm32f7xx_hal_uart.c **** 
1618:Drivers/STM32F7xx_HAL_Driver/Src/stm32f7xx_hal_uart.c ****   /* Tx process is ended, restore huart->gState to Ready */
1619:Drivers/STM32F7xx_HAL_Driver/Src/stm32f7xx_hal_uart.c ****   huart->gState = HAL_UART_STATE_READY;
1620:Drivers/STM32F7xx_HAL_Driver/Src/stm32f7xx_hal_uart.c **** 
1621:Drivers/STM32F7xx_HAL_Driver/Src/stm32f7xx_hal_uart.c ****   HAL_UART_TxCpltCallback(huart);
1622:Drivers/STM32F7xx_HAL_Driver/Src/stm32f7xx_hal_uart.c **** 
1623:Drivers/STM32F7xx_HAL_Driver/Src/stm32f7xx_hal_uart.c ****   return HAL_OK;
1624:Drivers/STM32F7xx_HAL_Driver/Src/stm32f7xx_hal_uart.c **** }
1625:Drivers/STM32F7xx_HAL_Driver/Src/stm32f7xx_hal_uart.c **** 
1626:Drivers/STM32F7xx_HAL_Driver/Src/stm32f7xx_hal_uart.c **** /**
1627:Drivers/STM32F7xx_HAL_Driver/Src/stm32f7xx_hal_uart.c ****   * @brief Receive an amount of data in interrupt mode
1628:Drivers/STM32F7xx_HAL_Driver/Src/stm32f7xx_hal_uart.c ****   *         Function called under interruption only, once
1629:Drivers/STM32F7xx_HAL_Driver/Src/stm32f7xx_hal_uart.c ****   *         interruptions have been enabled by HAL_UART_Receive_IT()
1630:Drivers/STM32F7xx_HAL_Driver/Src/stm32f7xx_hal_uart.c ****   * @param  huart UART handle
1631:Drivers/STM32F7xx_HAL_Driver/Src/stm32f7xx_hal_uart.c ****   * @retval HAL status
1632:Drivers/STM32F7xx_HAL_Driver/Src/stm32f7xx_hal_uart.c ****   */
1633:Drivers/STM32F7xx_HAL_Driver/Src/stm32f7xx_hal_uart.c **** static HAL_StatusTypeDef UART_Receive_IT(UART_HandleTypeDef *huart)
1634:Drivers/STM32F7xx_HAL_Driver/Src/stm32f7xx_hal_uart.c **** {
1635:Drivers/STM32F7xx_HAL_Driver/Src/stm32f7xx_hal_uart.c ****   uint16_t* tmp;
1636:Drivers/STM32F7xx_HAL_Driver/Src/stm32f7xx_hal_uart.c ****   uint16_t uhMask = huart->Mask;
1637:Drivers/STM32F7xx_HAL_Driver/Src/stm32f7xx_hal_uart.c **** 
1638:Drivers/STM32F7xx_HAL_Driver/Src/stm32f7xx_hal_uart.c ****   /* Check that a Rx process is ongoing */
1639:Drivers/STM32F7xx_HAL_Driver/Src/stm32f7xx_hal_uart.c ****   if(huart->RxState == HAL_UART_STATE_BUSY_RX)
1640:Drivers/STM32F7xx_HAL_Driver/Src/stm32f7xx_hal_uart.c ****   {
1641:Drivers/STM32F7xx_HAL_Driver/Src/stm32f7xx_hal_uart.c **** 
1642:Drivers/STM32F7xx_HAL_Driver/Src/stm32f7xx_hal_uart.c ****     if ((huart->Init.WordLength == UART_WORDLENGTH_9B) && (huart->Init.Parity == UART_PARITY_NONE))
1643:Drivers/STM32F7xx_HAL_Driver/Src/stm32f7xx_hal_uart.c ****     {
1644:Drivers/STM32F7xx_HAL_Driver/Src/stm32f7xx_hal_uart.c ****       tmp = (uint16_t*) huart->pRxBuffPtr ;
1645:Drivers/STM32F7xx_HAL_Driver/Src/stm32f7xx_hal_uart.c ****       *tmp = (uint16_t)(huart->Instance->RDR & uhMask);
1646:Drivers/STM32F7xx_HAL_Driver/Src/stm32f7xx_hal_uart.c ****       huart->pRxBuffPtr +=2;
1647:Drivers/STM32F7xx_HAL_Driver/Src/stm32f7xx_hal_uart.c ****     }
1648:Drivers/STM32F7xx_HAL_Driver/Src/stm32f7xx_hal_uart.c ****     else
1649:Drivers/STM32F7xx_HAL_Driver/Src/stm32f7xx_hal_uart.c ****     {
1650:Drivers/STM32F7xx_HAL_Driver/Src/stm32f7xx_hal_uart.c ****       *huart->pRxBuffPtr++ = (uint8_t)(huart->Instance->RDR & (uint8_t)uhMask);
1651:Drivers/STM32F7xx_HAL_Driver/Src/stm32f7xx_hal_uart.c ****     }
1652:Drivers/STM32F7xx_HAL_Driver/Src/stm32f7xx_hal_uart.c **** 
1653:Drivers/STM32F7xx_HAL_Driver/Src/stm32f7xx_hal_uart.c ****     if(--huart->RxXferCount == 0)
1654:Drivers/STM32F7xx_HAL_Driver/Src/stm32f7xx_hal_uart.c ****     {
1655:Drivers/STM32F7xx_HAL_Driver/Src/stm32f7xx_hal_uart.c ****       /* Disable the UART Parity Error Interrupt and RXNE interrupt*/
1656:Drivers/STM32F7xx_HAL_Driver/Src/stm32f7xx_hal_uart.c ****       CLEAR_BIT(huart->Instance->CR1, (USART_CR1_RXNEIE | USART_CR1_PEIE));
1657:Drivers/STM32F7xx_HAL_Driver/Src/stm32f7xx_hal_uart.c **** 
1658:Drivers/STM32F7xx_HAL_Driver/Src/stm32f7xx_hal_uart.c ****       /* Disable the UART Error Interrupt: (Frame error, noise error, overrun error) */
1659:Drivers/STM32F7xx_HAL_Driver/Src/stm32f7xx_hal_uart.c ****       CLEAR_BIT(huart->Instance->CR3, USART_CR3_EIE);
1660:Drivers/STM32F7xx_HAL_Driver/Src/stm32f7xx_hal_uart.c **** 
1661:Drivers/STM32F7xx_HAL_Driver/Src/stm32f7xx_hal_uart.c ****       /* Rx process is completed, restore huart->RxState to Ready */
ARM GAS  /tmp/cc6CQ8Vx.s 			page 60


1662:Drivers/STM32F7xx_HAL_Driver/Src/stm32f7xx_hal_uart.c ****       huart->RxState = HAL_UART_STATE_READY;
1663:Drivers/STM32F7xx_HAL_Driver/Src/stm32f7xx_hal_uart.c **** 
1664:Drivers/STM32F7xx_HAL_Driver/Src/stm32f7xx_hal_uart.c ****       HAL_UART_RxCpltCallback(huart);
1665:Drivers/STM32F7xx_HAL_Driver/Src/stm32f7xx_hal_uart.c **** 
1666:Drivers/STM32F7xx_HAL_Driver/Src/stm32f7xx_hal_uart.c ****       return HAL_OK;
1667:Drivers/STM32F7xx_HAL_Driver/Src/stm32f7xx_hal_uart.c ****     }
1668:Drivers/STM32F7xx_HAL_Driver/Src/stm32f7xx_hal_uart.c **** 
1669:Drivers/STM32F7xx_HAL_Driver/Src/stm32f7xx_hal_uart.c ****     return HAL_OK;
1670:Drivers/STM32F7xx_HAL_Driver/Src/stm32f7xx_hal_uart.c ****   }
1671:Drivers/STM32F7xx_HAL_Driver/Src/stm32f7xx_hal_uart.c ****   else
1672:Drivers/STM32F7xx_HAL_Driver/Src/stm32f7xx_hal_uart.c ****   {
1673:Drivers/STM32F7xx_HAL_Driver/Src/stm32f7xx_hal_uart.c ****     /* Clear RXNE interrupt flag */
1674:Drivers/STM32F7xx_HAL_Driver/Src/stm32f7xx_hal_uart.c ****     __HAL_UART_SEND_REQ(huart, UART_RXDATA_FLUSH_REQUEST);
1675:Drivers/STM32F7xx_HAL_Driver/Src/stm32f7xx_hal_uart.c **** 
1676:Drivers/STM32F7xx_HAL_Driver/Src/stm32f7xx_hal_uart.c ****     return HAL_BUSY;
1677:Drivers/STM32F7xx_HAL_Driver/Src/stm32f7xx_hal_uart.c ****   }
1678:Drivers/STM32F7xx_HAL_Driver/Src/stm32f7xx_hal_uart.c **** }
1679:Drivers/STM32F7xx_HAL_Driver/Src/stm32f7xx_hal_uart.c **** 
1680:Drivers/STM32F7xx_HAL_Driver/Src/stm32f7xx_hal_uart.c **** /**
1681:Drivers/STM32F7xx_HAL_Driver/Src/stm32f7xx_hal_uart.c ****   * @brief  End ongoing Tx transfer on UART peripheral (following error detection or Transmit compl
1682:Drivers/STM32F7xx_HAL_Driver/Src/stm32f7xx_hal_uart.c ****   * @param  huart UART handle.
1683:Drivers/STM32F7xx_HAL_Driver/Src/stm32f7xx_hal_uart.c ****   * @retval None
1684:Drivers/STM32F7xx_HAL_Driver/Src/stm32f7xx_hal_uart.c ****   */
1685:Drivers/STM32F7xx_HAL_Driver/Src/stm32f7xx_hal_uart.c **** static void UART_EndTxTransfer(UART_HandleTypeDef *huart)
1686:Drivers/STM32F7xx_HAL_Driver/Src/stm32f7xx_hal_uart.c **** {
1687:Drivers/STM32F7xx_HAL_Driver/Src/stm32f7xx_hal_uart.c ****   /* Disable TXEIE and TCIE interrupts */
1688:Drivers/STM32F7xx_HAL_Driver/Src/stm32f7xx_hal_uart.c ****   CLEAR_BIT(huart->Instance->CR1, (USART_CR1_TXEIE | USART_CR1_TCIE));
1689:Drivers/STM32F7xx_HAL_Driver/Src/stm32f7xx_hal_uart.c **** 
1690:Drivers/STM32F7xx_HAL_Driver/Src/stm32f7xx_hal_uart.c ****   /* At end of Tx process, restore huart->gState to Ready */
1691:Drivers/STM32F7xx_HAL_Driver/Src/stm32f7xx_hal_uart.c ****   huart->gState = HAL_UART_STATE_READY;
1692:Drivers/STM32F7xx_HAL_Driver/Src/stm32f7xx_hal_uart.c **** }
1693:Drivers/STM32F7xx_HAL_Driver/Src/stm32f7xx_hal_uart.c **** 
1694:Drivers/STM32F7xx_HAL_Driver/Src/stm32f7xx_hal_uart.c **** 
1695:Drivers/STM32F7xx_HAL_Driver/Src/stm32f7xx_hal_uart.c **** /**
1696:Drivers/STM32F7xx_HAL_Driver/Src/stm32f7xx_hal_uart.c ****   * @brief  End ongoing Rx transfer on UART peripheral (following error detection or Reception comp
1697:Drivers/STM32F7xx_HAL_Driver/Src/stm32f7xx_hal_uart.c ****   * @param  huart UART handle.
1698:Drivers/STM32F7xx_HAL_Driver/Src/stm32f7xx_hal_uart.c ****   * @retval None
1699:Drivers/STM32F7xx_HAL_Driver/Src/stm32f7xx_hal_uart.c ****   */
1700:Drivers/STM32F7xx_HAL_Driver/Src/stm32f7xx_hal_uart.c **** static void UART_EndRxTransfer(UART_HandleTypeDef *huart)
1701:Drivers/STM32F7xx_HAL_Driver/Src/stm32f7xx_hal_uart.c **** {
1702:Drivers/STM32F7xx_HAL_Driver/Src/stm32f7xx_hal_uart.c ****   /* Disable RXNE, PE and ERR (Frame error, noise error, overrun error) interrupts */
1703:Drivers/STM32F7xx_HAL_Driver/Src/stm32f7xx_hal_uart.c ****   CLEAR_BIT(huart->Instance->CR1, (USART_CR1_RXNEIE | USART_CR1_PEIE));
 1440              		.loc 1 1703 0
 1441 0032 1A68     		ldr	r2, [r3]
1704:Drivers/STM32F7xx_HAL_Driver/Src/stm32f7xx_hal_uart.c ****   CLEAR_BIT(huart->Instance->CR3, USART_CR3_EIE);
1705:Drivers/STM32F7xx_HAL_Driver/Src/stm32f7xx_hal_uart.c **** 
1706:Drivers/STM32F7xx_HAL_Driver/Src/stm32f7xx_hal_uart.c ****   /* At end of Rx process, restore huart->RxState to Ready */
1707:Drivers/STM32F7xx_HAL_Driver/Src/stm32f7xx_hal_uart.c ****   huart->RxState = HAL_UART_STATE_READY;
 1442              		.loc 1 1707 0
 1443 0034 2021     		movs	r1, #32
 1444              	.LBE53:
 1445              	.LBE52:
1183:Drivers/STM32F7xx_HAL_Driver/Src/stm32f7xx_hal_uart.c **** 
 1446              		.loc 1 1183 0
 1447 0036 0020     		movs	r0, #0
 1448              	.LBB55:
 1449              	.LBB54:
ARM GAS  /tmp/cc6CQ8Vx.s 			page 61


1703:Drivers/STM32F7xx_HAL_Driver/Src/stm32f7xx_hal_uart.c ****   CLEAR_BIT(huart->Instance->CR3, USART_CR3_EIE);
 1450              		.loc 1 1703 0
 1451 0038 22F49072 		bic	r2, r2, #288
 1452 003c 1A60     		str	r2, [r3]
1704:Drivers/STM32F7xx_HAL_Driver/Src/stm32f7xx_hal_uart.c ****   CLEAR_BIT(huart->Instance->CR3, USART_CR3_EIE);
 1453              		.loc 1 1704 0
 1454 003e 9A68     		ldr	r2, [r3, #8]
 1455 0040 22F00102 		bic	r2, r2, #1
 1456 0044 9A60     		str	r2, [r3, #8]
 1457              		.loc 1 1707 0
 1458 0046 84F86A10 		strb	r1, [r4, #106]
 1459              	.LBE54:
 1460              	.LBE55:
1183:Drivers/STM32F7xx_HAL_Driver/Src/stm32f7xx_hal_uart.c **** 
 1461              		.loc 1 1183 0
 1462 004a 10BD     		pop	{r4, pc}
 1463              	.LVL98:
 1464              	.L167:
1154:Drivers/STM32F7xx_HAL_Driver/Src/stm32f7xx_hal_uart.c ****   {
 1465              		.loc 1 1154 0 discriminator 1
 1466 004c 0368     		ldr	r3, [r0]
 1467 004e 9A68     		ldr	r2, [r3, #8]
1153:Drivers/STM32F7xx_HAL_Driver/Src/stm32f7xx_hal_uart.c ****       (HAL_IS_BIT_SET(huart->Instance->CR3, USART_CR3_DMAT)))
 1468              		.loc 1 1153 0 discriminator 1
 1469 0050 1106     		lsls	r1, r2, #24
 1470 0052 DBD5     		bpl	.L150
1156:Drivers/STM32F7xx_HAL_Driver/Src/stm32f7xx_hal_uart.c **** 
 1471              		.loc 1 1156 0
 1472 0054 9A68     		ldr	r2, [r3, #8]
1159:Drivers/STM32F7xx_HAL_Driver/Src/stm32f7xx_hal_uart.c ****     {
 1473              		.loc 1 1159 0
 1474 0056 006E     		ldr	r0, [r0, #96]
 1475              	.LVL99:
1156:Drivers/STM32F7xx_HAL_Driver/Src/stm32f7xx_hal_uart.c **** 
 1476              		.loc 1 1156 0
 1477 0058 22F08002 		bic	r2, r2, #128
 1478 005c 9A60     		str	r2, [r3, #8]
1159:Drivers/STM32F7xx_HAL_Driver/Src/stm32f7xx_hal_uart.c ****     {
 1479              		.loc 1 1159 0
 1480 005e 10B1     		cbz	r0, .L151
1161:Drivers/STM32F7xx_HAL_Driver/Src/stm32f7xx_hal_uart.c ****     }
 1481              		.loc 1 1161 0
 1482 0060 FFF7FEFF 		bl	HAL_DMA_Abort
 1483              	.LVL100:
 1484 0064 2368     		ldr	r3, [r4]
 1485              	.L151:
 1486              	.LVL101:
 1487              	.LBB56:
 1488              	.LBB57:
1688:Drivers/STM32F7xx_HAL_Driver/Src/stm32f7xx_hal_uart.c **** 
 1489              		.loc 1 1688 0
 1490 0066 1A68     		ldr	r2, [r3]
1691:Drivers/STM32F7xx_HAL_Driver/Src/stm32f7xx_hal_uart.c **** }
 1491              		.loc 1 1691 0
 1492 0068 2021     		movs	r1, #32
1688:Drivers/STM32F7xx_HAL_Driver/Src/stm32f7xx_hal_uart.c **** 
 1493              		.loc 1 1688 0
ARM GAS  /tmp/cc6CQ8Vx.s 			page 62


 1494 006a 22F0C002 		bic	r2, r2, #192
 1495 006e 1A60     		str	r2, [r3]
1691:Drivers/STM32F7xx_HAL_Driver/Src/stm32f7xx_hal_uart.c **** }
 1496              		.loc 1 1691 0
 1497 0070 84F86910 		strb	r1, [r4, #105]
 1498 0074 CAE7     		b	.L150
 1499              	.LBE57:
 1500              	.LBE56:
 1501              		.cfi_endproc
 1502              	.LFE154:
 1504 0076 00BF     		.section	.text.UART_WaitOnFlagUntilTimeout,"ax",%progbits
 1505              		.align	1
 1506              		.p2align 2,,3
 1507              		.global	UART_WaitOnFlagUntilTimeout
 1508              		.syntax unified
 1509              		.thumb
 1510              		.thumb_func
 1511              		.fpu fpv4-sp-d16
 1513              	UART_WaitOnFlagUntilTimeout:
 1514              	.LFB156:
1336:Drivers/STM32F7xx_HAL_Driver/Src/stm32f7xx_hal_uart.c ****   /* Wait until flag is set */
 1515              		.loc 1 1336 0
 1516              		.cfi_startproc
 1517              		@ args = 4, pretend = 0, frame = 0
 1518              		@ frame_needed = 0, uses_anonymous_args = 0
 1519              	.LVL102:
 1520 0000 2DE9F843 		push	{r3, r4, r5, r6, r7, r8, r9, lr}
 1521              	.LCFI31:
 1522              		.cfi_def_cfa_offset 32
 1523              		.cfi_offset 3, -32
 1524              		.cfi_offset 4, -28
 1525              		.cfi_offset 5, -24
 1526              		.cfi_offset 6, -20
 1527              		.cfi_offset 7, -16
 1528              		.cfi_offset 8, -12
 1529              		.cfi_offset 9, -8
 1530              		.cfi_offset 14, -4
1336:Drivers/STM32F7xx_HAL_Driver/Src/stm32f7xx_hal_uart.c ****   /* Wait until flag is set */
 1531              		.loc 1 1336 0
 1532 0004 089F     		ldr	r7, [sp, #32]
 1533 0006 8046     		mov	r8, r0
 1534 0008 0E46     		mov	r6, r1
 1535 000a 1546     		mov	r5, r2
 1536 000c 9946     		mov	r9, r3
 1537              	.LVL103:
 1538              	.L170:
 1539 000e 7B1C     		adds	r3, r7, #1
1338:Drivers/STM32F7xx_HAL_Driver/Src/stm32f7xx_hal_uart.c ****   {
 1540              		.loc 1 1338 0
 1541 0010 D8F80040 		ldr	r4, [r8]
 1542 0014 0AD1     		bne	.L173
 1543              	.L174:
 1544 0016 E369     		ldr	r3, [r4, #28]
 1545 0018 36EA0303 		bics	r3, r6, r3
 1546 001c 0CBF     		ite	eq
 1547 001e 0123     		moveq	r3, #1
 1548 0020 0023     		movne	r3, #0
ARM GAS  /tmp/cc6CQ8Vx.s 			page 63


 1549 0022 9D42     		cmp	r5, r3
 1550 0024 F7D0     		beq	.L174
 1551              	.L182:
1358:Drivers/STM32F7xx_HAL_Driver/Src/stm32f7xx_hal_uart.c **** }
 1552              		.loc 1 1358 0
 1553 0026 0020     		movs	r0, #0
 1554              	.L172:
1359:Drivers/STM32F7xx_HAL_Driver/Src/stm32f7xx_hal_uart.c **** 
 1555              		.loc 1 1359 0
 1556 0028 BDE8F883 		pop	{r3, r4, r5, r6, r7, r8, r9, pc}
 1557              	.LVL104:
 1558              	.L173:
1338:Drivers/STM32F7xx_HAL_Driver/Src/stm32f7xx_hal_uart.c ****   {
 1559              		.loc 1 1338 0
 1560 002c E269     		ldr	r2, [r4, #28]
 1561 002e 36EA0203 		bics	r3, r6, r2
 1562 0032 0CBF     		ite	eq
 1563 0034 0122     		moveq	r2, #1
 1564 0036 0022     		movne	r2, #0
 1565 0038 AA42     		cmp	r2, r5
 1566 003a F4D1     		bne	.L182
1343:Drivers/STM32F7xx_HAL_Driver/Src/stm32f7xx_hal_uart.c ****       {
 1567              		.loc 1 1343 0
 1568 003c 3FB1     		cbz	r7, .L171
1343:Drivers/STM32F7xx_HAL_Driver/Src/stm32f7xx_hal_uart.c ****       {
 1569              		.loc 1 1343 0 is_stmt 0 discriminator 1
 1570 003e FFF7FEFF 		bl	HAL_GetTick
 1571              	.LVL105:
 1572 0042 A0EB0900 		sub	r0, r0, r9
 1573 0046 B842     		cmp	r0, r7
 1574 0048 E1D3     		bcc	.L170
 1575 004a D8F80040 		ldr	r4, [r8]
 1576              	.L171:
 1577              	.LVL106:
 1578              	.LBB60:
 1579              	.LBB61:
1346:Drivers/STM32F7xx_HAL_Driver/Src/stm32f7xx_hal_uart.c ****         CLEAR_BIT(huart->Instance->CR3, USART_CR3_EIE);
 1580              		.loc 1 1346 0 is_stmt 1
 1581 004e 2368     		ldr	r3, [r4]
1349:Drivers/STM32F7xx_HAL_Driver/Src/stm32f7xx_hal_uart.c ****         huart->RxState = HAL_UART_STATE_READY;
 1582              		.loc 1 1349 0
 1583 0050 2022     		movs	r2, #32
1353:Drivers/STM32F7xx_HAL_Driver/Src/stm32f7xx_hal_uart.c ****         return HAL_TIMEOUT;
 1584              		.loc 1 1353 0
 1585 0052 0021     		movs	r1, #0
 1586 0054 0320     		movs	r0, #3
1346:Drivers/STM32F7xx_HAL_Driver/Src/stm32f7xx_hal_uart.c ****         CLEAR_BIT(huart->Instance->CR3, USART_CR3_EIE);
 1587              		.loc 1 1346 0
 1588 0056 23F4D073 		bic	r3, r3, #416
 1589 005a 2360     		str	r3, [r4]
1347:Drivers/STM32F7xx_HAL_Driver/Src/stm32f7xx_hal_uart.c **** 
 1590              		.loc 1 1347 0
 1591 005c A368     		ldr	r3, [r4, #8]
 1592 005e 23F00103 		bic	r3, r3, #1
 1593 0062 A360     		str	r3, [r4, #8]
1349:Drivers/STM32F7xx_HAL_Driver/Src/stm32f7xx_hal_uart.c ****         huart->RxState = HAL_UART_STATE_READY;
 1594              		.loc 1 1349 0
ARM GAS  /tmp/cc6CQ8Vx.s 			page 64


 1595 0064 88F86920 		strb	r2, [r8, #105]
1353:Drivers/STM32F7xx_HAL_Driver/Src/stm32f7xx_hal_uart.c ****         return HAL_TIMEOUT;
 1596              		.loc 1 1353 0
 1597 0068 88F86810 		strb	r1, [r8, #104]
 1598              	.LVL107:
1350:Drivers/STM32F7xx_HAL_Driver/Src/stm32f7xx_hal_uart.c **** 
 1599              		.loc 1 1350 0
 1600 006c 88F86A20 		strb	r2, [r8, #106]
 1601 0070 DAE7     		b	.L172
 1602              	.LBE61:
 1603              	.LBE60:
 1604              		.cfi_endproc
 1605              	.LFE156:
 1607 0072 00BF     		.section	.text.HAL_UART_TxCpltCallback,"ax",%progbits
 1608              		.align	1
 1609              		.p2align 2,,3
 1610              		.weak	HAL_UART_TxCpltCallback
 1611              		.syntax unified
 1612              		.thumb
 1613              		.thumb_func
 1614              		.fpu fpv4-sp-d16
 1616              	HAL_UART_TxCpltCallback:
 1617              	.LFB192:
 1618              		.cfi_startproc
 1619              		@ args = 0, pretend = 0, frame = 0
 1620              		@ frame_needed = 0, uses_anonymous_args = 0
 1621              		@ link register save eliminated.
 1622 0000 7047     		bx	lr
 1623              		.cfi_endproc
 1624              	.LFE192:
 1626 0002 00BF     		.section	.text.UART_DMATransmitCplt,"ax",%progbits
 1627              		.align	1
 1628              		.p2align 2,,3
 1629              		.syntax unified
 1630              		.thumb
 1631              		.thumb_func
 1632              		.fpu fpv4-sp-d16
 1634              	UART_DMATransmitCplt:
 1635              	.LFB157:
1367:Drivers/STM32F7xx_HAL_Driver/Src/stm32f7xx_hal_uart.c ****   UART_HandleTypeDef* huart = ( UART_HandleTypeDef* )((DMA_HandleTypeDef* )hdma)->Parent;
 1636              		.loc 1 1367 0
 1637              		.cfi_startproc
 1638              		@ args = 0, pretend = 0, frame = 0
 1639              		@ frame_needed = 0, uses_anonymous_args = 0
 1640              	.LVL108:
1367:Drivers/STM32F7xx_HAL_Driver/Src/stm32f7xx_hal_uart.c ****   UART_HandleTypeDef* huart = ( UART_HandleTypeDef* )((DMA_HandleTypeDef* )hdma)->Parent;
 1641              		.loc 1 1367 0
 1642 0000 08B5     		push	{r3, lr}
 1643              	.LCFI32:
 1644              		.cfi_def_cfa_offset 8
 1645              		.cfi_offset 3, -8
 1646              		.cfi_offset 14, -4
1371:Drivers/STM32F7xx_HAL_Driver/Src/stm32f7xx_hal_uart.c ****   {
 1647              		.loc 1 1371 0
 1648 0002 0368     		ldr	r3, [r0]
1368:Drivers/STM32F7xx_HAL_Driver/Src/stm32f7xx_hal_uart.c **** 
 1649              		.loc 1 1368 0
ARM GAS  /tmp/cc6CQ8Vx.s 			page 65


 1650 0004 806B     		ldr	r0, [r0, #56]
 1651              	.LVL109:
1371:Drivers/STM32F7xx_HAL_Driver/Src/stm32f7xx_hal_uart.c ****   {
 1652              		.loc 1 1371 0
 1653 0006 1B68     		ldr	r3, [r3]
 1654 0008 13F48073 		ands	r3, r3, #256
 1655 000c 0BD1     		bne	.L185
1377:Drivers/STM32F7xx_HAL_Driver/Src/stm32f7xx_hal_uart.c **** 
 1656              		.loc 1 1377 0
 1657 000e 0268     		ldr	r2, [r0]
1373:Drivers/STM32F7xx_HAL_Driver/Src/stm32f7xx_hal_uart.c **** 
 1658              		.loc 1 1373 0
 1659 0010 A0F85230 		strh	r3, [r0, #82]	@ movhi
1377:Drivers/STM32F7xx_HAL_Driver/Src/stm32f7xx_hal_uart.c **** 
 1660              		.loc 1 1377 0
 1661 0014 9368     		ldr	r3, [r2, #8]
 1662 0016 23F08003 		bic	r3, r3, #128
 1663 001a 9360     		str	r3, [r2, #8]
1380:Drivers/STM32F7xx_HAL_Driver/Src/stm32f7xx_hal_uart.c ****   }
 1664              		.loc 1 1380 0
 1665 001c 1368     		ldr	r3, [r2]
 1666 001e 43F04003 		orr	r3, r3, #64
 1667 0022 1360     		str	r3, [r2]
1387:Drivers/STM32F7xx_HAL_Driver/Src/stm32f7xx_hal_uart.c **** 
 1668              		.loc 1 1387 0
 1669 0024 08BD     		pop	{r3, pc}
 1670              	.L185:
1385:Drivers/STM32F7xx_HAL_Driver/Src/stm32f7xx_hal_uart.c ****   }
 1671              		.loc 1 1385 0
 1672 0026 FFF7FEFF 		bl	HAL_UART_TxCpltCallback
 1673              	.LVL110:
1387:Drivers/STM32F7xx_HAL_Driver/Src/stm32f7xx_hal_uart.c **** 
 1674              		.loc 1 1387 0
 1675 002a 08BD     		pop	{r3, pc}
 1676              		.cfi_endproc
 1677              	.LFE157:
 1679              		.section	.text.HAL_UART_TxHalfCpltCallback,"ax",%progbits
 1680              		.align	1
 1681              		.p2align 2,,3
 1682              		.weak	HAL_UART_TxHalfCpltCallback
 1683              		.syntax unified
 1684              		.thumb
 1685              		.thumb_func
 1686              		.fpu fpv4-sp-d16
 1688              	HAL_UART_TxHalfCpltCallback:
 1689              	.LFB190:
 1690              		.cfi_startproc
 1691              		@ args = 0, pretend = 0, frame = 0
 1692              		@ frame_needed = 0, uses_anonymous_args = 0
 1693              		@ link register save eliminated.
 1694 0000 7047     		bx	lr
 1695              		.cfi_endproc
 1696              	.LFE190:
 1698 0002 00BF     		.section	.text.UART_DMATxHalfCplt,"ax",%progbits
 1699              		.align	1
 1700              		.p2align 2,,3
 1701              		.syntax unified
ARM GAS  /tmp/cc6CQ8Vx.s 			page 66


 1702              		.thumb
 1703              		.thumb_func
 1704              		.fpu fpv4-sp-d16
 1706              	UART_DMATxHalfCplt:
 1707              	.LFB158:
1395:Drivers/STM32F7xx_HAL_Driver/Src/stm32f7xx_hal_uart.c ****   UART_HandleTypeDef* huart = (UART_HandleTypeDef*)((DMA_HandleTypeDef*)hdma)->Parent;
 1708              		.loc 1 1395 0
 1709              		.cfi_startproc
 1710              		@ args = 0, pretend = 0, frame = 0
 1711              		@ frame_needed = 0, uses_anonymous_args = 0
 1712              	.LVL111:
1395:Drivers/STM32F7xx_HAL_Driver/Src/stm32f7xx_hal_uart.c ****   UART_HandleTypeDef* huart = (UART_HandleTypeDef*)((DMA_HandleTypeDef*)hdma)->Parent;
 1713              		.loc 1 1395 0
 1714 0000 08B5     		push	{r3, lr}
 1715              	.LCFI33:
 1716              		.cfi_def_cfa_offset 8
 1717              		.cfi_offset 3, -8
 1718              		.cfi_offset 14, -4
1398:Drivers/STM32F7xx_HAL_Driver/Src/stm32f7xx_hal_uart.c **** }
 1719              		.loc 1 1398 0
 1720 0002 806B     		ldr	r0, [r0, #56]
 1721              	.LVL112:
 1722 0004 FFF7FEFF 		bl	HAL_UART_TxHalfCpltCallback
 1723              	.LVL113:
1399:Drivers/STM32F7xx_HAL_Driver/Src/stm32f7xx_hal_uart.c **** 
 1724              		.loc 1 1399 0
 1725 0008 08BD     		pop	{r3, pc}
 1726              		.cfi_endproc
 1727              	.LFE158:
 1729 000a 00BF     		.section	.text.HAL_UART_RxCpltCallback,"ax",%progbits
 1730              		.align	1
 1731              		.p2align 2,,3
 1732              		.weak	HAL_UART_RxCpltCallback
 1733              		.syntax unified
 1734              		.thumb
 1735              		.thumb_func
 1736              		.fpu fpv4-sp-d16
 1738              	HAL_UART_RxCpltCallback:
 1739              	.LFB196:
 1740              		.cfi_startproc
 1741              		@ args = 0, pretend = 0, frame = 0
 1742              		@ frame_needed = 0, uses_anonymous_args = 0
 1743              		@ link register save eliminated.
 1744 0000 7047     		bx	lr
 1745              		.cfi_endproc
 1746              	.LFE196:
 1748 0002 00BF     		.section	.text.UART_DMAReceiveCplt,"ax",%progbits
 1749              		.align	1
 1750              		.p2align 2,,3
 1751              		.syntax unified
 1752              		.thumb
 1753              		.thumb_func
 1754              		.fpu fpv4-sp-d16
 1756              	UART_DMAReceiveCplt:
 1757              	.LFB159:
1407:Drivers/STM32F7xx_HAL_Driver/Src/stm32f7xx_hal_uart.c ****   UART_HandleTypeDef* huart = ( UART_HandleTypeDef* )((DMA_HandleTypeDef* )hdma)->Parent;
 1758              		.loc 1 1407 0
ARM GAS  /tmp/cc6CQ8Vx.s 			page 67


 1759              		.cfi_startproc
 1760              		@ args = 0, pretend = 0, frame = 0
 1761              		@ frame_needed = 0, uses_anonymous_args = 0
 1762              	.LVL114:
1407:Drivers/STM32F7xx_HAL_Driver/Src/stm32f7xx_hal_uart.c ****   UART_HandleTypeDef* huart = ( UART_HandleTypeDef* )((DMA_HandleTypeDef* )hdma)->Parent;
 1763              		.loc 1 1407 0
 1764 0000 08B5     		push	{r3, lr}
 1765              	.LCFI34:
 1766              		.cfi_def_cfa_offset 8
 1767              		.cfi_offset 3, -8
 1768              		.cfi_offset 14, -4
1411:Drivers/STM32F7xx_HAL_Driver/Src/stm32f7xx_hal_uart.c ****   {
 1769              		.loc 1 1411 0
 1770 0002 0368     		ldr	r3, [r0]
1408:Drivers/STM32F7xx_HAL_Driver/Src/stm32f7xx_hal_uart.c **** 
 1771              		.loc 1 1408 0
 1772 0004 806B     		ldr	r0, [r0, #56]
 1773              	.LVL115:
1411:Drivers/STM32F7xx_HAL_Driver/Src/stm32f7xx_hal_uart.c ****   {
 1774              		.loc 1 1411 0
 1775 0006 1B68     		ldr	r3, [r3]
 1776 0008 13F48073 		ands	r3, r3, #256
 1777 000c 11D1     		bne	.L193
1416:Drivers/STM32F7xx_HAL_Driver/Src/stm32f7xx_hal_uart.c ****     CLEAR_BIT(huart->Instance->CR3, USART_CR3_EIE);
 1778              		.loc 1 1416 0
 1779 000e 0268     		ldr	r2, [r0]
1424:Drivers/STM32F7xx_HAL_Driver/Src/stm32f7xx_hal_uart.c ****   }
 1780              		.loc 1 1424 0
 1781 0010 2021     		movs	r1, #32
1413:Drivers/STM32F7xx_HAL_Driver/Src/stm32f7xx_hal_uart.c **** 
 1782              		.loc 1 1413 0
 1783 0012 A0F85A30 		strh	r3, [r0, #90]	@ movhi
1416:Drivers/STM32F7xx_HAL_Driver/Src/stm32f7xx_hal_uart.c ****     CLEAR_BIT(huart->Instance->CR3, USART_CR3_EIE);
 1784              		.loc 1 1416 0
 1785 0016 1368     		ldr	r3, [r2]
 1786 0018 23F48073 		bic	r3, r3, #256
 1787 001c 1360     		str	r3, [r2]
1417:Drivers/STM32F7xx_HAL_Driver/Src/stm32f7xx_hal_uart.c **** 
 1788              		.loc 1 1417 0
 1789 001e 9368     		ldr	r3, [r2, #8]
 1790 0020 23F00103 		bic	r3, r3, #1
 1791 0024 9360     		str	r3, [r2, #8]
1421:Drivers/STM32F7xx_HAL_Driver/Src/stm32f7xx_hal_uart.c **** 
 1792              		.loc 1 1421 0
 1793 0026 9368     		ldr	r3, [r2, #8]
 1794 0028 23F04003 		bic	r3, r3, #64
 1795 002c 9360     		str	r3, [r2, #8]
1424:Drivers/STM32F7xx_HAL_Driver/Src/stm32f7xx_hal_uart.c ****   }
 1796              		.loc 1 1424 0
 1797 002e 80F86A10 		strb	r1, [r0, #106]
 1798              	.L193:
1426:Drivers/STM32F7xx_HAL_Driver/Src/stm32f7xx_hal_uart.c **** }
 1799              		.loc 1 1426 0
 1800 0032 FFF7FEFF 		bl	HAL_UART_RxCpltCallback
 1801              	.LVL116:
1427:Drivers/STM32F7xx_HAL_Driver/Src/stm32f7xx_hal_uart.c **** 
 1802              		.loc 1 1427 0
ARM GAS  /tmp/cc6CQ8Vx.s 			page 68


 1803 0036 08BD     		pop	{r3, pc}
 1804              		.cfi_endproc
 1805              	.LFE159:
 1807              		.section	.text.HAL_UART_RxHalfCpltCallback,"ax",%progbits
 1808              		.align	1
 1809              		.p2align 2,,3
 1810              		.weak	HAL_UART_RxHalfCpltCallback
 1811              		.syntax unified
 1812              		.thumb
 1813              		.thumb_func
 1814              		.fpu fpv4-sp-d16
 1816              	HAL_UART_RxHalfCpltCallback:
 1817              	.LFB194:
 1818              		.cfi_startproc
 1819              		@ args = 0, pretend = 0, frame = 0
 1820              		@ frame_needed = 0, uses_anonymous_args = 0
 1821              		@ link register save eliminated.
 1822 0000 7047     		bx	lr
 1823              		.cfi_endproc
 1824              	.LFE194:
 1826 0002 00BF     		.section	.text.UART_DMARxHalfCplt,"ax",%progbits
 1827              		.align	1
 1828              		.p2align 2,,3
 1829              		.syntax unified
 1830              		.thumb
 1831              		.thumb_func
 1832              		.fpu fpv4-sp-d16
 1834              	UART_DMARxHalfCplt:
 1835              	.LFB160:
1435:Drivers/STM32F7xx_HAL_Driver/Src/stm32f7xx_hal_uart.c ****   UART_HandleTypeDef* huart = (UART_HandleTypeDef*)((DMA_HandleTypeDef*)hdma)->Parent;
 1836              		.loc 1 1435 0
 1837              		.cfi_startproc
 1838              		@ args = 0, pretend = 0, frame = 0
 1839              		@ frame_needed = 0, uses_anonymous_args = 0
 1840              	.LVL117:
1435:Drivers/STM32F7xx_HAL_Driver/Src/stm32f7xx_hal_uart.c ****   UART_HandleTypeDef* huart = (UART_HandleTypeDef*)((DMA_HandleTypeDef*)hdma)->Parent;
 1841              		.loc 1 1435 0
 1842 0000 08B5     		push	{r3, lr}
 1843              	.LCFI35:
 1844              		.cfi_def_cfa_offset 8
 1845              		.cfi_offset 3, -8
 1846              		.cfi_offset 14, -4
1438:Drivers/STM32F7xx_HAL_Driver/Src/stm32f7xx_hal_uart.c **** }
 1847              		.loc 1 1438 0
 1848 0002 806B     		ldr	r0, [r0, #56]
 1849              	.LVL118:
 1850 0004 FFF7FEFF 		bl	HAL_UART_RxHalfCpltCallback
 1851              	.LVL119:
1439:Drivers/STM32F7xx_HAL_Driver/Src/stm32f7xx_hal_uart.c **** 
 1852              		.loc 1 1439 0
 1853 0008 08BD     		pop	{r3, pc}
 1854              		.cfi_endproc
 1855              	.LFE160:
 1857 000a 00BF     		.section	.text.HAL_UART_ErrorCallback,"ax",%progbits
 1858              		.align	1
 1859              		.p2align 2,,3
 1860              		.weak	HAL_UART_ErrorCallback
ARM GAS  /tmp/cc6CQ8Vx.s 			page 69


 1861              		.syntax unified
 1862              		.thumb
 1863              		.thumb_func
 1864              		.fpu fpv4-sp-d16
 1866              	HAL_UART_ErrorCallback:
 1867              	.LFB198:
 1868              		.cfi_startproc
 1869              		@ args = 0, pretend = 0, frame = 0
 1870              		@ frame_needed = 0, uses_anonymous_args = 0
 1871              		@ link register save eliminated.
 1872 0000 7047     		bx	lr
 1873              		.cfi_endproc
 1874              	.LFE198:
 1876 0002 00BF     		.section	.text.UART_DMAError,"ax",%progbits
 1877              		.align	1
 1878              		.p2align 2,,3
 1879              		.syntax unified
 1880              		.thumb
 1881              		.thumb_func
 1882              		.fpu fpv4-sp-d16
 1884              	UART_DMAError:
 1885              	.LFB161:
1447:Drivers/STM32F7xx_HAL_Driver/Src/stm32f7xx_hal_uart.c ****   UART_HandleTypeDef* huart = ( UART_HandleTypeDef* )((DMA_HandleTypeDef* )hdma)->Parent;
 1886              		.loc 1 1447 0
 1887              		.cfi_startproc
 1888              		@ args = 0, pretend = 0, frame = 0
 1889              		@ frame_needed = 0, uses_anonymous_args = 0
 1890              	.LVL120:
1447:Drivers/STM32F7xx_HAL_Driver/Src/stm32f7xx_hal_uart.c ****   UART_HandleTypeDef* huart = ( UART_HandleTypeDef* )((DMA_HandleTypeDef* )hdma)->Parent;
 1891              		.loc 1 1447 0
 1892 0000 08B5     		push	{r3, lr}
 1893              	.LCFI36:
 1894              		.cfi_def_cfa_offset 8
 1895              		.cfi_offset 3, -8
 1896              		.cfi_offset 14, -4
1449:Drivers/STM32F7xx_HAL_Driver/Src/stm32f7xx_hal_uart.c ****   huart->TxXferCount = 0U;
 1897              		.loc 1 1449 0
 1898 0002 0022     		movs	r2, #0
1448:Drivers/STM32F7xx_HAL_Driver/Src/stm32f7xx_hal_uart.c ****   huart->RxXferCount = 0U;
 1899              		.loc 1 1448 0
 1900 0004 836B     		ldr	r3, [r0, #56]
 1901              	.LVL121:
1449:Drivers/STM32F7xx_HAL_Driver/Src/stm32f7xx_hal_uart.c ****   huart->TxXferCount = 0U;
 1902              		.loc 1 1449 0
 1903 0006 A3F85A20 		strh	r2, [r3, #90]	@ movhi
1450:Drivers/STM32F7xx_HAL_Driver/Src/stm32f7xx_hal_uart.c ****   /* Stop UART DMA Tx request if ongoing */
 1904              		.loc 1 1450 0
 1905 000a A3F85220 		strh	r2, [r3, #82]	@ movhi
1452:Drivers/STM32F7xx_HAL_Driver/Src/stm32f7xx_hal_uart.c ****       &&(HAL_IS_BIT_SET(huart->Instance->CR3, USART_CR3_DMAT)) )
 1906              		.loc 1 1452 0
 1907 000e 93F86920 		ldrb	r2, [r3, #105]	@ zero_extendqisi2
 1908 0012 212A     		cmp	r2, #33
 1909 0014 1BD0     		beq	.L209
 1910              	.LVL122:
 1911              	.L200:
1459:Drivers/STM32F7xx_HAL_Driver/Src/stm32f7xx_hal_uart.c ****       &&(HAL_IS_BIT_SET(huart->Instance->CR3, USART_CR3_DMAR)) )
 1912              		.loc 1 1459 0
ARM GAS  /tmp/cc6CQ8Vx.s 			page 70


 1913 0016 93F86A20 		ldrb	r2, [r3, #106]	@ zero_extendqisi2
 1914 001a 222A     		cmp	r2, #34
 1915 001c 07D0     		beq	.L210
 1916              	.L201:
1464:Drivers/STM32F7xx_HAL_Driver/Src/stm32f7xx_hal_uart.c ****   HAL_UART_ErrorCallback(huart);
 1917              		.loc 1 1464 0
 1918 001e DA6E     		ldr	r2, [r3, #108]
1465:Drivers/STM32F7xx_HAL_Driver/Src/stm32f7xx_hal_uart.c **** }
 1919              		.loc 1 1465 0
 1920 0020 1846     		mov	r0, r3
1464:Drivers/STM32F7xx_HAL_Driver/Src/stm32f7xx_hal_uart.c ****   HAL_UART_ErrorCallback(huart);
 1921              		.loc 1 1464 0
 1922 0022 42F01002 		orr	r2, r2, #16
 1923 0026 DA66     		str	r2, [r3, #108]
1465:Drivers/STM32F7xx_HAL_Driver/Src/stm32f7xx_hal_uart.c **** }
 1924              		.loc 1 1465 0
 1925 0028 FFF7FEFF 		bl	HAL_UART_ErrorCallback
 1926              	.LVL123:
1466:Drivers/STM32F7xx_HAL_Driver/Src/stm32f7xx_hal_uart.c **** 
 1927              		.loc 1 1466 0
 1928 002c 08BD     		pop	{r3, pc}
 1929              	.LVL124:
 1930              	.L210:
1460:Drivers/STM32F7xx_HAL_Driver/Src/stm32f7xx_hal_uart.c ****   {
 1931              		.loc 1 1460 0
 1932 002e 1A68     		ldr	r2, [r3]
 1933 0030 9168     		ldr	r1, [r2, #8]
 1934 0032 4906     		lsls	r1, r1, #25
 1935 0034 F3D5     		bpl	.L201
 1936              	.LVL125:
 1937              	.LBB62:
 1938              	.LBB63:
1703:Drivers/STM32F7xx_HAL_Driver/Src/stm32f7xx_hal_uart.c ****   CLEAR_BIT(huart->Instance->CR3, USART_CR3_EIE);
 1939              		.loc 1 1703 0
 1940 0036 1168     		ldr	r1, [r2]
 1941              		.loc 1 1707 0
 1942 0038 2020     		movs	r0, #32
1703:Drivers/STM32F7xx_HAL_Driver/Src/stm32f7xx_hal_uart.c ****   CLEAR_BIT(huart->Instance->CR3, USART_CR3_EIE);
 1943              		.loc 1 1703 0
 1944 003a 21F49071 		bic	r1, r1, #288
 1945 003e 1160     		str	r1, [r2]
1704:Drivers/STM32F7xx_HAL_Driver/Src/stm32f7xx_hal_uart.c **** 
 1946              		.loc 1 1704 0
 1947 0040 9168     		ldr	r1, [r2, #8]
 1948 0042 21F00101 		bic	r1, r1, #1
 1949 0046 9160     		str	r1, [r2, #8]
 1950              		.loc 1 1707 0
 1951 0048 83F86A00 		strb	r0, [r3, #106]
 1952 004c E7E7     		b	.L201
 1953              	.LVL126:
 1954              	.L209:
 1955              	.LBE63:
 1956              	.LBE62:
1453:Drivers/STM32F7xx_HAL_Driver/Src/stm32f7xx_hal_uart.c ****   {
 1957              		.loc 1 1453 0
 1958 004e 1A68     		ldr	r2, [r3]
 1959 0050 9168     		ldr	r1, [r2, #8]
ARM GAS  /tmp/cc6CQ8Vx.s 			page 71


 1960 0052 0806     		lsls	r0, r1, #24
 1961              	.LVL127:
 1962 0054 DFD5     		bpl	.L200
 1963              	.LVL128:
 1964              	.LBB64:
 1965              	.LBB65:
1688:Drivers/STM32F7xx_HAL_Driver/Src/stm32f7xx_hal_uart.c **** 
 1966              		.loc 1 1688 0
 1967 0056 1168     		ldr	r1, [r2]
1691:Drivers/STM32F7xx_HAL_Driver/Src/stm32f7xx_hal_uart.c **** }
 1968              		.loc 1 1691 0
 1969 0058 2020     		movs	r0, #32
1688:Drivers/STM32F7xx_HAL_Driver/Src/stm32f7xx_hal_uart.c **** 
 1970              		.loc 1 1688 0
 1971 005a 21F0C001 		bic	r1, r1, #192
 1972 005e 1160     		str	r1, [r2]
1691:Drivers/STM32F7xx_HAL_Driver/Src/stm32f7xx_hal_uart.c **** }
 1973              		.loc 1 1691 0
 1974 0060 83F86900 		strb	r0, [r3, #105]
 1975 0064 D7E7     		b	.L200
 1976              	.LBE65:
 1977              	.LBE64:
 1978              		.cfi_endproc
 1979              	.LFE161:
 1981 0066 00BF     		.section	.text.HAL_UART_IRQHandler,"ax",%progbits
 1982              		.align	1
 1983              		.p2align 2,,3
 1984              		.global	HAL_UART_IRQHandler
 1985              		.syntax unified
 1986              		.thumb
 1987              		.thumb_func
 1988              		.fpu fpv4-sp-d16
 1990              	HAL_UART_IRQHandler:
 1991              	.LFB155:
1191:Drivers/STM32F7xx_HAL_Driver/Src/stm32f7xx_hal_uart.c ****   uint32_t isrflags   = READ_REG(huart->Instance->ISR);
 1992              		.loc 1 1191 0
 1993              		.cfi_startproc
 1994              		@ args = 0, pretend = 0, frame = 0
 1995              		@ frame_needed = 0, uses_anonymous_args = 0
 1996              	.LVL129:
1192:Drivers/STM32F7xx_HAL_Driver/Src/stm32f7xx_hal_uart.c ****   uint32_t cr1its     = READ_REG(huart->Instance->CR1);
 1997              		.loc 1 1192 0
 1998 0000 0368     		ldr	r3, [r0]
 1999 0002 DA69     		ldr	r2, [r3, #28]
 2000              	.LVL130:
1191:Drivers/STM32F7xx_HAL_Driver/Src/stm32f7xx_hal_uart.c ****   uint32_t isrflags   = READ_REG(huart->Instance->ISR);
 2001              		.loc 1 1191 0
 2002 0004 70B5     		push	{r4, r5, r6, lr}
 2003              	.LCFI37:
 2004              		.cfi_def_cfa_offset 16
 2005              		.cfi_offset 4, -16
 2006              		.cfi_offset 5, -12
 2007              		.cfi_offset 6, -8
 2008              		.cfi_offset 14, -4
1199:Drivers/STM32F7xx_HAL_Driver/Src/stm32f7xx_hal_uart.c ****   {
 2009              		.loc 1 1199 0
 2010 0006 1607     		lsls	r6, r2, #28
ARM GAS  /tmp/cc6CQ8Vx.s 			page 72


1191:Drivers/STM32F7xx_HAL_Driver/Src/stm32f7xx_hal_uart.c ****   uint32_t isrflags   = READ_REG(huart->Instance->ISR);
 2011              		.loc 1 1191 0
 2012 0008 0446     		mov	r4, r0
1193:Drivers/STM32F7xx_HAL_Driver/Src/stm32f7xx_hal_uart.c ****   uint32_t cr3its     = READ_REG(huart->Instance->CR3);
 2013              		.loc 1 1193 0
 2014 000a 1868     		ldr	r0, [r3]
 2015              	.LVL131:
1194:Drivers/STM32F7xx_HAL_Driver/Src/stm32f7xx_hal_uart.c ****   uint32_t errorflags;
 2016              		.loc 1 1194 0
 2017 000c 9968     		ldr	r1, [r3, #8]
 2018              	.LVL132:
1199:Drivers/STM32F7xx_HAL_Driver/Src/stm32f7xx_hal_uart.c ****   {
 2019              		.loc 1 1199 0
 2020 000e 28D1     		bne	.L212
1202:Drivers/STM32F7xx_HAL_Driver/Src/stm32f7xx_hal_uart.c ****     {
 2021              		.loc 1 1202 0
 2022 0010 9506     		lsls	r5, r2, #26
 2023 0012 02D5     		bpl	.L213
1202:Drivers/STM32F7xx_HAL_Driver/Src/stm32f7xx_hal_uart.c ****     {
 2024              		.loc 1 1202 0 is_stmt 0 discriminator 1
 2025 0014 8106     		lsls	r1, r0, #26
 2026              	.LVL133:
 2027 0016 00F18C80 		bmi	.L299
 2028              	.L213:
1311:Drivers/STM32F7xx_HAL_Driver/Src/stm32f7xx_hal_uart.c ****   {
 2029              		.loc 1 1311 0 is_stmt 1
 2030 001a 1606     		lsls	r6, r2, #24
 2031 001c 04D4     		bmi	.L300
 2032              	.L237:
1318:Drivers/STM32F7xx_HAL_Driver/Src/stm32f7xx_hal_uart.c ****   {
 2033              		.loc 1 1318 0
 2034 001e 5106     		lsls	r1, r2, #25
 2035 0020 01D5     		bpl	.L211
1318:Drivers/STM32F7xx_HAL_Driver/Src/stm32f7xx_hal_uart.c ****   {
 2036              		.loc 1 1318 0 is_stmt 0 discriminator 1
 2037 0022 4206     		lsls	r2, r0, #25
 2038              	.LVL134:
 2039 0024 7AD4     		bmi	.L301
 2040              	.LVL135:
 2041              	.L211:
1324:Drivers/STM32F7xx_HAL_Driver/Src/stm32f7xx_hal_uart.c **** 
 2042              		.loc 1 1324 0 is_stmt 1
 2043 0026 70BD     		pop	{r4, r5, r6, pc}
 2044              	.LVL136:
 2045              	.L300:
1311:Drivers/STM32F7xx_HAL_Driver/Src/stm32f7xx_hal_uart.c ****   {
 2046              		.loc 1 1311 0 discriminator 1
 2047 0028 0506     		lsls	r5, r0, #24
 2048 002a F8D5     		bpl	.L237
 2049              	.LVL137:
 2050              	.LBB80:
 2051              	.LBB81:
1570:Drivers/STM32F7xx_HAL_Driver/Src/stm32f7xx_hal_uart.c ****   {
 2052              		.loc 1 1570 0
 2053 002c 94F86920 		ldrb	r2, [r4, #105]	@ zero_extendqisi2
 2054              	.LVL138:
 2055 0030 212A     		cmp	r2, #33
ARM GAS  /tmp/cc6CQ8Vx.s 			page 73


 2056 0032 F8D1     		bne	.L211
1573:Drivers/STM32F7xx_HAL_Driver/Src/stm32f7xx_hal_uart.c ****     {
 2057              		.loc 1 1573 0
 2058 0034 B4F85220 		ldrh	r2, [r4, #82]
 2059 0038 92B2     		uxth	r2, r2
 2060 003a 002A     		cmp	r2, #0
 2061 003c 00F0E180 		beq	.L302
1585:Drivers/STM32F7xx_HAL_Driver/Src/stm32f7xx_hal_uart.c ****       {
 2062              		.loc 1 1585 0
 2063 0040 A168     		ldr	r1, [r4, #8]
 2064 0042 E26C     		ldr	r2, [r4, #76]
 2065 0044 B1F5805F 		cmp	r1, #4096
 2066 0048 00F0F280 		beq	.L303
 2067              	.L239:
1593:Drivers/STM32F7xx_HAL_Driver/Src/stm32f7xx_hal_uart.c ****       }
 2068              		.loc 1 1593 0
 2069 004c 511C     		adds	r1, r2, #1
 2070 004e E164     		str	r1, [r4, #76]
 2071 0050 1278     		ldrb	r2, [r2]	@ zero_extendqisi2
 2072 0052 9A62     		str	r2, [r3, #40]
 2073              	.L240:
1596:Drivers/STM32F7xx_HAL_Driver/Src/stm32f7xx_hal_uart.c **** 
 2074              		.loc 1 1596 0
 2075 0054 B4F85230 		ldrh	r3, [r4, #82]
 2076 0058 013B     		subs	r3, r3, #1
 2077 005a 9BB2     		uxth	r3, r3
 2078 005c A4F85230 		strh	r3, [r4, #82]	@ movhi
 2079              	.LBE81:
 2080              	.LBE80:
1324:Drivers/STM32F7xx_HAL_Driver/Src/stm32f7xx_hal_uart.c **** 
 2081              		.loc 1 1324 0
 2082 0060 70BD     		pop	{r4, r5, r6, pc}
 2083              	.LVL139:
 2084              	.L212:
1211:Drivers/STM32F7xx_HAL_Driver/Src/stm32f7xx_hal_uart.c ****          || ((cr1its & (USART_CR1_RXNEIE | USART_CR1_PEIE)) != RESET)) )
 2085              		.loc 1 1211 0
 2086 0062 11F00101 		ands	r1, r1, #1
 2087              	.LVL140:
 2088 0066 02D1     		bne	.L219
1212:Drivers/STM32F7xx_HAL_Driver/Src/stm32f7xx_hal_uart.c ****   {
 2089              		.loc 1 1212 0
 2090 0068 10F4907F 		tst	r0, #288
 2091 006c D5D0     		beq	.L213
 2092              	.L219:
1216:Drivers/STM32F7xx_HAL_Driver/Src/stm32f7xx_hal_uart.c ****     {
 2093              		.loc 1 1216 0
 2094 006e D607     		lsls	r6, r2, #31
 2095 0070 07D5     		bpl	.L220
1216:Drivers/STM32F7xx_HAL_Driver/Src/stm32f7xx_hal_uart.c ****     {
 2096              		.loc 1 1216 0 is_stmt 0 discriminator 1
 2097 0072 C505     		lsls	r5, r0, #23
 2098 0074 05D5     		bpl	.L220
1218:Drivers/STM32F7xx_HAL_Driver/Src/stm32f7xx_hal_uart.c **** 
 2099              		.loc 1 1218 0 is_stmt 1
 2100 0076 0125     		movs	r5, #1
 2101 0078 1D62     		str	r5, [r3, #32]
1220:Drivers/STM32F7xx_HAL_Driver/Src/stm32f7xx_hal_uart.c ****     }
ARM GAS  /tmp/cc6CQ8Vx.s 			page 74


 2102              		.loc 1 1220 0
 2103 007a E56E     		ldr	r5, [r4, #108]
 2104 007c 45F00105 		orr	r5, r5, #1
 2105 0080 E566     		str	r5, [r4, #108]
 2106              	.L220:
1224:Drivers/STM32F7xx_HAL_Driver/Src/stm32f7xx_hal_uart.c ****     {
 2107              		.loc 1 1224 0
 2108 0082 9607     		lsls	r6, r2, #30
 2109 0084 39D4     		bmi	.L304
1232:Drivers/STM32F7xx_HAL_Driver/Src/stm32f7xx_hal_uart.c ****     {
 2110              		.loc 1 1232 0
 2111 0086 5607     		lsls	r6, r2, #29
 2112 0088 01D5     		bpl	.L223
 2113 008a 0029     		cmp	r1, #0
 2114 008c 3FD1     		bne	.L225
 2115              	.L223:
1240:Drivers/STM32F7xx_HAL_Driver/Src/stm32f7xx_hal_uart.c ****        (((cr1its & USART_CR1_RXNEIE) != RESET) || ((cr3its & USART_CR3_EIE) != RESET)))
 2116              		.loc 1 1240 0
 2117 008e 1507     		lsls	r5, r2, #28
 2118 0090 03D5     		bpl	.L227
1240:Drivers/STM32F7xx_HAL_Driver/Src/stm32f7xx_hal_uart.c ****        (((cr1its & USART_CR1_RXNEIE) != RESET) || ((cr3its & USART_CR3_EIE) != RESET)))
 2119              		.loc 1 1240 0 is_stmt 0 discriminator 1
 2120 0092 8606     		lsls	r6, r0, #26
 2121 0094 76D4     		bmi	.L228
1241:Drivers/STM32F7xx_HAL_Driver/Src/stm32f7xx_hal_uart.c ****     {
 2122              		.loc 1 1241 0 is_stmt 1
 2123 0096 0029     		cmp	r1, #0
 2124 0098 74D1     		bne	.L228
 2125              	.L227:
1249:Drivers/STM32F7xx_HAL_Driver/Src/stm32f7xx_hal_uart.c ****     {
 2126              		.loc 1 1249 0
 2127 009a E16E     		ldr	r1, [r4, #108]
 2128 009c 0029     		cmp	r1, #0
 2129 009e C2D0     		beq	.L211
1252:Drivers/STM32F7xx_HAL_Driver/Src/stm32f7xx_hal_uart.c ****       {
 2130              		.loc 1 1252 0
 2131 00a0 9506     		lsls	r5, r2, #26
 2132 00a2 01D5     		bpl	.L230
1252:Drivers/STM32F7xx_HAL_Driver/Src/stm32f7xx_hal_uart.c ****       {
 2133              		.loc 1 1252 0 is_stmt 0 discriminator 1
 2134 00a4 8006     		lsls	r0, r0, #26
 2135              	.LVL141:
 2136 00a6 7DD4     		bmi	.L305
 2137              	.LVL142:
 2138              	.L230:
1259:Drivers/STM32F7xx_HAL_Driver/Src/stm32f7xx_hal_uart.c ****           (HAL_IS_BIT_SET(huart->Instance->CR3, USART_CR3_DMAR)))
 2139              		.loc 1 1259 0 is_stmt 1
 2140 00a8 E26E     		ldr	r2, [r4, #108]
 2141 00aa 1107     		lsls	r1, r2, #28
 2142 00ac 04D4     		bmi	.L234
1260:Drivers/STM32F7xx_HAL_Driver/Src/stm32f7xx_hal_uart.c ****       {
 2143              		.loc 1 1260 0 discriminator 1
 2144 00ae 9D68     		ldr	r5, [r3, #8]
1259:Drivers/STM32F7xx_HAL_Driver/Src/stm32f7xx_hal_uart.c ****           (HAL_IS_BIT_SET(huart->Instance->CR3, USART_CR3_DMAR)))
 2145              		.loc 1 1259 0 discriminator 1
 2146 00b0 15F04005 		ands	r5, r5, #64
 2147 00b4 00F0A080 		beq	.L235
ARM GAS  /tmp/cc6CQ8Vx.s 			page 75


 2148              	.L234:
 2149              	.LVL143:
 2150              	.LBB84:
 2151              	.LBB85:
1703:Drivers/STM32F7xx_HAL_Driver/Src/stm32f7xx_hal_uart.c ****   CLEAR_BIT(huart->Instance->CR3, USART_CR3_EIE);
 2152              		.loc 1 1703 0
 2153 00b8 1A68     		ldr	r2, [r3]
 2154              		.loc 1 1707 0
 2155 00ba 2021     		movs	r1, #32
1703:Drivers/STM32F7xx_HAL_Driver/Src/stm32f7xx_hal_uart.c ****   CLEAR_BIT(huart->Instance->CR3, USART_CR3_EIE);
 2156              		.loc 1 1703 0
 2157 00bc 22F49072 		bic	r2, r2, #288
 2158 00c0 1A60     		str	r2, [r3]
1704:Drivers/STM32F7xx_HAL_Driver/Src/stm32f7xx_hal_uart.c **** 
 2159              		.loc 1 1704 0
 2160 00c2 9A68     		ldr	r2, [r3, #8]
 2161 00c4 22F00102 		bic	r2, r2, #1
 2162 00c8 9A60     		str	r2, [r3, #8]
 2163              		.loc 1 1707 0
 2164 00ca 84F86A10 		strb	r1, [r4, #106]
 2165              	.LVL144:
 2166              	.LBE85:
 2167              	.LBE84:
1268:Drivers/STM32F7xx_HAL_Driver/Src/stm32f7xx_hal_uart.c ****         {
 2168              		.loc 1 1268 0
 2169 00ce 9A68     		ldr	r2, [r3, #8]
 2170 00d0 5206     		lsls	r2, r2, #25
 2171 00d2 5ED5     		bpl	.L236
1270:Drivers/STM32F7xx_HAL_Driver/Src/stm32f7xx_hal_uart.c **** 
 2172              		.loc 1 1270 0
 2173 00d4 9A68     		ldr	r2, [r3, #8]
1273:Drivers/STM32F7xx_HAL_Driver/Src/stm32f7xx_hal_uart.c ****           {
 2174              		.loc 1 1273 0
 2175 00d6 616E     		ldr	r1, [r4, #100]
1270:Drivers/STM32F7xx_HAL_Driver/Src/stm32f7xx_hal_uart.c **** 
 2176              		.loc 1 1270 0
 2177 00d8 22F04002 		bic	r2, r2, #64
 2178 00dc 9A60     		str	r2, [r3, #8]
1273:Drivers/STM32F7xx_HAL_Driver/Src/stm32f7xx_hal_uart.c ****           {
 2179              		.loc 1 1273 0
 2180 00de 0029     		cmp	r1, #0
 2181 00e0 57D0     		beq	.L236
1277:Drivers/STM32F7xx_HAL_Driver/Src/stm32f7xx_hal_uart.c **** 
 2182              		.loc 1 1277 0
 2183 00e2 5D4B     		ldr	r3, .L308
1280:Drivers/STM32F7xx_HAL_Driver/Src/stm32f7xx_hal_uart.c ****             {
 2184              		.loc 1 1280 0
 2185 00e4 0846     		mov	r0, r1
1277:Drivers/STM32F7xx_HAL_Driver/Src/stm32f7xx_hal_uart.c **** 
 2186              		.loc 1 1277 0
 2187 00e6 0B65     		str	r3, [r1, #80]
1280:Drivers/STM32F7xx_HAL_Driver/Src/stm32f7xx_hal_uart.c ****             {
 2188              		.loc 1 1280 0
 2189 00e8 FFF7FEFF 		bl	HAL_DMA_Abort_IT
 2190              	.LVL145:
 2191 00ec 0028     		cmp	r0, #0
 2192 00ee 9AD0     		beq	.L211
ARM GAS  /tmp/cc6CQ8Vx.s 			page 76


1283:Drivers/STM32F7xx_HAL_Driver/Src/stm32f7xx_hal_uart.c ****             }
 2193              		.loc 1 1283 0
 2194 00f0 606E     		ldr	r0, [r4, #100]
1324:Drivers/STM32F7xx_HAL_Driver/Src/stm32f7xx_hal_uart.c **** 
 2195              		.loc 1 1324 0
 2196 00f2 BDE87040 		pop	{r4, r5, r6, lr}
 2197              	.LCFI38:
 2198              		.cfi_remember_state
 2199              		.cfi_restore 14
 2200              		.cfi_restore 6
 2201              		.cfi_restore 5
 2202              		.cfi_restore 4
 2203              		.cfi_def_cfa_offset 0
 2204              	.LVL146:
1283:Drivers/STM32F7xx_HAL_Driver/Src/stm32f7xx_hal_uart.c ****             }
 2205              		.loc 1 1283 0
 2206 00f6 036D     		ldr	r3, [r0, #80]
 2207 00f8 1847     		bx	r3	@ indirect register sibling call
 2208              	.LVL147:
 2209              	.L304:
 2210              	.LCFI39:
 2211              		.cfi_restore_state
1224:Drivers/STM32F7xx_HAL_Driver/Src/stm32f7xx_hal_uart.c ****     {
 2212              		.loc 1 1224 0 discriminator 1
 2213 00fa 0029     		cmp	r1, #0
 2214 00fc C7D0     		beq	.L223
1226:Drivers/STM32F7xx_HAL_Driver/Src/stm32f7xx_hal_uart.c **** 
 2215              		.loc 1 1226 0
 2216 00fe 0225     		movs	r5, #2
 2217 0100 1D62     		str	r5, [r3, #32]
1228:Drivers/STM32F7xx_HAL_Driver/Src/stm32f7xx_hal_uart.c ****     }
 2218              		.loc 1 1228 0
 2219 0102 E56E     		ldr	r5, [r4, #108]
 2220 0104 45F00405 		orr	r5, r5, #4
 2221 0108 E566     		str	r5, [r4, #108]
1232:Drivers/STM32F7xx_HAL_Driver/Src/stm32f7xx_hal_uart.c ****     {
 2222              		.loc 1 1232 0
 2223 010a 5507     		lsls	r5, r2, #29
 2224 010c BFD5     		bpl	.L223
 2225              	.L225:
1234:Drivers/STM32F7xx_HAL_Driver/Src/stm32f7xx_hal_uart.c **** 
 2226              		.loc 1 1234 0
 2227 010e 0425     		movs	r5, #4
 2228 0110 1D62     		str	r5, [r3, #32]
1236:Drivers/STM32F7xx_HAL_Driver/Src/stm32f7xx_hal_uart.c ****     }
 2229              		.loc 1 1236 0
 2230 0112 E56E     		ldr	r5, [r4, #108]
 2231 0114 45F00205 		orr	r5, r5, #2
 2232 0118 E566     		str	r5, [r4, #108]
 2233 011a B8E7     		b	.L223
 2234              	.LVL148:
 2235              	.L301:
 2236              	.LBB86:
 2237              	.LBB87:
1616:Drivers/STM32F7xx_HAL_Driver/Src/stm32f7xx_hal_uart.c **** 
 2238              		.loc 1 1616 0
 2239 011c 1A68     		ldr	r2, [r3]
ARM GAS  /tmp/cc6CQ8Vx.s 			page 77


1619:Drivers/STM32F7xx_HAL_Driver/Src/stm32f7xx_hal_uart.c **** 
 2240              		.loc 1 1619 0
 2241 011e 2021     		movs	r1, #32
1621:Drivers/STM32F7xx_HAL_Driver/Src/stm32f7xx_hal_uart.c **** 
 2242              		.loc 1 1621 0
 2243 0120 2046     		mov	r0, r4
 2244              	.LVL149:
1616:Drivers/STM32F7xx_HAL_Driver/Src/stm32f7xx_hal_uart.c **** 
 2245              		.loc 1 1616 0
 2246 0122 22F04002 		bic	r2, r2, #64
 2247 0126 1A60     		str	r2, [r3]
1619:Drivers/STM32F7xx_HAL_Driver/Src/stm32f7xx_hal_uart.c **** 
 2248              		.loc 1 1619 0
 2249 0128 84F86910 		strb	r1, [r4, #105]
1621:Drivers/STM32F7xx_HAL_Driver/Src/stm32f7xx_hal_uart.c **** 
 2250              		.loc 1 1621 0
 2251 012c FFF7FEFF 		bl	HAL_UART_TxCpltCallback
 2252              	.LVL150:
 2253              	.LBE87:
 2254              	.LBE86:
1324:Drivers/STM32F7xx_HAL_Driver/Src/stm32f7xx_hal_uart.c **** 
 2255              		.loc 1 1324 0
 2256 0130 70BD     		pop	{r4, r5, r6, pc}
 2257              	.LVL151:
 2258              	.L299:
 2259              	.LBB88:
 2260              	.LBB89:
1639:Drivers/STM32F7xx_HAL_Driver/Src/stm32f7xx_hal_uart.c ****   {
 2261              		.loc 1 1639 0
 2262 0132 94F86A20 		ldrb	r2, [r4, #106]	@ zero_extendqisi2
 2263              	.LVL152:
 2264 0136 222A     		cmp	r2, #34
 2265 0138 2FD1     		bne	.L214
1642:Drivers/STM32F7xx_HAL_Driver/Src/stm32f7xx_hal_uart.c ****     {
 2266              		.loc 1 1642 0
 2267 013a A068     		ldr	r0, [r4, #8]
 2268              	.LVL153:
1636:Drivers/STM32F7xx_HAL_Driver/Src/stm32f7xx_hal_uart.c **** 
 2269              		.loc 1 1636 0
 2270 013c B4F85C10 		ldrh	r1, [r4, #92]
1642:Drivers/STM32F7xx_HAL_Driver/Src/stm32f7xx_hal_uart.c ****     {
 2271              		.loc 1 1642 0
 2272 0140 B0F5805F 		cmp	r0, #4096
 2273 0144 626D     		ldr	r2, [r4, #84]
 2274 0146 6AD0     		beq	.L306
 2275              	.L215:
1650:Drivers/STM32F7xx_HAL_Driver/Src/stm32f7xx_hal_uart.c ****     }
 2276              		.loc 1 1650 0
 2277 0148 5B6A     		ldr	r3, [r3, #36]
 2278 014a 501C     		adds	r0, r2, #1
 2279 014c 0B40     		ands	r3, r3, r1
 2280 014e 6065     		str	r0, [r4, #84]
 2281 0150 1370     		strb	r3, [r2]
 2282              	.LVL154:
 2283              	.L216:
1653:Drivers/STM32F7xx_HAL_Driver/Src/stm32f7xx_hal_uart.c ****     {
 2284              		.loc 1 1653 0
ARM GAS  /tmp/cc6CQ8Vx.s 			page 78


 2285 0152 B4F85A30 		ldrh	r3, [r4, #90]
 2286 0156 013B     		subs	r3, r3, #1
 2287 0158 9BB2     		uxth	r3, r3
 2288 015a A4F85A30 		strh	r3, [r4, #90]	@ movhi
 2289 015e 002B     		cmp	r3, #0
 2290 0160 7FF461AF 		bne	.L211
 2291              	.LVL155:
 2292              	.LBB90:
 2293              	.LBB91:
1656:Drivers/STM32F7xx_HAL_Driver/Src/stm32f7xx_hal_uart.c **** 
 2294              		.loc 1 1656 0
 2295 0164 2368     		ldr	r3, [r4]
1662:Drivers/STM32F7xx_HAL_Driver/Src/stm32f7xx_hal_uart.c **** 
 2296              		.loc 1 1662 0
 2297 0166 2021     		movs	r1, #32
 2298              	.LVL156:
1664:Drivers/STM32F7xx_HAL_Driver/Src/stm32f7xx_hal_uart.c **** 
 2299              		.loc 1 1664 0
 2300 0168 2046     		mov	r0, r4
1656:Drivers/STM32F7xx_HAL_Driver/Src/stm32f7xx_hal_uart.c **** 
 2301              		.loc 1 1656 0
 2302 016a 1A68     		ldr	r2, [r3]
 2303 016c 22F49072 		bic	r2, r2, #288
 2304 0170 1A60     		str	r2, [r3]
1659:Drivers/STM32F7xx_HAL_Driver/Src/stm32f7xx_hal_uart.c **** 
 2305              		.loc 1 1659 0
 2306 0172 9A68     		ldr	r2, [r3, #8]
 2307 0174 22F00102 		bic	r2, r2, #1
 2308 0178 9A60     		str	r2, [r3, #8]
1662:Drivers/STM32F7xx_HAL_Driver/Src/stm32f7xx_hal_uart.c **** 
 2309              		.loc 1 1662 0
 2310 017a 84F86A10 		strb	r1, [r4, #106]
1664:Drivers/STM32F7xx_HAL_Driver/Src/stm32f7xx_hal_uart.c **** 
 2311              		.loc 1 1664 0
 2312 017e FFF7FEFF 		bl	HAL_UART_RxCpltCallback
 2313              	.LVL157:
 2314              	.LBE91:
 2315              	.LBE90:
 2316              	.LBE89:
 2317              	.LBE88:
1324:Drivers/STM32F7xx_HAL_Driver/Src/stm32f7xx_hal_uart.c **** 
 2318              		.loc 1 1324 0
 2319 0182 70BD     		pop	{r4, r5, r6, pc}
 2320              	.LVL158:
 2321              	.L228:
1243:Drivers/STM32F7xx_HAL_Driver/Src/stm32f7xx_hal_uart.c **** 
 2322              		.loc 1 1243 0
 2323 0184 0821     		movs	r1, #8
 2324 0186 1962     		str	r1, [r3, #32]
1245:Drivers/STM32F7xx_HAL_Driver/Src/stm32f7xx_hal_uart.c ****     }
 2325              		.loc 1 1245 0
 2326 0188 E16E     		ldr	r1, [r4, #108]
 2327 018a 41F00801 		orr	r1, r1, #8
 2328 018e E166     		str	r1, [r4, #108]
 2329 0190 83E7     		b	.L227
 2330              	.LVL159:
 2331              	.L236:
ARM GAS  /tmp/cc6CQ8Vx.s 			page 79


1289:Drivers/STM32F7xx_HAL_Driver/Src/stm32f7xx_hal_uart.c ****           }
 2332              		.loc 1 1289 0
 2333 0192 2046     		mov	r0, r4
 2334 0194 FFF7FEFF 		bl	HAL_UART_ErrorCallback
 2335              	.LVL160:
1324:Drivers/STM32F7xx_HAL_Driver/Src/stm32f7xx_hal_uart.c **** 
 2336              		.loc 1 1324 0
 2337 0198 70BD     		pop	{r4, r5, r6, pc}
 2338              	.LVL161:
 2339              	.L214:
 2340              	.LBB94:
 2341              	.LBB92:
1674:Drivers/STM32F7xx_HAL_Driver/Src/stm32f7xx_hal_uart.c **** 
 2342              		.loc 1 1674 0
 2343 019a 9A69     		ldr	r2, [r3, #24]
 2344 019c 42F00802 		orr	r2, r2, #8
 2345 01a0 9A61     		str	r2, [r3, #24]
 2346              	.LBE92:
 2347              	.LBE94:
1324:Drivers/STM32F7xx_HAL_Driver/Src/stm32f7xx_hal_uart.c **** 
 2348              		.loc 1 1324 0
 2349 01a2 70BD     		pop	{r4, r5, r6, pc}
 2350              	.LVL162:
 2351              	.L305:
 2352              	.LBB95:
 2353              	.LBB96:
1639:Drivers/STM32F7xx_HAL_Driver/Src/stm32f7xx_hal_uart.c ****   {
 2354              		.loc 1 1639 0
 2355 01a4 94F86A20 		ldrb	r2, [r4, #106]	@ zero_extendqisi2
 2356              	.LVL163:
 2357 01a8 222A     		cmp	r2, #34
 2358 01aa 33D1     		bne	.L231
1642:Drivers/STM32F7xx_HAL_Driver/Src/stm32f7xx_hal_uart.c ****     {
 2359              		.loc 1 1642 0
 2360 01ac A068     		ldr	r0, [r4, #8]
1636:Drivers/STM32F7xx_HAL_Driver/Src/stm32f7xx_hal_uart.c **** 
 2361              		.loc 1 1636 0
 2362 01ae B4F85C10 		ldrh	r1, [r4, #92]
1642:Drivers/STM32F7xx_HAL_Driver/Src/stm32f7xx_hal_uart.c ****     {
 2363              		.loc 1 1642 0
 2364 01b2 B0F5805F 		cmp	r0, #4096
 2365 01b6 626D     		ldr	r2, [r4, #84]
 2366 01b8 45D0     		beq	.L307
 2367              	.L232:
1650:Drivers/STM32F7xx_HAL_Driver/Src/stm32f7xx_hal_uart.c ****     }
 2368              		.loc 1 1650 0
 2369 01ba 5B6A     		ldr	r3, [r3, #36]
 2370 01bc 501C     		adds	r0, r2, #1
 2371 01be 0B40     		ands	r3, r3, r1
 2372 01c0 6065     		str	r0, [r4, #84]
 2373 01c2 1370     		strb	r3, [r2]
 2374              	.LVL164:
 2375 01c4 2368     		ldr	r3, [r4]
 2376              	.LVL165:
 2377              	.L233:
1653:Drivers/STM32F7xx_HAL_Driver/Src/stm32f7xx_hal_uart.c ****     {
 2378              		.loc 1 1653 0
ARM GAS  /tmp/cc6CQ8Vx.s 			page 80


 2379 01c6 B4F85A20 		ldrh	r2, [r4, #90]
 2380 01ca 013A     		subs	r2, r2, #1
 2381 01cc 92B2     		uxth	r2, r2
 2382 01ce A4F85A20 		strh	r2, [r4, #90]	@ movhi
 2383 01d2 002A     		cmp	r2, #0
 2384 01d4 7FF468AF 		bne	.L230
 2385              	.LVL166:
 2386              	.LBB97:
 2387              	.LBB98:
1656:Drivers/STM32F7xx_HAL_Driver/Src/stm32f7xx_hal_uart.c **** 
 2388              		.loc 1 1656 0
 2389 01d8 1A68     		ldr	r2, [r3]
1662:Drivers/STM32F7xx_HAL_Driver/Src/stm32f7xx_hal_uart.c **** 
 2390              		.loc 1 1662 0
 2391 01da 2021     		movs	r1, #32
1664:Drivers/STM32F7xx_HAL_Driver/Src/stm32f7xx_hal_uart.c **** 
 2392              		.loc 1 1664 0
 2393 01dc 2046     		mov	r0, r4
1656:Drivers/STM32F7xx_HAL_Driver/Src/stm32f7xx_hal_uart.c **** 
 2394              		.loc 1 1656 0
 2395 01de 22F49072 		bic	r2, r2, #288
 2396 01e2 1A60     		str	r2, [r3]
1659:Drivers/STM32F7xx_HAL_Driver/Src/stm32f7xx_hal_uart.c **** 
 2397              		.loc 1 1659 0
 2398 01e4 9A68     		ldr	r2, [r3, #8]
 2399 01e6 22F00102 		bic	r2, r2, #1
 2400 01ea 9A60     		str	r2, [r3, #8]
1662:Drivers/STM32F7xx_HAL_Driver/Src/stm32f7xx_hal_uart.c **** 
 2401              		.loc 1 1662 0
 2402 01ec 84F86A10 		strb	r1, [r4, #106]
1664:Drivers/STM32F7xx_HAL_Driver/Src/stm32f7xx_hal_uart.c **** 
 2403              		.loc 1 1664 0
 2404 01f0 FFF7FEFF 		bl	HAL_UART_RxCpltCallback
 2405              	.LVL167:
 2406 01f4 2368     		ldr	r3, [r4]
 2407 01f6 57E7     		b	.L230
 2408              	.LVL168:
 2409              	.L235:
 2410              	.LBE98:
 2411              	.LBE97:
 2412              	.LBE96:
 2413              	.LBE95:
1302:Drivers/STM32F7xx_HAL_Driver/Src/stm32f7xx_hal_uart.c ****         huart->ErrorCode = HAL_UART_ERROR_NONE;
 2414              		.loc 1 1302 0
 2415 01f8 2046     		mov	r0, r4
 2416 01fa FFF7FEFF 		bl	HAL_UART_ErrorCallback
 2417              	.LVL169:
1303:Drivers/STM32F7xx_HAL_Driver/Src/stm32f7xx_hal_uart.c ****       }
 2418              		.loc 1 1303 0
 2419 01fe E566     		str	r5, [r4, #108]
1324:Drivers/STM32F7xx_HAL_Driver/Src/stm32f7xx_hal_uart.c **** 
 2420              		.loc 1 1324 0
 2421 0200 70BD     		pop	{r4, r5, r6, pc}
 2422              	.LVL170:
 2423              	.L302:
 2424              	.LBB101:
 2425              	.LBB82:
ARM GAS  /tmp/cc6CQ8Vx.s 			page 81


1576:Drivers/STM32F7xx_HAL_Driver/Src/stm32f7xx_hal_uart.c **** 
 2426              		.loc 1 1576 0
 2427 0202 1A68     		ldr	r2, [r3]
 2428 0204 22F08002 		bic	r2, r2, #128
 2429 0208 1A60     		str	r2, [r3]
1579:Drivers/STM32F7xx_HAL_Driver/Src/stm32f7xx_hal_uart.c **** 
 2430              		.loc 1 1579 0
 2431 020a 1A68     		ldr	r2, [r3]
 2432 020c 42F04002 		orr	r2, r2, #64
 2433 0210 1A60     		str	r2, [r3]
 2434              	.LBE82:
 2435              	.LBE101:
1324:Drivers/STM32F7xx_HAL_Driver/Src/stm32f7xx_hal_uart.c **** 
 2436              		.loc 1 1324 0
 2437 0212 70BD     		pop	{r4, r5, r6, pc}
 2438              	.LVL171:
 2439              	.L231:
 2440              	.LBB102:
 2441              	.LBB99:
1674:Drivers/STM32F7xx_HAL_Driver/Src/stm32f7xx_hal_uart.c **** 
 2442              		.loc 1 1674 0
 2443 0214 9A69     		ldr	r2, [r3, #24]
 2444 0216 42F00802 		orr	r2, r2, #8
 2445 021a 9A61     		str	r2, [r3, #24]
 2446 021c 44E7     		b	.L230
 2447              	.LVL172:
 2448              	.L306:
 2449              	.LBE99:
 2450              	.LBE102:
 2451              	.LBB103:
 2452              	.LBB93:
1642:Drivers/STM32F7xx_HAL_Driver/Src/stm32f7xx_hal_uart.c ****     {
 2453              		.loc 1 1642 0
 2454 021e 2069     		ldr	r0, [r4, #16]
 2455 0220 0028     		cmp	r0, #0
 2456 0222 91D1     		bne	.L215
 2457              	.LVL173:
1645:Drivers/STM32F7xx_HAL_Driver/Src/stm32f7xx_hal_uart.c ****       huart->pRxBuffPtr +=2;
 2458              		.loc 1 1645 0
 2459 0224 5B6A     		ldr	r3, [r3, #36]
 2460 0226 0B40     		ands	r3, r3, r1
 2461 0228 22F8023B 		strh	r3, [r2], #2	@ movhi
 2462              	.LVL174:
1646:Drivers/STM32F7xx_HAL_Driver/Src/stm32f7xx_hal_uart.c ****     }
 2463              		.loc 1 1646 0
 2464 022c 6265     		str	r2, [r4, #84]
 2465              	.LVL175:
 2466 022e 90E7     		b	.L216
 2467              	.LVL176:
 2468              	.L303:
 2469              	.LBE93:
 2470              	.LBE103:
 2471              	.LBB104:
 2472              	.LBB83:
1585:Drivers/STM32F7xx_HAL_Driver/Src/stm32f7xx_hal_uart.c ****       {
 2473              		.loc 1 1585 0
 2474 0230 2169     		ldr	r1, [r4, #16]
ARM GAS  /tmp/cc6CQ8Vx.s 			page 82


 2475 0232 0029     		cmp	r1, #0
 2476 0234 7FF40AAF 		bne	.L239
 2477              	.LVL177:
1588:Drivers/STM32F7xx_HAL_Driver/Src/stm32f7xx_hal_uart.c ****         huart->pTxBuffPtr += 2U;
 2478              		.loc 1 1588 0
 2479 0238 32F8021B 		ldrh	r1, [r2], #2
 2480 023c C1F30801 		ubfx	r1, r1, #0, #9
 2481 0240 9962     		str	r1, [r3, #40]
1589:Drivers/STM32F7xx_HAL_Driver/Src/stm32f7xx_hal_uart.c ****       }
 2482              		.loc 1 1589 0
 2483 0242 E264     		str	r2, [r4, #76]
 2484              	.LVL178:
 2485 0244 06E7     		b	.L240
 2486              	.LVL179:
 2487              	.L307:
 2488              	.LBE83:
 2489              	.LBE104:
 2490              	.LBB105:
 2491              	.LBB100:
1642:Drivers/STM32F7xx_HAL_Driver/Src/stm32f7xx_hal_uart.c ****     {
 2492              		.loc 1 1642 0
 2493 0246 2069     		ldr	r0, [r4, #16]
 2494 0248 0028     		cmp	r0, #0
 2495 024a B6D1     		bne	.L232
 2496              	.LVL180:
1645:Drivers/STM32F7xx_HAL_Driver/Src/stm32f7xx_hal_uart.c ****       huart->pRxBuffPtr +=2;
 2497              		.loc 1 1645 0
 2498 024c 586A     		ldr	r0, [r3, #36]
 2499 024e 0140     		ands	r1, r1, r0
 2500 0250 22F8021B 		strh	r1, [r2], #2	@ movhi
 2501              	.LVL181:
1646:Drivers/STM32F7xx_HAL_Driver/Src/stm32f7xx_hal_uart.c ****     }
 2502              		.loc 1 1646 0
 2503 0254 6265     		str	r2, [r4, #84]
 2504              	.LVL182:
 2505 0256 B6E7     		b	.L233
 2506              	.L309:
 2507              		.align	2
 2508              	.L308:
 2509 0258 00000000 		.word	UART_DMAAbortOnError
 2510              	.LBE100:
 2511              	.LBE105:
 2512              		.cfi_endproc
 2513              	.LFE155:
 2515              		.section	.text.UART_DMAAbortOnError,"ax",%progbits
 2516              		.align	1
 2517              		.p2align 2,,3
 2518              		.syntax unified
 2519              		.thumb
 2520              		.thumb_func
 2521              		.fpu fpv4-sp-d16
 2523              	UART_DMAAbortOnError:
 2524              	.LFB162:
1475:Drivers/STM32F7xx_HAL_Driver/Src/stm32f7xx_hal_uart.c ****   UART_HandleTypeDef* huart = (UART_HandleTypeDef*)(hdma->Parent);
 2525              		.loc 1 1475 0
 2526              		.cfi_startproc
 2527              		@ args = 0, pretend = 0, frame = 0
ARM GAS  /tmp/cc6CQ8Vx.s 			page 83


 2528              		@ frame_needed = 0, uses_anonymous_args = 0
 2529              	.LVL183:
 2530 0000 08B5     		push	{r3, lr}
 2531              	.LCFI40:
 2532              		.cfi_def_cfa_offset 8
 2533              		.cfi_offset 3, -8
 2534              		.cfi_offset 14, -4
1477:Drivers/STM32F7xx_HAL_Driver/Src/stm32f7xx_hal_uart.c ****   huart->TxXferCount = 0U;
 2535              		.loc 1 1477 0
 2536 0002 0022     		movs	r2, #0
1476:Drivers/STM32F7xx_HAL_Driver/Src/stm32f7xx_hal_uart.c ****   huart->RxXferCount = 0U;
 2537              		.loc 1 1476 0
 2538 0004 836B     		ldr	r3, [r0, #56]
 2539              	.LVL184:
1477:Drivers/STM32F7xx_HAL_Driver/Src/stm32f7xx_hal_uart.c ****   huart->TxXferCount = 0U;
 2540              		.loc 1 1477 0
 2541 0006 A3F85A20 		strh	r2, [r3, #90]	@ movhi
1480:Drivers/STM32F7xx_HAL_Driver/Src/stm32f7xx_hal_uart.c **** }
 2542              		.loc 1 1480 0
 2543 000a 1846     		mov	r0, r3
 2544              	.LVL185:
1478:Drivers/STM32F7xx_HAL_Driver/Src/stm32f7xx_hal_uart.c **** 
 2545              		.loc 1 1478 0
 2546 000c A3F85220 		strh	r2, [r3, #82]	@ movhi
1480:Drivers/STM32F7xx_HAL_Driver/Src/stm32f7xx_hal_uart.c **** }
 2547              		.loc 1 1480 0
 2548 0010 FFF7FEFF 		bl	HAL_UART_ErrorCallback
 2549              	.LVL186:
1481:Drivers/STM32F7xx_HAL_Driver/Src/stm32f7xx_hal_uart.c **** 
 2550              		.loc 1 1481 0
 2551 0014 08BD     		pop	{r3, pc}
 2552              		.cfi_endproc
 2553              	.LFE162:
 2555 0016 00BF     		.section	.text.HAL_MultiProcessor_EnableMuteMode,"ax",%progbits
 2556              		.align	1
 2557              		.p2align 2,,3
 2558              		.global	HAL_MultiProcessor_EnableMuteMode
 2559              		.syntax unified
 2560              		.thumb
 2561              		.thumb_func
 2562              		.fpu fpv4-sp-d16
 2564              	HAL_MultiProcessor_EnableMuteMode:
 2565              	.LFB173:
1708:Drivers/STM32F7xx_HAL_Driver/Src/stm32f7xx_hal_uart.c **** }
1709:Drivers/STM32F7xx_HAL_Driver/Src/stm32f7xx_hal_uart.c **** 
1710:Drivers/STM32F7xx_HAL_Driver/Src/stm32f7xx_hal_uart.c **** /**
1711:Drivers/STM32F7xx_HAL_Driver/Src/stm32f7xx_hal_uart.c ****   * @}
1712:Drivers/STM32F7xx_HAL_Driver/Src/stm32f7xx_hal_uart.c ****   */
1713:Drivers/STM32F7xx_HAL_Driver/Src/stm32f7xx_hal_uart.c **** 
1714:Drivers/STM32F7xx_HAL_Driver/Src/stm32f7xx_hal_uart.c **** /** @defgroup UART_Exported_Functions_Group3 Peripheral Control functions
1715:Drivers/STM32F7xx_HAL_Driver/Src/stm32f7xx_hal_uart.c ****   *  @brief   UART control functions
1716:Drivers/STM32F7xx_HAL_Driver/Src/stm32f7xx_hal_uart.c ****   *
1717:Drivers/STM32F7xx_HAL_Driver/Src/stm32f7xx_hal_uart.c **** @verbatim
1718:Drivers/STM32F7xx_HAL_Driver/Src/stm32f7xx_hal_uart.c ****  ===============================================================================
1719:Drivers/STM32F7xx_HAL_Driver/Src/stm32f7xx_hal_uart.c ****                       ##### Peripheral Control functions #####
1720:Drivers/STM32F7xx_HAL_Driver/Src/stm32f7xx_hal_uart.c ****  ===============================================================================
1721:Drivers/STM32F7xx_HAL_Driver/Src/stm32f7xx_hal_uart.c ****     [..]
ARM GAS  /tmp/cc6CQ8Vx.s 			page 84


1722:Drivers/STM32F7xx_HAL_Driver/Src/stm32f7xx_hal_uart.c ****     This subsection provides a set of functions allowing to control the UART.
1723:Drivers/STM32F7xx_HAL_Driver/Src/stm32f7xx_hal_uart.c ****      (+) HAL_UART_GetState() API is helpful to check in run-time the state of the UART peripheral.
1724:Drivers/STM32F7xx_HAL_Driver/Src/stm32f7xx_hal_uart.c ****      (+) HAL_MultiProcessor_EnableMuteMode() API enables mute mode
1725:Drivers/STM32F7xx_HAL_Driver/Src/stm32f7xx_hal_uart.c ****      (+) HAL_MultiProcessor_DisableMuteMode() API disables mute mode
1726:Drivers/STM32F7xx_HAL_Driver/Src/stm32f7xx_hal_uart.c ****      (+) HAL_MultiProcessor_EnterMuteMode() API enters mute mode
1727:Drivers/STM32F7xx_HAL_Driver/Src/stm32f7xx_hal_uart.c ****      (+) HAL_MultiProcessor_EnableMuteMode() API enables mute mode
1728:Drivers/STM32F7xx_HAL_Driver/Src/stm32f7xx_hal_uart.c ****      (+) UART_SetConfig() API configures the UART peripheral
1729:Drivers/STM32F7xx_HAL_Driver/Src/stm32f7xx_hal_uart.c ****      (+) UART_AdvFeatureConfig() API optionally configures the UART advanced features
1730:Drivers/STM32F7xx_HAL_Driver/Src/stm32f7xx_hal_uart.c ****      (+) UART_CheckIdleState() API ensures that TEACK and/or REACK are set after initialization
1731:Drivers/STM32F7xx_HAL_Driver/Src/stm32f7xx_hal_uart.c ****      (+) HAL_HalfDuplex_EnableTransmitter() API disables receiver and enables transmitter
1732:Drivers/STM32F7xx_HAL_Driver/Src/stm32f7xx_hal_uart.c ****      (+) HAL_HalfDuplex_EnableReceiver() API disables transmitter and enables receiver
1733:Drivers/STM32F7xx_HAL_Driver/Src/stm32f7xx_hal_uart.c ****      (+) HAL_LIN_SendBreak() API transmits the break characters
1734:Drivers/STM32F7xx_HAL_Driver/Src/stm32f7xx_hal_uart.c **** 	 (+) HAL_MultiProcessorEx_AddressLength_Set() API optionally sets the UART node address
1735:Drivers/STM32F7xx_HAL_Driver/Src/stm32f7xx_hal_uart.c ****          detection length to more than 4 bits for multiprocessor address mark wake up.
1736:Drivers/STM32F7xx_HAL_Driver/Src/stm32f7xx_hal_uart.c **** @endverbatim
1737:Drivers/STM32F7xx_HAL_Driver/Src/stm32f7xx_hal_uart.c ****   * @{
1738:Drivers/STM32F7xx_HAL_Driver/Src/stm32f7xx_hal_uart.c ****   */
1739:Drivers/STM32F7xx_HAL_Driver/Src/stm32f7xx_hal_uart.c **** 
1740:Drivers/STM32F7xx_HAL_Driver/Src/stm32f7xx_hal_uart.c **** /**
1741:Drivers/STM32F7xx_HAL_Driver/Src/stm32f7xx_hal_uart.c ****   * @brief Enable UART in mute mode (doesn't mean UART enters mute mode;
1742:Drivers/STM32F7xx_HAL_Driver/Src/stm32f7xx_hal_uart.c ****   * to enter mute mode, HAL_MultiProcessor_EnterMuteMode() API must be called)
1743:Drivers/STM32F7xx_HAL_Driver/Src/stm32f7xx_hal_uart.c ****   * @param huart UART handle
1744:Drivers/STM32F7xx_HAL_Driver/Src/stm32f7xx_hal_uart.c ****   * @retval HAL status
1745:Drivers/STM32F7xx_HAL_Driver/Src/stm32f7xx_hal_uart.c ****   */
1746:Drivers/STM32F7xx_HAL_Driver/Src/stm32f7xx_hal_uart.c **** HAL_StatusTypeDef HAL_MultiProcessor_EnableMuteMode(UART_HandleTypeDef *huart)
1747:Drivers/STM32F7xx_HAL_Driver/Src/stm32f7xx_hal_uart.c **** {
 2566              		.loc 1 1747 0
 2567              		.cfi_startproc
 2568              		@ args = 0, pretend = 0, frame = 0
 2569              		@ frame_needed = 0, uses_anonymous_args = 0
 2570              	.LVL187:
 2571 0000 F8B5     		push	{r3, r4, r5, r6, r7, lr}
 2572              	.LCFI41:
 2573              		.cfi_def_cfa_offset 24
 2574              		.cfi_offset 3, -24
 2575              		.cfi_offset 4, -20
 2576              		.cfi_offset 5, -16
 2577              		.cfi_offset 6, -12
 2578              		.cfi_offset 7, -8
 2579              		.cfi_offset 14, -4
1748:Drivers/STM32F7xx_HAL_Driver/Src/stm32f7xx_hal_uart.c ****   /* Process Locked */
1749:Drivers/STM32F7xx_HAL_Driver/Src/stm32f7xx_hal_uart.c ****   __HAL_LOCK(huart);
 2580              		.loc 1 1749 0
 2581 0002 90F86830 		ldrb	r3, [r0, #104]	@ zero_extendqisi2
 2582 0006 012B     		cmp	r3, #1
 2583 0008 2ED0     		beq	.L318
1750:Drivers/STM32F7xx_HAL_Driver/Src/stm32f7xx_hal_uart.c **** 
1751:Drivers/STM32F7xx_HAL_Driver/Src/stm32f7xx_hal_uart.c ****   huart->gState = HAL_UART_STATE_BUSY;
1752:Drivers/STM32F7xx_HAL_Driver/Src/stm32f7xx_hal_uart.c **** 
1753:Drivers/STM32F7xx_HAL_Driver/Src/stm32f7xx_hal_uart.c ****   /* Enable USART mute mode by setting the MME bit in the CR1 register */
1754:Drivers/STM32F7xx_HAL_Driver/Src/stm32f7xx_hal_uart.c ****   SET_BIT(huart->Instance->CR1, USART_CR1_MME);
 2584              		.loc 1 1754 0 discriminator 2
 2585 000a 0268     		ldr	r2, [r0]
 2586 000c 0446     		mov	r4, r0
1751:Drivers/STM32F7xx_HAL_Driver/Src/stm32f7xx_hal_uart.c **** 
 2587              		.loc 1 1751 0 discriminator 2
 2588 000e 2423     		movs	r3, #36
ARM GAS  /tmp/cc6CQ8Vx.s 			page 85


1755:Drivers/STM32F7xx_HAL_Driver/Src/stm32f7xx_hal_uart.c **** 
1756:Drivers/STM32F7xx_HAL_Driver/Src/stm32f7xx_hal_uart.c ****   huart->gState = HAL_UART_STATE_READY;
 2589              		.loc 1 1756 0 discriminator 2
 2590 0010 2020     		movs	r0, #32
 2591              	.LVL188:
 2592              	.LBB112:
 2593              	.LBB113:
1757:Drivers/STM32F7xx_HAL_Driver/Src/stm32f7xx_hal_uart.c **** 
1758:Drivers/STM32F7xx_HAL_Driver/Src/stm32f7xx_hal_uart.c ****   return (UART_CheckIdleState(huart));
1759:Drivers/STM32F7xx_HAL_Driver/Src/stm32f7xx_hal_uart.c **** }
1760:Drivers/STM32F7xx_HAL_Driver/Src/stm32f7xx_hal_uart.c **** 
1761:Drivers/STM32F7xx_HAL_Driver/Src/stm32f7xx_hal_uart.c **** /**
1762:Drivers/STM32F7xx_HAL_Driver/Src/stm32f7xx_hal_uart.c ****   * @brief Disable UART mute mode (doesn't mean it actually wakes up the software,
1763:Drivers/STM32F7xx_HAL_Driver/Src/stm32f7xx_hal_uart.c ****   * as it may not have been in mute mode at this very moment).
1764:Drivers/STM32F7xx_HAL_Driver/Src/stm32f7xx_hal_uart.c ****   * @param huart uart handle
1765:Drivers/STM32F7xx_HAL_Driver/Src/stm32f7xx_hal_uart.c ****   * @retval HAL status
1766:Drivers/STM32F7xx_HAL_Driver/Src/stm32f7xx_hal_uart.c ****   */
1767:Drivers/STM32F7xx_HAL_Driver/Src/stm32f7xx_hal_uart.c **** HAL_StatusTypeDef HAL_MultiProcessor_DisableMuteMode(UART_HandleTypeDef *huart)
1768:Drivers/STM32F7xx_HAL_Driver/Src/stm32f7xx_hal_uart.c **** {
1769:Drivers/STM32F7xx_HAL_Driver/Src/stm32f7xx_hal_uart.c ****   /* Process Locked */
1770:Drivers/STM32F7xx_HAL_Driver/Src/stm32f7xx_hal_uart.c ****   __HAL_LOCK(huart);
1771:Drivers/STM32F7xx_HAL_Driver/Src/stm32f7xx_hal_uart.c **** 
1772:Drivers/STM32F7xx_HAL_Driver/Src/stm32f7xx_hal_uart.c ****   huart->gState = HAL_UART_STATE_BUSY;
1773:Drivers/STM32F7xx_HAL_Driver/Src/stm32f7xx_hal_uart.c **** 
1774:Drivers/STM32F7xx_HAL_Driver/Src/stm32f7xx_hal_uart.c ****    /* Disable USART mute mode by clearing the MME bit in the CR1 register */
1775:Drivers/STM32F7xx_HAL_Driver/Src/stm32f7xx_hal_uart.c ****   CLEAR_BIT(huart->Instance->CR1, USART_CR1_MME);
1776:Drivers/STM32F7xx_HAL_Driver/Src/stm32f7xx_hal_uart.c **** 
1777:Drivers/STM32F7xx_HAL_Driver/Src/stm32f7xx_hal_uart.c ****   huart->gState = HAL_UART_STATE_READY;
1778:Drivers/STM32F7xx_HAL_Driver/Src/stm32f7xx_hal_uart.c **** 
1779:Drivers/STM32F7xx_HAL_Driver/Src/stm32f7xx_hal_uart.c ****   return (UART_CheckIdleState(huart));
1780:Drivers/STM32F7xx_HAL_Driver/Src/stm32f7xx_hal_uart.c **** }
1781:Drivers/STM32F7xx_HAL_Driver/Src/stm32f7xx_hal_uart.c **** 
1782:Drivers/STM32F7xx_HAL_Driver/Src/stm32f7xx_hal_uart.c **** /**
1783:Drivers/STM32F7xx_HAL_Driver/Src/stm32f7xx_hal_uart.c ****   * @brief Enter UART mute mode (means UART actually enters mute mode).
1784:Drivers/STM32F7xx_HAL_Driver/Src/stm32f7xx_hal_uart.c ****   * To exit from mute mode, HAL_MultiProcessor_DisableMuteMode() API must be called.
1785:Drivers/STM32F7xx_HAL_Driver/Src/stm32f7xx_hal_uart.c ****   * @param huart uart handle
1786:Drivers/STM32F7xx_HAL_Driver/Src/stm32f7xx_hal_uart.c ****   * @retval HAL status
1787:Drivers/STM32F7xx_HAL_Driver/Src/stm32f7xx_hal_uart.c ****   */
1788:Drivers/STM32F7xx_HAL_Driver/Src/stm32f7xx_hal_uart.c **** void HAL_MultiProcessor_EnterMuteMode(UART_HandleTypeDef *huart)
1789:Drivers/STM32F7xx_HAL_Driver/Src/stm32f7xx_hal_uart.c **** {
1790:Drivers/STM32F7xx_HAL_Driver/Src/stm32f7xx_hal_uart.c ****   __HAL_UART_SEND_REQ(huart, UART_MUTE_MODE_REQUEST);
1791:Drivers/STM32F7xx_HAL_Driver/Src/stm32f7xx_hal_uart.c **** }
1792:Drivers/STM32F7xx_HAL_Driver/Src/stm32f7xx_hal_uart.c **** 
1793:Drivers/STM32F7xx_HAL_Driver/Src/stm32f7xx_hal_uart.c **** 
1794:Drivers/STM32F7xx_HAL_Driver/Src/stm32f7xx_hal_uart.c **** 
1795:Drivers/STM32F7xx_HAL_Driver/Src/stm32f7xx_hal_uart.c **** /**
1796:Drivers/STM32F7xx_HAL_Driver/Src/stm32f7xx_hal_uart.c ****   * @brief return the UART state
1797:Drivers/STM32F7xx_HAL_Driver/Src/stm32f7xx_hal_uart.c ****   * @param huart uart handle
1798:Drivers/STM32F7xx_HAL_Driver/Src/stm32f7xx_hal_uart.c ****   * @retval HAL state
1799:Drivers/STM32F7xx_HAL_Driver/Src/stm32f7xx_hal_uart.c ****   */
1800:Drivers/STM32F7xx_HAL_Driver/Src/stm32f7xx_hal_uart.c **** HAL_UART_StateTypeDef HAL_UART_GetState(UART_HandleTypeDef *huart)
1801:Drivers/STM32F7xx_HAL_Driver/Src/stm32f7xx_hal_uart.c **** {
1802:Drivers/STM32F7xx_HAL_Driver/Src/stm32f7xx_hal_uart.c ****   uint32_t temp1= 0x00U, temp2 = 0x00U;
1803:Drivers/STM32F7xx_HAL_Driver/Src/stm32f7xx_hal_uart.c ****   temp1 = huart->gState;
1804:Drivers/STM32F7xx_HAL_Driver/Src/stm32f7xx_hal_uart.c ****   temp2 = huart->RxState;
1805:Drivers/STM32F7xx_HAL_Driver/Src/stm32f7xx_hal_uart.c **** 
1806:Drivers/STM32F7xx_HAL_Driver/Src/stm32f7xx_hal_uart.c ****   return (HAL_UART_StateTypeDef)(temp1 | temp2);
ARM GAS  /tmp/cc6CQ8Vx.s 			page 86


1807:Drivers/STM32F7xx_HAL_Driver/Src/stm32f7xx_hal_uart.c **** }
1808:Drivers/STM32F7xx_HAL_Driver/Src/stm32f7xx_hal_uart.c **** 
1809:Drivers/STM32F7xx_HAL_Driver/Src/stm32f7xx_hal_uart.c **** /**
1810:Drivers/STM32F7xx_HAL_Driver/Src/stm32f7xx_hal_uart.c **** * @brief  Return the UART error code
1811:Drivers/STM32F7xx_HAL_Driver/Src/stm32f7xx_hal_uart.c **** * @param  huart  pointer to a UART_HandleTypeDef structure that contains
1812:Drivers/STM32F7xx_HAL_Driver/Src/stm32f7xx_hal_uart.c ****   *              the configuration information for the specified UART.
1813:Drivers/STM32F7xx_HAL_Driver/Src/stm32f7xx_hal_uart.c **** * @retval UART Error Code
1814:Drivers/STM32F7xx_HAL_Driver/Src/stm32f7xx_hal_uart.c **** */
1815:Drivers/STM32F7xx_HAL_Driver/Src/stm32f7xx_hal_uart.c **** uint32_t HAL_UART_GetError(UART_HandleTypeDef *huart)
1816:Drivers/STM32F7xx_HAL_Driver/Src/stm32f7xx_hal_uart.c **** {
1817:Drivers/STM32F7xx_HAL_Driver/Src/stm32f7xx_hal_uart.c ****   return huart->ErrorCode;
1818:Drivers/STM32F7xx_HAL_Driver/Src/stm32f7xx_hal_uart.c **** }
1819:Drivers/STM32F7xx_HAL_Driver/Src/stm32f7xx_hal_uart.c **** 
1820:Drivers/STM32F7xx_HAL_Driver/Src/stm32f7xx_hal_uart.c **** /**
1821:Drivers/STM32F7xx_HAL_Driver/Src/stm32f7xx_hal_uart.c ****   * @brief Configure the UART peripheral
1822:Drivers/STM32F7xx_HAL_Driver/Src/stm32f7xx_hal_uart.c ****   * @param huart uart handle
1823:Drivers/STM32F7xx_HAL_Driver/Src/stm32f7xx_hal_uart.c ****   * @retval None
1824:Drivers/STM32F7xx_HAL_Driver/Src/stm32f7xx_hal_uart.c ****   */
1825:Drivers/STM32F7xx_HAL_Driver/Src/stm32f7xx_hal_uart.c **** HAL_StatusTypeDef UART_SetConfig(UART_HandleTypeDef *huart)
1826:Drivers/STM32F7xx_HAL_Driver/Src/stm32f7xx_hal_uart.c **** {
1827:Drivers/STM32F7xx_HAL_Driver/Src/stm32f7xx_hal_uart.c ****   uint32_t tmpreg                     = 0x00000000U;
1828:Drivers/STM32F7xx_HAL_Driver/Src/stm32f7xx_hal_uart.c ****   UART_ClockSourceTypeDef clocksource = UART_CLOCKSOURCE_UNDEFINED;
1829:Drivers/STM32F7xx_HAL_Driver/Src/stm32f7xx_hal_uart.c ****   uint16_t brrtemp                    = 0x0000U;
1830:Drivers/STM32F7xx_HAL_Driver/Src/stm32f7xx_hal_uart.c ****   uint16_t usartdiv                   = 0x0000U;
1831:Drivers/STM32F7xx_HAL_Driver/Src/stm32f7xx_hal_uart.c ****   HAL_StatusTypeDef ret               = HAL_OK;
1832:Drivers/STM32F7xx_HAL_Driver/Src/stm32f7xx_hal_uart.c **** 
1833:Drivers/STM32F7xx_HAL_Driver/Src/stm32f7xx_hal_uart.c ****   /* Check the parameters */
1834:Drivers/STM32F7xx_HAL_Driver/Src/stm32f7xx_hal_uart.c ****   assert_param(IS_UART_BAUDRATE(huart->Init.BaudRate));
1835:Drivers/STM32F7xx_HAL_Driver/Src/stm32f7xx_hal_uart.c ****   assert_param(IS_UART_WORD_LENGTH(huart->Init.WordLength));
1836:Drivers/STM32F7xx_HAL_Driver/Src/stm32f7xx_hal_uart.c ****   assert_param(IS_UART_STOPBITS(huart->Init.StopBits));
1837:Drivers/STM32F7xx_HAL_Driver/Src/stm32f7xx_hal_uart.c ****   assert_param(IS_UART_PARITY(huart->Init.Parity));
1838:Drivers/STM32F7xx_HAL_Driver/Src/stm32f7xx_hal_uart.c ****   assert_param(IS_UART_MODE(huart->Init.Mode));
1839:Drivers/STM32F7xx_HAL_Driver/Src/stm32f7xx_hal_uart.c ****   assert_param(IS_UART_HARDWARE_FLOW_CONTROL(huart->Init.HwFlowCtl));
1840:Drivers/STM32F7xx_HAL_Driver/Src/stm32f7xx_hal_uart.c ****   assert_param(IS_UART_ONE_BIT_SAMPLE(huart->Init.OneBitSampling));
1841:Drivers/STM32F7xx_HAL_Driver/Src/stm32f7xx_hal_uart.c **** 
1842:Drivers/STM32F7xx_HAL_Driver/Src/stm32f7xx_hal_uart.c **** 
1843:Drivers/STM32F7xx_HAL_Driver/Src/stm32f7xx_hal_uart.c ****   /*-------------------------- USART CR1 Configuration -----------------------*/
1844:Drivers/STM32F7xx_HAL_Driver/Src/stm32f7xx_hal_uart.c ****   /* Clear M, PCE, PS, TE, RE and OVER8 bits and configure
1845:Drivers/STM32F7xx_HAL_Driver/Src/stm32f7xx_hal_uart.c ****    *  the UART Word Length, Parity, Mode and oversampling:
1846:Drivers/STM32F7xx_HAL_Driver/Src/stm32f7xx_hal_uart.c ****    *  set the M bits according to huart->Init.WordLength value
1847:Drivers/STM32F7xx_HAL_Driver/Src/stm32f7xx_hal_uart.c ****    *  set PCE and PS bits according to huart->Init.Parity value
1848:Drivers/STM32F7xx_HAL_Driver/Src/stm32f7xx_hal_uart.c ****    *  set TE and RE bits according to huart->Init.Mode value
1849:Drivers/STM32F7xx_HAL_Driver/Src/stm32f7xx_hal_uart.c ****    *  set OVER8 bit according to huart->Init.OverSampling value */
1850:Drivers/STM32F7xx_HAL_Driver/Src/stm32f7xx_hal_uart.c ****   tmpreg = (uint32_t)huart->Init.WordLength | huart->Init.Parity | huart->Init.Mode | huart->Init.O
1851:Drivers/STM32F7xx_HAL_Driver/Src/stm32f7xx_hal_uart.c ****   MODIFY_REG(huart->Instance->CR1, UART_CR1_FIELDS, tmpreg);
1852:Drivers/STM32F7xx_HAL_Driver/Src/stm32f7xx_hal_uart.c **** 
1853:Drivers/STM32F7xx_HAL_Driver/Src/stm32f7xx_hal_uart.c ****   /*-------------------------- USART CR2 Configuration -----------------------*/
1854:Drivers/STM32F7xx_HAL_Driver/Src/stm32f7xx_hal_uart.c ****   /* Configure the UART Stop Bits: Set STOP[13:12] bits according
1855:Drivers/STM32F7xx_HAL_Driver/Src/stm32f7xx_hal_uart.c ****    * to huart->Init.StopBits value */
1856:Drivers/STM32F7xx_HAL_Driver/Src/stm32f7xx_hal_uart.c ****   MODIFY_REG(huart->Instance->CR2, USART_CR2_STOP, huart->Init.StopBits);
1857:Drivers/STM32F7xx_HAL_Driver/Src/stm32f7xx_hal_uart.c **** 
1858:Drivers/STM32F7xx_HAL_Driver/Src/stm32f7xx_hal_uart.c ****   /*-------------------------- USART CR3 Configuration -----------------------*/
1859:Drivers/STM32F7xx_HAL_Driver/Src/stm32f7xx_hal_uart.c ****   /* Configure
1860:Drivers/STM32F7xx_HAL_Driver/Src/stm32f7xx_hal_uart.c ****    * - UART HardWare Flow Control: set CTSE and RTSE bits according
1861:Drivers/STM32F7xx_HAL_Driver/Src/stm32f7xx_hal_uart.c ****    *   to huart->Init.HwFlowCtl value
1862:Drivers/STM32F7xx_HAL_Driver/Src/stm32f7xx_hal_uart.c ****    * - one-bit sampling method versus three samples' majority rule according
1863:Drivers/STM32F7xx_HAL_Driver/Src/stm32f7xx_hal_uart.c ****    *   to huart->Init.OneBitSampling */
ARM GAS  /tmp/cc6CQ8Vx.s 			page 87


1864:Drivers/STM32F7xx_HAL_Driver/Src/stm32f7xx_hal_uart.c ****   tmpreg = (uint32_t)huart->Init.HwFlowCtl | huart->Init.OneBitSampling ;
1865:Drivers/STM32F7xx_HAL_Driver/Src/stm32f7xx_hal_uart.c ****   MODIFY_REG(huart->Instance->CR3, (USART_CR3_RTSE | USART_CR3_CTSE | USART_CR3_ONEBIT), tmpreg);
1866:Drivers/STM32F7xx_HAL_Driver/Src/stm32f7xx_hal_uart.c **** 
1867:Drivers/STM32F7xx_HAL_Driver/Src/stm32f7xx_hal_uart.c ****   /*-------------------------- USART BRR Configuration -----------------------*/
1868:Drivers/STM32F7xx_HAL_Driver/Src/stm32f7xx_hal_uart.c ****   UART_GETCLOCKSOURCE(huart, clocksource);
1869:Drivers/STM32F7xx_HAL_Driver/Src/stm32f7xx_hal_uart.c **** 
1870:Drivers/STM32F7xx_HAL_Driver/Src/stm32f7xx_hal_uart.c ****   /* Check UART Over Sampling to set Baud Rate Register */
1871:Drivers/STM32F7xx_HAL_Driver/Src/stm32f7xx_hal_uart.c ****   if (huart->Init.OverSampling == UART_OVERSAMPLING_8)
1872:Drivers/STM32F7xx_HAL_Driver/Src/stm32f7xx_hal_uart.c ****   {
1873:Drivers/STM32F7xx_HAL_Driver/Src/stm32f7xx_hal_uart.c ****     switch (clocksource)
1874:Drivers/STM32F7xx_HAL_Driver/Src/stm32f7xx_hal_uart.c ****     {
1875:Drivers/STM32F7xx_HAL_Driver/Src/stm32f7xx_hal_uart.c ****     case UART_CLOCKSOURCE_PCLK1:
1876:Drivers/STM32F7xx_HAL_Driver/Src/stm32f7xx_hal_uart.c ****         usartdiv = (uint16_t)(UART_DIV_SAMPLING8(HAL_RCC_GetPCLK1Freq(), huart->Init.BaudRate));
1877:Drivers/STM32F7xx_HAL_Driver/Src/stm32f7xx_hal_uart.c ****       break;
1878:Drivers/STM32F7xx_HAL_Driver/Src/stm32f7xx_hal_uart.c ****     case UART_CLOCKSOURCE_PCLK2:
1879:Drivers/STM32F7xx_HAL_Driver/Src/stm32f7xx_hal_uart.c ****         usartdiv = (uint16_t)(UART_DIV_SAMPLING8(HAL_RCC_GetPCLK2Freq(), huart->Init.BaudRate));
1880:Drivers/STM32F7xx_HAL_Driver/Src/stm32f7xx_hal_uart.c ****       break;
1881:Drivers/STM32F7xx_HAL_Driver/Src/stm32f7xx_hal_uart.c ****     case UART_CLOCKSOURCE_HSI:
1882:Drivers/STM32F7xx_HAL_Driver/Src/stm32f7xx_hal_uart.c ****         usartdiv = (uint16_t)(UART_DIV_SAMPLING8(HSI_VALUE, huart->Init.BaudRate));
1883:Drivers/STM32F7xx_HAL_Driver/Src/stm32f7xx_hal_uart.c ****       break;
1884:Drivers/STM32F7xx_HAL_Driver/Src/stm32f7xx_hal_uart.c ****     case UART_CLOCKSOURCE_SYSCLK:
1885:Drivers/STM32F7xx_HAL_Driver/Src/stm32f7xx_hal_uart.c ****         usartdiv = (uint16_t)(UART_DIV_SAMPLING8(HAL_RCC_GetSysClockFreq(), huart->Init.BaudRate));
1886:Drivers/STM32F7xx_HAL_Driver/Src/stm32f7xx_hal_uart.c ****       break;
1887:Drivers/STM32F7xx_HAL_Driver/Src/stm32f7xx_hal_uart.c ****     case UART_CLOCKSOURCE_LSE:
1888:Drivers/STM32F7xx_HAL_Driver/Src/stm32f7xx_hal_uart.c ****         usartdiv = (uint16_t)(UART_DIV_SAMPLING8(LSE_VALUE, huart->Init.BaudRate));
1889:Drivers/STM32F7xx_HAL_Driver/Src/stm32f7xx_hal_uart.c ****       break;
1890:Drivers/STM32F7xx_HAL_Driver/Src/stm32f7xx_hal_uart.c ****       case UART_CLOCKSOURCE_UNDEFINED:
1891:Drivers/STM32F7xx_HAL_Driver/Src/stm32f7xx_hal_uart.c ****     default:
1892:Drivers/STM32F7xx_HAL_Driver/Src/stm32f7xx_hal_uart.c ****         ret = HAL_ERROR;
1893:Drivers/STM32F7xx_HAL_Driver/Src/stm32f7xx_hal_uart.c ****       break;
1894:Drivers/STM32F7xx_HAL_Driver/Src/stm32f7xx_hal_uart.c ****     }
1895:Drivers/STM32F7xx_HAL_Driver/Src/stm32f7xx_hal_uart.c **** 
1896:Drivers/STM32F7xx_HAL_Driver/Src/stm32f7xx_hal_uart.c ****     brrtemp = usartdiv & 0xFFF0U;
1897:Drivers/STM32F7xx_HAL_Driver/Src/stm32f7xx_hal_uart.c ****     brrtemp |= (uint16_t)((usartdiv & (uint16_t)0x000FU) >> 1U);
1898:Drivers/STM32F7xx_HAL_Driver/Src/stm32f7xx_hal_uart.c ****     huart->Instance->BRR = brrtemp;
1899:Drivers/STM32F7xx_HAL_Driver/Src/stm32f7xx_hal_uart.c ****   }
1900:Drivers/STM32F7xx_HAL_Driver/Src/stm32f7xx_hal_uart.c ****   else
1901:Drivers/STM32F7xx_HAL_Driver/Src/stm32f7xx_hal_uart.c ****   {
1902:Drivers/STM32F7xx_HAL_Driver/Src/stm32f7xx_hal_uart.c ****     switch (clocksource)
1903:Drivers/STM32F7xx_HAL_Driver/Src/stm32f7xx_hal_uart.c ****     {
1904:Drivers/STM32F7xx_HAL_Driver/Src/stm32f7xx_hal_uart.c ****     case UART_CLOCKSOURCE_PCLK1:
1905:Drivers/STM32F7xx_HAL_Driver/Src/stm32f7xx_hal_uart.c ****         huart->Instance->BRR = (uint16_t)(UART_DIV_SAMPLING16(HAL_RCC_GetPCLK1Freq(), huart->Init.B
1906:Drivers/STM32F7xx_HAL_Driver/Src/stm32f7xx_hal_uart.c ****       break;
1907:Drivers/STM32F7xx_HAL_Driver/Src/stm32f7xx_hal_uart.c ****     case UART_CLOCKSOURCE_PCLK2:
1908:Drivers/STM32F7xx_HAL_Driver/Src/stm32f7xx_hal_uart.c ****         huart->Instance->BRR = (uint16_t)(UART_DIV_SAMPLING16(HAL_RCC_GetPCLK2Freq(), huart->Init.B
1909:Drivers/STM32F7xx_HAL_Driver/Src/stm32f7xx_hal_uart.c ****       break;
1910:Drivers/STM32F7xx_HAL_Driver/Src/stm32f7xx_hal_uart.c ****     case UART_CLOCKSOURCE_HSI:
1911:Drivers/STM32F7xx_HAL_Driver/Src/stm32f7xx_hal_uart.c ****         huart->Instance->BRR = (uint16_t)(UART_DIV_SAMPLING16(HSI_VALUE, huart->Init.BaudRate));
1912:Drivers/STM32F7xx_HAL_Driver/Src/stm32f7xx_hal_uart.c ****       break;
1913:Drivers/STM32F7xx_HAL_Driver/Src/stm32f7xx_hal_uart.c ****     case UART_CLOCKSOURCE_SYSCLK:
1914:Drivers/STM32F7xx_HAL_Driver/Src/stm32f7xx_hal_uart.c ****         huart->Instance->BRR = (uint16_t)(UART_DIV_SAMPLING16(HAL_RCC_GetSysClockFreq(), huart->Ini
1915:Drivers/STM32F7xx_HAL_Driver/Src/stm32f7xx_hal_uart.c ****       break;
1916:Drivers/STM32F7xx_HAL_Driver/Src/stm32f7xx_hal_uart.c ****     case UART_CLOCKSOURCE_LSE:
1917:Drivers/STM32F7xx_HAL_Driver/Src/stm32f7xx_hal_uart.c ****         huart->Instance->BRR = (uint16_t)(UART_DIV_SAMPLING16(LSE_VALUE, huart->Init.BaudRate));
1918:Drivers/STM32F7xx_HAL_Driver/Src/stm32f7xx_hal_uart.c ****       break;
1919:Drivers/STM32F7xx_HAL_Driver/Src/stm32f7xx_hal_uart.c ****       case UART_CLOCKSOURCE_UNDEFINED:
1920:Drivers/STM32F7xx_HAL_Driver/Src/stm32f7xx_hal_uart.c ****     default:
ARM GAS  /tmp/cc6CQ8Vx.s 			page 88


1921:Drivers/STM32F7xx_HAL_Driver/Src/stm32f7xx_hal_uart.c ****         ret = HAL_ERROR;
1922:Drivers/STM32F7xx_HAL_Driver/Src/stm32f7xx_hal_uart.c ****       break;
1923:Drivers/STM32F7xx_HAL_Driver/Src/stm32f7xx_hal_uart.c ****     }
1924:Drivers/STM32F7xx_HAL_Driver/Src/stm32f7xx_hal_uart.c ****   }
1925:Drivers/STM32F7xx_HAL_Driver/Src/stm32f7xx_hal_uart.c **** 
1926:Drivers/STM32F7xx_HAL_Driver/Src/stm32f7xx_hal_uart.c ****   return ret;
1927:Drivers/STM32F7xx_HAL_Driver/Src/stm32f7xx_hal_uart.c **** 
1928:Drivers/STM32F7xx_HAL_Driver/Src/stm32f7xx_hal_uart.c **** }
1929:Drivers/STM32F7xx_HAL_Driver/Src/stm32f7xx_hal_uart.c **** 
1930:Drivers/STM32F7xx_HAL_Driver/Src/stm32f7xx_hal_uart.c **** 
1931:Drivers/STM32F7xx_HAL_Driver/Src/stm32f7xx_hal_uart.c **** /**
1932:Drivers/STM32F7xx_HAL_Driver/Src/stm32f7xx_hal_uart.c ****   * @brief Configure the UART peripheral advanced features
1933:Drivers/STM32F7xx_HAL_Driver/Src/stm32f7xx_hal_uart.c ****   * @param huart uart handle
1934:Drivers/STM32F7xx_HAL_Driver/Src/stm32f7xx_hal_uart.c ****   * @retval None
1935:Drivers/STM32F7xx_HAL_Driver/Src/stm32f7xx_hal_uart.c ****   */
1936:Drivers/STM32F7xx_HAL_Driver/Src/stm32f7xx_hal_uart.c **** void UART_AdvFeatureConfig(UART_HandleTypeDef *huart)
1937:Drivers/STM32F7xx_HAL_Driver/Src/stm32f7xx_hal_uart.c **** {
1938:Drivers/STM32F7xx_HAL_Driver/Src/stm32f7xx_hal_uart.c ****   /* Check whether the set of advanced features to configure is properly set */
1939:Drivers/STM32F7xx_HAL_Driver/Src/stm32f7xx_hal_uart.c ****   assert_param(IS_UART_ADVFEATURE_INIT(huart->AdvancedInit.AdvFeatureInit));
1940:Drivers/STM32F7xx_HAL_Driver/Src/stm32f7xx_hal_uart.c **** 
1941:Drivers/STM32F7xx_HAL_Driver/Src/stm32f7xx_hal_uart.c ****   /* if required, configure TX pin active level inversion */
1942:Drivers/STM32F7xx_HAL_Driver/Src/stm32f7xx_hal_uart.c ****   if(HAL_IS_BIT_SET(huart->AdvancedInit.AdvFeatureInit, UART_ADVFEATURE_TXINVERT_INIT))
1943:Drivers/STM32F7xx_HAL_Driver/Src/stm32f7xx_hal_uart.c ****   {
1944:Drivers/STM32F7xx_HAL_Driver/Src/stm32f7xx_hal_uart.c ****     assert_param(IS_UART_ADVFEATURE_TXINV(huart->AdvancedInit.TxPinLevelInvert));
1945:Drivers/STM32F7xx_HAL_Driver/Src/stm32f7xx_hal_uart.c ****     MODIFY_REG(huart->Instance->CR2, USART_CR2_TXINV, huart->AdvancedInit.TxPinLevelInvert);
1946:Drivers/STM32F7xx_HAL_Driver/Src/stm32f7xx_hal_uart.c ****   }
1947:Drivers/STM32F7xx_HAL_Driver/Src/stm32f7xx_hal_uart.c **** 
1948:Drivers/STM32F7xx_HAL_Driver/Src/stm32f7xx_hal_uart.c ****   /* if required, configure RX pin active level inversion */
1949:Drivers/STM32F7xx_HAL_Driver/Src/stm32f7xx_hal_uart.c ****   if(HAL_IS_BIT_SET(huart->AdvancedInit.AdvFeatureInit, UART_ADVFEATURE_RXINVERT_INIT))
1950:Drivers/STM32F7xx_HAL_Driver/Src/stm32f7xx_hal_uart.c ****   {
1951:Drivers/STM32F7xx_HAL_Driver/Src/stm32f7xx_hal_uart.c ****     assert_param(IS_UART_ADVFEATURE_RXINV(huart->AdvancedInit.RxPinLevelInvert));
1952:Drivers/STM32F7xx_HAL_Driver/Src/stm32f7xx_hal_uart.c ****     MODIFY_REG(huart->Instance->CR2, USART_CR2_RXINV, huart->AdvancedInit.RxPinLevelInvert);
1953:Drivers/STM32F7xx_HAL_Driver/Src/stm32f7xx_hal_uart.c ****   }
1954:Drivers/STM32F7xx_HAL_Driver/Src/stm32f7xx_hal_uart.c **** 
1955:Drivers/STM32F7xx_HAL_Driver/Src/stm32f7xx_hal_uart.c ****   /* if required, configure data inversion */
1956:Drivers/STM32F7xx_HAL_Driver/Src/stm32f7xx_hal_uart.c ****   if(HAL_IS_BIT_SET(huart->AdvancedInit.AdvFeatureInit, UART_ADVFEATURE_DATAINVERT_INIT))
1957:Drivers/STM32F7xx_HAL_Driver/Src/stm32f7xx_hal_uart.c ****   {
1958:Drivers/STM32F7xx_HAL_Driver/Src/stm32f7xx_hal_uart.c ****     assert_param(IS_UART_ADVFEATURE_DATAINV(huart->AdvancedInit.DataInvert));
1959:Drivers/STM32F7xx_HAL_Driver/Src/stm32f7xx_hal_uart.c ****     MODIFY_REG(huart->Instance->CR2, USART_CR2_DATAINV, huart->AdvancedInit.DataInvert);
1960:Drivers/STM32F7xx_HAL_Driver/Src/stm32f7xx_hal_uart.c ****   }
1961:Drivers/STM32F7xx_HAL_Driver/Src/stm32f7xx_hal_uart.c **** 
1962:Drivers/STM32F7xx_HAL_Driver/Src/stm32f7xx_hal_uart.c ****   /* if required, configure RX/TX pins swap */
1963:Drivers/STM32F7xx_HAL_Driver/Src/stm32f7xx_hal_uart.c ****   if(HAL_IS_BIT_SET(huart->AdvancedInit.AdvFeatureInit, UART_ADVFEATURE_SWAP_INIT))
1964:Drivers/STM32F7xx_HAL_Driver/Src/stm32f7xx_hal_uart.c ****   {
1965:Drivers/STM32F7xx_HAL_Driver/Src/stm32f7xx_hal_uart.c ****     assert_param(IS_UART_ADVFEATURE_SWAP(huart->AdvancedInit.Swap));
1966:Drivers/STM32F7xx_HAL_Driver/Src/stm32f7xx_hal_uart.c ****     MODIFY_REG(huart->Instance->CR2, USART_CR2_SWAP, huart->AdvancedInit.Swap);
1967:Drivers/STM32F7xx_HAL_Driver/Src/stm32f7xx_hal_uart.c ****   }
1968:Drivers/STM32F7xx_HAL_Driver/Src/stm32f7xx_hal_uart.c **** 
1969:Drivers/STM32F7xx_HAL_Driver/Src/stm32f7xx_hal_uart.c ****   /* if required, configure RX overrun detection disabling */
1970:Drivers/STM32F7xx_HAL_Driver/Src/stm32f7xx_hal_uart.c ****   if(HAL_IS_BIT_SET(huart->AdvancedInit.AdvFeatureInit, UART_ADVFEATURE_RXOVERRUNDISABLE_INIT))
1971:Drivers/STM32F7xx_HAL_Driver/Src/stm32f7xx_hal_uart.c ****   {
1972:Drivers/STM32F7xx_HAL_Driver/Src/stm32f7xx_hal_uart.c ****     assert_param(IS_UART_OVERRUN(huart->AdvancedInit.OverrunDisable));
1973:Drivers/STM32F7xx_HAL_Driver/Src/stm32f7xx_hal_uart.c ****     MODIFY_REG(huart->Instance->CR3, USART_CR3_OVRDIS, huart->AdvancedInit.OverrunDisable);
1974:Drivers/STM32F7xx_HAL_Driver/Src/stm32f7xx_hal_uart.c ****   }
1975:Drivers/STM32F7xx_HAL_Driver/Src/stm32f7xx_hal_uart.c **** 
1976:Drivers/STM32F7xx_HAL_Driver/Src/stm32f7xx_hal_uart.c ****   /* if required, configure DMA disabling on reception error */
1977:Drivers/STM32F7xx_HAL_Driver/Src/stm32f7xx_hal_uart.c ****   if(HAL_IS_BIT_SET(huart->AdvancedInit.AdvFeatureInit, UART_ADVFEATURE_DMADISABLEONERROR_INIT))
ARM GAS  /tmp/cc6CQ8Vx.s 			page 89


1978:Drivers/STM32F7xx_HAL_Driver/Src/stm32f7xx_hal_uart.c ****   {
1979:Drivers/STM32F7xx_HAL_Driver/Src/stm32f7xx_hal_uart.c ****     assert_param(IS_UART_ADVFEATURE_DMAONRXERROR(huart->AdvancedInit.DMADisableonRxError));
1980:Drivers/STM32F7xx_HAL_Driver/Src/stm32f7xx_hal_uart.c ****     MODIFY_REG(huart->Instance->CR3, USART_CR3_DDRE, huart->AdvancedInit.DMADisableonRxError);
1981:Drivers/STM32F7xx_HAL_Driver/Src/stm32f7xx_hal_uart.c ****   }
1982:Drivers/STM32F7xx_HAL_Driver/Src/stm32f7xx_hal_uart.c **** 
1983:Drivers/STM32F7xx_HAL_Driver/Src/stm32f7xx_hal_uart.c ****   /* if required, configure auto Baud rate detection scheme */
1984:Drivers/STM32F7xx_HAL_Driver/Src/stm32f7xx_hal_uart.c ****   if(HAL_IS_BIT_SET(huart->AdvancedInit.AdvFeatureInit, UART_ADVFEATURE_AUTOBAUDRATE_INIT))
1985:Drivers/STM32F7xx_HAL_Driver/Src/stm32f7xx_hal_uart.c ****   {
1986:Drivers/STM32F7xx_HAL_Driver/Src/stm32f7xx_hal_uart.c ****     assert_param(IS_UART_ADVFEATURE_AUTOBAUDRATE(huart->AdvancedInit.AutoBaudRateEnable));
1987:Drivers/STM32F7xx_HAL_Driver/Src/stm32f7xx_hal_uart.c ****     MODIFY_REG(huart->Instance->CR2, USART_CR2_ABREN, huart->AdvancedInit.AutoBaudRateEnable);
1988:Drivers/STM32F7xx_HAL_Driver/Src/stm32f7xx_hal_uart.c ****     /* set auto Baudrate detection parameters if detection is enabled */
1989:Drivers/STM32F7xx_HAL_Driver/Src/stm32f7xx_hal_uart.c ****     if(huart->AdvancedInit.AutoBaudRateEnable == UART_ADVFEATURE_AUTOBAUDRATE_ENABLE)
1990:Drivers/STM32F7xx_HAL_Driver/Src/stm32f7xx_hal_uart.c ****     {
1991:Drivers/STM32F7xx_HAL_Driver/Src/stm32f7xx_hal_uart.c ****       assert_param(IS_UART_ADVFEATURE_AUTOBAUDRATEMODE(huart->AdvancedInit.AutoBaudRateMode));
1992:Drivers/STM32F7xx_HAL_Driver/Src/stm32f7xx_hal_uart.c ****       MODIFY_REG(huart->Instance->CR2, USART_CR2_ABRMODE, huart->AdvancedInit.AutoBaudRateMode);
1993:Drivers/STM32F7xx_HAL_Driver/Src/stm32f7xx_hal_uart.c ****     }
1994:Drivers/STM32F7xx_HAL_Driver/Src/stm32f7xx_hal_uart.c ****   }
1995:Drivers/STM32F7xx_HAL_Driver/Src/stm32f7xx_hal_uart.c **** 
1996:Drivers/STM32F7xx_HAL_Driver/Src/stm32f7xx_hal_uart.c ****   /* if required, configure MSB first on communication line */
1997:Drivers/STM32F7xx_HAL_Driver/Src/stm32f7xx_hal_uart.c ****   if(HAL_IS_BIT_SET(huart->AdvancedInit.AdvFeatureInit, UART_ADVFEATURE_MSBFIRST_INIT))
1998:Drivers/STM32F7xx_HAL_Driver/Src/stm32f7xx_hal_uart.c ****   {
1999:Drivers/STM32F7xx_HAL_Driver/Src/stm32f7xx_hal_uart.c ****     assert_param(IS_UART_ADVFEATURE_MSBFIRST(huart->AdvancedInit.MSBFirst));
2000:Drivers/STM32F7xx_HAL_Driver/Src/stm32f7xx_hal_uart.c ****     MODIFY_REG(huart->Instance->CR2, USART_CR2_MSBFIRST, huart->AdvancedInit.MSBFirst);
2001:Drivers/STM32F7xx_HAL_Driver/Src/stm32f7xx_hal_uart.c ****   }
2002:Drivers/STM32F7xx_HAL_Driver/Src/stm32f7xx_hal_uart.c **** }
2003:Drivers/STM32F7xx_HAL_Driver/Src/stm32f7xx_hal_uart.c **** 
2004:Drivers/STM32F7xx_HAL_Driver/Src/stm32f7xx_hal_uart.c **** 
2005:Drivers/STM32F7xx_HAL_Driver/Src/stm32f7xx_hal_uart.c **** 
2006:Drivers/STM32F7xx_HAL_Driver/Src/stm32f7xx_hal_uart.c **** /**
2007:Drivers/STM32F7xx_HAL_Driver/Src/stm32f7xx_hal_uart.c ****   * @brief Check the UART Idle State
2008:Drivers/STM32F7xx_HAL_Driver/Src/stm32f7xx_hal_uart.c ****   * @param huart uart handle
2009:Drivers/STM32F7xx_HAL_Driver/Src/stm32f7xx_hal_uart.c ****   * @retval HAL status
2010:Drivers/STM32F7xx_HAL_Driver/Src/stm32f7xx_hal_uart.c ****   */
2011:Drivers/STM32F7xx_HAL_Driver/Src/stm32f7xx_hal_uart.c **** HAL_StatusTypeDef UART_CheckIdleState(UART_HandleTypeDef *huart)
2012:Drivers/STM32F7xx_HAL_Driver/Src/stm32f7xx_hal_uart.c **** {
2013:Drivers/STM32F7xx_HAL_Driver/Src/stm32f7xx_hal_uart.c ****   uint32_t tickstart = 0U;
2014:Drivers/STM32F7xx_HAL_Driver/Src/stm32f7xx_hal_uart.c **** 
2015:Drivers/STM32F7xx_HAL_Driver/Src/stm32f7xx_hal_uart.c ****   /* Initialize the UART ErrorCode */
2016:Drivers/STM32F7xx_HAL_Driver/Src/stm32f7xx_hal_uart.c ****   huart->ErrorCode = HAL_UART_ERROR_NONE;
 2594              		.loc 1 2016 0 discriminator 2
 2595 0012 0021     		movs	r1, #0
 2596              	.LBE113:
 2597              	.LBE112:
1749:Drivers/STM32F7xx_HAL_Driver/Src/stm32f7xx_hal_uart.c **** 
 2598              		.loc 1 1749 0 discriminator 2
 2599 0014 0125     		movs	r5, #1
1751:Drivers/STM32F7xx_HAL_Driver/Src/stm32f7xx_hal_uart.c **** 
 2600              		.loc 1 1751 0 discriminator 2
 2601 0016 84F86930 		strb	r3, [r4, #105]
1754:Drivers/STM32F7xx_HAL_Driver/Src/stm32f7xx_hal_uart.c **** 
 2602              		.loc 1 1754 0 discriminator 2
 2603 001a 1368     		ldr	r3, [r2]
1749:Drivers/STM32F7xx_HAL_Driver/Src/stm32f7xx_hal_uart.c **** 
 2604              		.loc 1 1749 0 discriminator 2
 2605 001c 84F86850 		strb	r5, [r4, #104]
1754:Drivers/STM32F7xx_HAL_Driver/Src/stm32f7xx_hal_uart.c **** 
 2606              		.loc 1 1754 0 discriminator 2
ARM GAS  /tmp/cc6CQ8Vx.s 			page 90


 2607 0020 43F40053 		orr	r3, r3, #8192
 2608 0024 1360     		str	r3, [r2]
1756:Drivers/STM32F7xx_HAL_Driver/Src/stm32f7xx_hal_uart.c **** 
 2609              		.loc 1 1756 0 discriminator 2
 2610 0026 84F86900 		strb	r0, [r4, #105]
 2611              	.LVL189:
 2612              	.LBB129:
 2613              	.LBB126:
 2614              		.loc 1 2016 0 discriminator 2
 2615 002a E166     		str	r1, [r4, #108]
2017:Drivers/STM32F7xx_HAL_Driver/Src/stm32f7xx_hal_uart.c **** 
2018:Drivers/STM32F7xx_HAL_Driver/Src/stm32f7xx_hal_uart.c ****   /* Init tickstart for timeout managment*/
2019:Drivers/STM32F7xx_HAL_Driver/Src/stm32f7xx_hal_uart.c ****   tickstart = HAL_GetTick();
 2616              		.loc 1 2019 0 discriminator 2
 2617 002c FFF7FEFF 		bl	HAL_GetTick
 2618              	.LVL190:
2020:Drivers/STM32F7xx_HAL_Driver/Src/stm32f7xx_hal_uart.c **** 
2021:Drivers/STM32F7xx_HAL_Driver/Src/stm32f7xx_hal_uart.c ****   /* Check if the Transmitter is enabled */
2022:Drivers/STM32F7xx_HAL_Driver/Src/stm32f7xx_hal_uart.c ****   if((huart->Instance->CR1 & USART_CR1_TE) == USART_CR1_TE)
 2619              		.loc 1 2022 0 discriminator 2
 2620 0030 2368     		ldr	r3, [r4]
2019:Drivers/STM32F7xx_HAL_Driver/Src/stm32f7xx_hal_uart.c **** 
 2621              		.loc 1 2019 0 discriminator 2
 2622 0032 0646     		mov	r6, r0
 2623              	.LVL191:
 2624              		.loc 1 2022 0 discriminator 2
 2625 0034 1A68     		ldr	r2, [r3]
 2626 0036 1207     		lsls	r2, r2, #28
 2627 0038 09D4     		bmi	.L321
 2628              	.LVL192:
 2629              	.L317:
2023:Drivers/STM32F7xx_HAL_Driver/Src/stm32f7xx_hal_uart.c ****   {
2024:Drivers/STM32F7xx_HAL_Driver/Src/stm32f7xx_hal_uart.c ****     /* Wait until TEACK flag is set */
2025:Drivers/STM32F7xx_HAL_Driver/Src/stm32f7xx_hal_uart.c ****     if(UART_WaitOnFlagUntilTimeout(huart, USART_ISR_TEACK, RESET, tickstart, HAL_UART_TIMEOUT_VALUE
2026:Drivers/STM32F7xx_HAL_Driver/Src/stm32f7xx_hal_uart.c ****     {
2027:Drivers/STM32F7xx_HAL_Driver/Src/stm32f7xx_hal_uart.c ****       /* Timeout Occurred */
2028:Drivers/STM32F7xx_HAL_Driver/Src/stm32f7xx_hal_uart.c ****       return HAL_TIMEOUT;
2029:Drivers/STM32F7xx_HAL_Driver/Src/stm32f7xx_hal_uart.c ****     }
2030:Drivers/STM32F7xx_HAL_Driver/Src/stm32f7xx_hal_uart.c ****   }
2031:Drivers/STM32F7xx_HAL_Driver/Src/stm32f7xx_hal_uart.c **** 
2032:Drivers/STM32F7xx_HAL_Driver/Src/stm32f7xx_hal_uart.c ****   /* Initialize the UART State */
2033:Drivers/STM32F7xx_HAL_Driver/Src/stm32f7xx_hal_uart.c ****   huart->gState= HAL_UART_STATE_READY;
 2630              		.loc 1 2033 0
 2631 003a 2022     		movs	r2, #32
2034:Drivers/STM32F7xx_HAL_Driver/Src/stm32f7xx_hal_uart.c ****   huart->RxState= HAL_UART_STATE_READY;
2035:Drivers/STM32F7xx_HAL_Driver/Src/stm32f7xx_hal_uart.c **** 
2036:Drivers/STM32F7xx_HAL_Driver/Src/stm32f7xx_hal_uart.c ****   /* Process Unlocked */
2037:Drivers/STM32F7xx_HAL_Driver/Src/stm32f7xx_hal_uart.c ****   __HAL_UNLOCK(huart);
 2632              		.loc 1 2037 0
 2633 003c 0023     		movs	r3, #0
2033:Drivers/STM32F7xx_HAL_Driver/Src/stm32f7xx_hal_uart.c ****   huart->RxState= HAL_UART_STATE_READY;
 2634              		.loc 1 2033 0
 2635 003e 84F86920 		strb	r2, [r4, #105]
2038:Drivers/STM32F7xx_HAL_Driver/Src/stm32f7xx_hal_uart.c **** 
2039:Drivers/STM32F7xx_HAL_Driver/Src/stm32f7xx_hal_uart.c ****   return HAL_OK;
 2636              		.loc 1 2039 0
 2637 0042 1846     		mov	r0, r3
ARM GAS  /tmp/cc6CQ8Vx.s 			page 91


2034:Drivers/STM32F7xx_HAL_Driver/Src/stm32f7xx_hal_uart.c **** 
 2638              		.loc 1 2034 0
 2639 0044 84F86A20 		strb	r2, [r4, #106]
2037:Drivers/STM32F7xx_HAL_Driver/Src/stm32f7xx_hal_uart.c **** 
 2640              		.loc 1 2037 0
 2641 0048 84F86830 		strb	r3, [r4, #104]
 2642              	.LBE126:
 2643              	.LBE129:
1759:Drivers/STM32F7xx_HAL_Driver/Src/stm32f7xx_hal_uart.c **** 
 2644              		.loc 1 1759 0
 2645 004c F8BD     		pop	{r3, r4, r5, r6, r7, pc}
 2646              	.LVL193:
 2647              	.L321:
 2648              	.LBB130:
 2649              	.LBB127:
 2650              	.LBB114:
 2651              	.LBB115:
1343:Drivers/STM32F7xx_HAL_Driver/Src/stm32f7xx_hal_uart.c ****       {
 2652              		.loc 1 1343 0
 2653 004e 104F     		ldr	r7, .L322
 2654 0050 05E0     		b	.L314
 2655              	.LVL194:
 2656              	.L316:
 2657 0052 FFF7FEFF 		bl	HAL_GetTick
 2658              	.LVL195:
 2659 0056 801B     		subs	r0, r0, r6
 2660              	.LBB116:
 2661              	.LBB117:
1346:Drivers/STM32F7xx_HAL_Driver/Src/stm32f7xx_hal_uart.c ****         CLEAR_BIT(huart->Instance->CR3, USART_CR3_EIE);
 2662              		.loc 1 1346 0
 2663 0058 2368     		ldr	r3, [r4]
 2664              	.LBE117:
 2665              	.LBE116:
1343:Drivers/STM32F7xx_HAL_Driver/Src/stm32f7xx_hal_uart.c ****       {
 2666              		.loc 1 1343 0
 2667 005a B842     		cmp	r0, r7
 2668 005c 06D8     		bhi	.L315
 2669              	.L314:
1338:Drivers/STM32F7xx_HAL_Driver/Src/stm32f7xx_hal_uart.c ****   {
 2670              		.loc 1 1338 0
 2671 005e DD69     		ldr	r5, [r3, #28]
 2672 0060 15F40015 		ands	r5, r5, #2097152
 2673 0064 F5D0     		beq	.L316
 2674 0066 E8E7     		b	.L317
 2675              	.LVL196:
 2676              	.L318:
 2677              	.LBE115:
 2678              	.LBE114:
 2679              	.LBE127:
 2680              	.LBE130:
1749:Drivers/STM32F7xx_HAL_Driver/Src/stm32f7xx_hal_uart.c **** 
 2681              		.loc 1 1749 0
 2682 0068 0220     		movs	r0, #2
 2683              	.LVL197:
1759:Drivers/STM32F7xx_HAL_Driver/Src/stm32f7xx_hal_uart.c **** 
 2684              		.loc 1 1759 0
 2685 006a F8BD     		pop	{r3, r4, r5, r6, r7, pc}
ARM GAS  /tmp/cc6CQ8Vx.s 			page 92


 2686              	.LVL198:
 2687              	.L315:
 2688              	.LBB131:
 2689              	.LBB128:
 2690              	.LBB124:
 2691              	.LBB122:
 2692              	.LBB120:
 2693              	.LBB118:
1346:Drivers/STM32F7xx_HAL_Driver/Src/stm32f7xx_hal_uart.c ****         CLEAR_BIT(huart->Instance->CR3, USART_CR3_EIE);
 2694              		.loc 1 1346 0
 2695 006c 1A68     		ldr	r2, [r3]
1349:Drivers/STM32F7xx_HAL_Driver/Src/stm32f7xx_hal_uart.c ****         huart->RxState = HAL_UART_STATE_READY;
 2696              		.loc 1 1349 0
 2697 006e 2021     		movs	r1, #32
 2698              	.LBE118:
 2699              	.LBE120:
 2700              	.LBE122:
 2701              	.LBE124:
2028:Drivers/STM32F7xx_HAL_Driver/Src/stm32f7xx_hal_uart.c ****     }
 2702              		.loc 1 2028 0
 2703 0070 0320     		movs	r0, #3
 2704              	.LBB125:
 2705              	.LBB123:
 2706              	.LBB121:
 2707              	.LBB119:
1346:Drivers/STM32F7xx_HAL_Driver/Src/stm32f7xx_hal_uart.c ****         CLEAR_BIT(huart->Instance->CR3, USART_CR3_EIE);
 2708              		.loc 1 1346 0
 2709 0072 22F4D072 		bic	r2, r2, #416
 2710 0076 1A60     		str	r2, [r3]
1347:Drivers/STM32F7xx_HAL_Driver/Src/stm32f7xx_hal_uart.c **** 
 2711              		.loc 1 1347 0
 2712 0078 9A68     		ldr	r2, [r3, #8]
 2713 007a 22F00102 		bic	r2, r2, #1
 2714 007e 9A60     		str	r2, [r3, #8]
1349:Drivers/STM32F7xx_HAL_Driver/Src/stm32f7xx_hal_uart.c ****         huart->RxState = HAL_UART_STATE_READY;
 2715              		.loc 1 1349 0
 2716 0080 84F86910 		strb	r1, [r4, #105]
1353:Drivers/STM32F7xx_HAL_Driver/Src/stm32f7xx_hal_uart.c ****         return HAL_TIMEOUT;
 2717              		.loc 1 1353 0
 2718 0084 84F86850 		strb	r5, [r4, #104]
 2719              	.LVL199:
1350:Drivers/STM32F7xx_HAL_Driver/Src/stm32f7xx_hal_uart.c **** 
 2720              		.loc 1 1350 0
 2721 0088 84F86A10 		strb	r1, [r4, #106]
 2722              	.LBE119:
 2723              	.LBE121:
 2724              	.LBE123:
 2725              	.LBE125:
 2726              	.LBE128:
 2727              	.LBE131:
1759:Drivers/STM32F7xx_HAL_Driver/Src/stm32f7xx_hal_uart.c **** 
 2728              		.loc 1 1759 0
 2729 008c F8BD     		pop	{r3, r4, r5, r6, r7, pc}
 2730              	.LVL200:
 2731              	.L323:
 2732 008e 00BF     		.align	2
 2733              	.L322:
ARM GAS  /tmp/cc6CQ8Vx.s 			page 93


 2734 0090 FEFFFF01 		.word	33554430
 2735              		.cfi_endproc
 2736              	.LFE173:
 2738              		.section	.text.HAL_MultiProcessor_DisableMuteMode,"ax",%progbits
 2739              		.align	1
 2740              		.p2align 2,,3
 2741              		.global	HAL_MultiProcessor_DisableMuteMode
 2742              		.syntax unified
 2743              		.thumb
 2744              		.thumb_func
 2745              		.fpu fpv4-sp-d16
 2747              	HAL_MultiProcessor_DisableMuteMode:
 2748              	.LFB174:
1768:Drivers/STM32F7xx_HAL_Driver/Src/stm32f7xx_hal_uart.c ****   /* Process Locked */
 2749              		.loc 1 1768 0
 2750              		.cfi_startproc
 2751              		@ args = 0, pretend = 0, frame = 0
 2752              		@ frame_needed = 0, uses_anonymous_args = 0
 2753              	.LVL201:
 2754 0000 F8B5     		push	{r3, r4, r5, r6, r7, lr}
 2755              	.LCFI42:
 2756              		.cfi_def_cfa_offset 24
 2757              		.cfi_offset 3, -24
 2758              		.cfi_offset 4, -20
 2759              		.cfi_offset 5, -16
 2760              		.cfi_offset 6, -12
 2761              		.cfi_offset 7, -8
 2762              		.cfi_offset 14, -4
1770:Drivers/STM32F7xx_HAL_Driver/Src/stm32f7xx_hal_uart.c **** 
 2763              		.loc 1 1770 0
 2764 0002 90F86830 		ldrb	r3, [r0, #104]	@ zero_extendqisi2
 2765 0006 012B     		cmp	r3, #1
 2766 0008 2ED0     		beq	.L330
1775:Drivers/STM32F7xx_HAL_Driver/Src/stm32f7xx_hal_uart.c **** 
 2767              		.loc 1 1775 0 discriminator 2
 2768 000a 0268     		ldr	r2, [r0]
 2769 000c 0446     		mov	r4, r0
1772:Drivers/STM32F7xx_HAL_Driver/Src/stm32f7xx_hal_uart.c **** 
 2770              		.loc 1 1772 0 discriminator 2
 2771 000e 2423     		movs	r3, #36
1777:Drivers/STM32F7xx_HAL_Driver/Src/stm32f7xx_hal_uart.c **** 
 2772              		.loc 1 1777 0 discriminator 2
 2773 0010 2020     		movs	r0, #32
 2774              	.LVL202:
 2775              	.LBB138:
 2776              	.LBB139:
2016:Drivers/STM32F7xx_HAL_Driver/Src/stm32f7xx_hal_uart.c **** 
 2777              		.loc 1 2016 0 discriminator 2
 2778 0012 0021     		movs	r1, #0
 2779              	.LBE139:
 2780              	.LBE138:
1770:Drivers/STM32F7xx_HAL_Driver/Src/stm32f7xx_hal_uart.c **** 
 2781              		.loc 1 1770 0 discriminator 2
 2782 0014 0125     		movs	r5, #1
1772:Drivers/STM32F7xx_HAL_Driver/Src/stm32f7xx_hal_uart.c **** 
 2783              		.loc 1 1772 0 discriminator 2
 2784 0016 84F86930 		strb	r3, [r4, #105]
ARM GAS  /tmp/cc6CQ8Vx.s 			page 94


1775:Drivers/STM32F7xx_HAL_Driver/Src/stm32f7xx_hal_uart.c **** 
 2785              		.loc 1 1775 0 discriminator 2
 2786 001a 1368     		ldr	r3, [r2]
1770:Drivers/STM32F7xx_HAL_Driver/Src/stm32f7xx_hal_uart.c **** 
 2787              		.loc 1 1770 0 discriminator 2
 2788 001c 84F86850 		strb	r5, [r4, #104]
1775:Drivers/STM32F7xx_HAL_Driver/Src/stm32f7xx_hal_uart.c **** 
 2789              		.loc 1 1775 0 discriminator 2
 2790 0020 23F40053 		bic	r3, r3, #8192
 2791 0024 1360     		str	r3, [r2]
1777:Drivers/STM32F7xx_HAL_Driver/Src/stm32f7xx_hal_uart.c **** 
 2792              		.loc 1 1777 0 discriminator 2
 2793 0026 84F86900 		strb	r0, [r4, #105]
 2794              	.LVL203:
 2795              	.LBB155:
 2796              	.LBB152:
2016:Drivers/STM32F7xx_HAL_Driver/Src/stm32f7xx_hal_uart.c **** 
 2797              		.loc 1 2016 0 discriminator 2
 2798 002a E166     		str	r1, [r4, #108]
2019:Drivers/STM32F7xx_HAL_Driver/Src/stm32f7xx_hal_uart.c **** 
 2799              		.loc 1 2019 0 discriminator 2
 2800 002c FFF7FEFF 		bl	HAL_GetTick
 2801              	.LVL204:
2022:Drivers/STM32F7xx_HAL_Driver/Src/stm32f7xx_hal_uart.c ****   {
 2802              		.loc 1 2022 0 discriminator 2
 2803 0030 2368     		ldr	r3, [r4]
2019:Drivers/STM32F7xx_HAL_Driver/Src/stm32f7xx_hal_uart.c **** 
 2804              		.loc 1 2019 0 discriminator 2
 2805 0032 0646     		mov	r6, r0
 2806              	.LVL205:
2022:Drivers/STM32F7xx_HAL_Driver/Src/stm32f7xx_hal_uart.c ****   {
 2807              		.loc 1 2022 0 discriminator 2
 2808 0034 1A68     		ldr	r2, [r3]
 2809 0036 1207     		lsls	r2, r2, #28
 2810 0038 09D4     		bmi	.L333
 2811              	.LVL206:
 2812              	.L329:
2033:Drivers/STM32F7xx_HAL_Driver/Src/stm32f7xx_hal_uart.c ****   huart->RxState= HAL_UART_STATE_READY;
 2813              		.loc 1 2033 0
 2814 003a 2022     		movs	r2, #32
2037:Drivers/STM32F7xx_HAL_Driver/Src/stm32f7xx_hal_uart.c **** 
 2815              		.loc 1 2037 0
 2816 003c 0023     		movs	r3, #0
2033:Drivers/STM32F7xx_HAL_Driver/Src/stm32f7xx_hal_uart.c ****   huart->RxState= HAL_UART_STATE_READY;
 2817              		.loc 1 2033 0
 2818 003e 84F86920 		strb	r2, [r4, #105]
 2819              		.loc 1 2039 0
 2820 0042 1846     		mov	r0, r3
2034:Drivers/STM32F7xx_HAL_Driver/Src/stm32f7xx_hal_uart.c **** 
 2821              		.loc 1 2034 0
 2822 0044 84F86A20 		strb	r2, [r4, #106]
2037:Drivers/STM32F7xx_HAL_Driver/Src/stm32f7xx_hal_uart.c **** 
 2823              		.loc 1 2037 0
 2824 0048 84F86830 		strb	r3, [r4, #104]
 2825              	.LBE152:
 2826              	.LBE155:
1780:Drivers/STM32F7xx_HAL_Driver/Src/stm32f7xx_hal_uart.c **** 
ARM GAS  /tmp/cc6CQ8Vx.s 			page 95


 2827              		.loc 1 1780 0
 2828 004c F8BD     		pop	{r3, r4, r5, r6, r7, pc}
 2829              	.LVL207:
 2830              	.L333:
 2831              	.LBB156:
 2832              	.LBB153:
 2833              	.LBB140:
 2834              	.LBB141:
1343:Drivers/STM32F7xx_HAL_Driver/Src/stm32f7xx_hal_uart.c ****       {
 2835              		.loc 1 1343 0
 2836 004e 104F     		ldr	r7, .L334
 2837 0050 05E0     		b	.L326
 2838              	.LVL208:
 2839              	.L328:
 2840 0052 FFF7FEFF 		bl	HAL_GetTick
 2841              	.LVL209:
 2842 0056 801B     		subs	r0, r0, r6
 2843              	.LBB142:
 2844              	.LBB143:
1346:Drivers/STM32F7xx_HAL_Driver/Src/stm32f7xx_hal_uart.c ****         CLEAR_BIT(huart->Instance->CR3, USART_CR3_EIE);
 2845              		.loc 1 1346 0
 2846 0058 2368     		ldr	r3, [r4]
 2847              	.LBE143:
 2848              	.LBE142:
1343:Drivers/STM32F7xx_HAL_Driver/Src/stm32f7xx_hal_uart.c ****       {
 2849              		.loc 1 1343 0
 2850 005a B842     		cmp	r0, r7
 2851 005c 06D8     		bhi	.L327
 2852              	.L326:
1338:Drivers/STM32F7xx_HAL_Driver/Src/stm32f7xx_hal_uart.c ****   {
 2853              		.loc 1 1338 0
 2854 005e DD69     		ldr	r5, [r3, #28]
 2855 0060 15F40015 		ands	r5, r5, #2097152
 2856 0064 F5D0     		beq	.L328
 2857 0066 E8E7     		b	.L329
 2858              	.LVL210:
 2859              	.L330:
 2860              	.LBE141:
 2861              	.LBE140:
 2862              	.LBE153:
 2863              	.LBE156:
1770:Drivers/STM32F7xx_HAL_Driver/Src/stm32f7xx_hal_uart.c **** 
 2864              		.loc 1 1770 0
 2865 0068 0220     		movs	r0, #2
 2866              	.LVL211:
1780:Drivers/STM32F7xx_HAL_Driver/Src/stm32f7xx_hal_uart.c **** 
 2867              		.loc 1 1780 0
 2868 006a F8BD     		pop	{r3, r4, r5, r6, r7, pc}
 2869              	.LVL212:
 2870              	.L327:
 2871              	.LBB157:
 2872              	.LBB154:
 2873              	.LBB150:
 2874              	.LBB148:
 2875              	.LBB146:
 2876              	.LBB144:
1346:Drivers/STM32F7xx_HAL_Driver/Src/stm32f7xx_hal_uart.c ****         CLEAR_BIT(huart->Instance->CR3, USART_CR3_EIE);
ARM GAS  /tmp/cc6CQ8Vx.s 			page 96


 2877              		.loc 1 1346 0
 2878 006c 1A68     		ldr	r2, [r3]
1349:Drivers/STM32F7xx_HAL_Driver/Src/stm32f7xx_hal_uart.c ****         huart->RxState = HAL_UART_STATE_READY;
 2879              		.loc 1 1349 0
 2880 006e 2021     		movs	r1, #32
 2881              	.LBE144:
 2882              	.LBE146:
 2883              	.LBE148:
 2884              	.LBE150:
2028:Drivers/STM32F7xx_HAL_Driver/Src/stm32f7xx_hal_uart.c ****     }
 2885              		.loc 1 2028 0
 2886 0070 0320     		movs	r0, #3
 2887              	.LBB151:
 2888              	.LBB149:
 2889              	.LBB147:
 2890              	.LBB145:
1346:Drivers/STM32F7xx_HAL_Driver/Src/stm32f7xx_hal_uart.c ****         CLEAR_BIT(huart->Instance->CR3, USART_CR3_EIE);
 2891              		.loc 1 1346 0
 2892 0072 22F4D072 		bic	r2, r2, #416
 2893 0076 1A60     		str	r2, [r3]
1347:Drivers/STM32F7xx_HAL_Driver/Src/stm32f7xx_hal_uart.c **** 
 2894              		.loc 1 1347 0
 2895 0078 9A68     		ldr	r2, [r3, #8]
 2896 007a 22F00102 		bic	r2, r2, #1
 2897 007e 9A60     		str	r2, [r3, #8]
1349:Drivers/STM32F7xx_HAL_Driver/Src/stm32f7xx_hal_uart.c ****         huart->RxState = HAL_UART_STATE_READY;
 2898              		.loc 1 1349 0
 2899 0080 84F86910 		strb	r1, [r4, #105]
1353:Drivers/STM32F7xx_HAL_Driver/Src/stm32f7xx_hal_uart.c ****         return HAL_TIMEOUT;
 2900              		.loc 1 1353 0
 2901 0084 84F86850 		strb	r5, [r4, #104]
 2902              	.LVL213:
1350:Drivers/STM32F7xx_HAL_Driver/Src/stm32f7xx_hal_uart.c **** 
 2903              		.loc 1 1350 0
 2904 0088 84F86A10 		strb	r1, [r4, #106]
 2905              	.LBE145:
 2906              	.LBE147:
 2907              	.LBE149:
 2908              	.LBE151:
 2909              	.LBE154:
 2910              	.LBE157:
1780:Drivers/STM32F7xx_HAL_Driver/Src/stm32f7xx_hal_uart.c **** 
 2911              		.loc 1 1780 0
 2912 008c F8BD     		pop	{r3, r4, r5, r6, r7, pc}
 2913              	.LVL214:
 2914              	.L335:
 2915 008e 00BF     		.align	2
 2916              	.L334:
 2917 0090 FEFFFF01 		.word	33554430
 2918              		.cfi_endproc
 2919              	.LFE174:
 2921              		.section	.text.HAL_MultiProcessor_EnterMuteMode,"ax",%progbits
 2922              		.align	1
 2923              		.p2align 2,,3
 2924              		.global	HAL_MultiProcessor_EnterMuteMode
 2925              		.syntax unified
 2926              		.thumb
ARM GAS  /tmp/cc6CQ8Vx.s 			page 97


 2927              		.thumb_func
 2928              		.fpu fpv4-sp-d16
 2930              	HAL_MultiProcessor_EnterMuteMode:
 2931              	.LFB175:
1789:Drivers/STM32F7xx_HAL_Driver/Src/stm32f7xx_hal_uart.c ****   __HAL_UART_SEND_REQ(huart, UART_MUTE_MODE_REQUEST);
 2932              		.loc 1 1789 0
 2933              		.cfi_startproc
 2934              		@ args = 0, pretend = 0, frame = 0
 2935              		@ frame_needed = 0, uses_anonymous_args = 0
 2936              		@ link register save eliminated.
 2937              	.LVL215:
1790:Drivers/STM32F7xx_HAL_Driver/Src/stm32f7xx_hal_uart.c **** }
 2938              		.loc 1 1790 0
 2939 0000 0268     		ldr	r2, [r0]
 2940 0002 9369     		ldr	r3, [r2, #24]
 2941 0004 43F00403 		orr	r3, r3, #4
 2942 0008 9361     		str	r3, [r2, #24]
1791:Drivers/STM32F7xx_HAL_Driver/Src/stm32f7xx_hal_uart.c **** 
 2943              		.loc 1 1791 0
 2944 000a 7047     		bx	lr
 2945              		.cfi_endproc
 2946              	.LFE175:
 2948              		.section	.text.HAL_UART_GetState,"ax",%progbits
 2949              		.align	1
 2950              		.p2align 2,,3
 2951              		.global	HAL_UART_GetState
 2952              		.syntax unified
 2953              		.thumb
 2954              		.thumb_func
 2955              		.fpu fpv4-sp-d16
 2957              	HAL_UART_GetState:
 2958              	.LFB176:
1801:Drivers/STM32F7xx_HAL_Driver/Src/stm32f7xx_hal_uart.c ****   uint32_t temp1= 0x00U, temp2 = 0x00U;
 2959              		.loc 1 1801 0
 2960              		.cfi_startproc
 2961              		@ args = 0, pretend = 0, frame = 0
 2962              		@ frame_needed = 0, uses_anonymous_args = 0
 2963              		@ link register save eliminated.
 2964              	.LVL216:
1803:Drivers/STM32F7xx_HAL_Driver/Src/stm32f7xx_hal_uart.c ****   temp2 = huart->RxState;
 2965              		.loc 1 1803 0
 2966 0000 90F86920 		ldrb	r2, [r0, #105]	@ zero_extendqisi2
 2967              	.LVL217:
1804:Drivers/STM32F7xx_HAL_Driver/Src/stm32f7xx_hal_uart.c **** 
 2968              		.loc 1 1804 0
 2969 0004 90F86A00 		ldrb	r0, [r0, #106]	@ zero_extendqisi2
 2970              	.LVL218:
1807:Drivers/STM32F7xx_HAL_Driver/Src/stm32f7xx_hal_uart.c **** 
 2971              		.loc 1 1807 0
 2972 0008 1043     		orrs	r0, r0, r2
 2973              	.LVL219:
 2974 000a 7047     		bx	lr
 2975              		.cfi_endproc
 2976              	.LFE176:
 2978              		.section	.text.HAL_UART_GetError,"ax",%progbits
 2979              		.align	1
 2980              		.p2align 2,,3
ARM GAS  /tmp/cc6CQ8Vx.s 			page 98


 2981              		.global	HAL_UART_GetError
 2982              		.syntax unified
 2983              		.thumb
 2984              		.thumb_func
 2985              		.fpu fpv4-sp-d16
 2987              	HAL_UART_GetError:
 2988              	.LFB177:
1816:Drivers/STM32F7xx_HAL_Driver/Src/stm32f7xx_hal_uart.c ****   return huart->ErrorCode;
 2989              		.loc 1 1816 0
 2990              		.cfi_startproc
 2991              		@ args = 0, pretend = 0, frame = 0
 2992              		@ frame_needed = 0, uses_anonymous_args = 0
 2993              		@ link register save eliminated.
 2994              	.LVL220:
1817:Drivers/STM32F7xx_HAL_Driver/Src/stm32f7xx_hal_uart.c **** }
 2995              		.loc 1 1817 0
 2996 0000 C06E     		ldr	r0, [r0, #108]
 2997              	.LVL221:
1818:Drivers/STM32F7xx_HAL_Driver/Src/stm32f7xx_hal_uart.c **** 
 2998              		.loc 1 1818 0
 2999 0002 7047     		bx	lr
 3000              		.cfi_endproc
 3001              	.LFE177:
 3003              		.section	.text.UART_SetConfig,"ax",%progbits
 3004              		.align	1
 3005              		.p2align 2,,3
 3006              		.global	UART_SetConfig
 3007              		.syntax unified
 3008              		.thumb
 3009              		.thumb_func
 3010              		.fpu fpv4-sp-d16
 3012              	UART_SetConfig:
 3013              	.LFB178:
1826:Drivers/STM32F7xx_HAL_Driver/Src/stm32f7xx_hal_uart.c ****   uint32_t tmpreg                     = 0x00000000U;
 3014              		.loc 1 1826 0
 3015              		.cfi_startproc
 3016              		@ args = 0, pretend = 0, frame = 0
 3017              		@ frame_needed = 0, uses_anonymous_args = 0
 3018              	.LVL222:
 3019 0000 F8B5     		push	{r3, r4, r5, r6, r7, lr}
 3020              	.LCFI43:
 3021              		.cfi_def_cfa_offset 24
 3022              		.cfi_offset 3, -24
 3023              		.cfi_offset 4, -20
 3024              		.cfi_offset 5, -16
 3025              		.cfi_offset 6, -12
 3026              		.cfi_offset 7, -8
 3027              		.cfi_offset 14, -4
1826:Drivers/STM32F7xx_HAL_Driver/Src/stm32f7xx_hal_uart.c ****   uint32_t tmpreg                     = 0x00000000U;
 3028              		.loc 1 1826 0
 3029 0002 0446     		mov	r4, r0
1850:Drivers/STM32F7xx_HAL_Driver/Src/stm32f7xx_hal_uart.c ****   MODIFY_REG(huart->Instance->CR1, UART_CR1_FIELDS, tmpreg);
 3030              		.loc 1 1850 0
 3031 0004 8368     		ldr	r3, [r0, #8]
1851:Drivers/STM32F7xx_HAL_Driver/Src/stm32f7xx_hal_uart.c **** 
 3032              		.loc 1 1851 0
 3033 0006 A249     		ldr	r1, .L525
ARM GAS  /tmp/cc6CQ8Vx.s 			page 99


1850:Drivers/STM32F7xx_HAL_Driver/Src/stm32f7xx_hal_uart.c ****   MODIFY_REG(huart->Instance->CR1, UART_CR1_FIELDS, tmpreg);
 3034              		.loc 1 1850 0
 3035 0008 E669     		ldr	r6, [r4, #28]
 3036              	.LVL223:
1856:Drivers/STM32F7xx_HAL_Driver/Src/stm32f7xx_hal_uart.c **** 
 3037              		.loc 1 1856 0
 3038 000a E768     		ldr	r7, [r4, #12]
1868:Drivers/STM32F7xx_HAL_Driver/Src/stm32f7xx_hal_uart.c **** 
 3039              		.loc 1 1868 0
 3040 000c A14D     		ldr	r5, .L525+4
1850:Drivers/STM32F7xx_HAL_Driver/Src/stm32f7xx_hal_uart.c ****   MODIFY_REG(huart->Instance->CR1, UART_CR1_FIELDS, tmpreg);
 3041              		.loc 1 1850 0
 3042 000e D0E90420 		ldrd	r2, r0, [r0, #16]
 3043              	.LVL224:
 3044 0012 1A43     		orrs	r2, r2, r3
1851:Drivers/STM32F7xx_HAL_Driver/Src/stm32f7xx_hal_uart.c **** 
 3045              		.loc 1 1851 0
 3046 0014 2368     		ldr	r3, [r4]
1850:Drivers/STM32F7xx_HAL_Driver/Src/stm32f7xx_hal_uart.c ****   MODIFY_REG(huart->Instance->CR1, UART_CR1_FIELDS, tmpreg);
 3047              		.loc 1 1850 0
 3048 0016 0243     		orrs	r2, r2, r0
1851:Drivers/STM32F7xx_HAL_Driver/Src/stm32f7xx_hal_uart.c **** 
 3049              		.loc 1 1851 0
 3050 0018 1868     		ldr	r0, [r3]
 3051              	.LVL225:
1868:Drivers/STM32F7xx_HAL_Driver/Src/stm32f7xx_hal_uart.c **** 
 3052              		.loc 1 1868 0
 3053 001a AB42     		cmp	r3, r5
1851:Drivers/STM32F7xx_HAL_Driver/Src/stm32f7xx_hal_uart.c **** 
 3054              		.loc 1 1851 0
 3055 001c 01EA0001 		and	r1, r1, r0
1850:Drivers/STM32F7xx_HAL_Driver/Src/stm32f7xx_hal_uart.c ****   MODIFY_REG(huart->Instance->CR1, UART_CR1_FIELDS, tmpreg);
 3056              		.loc 1 1850 0
 3057 0020 42EA0602 		orr	r2, r2, r6
1851:Drivers/STM32F7xx_HAL_Driver/Src/stm32f7xx_hal_uart.c **** 
 3058              		.loc 1 1851 0
 3059 0024 42EA0102 		orr	r2, r2, r1
1864:Drivers/STM32F7xx_HAL_Driver/Src/stm32f7xx_hal_uart.c ****   MODIFY_REG(huart->Instance->CR3, (USART_CR3_RTSE | USART_CR3_CTSE | USART_CR3_ONEBIT), tmpreg);
 3060              		.loc 1 1864 0
 3061 0028 A169     		ldr	r1, [r4, #24]
1851:Drivers/STM32F7xx_HAL_Driver/Src/stm32f7xx_hal_uart.c **** 
 3062              		.loc 1 1851 0
 3063 002a 1A60     		str	r2, [r3]
1856:Drivers/STM32F7xx_HAL_Driver/Src/stm32f7xx_hal_uart.c **** 
 3064              		.loc 1 1856 0
 3065 002c 5868     		ldr	r0, [r3, #4]
1864:Drivers/STM32F7xx_HAL_Driver/Src/stm32f7xx_hal_uart.c ****   MODIFY_REG(huart->Instance->CR3, (USART_CR3_RTSE | USART_CR3_CTSE | USART_CR3_ONEBIT), tmpreg);
 3066              		.loc 1 1864 0
 3067 002e 226A     		ldr	r2, [r4, #32]
1856:Drivers/STM32F7xx_HAL_Driver/Src/stm32f7xx_hal_uart.c **** 
 3068              		.loc 1 1856 0
 3069 0030 20F44050 		bic	r0, r0, #12288
1864:Drivers/STM32F7xx_HAL_Driver/Src/stm32f7xx_hal_uart.c ****   MODIFY_REG(huart->Instance->CR3, (USART_CR3_RTSE | USART_CR3_CTSE | USART_CR3_ONEBIT), tmpreg);
 3070              		.loc 1 1864 0
 3071 0034 42EA0102 		orr	r2, r2, r1
1856:Drivers/STM32F7xx_HAL_Driver/Src/stm32f7xx_hal_uart.c **** 
 3072              		.loc 1 1856 0
ARM GAS  /tmp/cc6CQ8Vx.s 			page 100


 3073 0038 40EA0700 		orr	r0, r0, r7
 3074 003c 5860     		str	r0, [r3, #4]
 3075              	.LVL226:
1865:Drivers/STM32F7xx_HAL_Driver/Src/stm32f7xx_hal_uart.c **** 
 3076              		.loc 1 1865 0
 3077 003e 9968     		ldr	r1, [r3, #8]
 3078 0040 21F43061 		bic	r1, r1, #2816
 3079 0044 42EA0102 		orr	r2, r2, r1
 3080 0048 9A60     		str	r2, [r3, #8]
1868:Drivers/STM32F7xx_HAL_Driver/Src/stm32f7xx_hal_uart.c **** 
 3081              		.loc 1 1868 0
 3082 004a 43D0     		beq	.L513
1868:Drivers/STM32F7xx_HAL_Driver/Src/stm32f7xx_hal_uart.c **** 
 3083              		.loc 1 1868 0 is_stmt 0 discriminator 2
 3084 004c 924A     		ldr	r2, .L525+8
 3085 004e 9342     		cmp	r3, r2
 3086 0050 1DD0     		beq	.L514
1868:Drivers/STM32F7xx_HAL_Driver/Src/stm32f7xx_hal_uart.c **** 
 3087              		.loc 1 1868 0 discriminator 14
 3088 0052 924A     		ldr	r2, .L525+12
 3089 0054 9342     		cmp	r3, r2
 3090 0056 00F09080 		beq	.L515
1868:Drivers/STM32F7xx_HAL_Driver/Src/stm32f7xx_hal_uart.c **** 
 3091              		.loc 1 1868 0 discriminator 26
 3092 005a 914A     		ldr	r2, .L525+16
 3093 005c 9342     		cmp	r3, r2
 3094 005e 00F0B880 		beq	.L516
1868:Drivers/STM32F7xx_HAL_Driver/Src/stm32f7xx_hal_uart.c **** 
 3095              		.loc 1 1868 0 discriminator 38
 3096 0062 904A     		ldr	r2, .L525+20
 3097 0064 9342     		cmp	r3, r2
 3098 0066 47D0     		beq	.L517
1868:Drivers/STM32F7xx_HAL_Driver/Src/stm32f7xx_hal_uart.c **** 
 3099              		.loc 1 1868 0 discriminator 50
 3100 0068 8F4A     		ldr	r2, .L525+24
 3101 006a 9342     		cmp	r3, r2
 3102 006c 00F09F80 		beq	.L518
1868:Drivers/STM32F7xx_HAL_Driver/Src/stm32f7xx_hal_uart.c **** 
 3103              		.loc 1 1868 0 discriminator 62
 3104 0070 8E4A     		ldr	r2, .L525+28
 3105 0072 9342     		cmp	r3, r2
 3106 0074 00F0E980 		beq	.L519
1868:Drivers/STM32F7xx_HAL_Driver/Src/stm32f7xx_hal_uart.c **** 
 3107              		.loc 1 1868 0 discriminator 74
 3108 0078 8D4A     		ldr	r2, .L525+32
 3109 007a 9342     		cmp	r3, r2
 3110 007c 00F0F680 		beq	.L520
 3111              	.L388:
1871:Drivers/STM32F7xx_HAL_Driver/Src/stm32f7xx_hal_uart.c ****   {
 3112              		.loc 1 1871 0 is_stmt 1
 3113 0080 B6F5004F 		cmp	r6, #32768
 3114 0084 00F0D280 		beq	.L407
 3115              	.LVL227:
 3116              	.L408:
1921:Drivers/STM32F7xx_HAL_Driver/Src/stm32f7xx_hal_uart.c ****       break;
 3117              		.loc 1 1921 0
 3118 0088 0122     		movs	r2, #1
ARM GAS  /tmp/cc6CQ8Vx.s 			page 101


 3119              	.LVL228:
1928:Drivers/STM32F7xx_HAL_Driver/Src/stm32f7xx_hal_uart.c **** 
 3120              		.loc 1 1928 0
 3121 008a 1046     		mov	r0, r2
 3122 008c F8BD     		pop	{r3, r4, r5, r6, r7, pc}
 3123              	.LVL229:
 3124              	.L514:
1868:Drivers/STM32F7xx_HAL_Driver/Src/stm32f7xx_hal_uart.c **** 
 3125              		.loc 1 1868 0 discriminator 13
 3126 008e 02F5FA32 		add	r2, r2, #128000
 3127 0092 8849     		ldr	r1, .L525+36
 3128 0094 D2F89020 		ldr	r2, [r2, #144]
 3129 0098 02F00C02 		and	r2, r2, #12
 3130 009c 8A5C     		ldrb	r2, [r1, r2]	@ zero_extendqisi2
 3131              	.L341:
 3132              	.LVL230:
1871:Drivers/STM32F7xx_HAL_Driver/Src/stm32f7xx_hal_uart.c ****   {
 3133              		.loc 1 1871 0
 3134 009e B6F5004F 		cmp	r6, #32768
 3135 00a2 1FD0     		beq	.L521
1902:Drivers/STM32F7xx_HAL_Driver/Src/stm32f7xx_hal_uart.c ****     {
 3136              		.loc 1 1902 0
 3137 00a4 082A     		cmp	r2, #8
 3138 00a6 EFD8     		bhi	.L408
 3139 00a8 01A1     		adr	r1, .L399
 3140 00aa 51F822F0 		ldr	pc, [r1, r2, lsl #2]
 3141 00ae 00BF     		.p2align 2
 3142              	.L399:
 3143 00b0 6F010000 		.word	.L353+1
 3144 00b4 25010000 		.word	.L380+1
 3145 00b8 17020000 		.word	.L396+1
 3146 00bc 89000000 		.word	.L408+1
 3147 00c0 C7010000 		.word	.L355+1
 3148 00c4 89000000 		.word	.L408+1
 3149 00c8 89000000 		.word	.L408+1
 3150 00cc 89000000 		.word	.L408+1
 3151 00d0 9D010000 		.word	.L357+1
 3152              	.LVL231:
 3153              		.p2align 1
 3154              	.L513:
1868:Drivers/STM32F7xx_HAL_Driver/Src/stm32f7xx_hal_uart.c **** 
 3155              		.loc 1 1868 0 discriminator 1
 3156 00d4 784A     		ldr	r2, .L525+40
 3157 00d6 7949     		ldr	r1, .L525+44
 3158 00d8 D2F89020 		ldr	r2, [r2, #144]
 3159 00dc 02F00302 		and	r2, r2, #3
 3160 00e0 8A5C     		ldrb	r2, [r1, r2]	@ zero_extendqisi2
 3161 00e2 DCE7     		b	.L341
 3162              	.LVL232:
 3163              	.L521:
1873:Drivers/STM32F7xx_HAL_Driver/Src/stm32f7xx_hal_uart.c ****     {
 3164              		.loc 1 1873 0
 3165 00e4 082A     		cmp	r2, #8
 3166 00e6 00F2A180 		bhi	.L407
 3167 00ea DFE802F0 		tbb	[pc, r2]
 3168              	.L398:
 3169 00ee 43       		.byte	(.L352-.L398)/2
ARM GAS  /tmp/cc6CQ8Vx.s 			page 102


 3170 00ef 28       		.byte	(.L379-.L398)/2
 3171 00f0 80       		.byte	(.L395-.L398)/2
 3172 00f1 9F       		.byte	(.L407-.L398)/2
 3173 00f2 6F       		.byte	(.L354-.L398)/2
 3174 00f3 9F       		.byte	(.L407-.L398)/2
 3175 00f4 9F       		.byte	(.L407-.L398)/2
 3176 00f5 9F       		.byte	(.L407-.L398)/2
 3177 00f6 8E       		.byte	(.L356-.L398)/2
 3178              	.LVL233:
 3179 00f7 00       		.p2align 1
 3180              	.L517:
1868:Drivers/STM32F7xx_HAL_Driver/Src/stm32f7xx_hal_uart.c **** 
 3181              		.loc 1 1868 0 discriminator 49
 3182 00f8 02F5F432 		add	r2, r2, #124928
 3183 00fc D2F89020 		ldr	r2, [r2, #144]
 3184 0100 02F44072 		and	r2, r2, #768
 3185 0104 B2F5807F 		cmp	r2, #256
 3186 0108 5AD0     		beq	.L390
 3187 010a 2BD9     		bls	.L512
 3188 010c B2F5007F 		cmp	r2, #512
 3189 0110 6AD0     		beq	.L348
 3190 0112 B2F5407F 		cmp	r2, #768
 3191 0116 3ED0     		beq	.L394
 3192 0118 B2E7     		b	.L388
 3193              	.L524:
1868:Drivers/STM32F7xx_HAL_Driver/Src/stm32f7xx_hal_uart.c **** 
 3194              		.loc 1 1868 0 is_stmt 0 discriminator 61
 3195 011a 002A     		cmp	r2, #0
 3196 011c B0D1     		bne	.L388
 3197              	.LVL234:
1871:Drivers/STM32F7xx_HAL_Driver/Src/stm32f7xx_hal_uart.c ****   {
 3198              		.loc 1 1871 0 is_stmt 1
 3199 011e B6F5004F 		cmp	r6, #32768
 3200 0122 0CD0     		beq	.L379
 3201              	.LVL235:
 3202              	.L380:
1908:Drivers/STM32F7xx_HAL_Driver/Src/stm32f7xx_hal_uart.c ****       break;
 3203              		.loc 1 1908 0
 3204 0124 FFF7FEFF 		bl	HAL_RCC_GetPCLK2Freq
 3205              	.LVL236:
 3206              	.L504:
1831:Drivers/STM32F7xx_HAL_Driver/Src/stm32f7xx_hal_uart.c **** 
 3207              		.loc 1 1831 0
 3208 0128 0022     		movs	r2, #0
1914:Drivers/STM32F7xx_HAL_Driver/Src/stm32f7xx_hal_uart.c ****       break;
 3209              		.loc 1 1914 0
 3210 012a D4E90013 		ldrd	r1, r3, [r4]
 3211 012e 00EB5300 		add	r0, r0, r3, lsr #1
 3212 0132 B0FBF3F0 		udiv	r0, r0, r3
 3213 0136 80B2     		uxth	r0, r0
 3214 0138 C860     		str	r0, [r1, #12]
 3215              	.LVL237:
1928:Drivers/STM32F7xx_HAL_Driver/Src/stm32f7xx_hal_uart.c **** 
 3216              		.loc 1 1928 0
 3217 013a 1046     		mov	r0, r2
 3218 013c F8BD     		pop	{r3, r4, r5, r6, r7, pc}
 3219              	.LVL238:
ARM GAS  /tmp/cc6CQ8Vx.s 			page 103


 3220              	.L379:
1879:Drivers/STM32F7xx_HAL_Driver/Src/stm32f7xx_hal_uart.c ****       break;
 3221              		.loc 1 1879 0
 3222 013e FFF7FEFF 		bl	HAL_RCC_GetPCLK2Freq
 3223              	.LVL239:
 3224              	.L501:
1831:Drivers/STM32F7xx_HAL_Driver/Src/stm32f7xx_hal_uart.c **** 
 3225              		.loc 1 1831 0
 3226 0142 0022     		movs	r2, #0
 3227 0144 D4E90035 		ldrd	r3, r5, [r4]
1885:Drivers/STM32F7xx_HAL_Driver/Src/stm32f7xx_hal_uart.c ****       break;
 3228              		.loc 1 1885 0
 3229 0148 6908     		lsrs	r1, r5, #1
 3230 014a 01EB4000 		add	r0, r1, r0, lsl #1
 3231 014e B0FBF5F0 		udiv	r0, r0, r5
 3232              	.LVL240:
 3233 0152 C0F34201 		ubfx	r1, r0, #1, #3
 3234 0156 20F00F00 		bic	r0, r0, #15
 3235              	.LVL241:
 3236 015a 0143     		orrs	r1, r1, r0
 3237 015c 89B2     		uxth	r1, r1
 3238              	.LVL242:
 3239              	.L503:
1917:Drivers/STM32F7xx_HAL_Driver/Src/stm32f7xx_hal_uart.c ****       break;
 3240              		.loc 1 1917 0
 3241 015e D960     		str	r1, [r3, #12]
 3242              	.LVL243:
1928:Drivers/STM32F7xx_HAL_Driver/Src/stm32f7xx_hal_uart.c **** 
 3243              		.loc 1 1928 0
 3244 0160 1046     		mov	r0, r2
 3245 0162 F8BD     		pop	{r3, r4, r5, r6, r7, pc}
 3246              	.LVL244:
 3247              	.L512:
1868:Drivers/STM32F7xx_HAL_Driver/Src/stm32f7xx_hal_uart.c **** 
 3248              		.loc 1 1868 0 discriminator 85
 3249 0164 002A     		cmp	r2, #0
 3250 0166 8BD1     		bne	.L388
 3251              	.LVL245:
1871:Drivers/STM32F7xx_HAL_Driver/Src/stm32f7xx_hal_uart.c ****   {
 3252              		.loc 1 1871 0
 3253 0168 B6F5004F 		cmp	r6, #32768
 3254 016c 02D0     		beq	.L352
 3255              	.LVL246:
 3256              	.L353:
1905:Drivers/STM32F7xx_HAL_Driver/Src/stm32f7xx_hal_uart.c ****       break;
 3257              		.loc 1 1905 0
 3258 016e FFF7FEFF 		bl	HAL_RCC_GetPCLK1Freq
 3259              	.LVL247:
 3260 0172 D9E7     		b	.L504
 3261              	.LVL248:
 3262              	.L352:
1876:Drivers/STM32F7xx_HAL_Driver/Src/stm32f7xx_hal_uart.c ****       break;
 3263              		.loc 1 1876 0
 3264 0174 FFF7FEFF 		bl	HAL_RCC_GetPCLK1Freq
 3265              	.LVL249:
 3266 0178 E3E7     		b	.L501
 3267              	.LVL250:
ARM GAS  /tmp/cc6CQ8Vx.s 			page 104


 3268              	.L515:
1868:Drivers/STM32F7xx_HAL_Driver/Src/stm32f7xx_hal_uart.c **** 
 3269              		.loc 1 1868 0 discriminator 25
 3270 017a 02F5F832 		add	r2, r2, #126976
 3271 017e D2F89020 		ldr	r2, [r2, #144]
 3272 0182 02F03002 		and	r2, r2, #48
 3273 0186 102A     		cmp	r2, #16
 3274 0188 1AD0     		beq	.L390
 3275 018a EBD9     		bls	.L512
 3276 018c 202A     		cmp	r2, #32
 3277 018e 2BD0     		beq	.L348
 3278 0190 302A     		cmp	r2, #48
 3279 0192 7FF475AF 		bne	.L388
 3280              	.L394:
 3281              	.LVL251:
1871:Drivers/STM32F7xx_HAL_Driver/Src/stm32f7xx_hal_uart.c ****   {
 3282              		.loc 1 1871 0
 3283 0196 B6F5004F 		cmp	r6, #32768
 3284 019a 36D0     		beq	.L356
 3285              	.LVL252:
 3286              	.L357:
1917:Drivers/STM32F7xx_HAL_Driver/Src/stm32f7xx_hal_uart.c ****       break;
 3287              		.loc 1 1917 0
 3288 019c 6068     		ldr	r0, [r4, #4]
1831:Drivers/STM32F7xx_HAL_Driver/Src/stm32f7xx_hal_uart.c **** 
 3289              		.loc 1 1831 0
 3290 019e 0022     		movs	r2, #0
1917:Drivers/STM32F7xx_HAL_Driver/Src/stm32f7xx_hal_uart.c ****       break;
 3291              		.loc 1 1917 0
 3292 01a0 4108     		lsrs	r1, r0, #1
 3293 01a2 01F50041 		add	r1, r1, #32768
 3294 01a6 B1FBF0F1 		udiv	r1, r1, r0
 3295 01aa 89B2     		uxth	r1, r1
 3296 01ac D7E7     		b	.L503
 3297              	.LVL253:
 3298              	.L518:
1868:Drivers/STM32F7xx_HAL_Driver/Src/stm32f7xx_hal_uart.c **** 
 3299              		.loc 1 1868 0 discriminator 61
 3300 01ae 02F59232 		add	r2, r2, #74752
 3301 01b2 D2F89020 		ldr	r2, [r2, #144]
 3302 01b6 02F44062 		and	r2, r2, #3072
 3303 01ba B2F5806F 		cmp	r2, #1024
 3304 01be 38D1     		bne	.L522
 3305              	.L390:
 3306              	.LVL254:
1871:Drivers/STM32F7xx_HAL_Driver/Src/stm32f7xx_hal_uart.c ****   {
 3307              		.loc 1 1871 0
 3308 01c0 B6F5004F 		cmp	r6, #32768
 3309 01c4 02D0     		beq	.L354
 3310              	.LVL255:
 3311              	.L355:
1914:Drivers/STM32F7xx_HAL_Driver/Src/stm32f7xx_hal_uart.c ****       break;
 3312              		.loc 1 1914 0
 3313 01c6 FFF7FEFF 		bl	HAL_RCC_GetSysClockFreq
 3314              	.LVL256:
 3315 01ca ADE7     		b	.L504
 3316              	.LVL257:
ARM GAS  /tmp/cc6CQ8Vx.s 			page 105


 3317              	.L354:
1885:Drivers/STM32F7xx_HAL_Driver/Src/stm32f7xx_hal_uart.c ****       break;
 3318              		.loc 1 1885 0
 3319 01cc FFF7FEFF 		bl	HAL_RCC_GetSysClockFreq
 3320              	.LVL258:
 3321 01d0 B7E7     		b	.L501
 3322              	.LVL259:
 3323              	.L516:
1868:Drivers/STM32F7xx_HAL_Driver/Src/stm32f7xx_hal_uart.c **** 
 3324              		.loc 1 1868 0 discriminator 37
 3325 01d2 02F5F632 		add	r2, r2, #125952
 3326 01d6 D2F89020 		ldr	r2, [r2, #144]
 3327 01da 02F0C002 		and	r2, r2, #192
 3328 01de 402A     		cmp	r2, #64
 3329 01e0 EED0     		beq	.L390
 3330 01e2 BFD9     		bls	.L512
 3331 01e4 802A     		cmp	r2, #128
 3332 01e6 2DD1     		bne	.L523
 3333              	.L348:
 3334              	.LVL260:
1871:Drivers/STM32F7xx_HAL_Driver/Src/stm32f7xx_hal_uart.c ****   {
 3335              		.loc 1 1871 0
 3336 01e8 B6F5004F 		cmp	r6, #32768
 3337 01ec 13D1     		bne	.L396
 3338              	.LVL261:
 3339              	.L395:
1882:Drivers/STM32F7xx_HAL_Driver/Src/stm32f7xx_hal_uart.c ****       break;
 3340              		.loc 1 1882 0
 3341 01ee 6168     		ldr	r1, [r4, #4]
1831:Drivers/STM32F7xx_HAL_Driver/Src/stm32f7xx_hal_uart.c **** 
 3342              		.loc 1 1831 0
 3343 01f0 0022     		movs	r2, #0
1882:Drivers/STM32F7xx_HAL_Driver/Src/stm32f7xx_hal_uart.c ****       break;
 3344              		.loc 1 1882 0
 3345 01f2 3348     		ldr	r0, .L525+48
 3346 01f4 00EB5100 		add	r0, r0, r1, lsr #1
 3347              	.L502:
1888:Drivers/STM32F7xx_HAL_Driver/Src/stm32f7xx_hal_uart.c ****       break;
 3348              		.loc 1 1888 0
 3349 01f8 B0FBF1F0 		udiv	r0, r0, r1
 3350              	.LVL262:
 3351 01fc C0F34201 		ubfx	r1, r0, #1, #3
 3352 0200 20F00F00 		bic	r0, r0, #15
 3353              	.LVL263:
 3354 0204 0143     		orrs	r1, r1, r0
 3355 0206 89B2     		uxth	r1, r1
1889:Drivers/STM32F7xx_HAL_Driver/Src/stm32f7xx_hal_uart.c ****       case UART_CLOCKSOURCE_UNDEFINED:
 3356              		.loc 1 1889 0
 3357 0208 A9E7     		b	.L503
 3358              	.LVL264:
 3359              	.L356:
1888:Drivers/STM32F7xx_HAL_Driver/Src/stm32f7xx_hal_uart.c ****       break;
 3360              		.loc 1 1888 0
 3361 020a 6168     		ldr	r1, [r4, #4]
1831:Drivers/STM32F7xx_HAL_Driver/Src/stm32f7xx_hal_uart.c **** 
 3362              		.loc 1 1831 0
 3363 020c 0022     		movs	r2, #0
ARM GAS  /tmp/cc6CQ8Vx.s 			page 106


1888:Drivers/STM32F7xx_HAL_Driver/Src/stm32f7xx_hal_uart.c ****       break;
 3364              		.loc 1 1888 0
 3365 020e 4808     		lsrs	r0, r1, #1
 3366 0210 00F58030 		add	r0, r0, #65536
 3367 0214 F0E7     		b	.L502
 3368              	.L396:
1911:Drivers/STM32F7xx_HAL_Driver/Src/stm32f7xx_hal_uart.c ****       break;
 3369              		.loc 1 1911 0
 3370 0216 6068     		ldr	r0, [r4, #4]
1831:Drivers/STM32F7xx_HAL_Driver/Src/stm32f7xx_hal_uart.c **** 
 3371              		.loc 1 1831 0
 3372 0218 0022     		movs	r2, #0
1911:Drivers/STM32F7xx_HAL_Driver/Src/stm32f7xx_hal_uart.c ****       break;
 3373              		.loc 1 1911 0
 3374 021a 2A49     		ldr	r1, .L525+52
 3375 021c 01EB5001 		add	r1, r1, r0, lsr #1
 3376 0220 B1FBF0F1 		udiv	r1, r1, r0
 3377 0224 89B2     		uxth	r1, r1
1928:Drivers/STM32F7xx_HAL_Driver/Src/stm32f7xx_hal_uart.c **** 
 3378              		.loc 1 1928 0
 3379 0226 1046     		mov	r0, r2
1911:Drivers/STM32F7xx_HAL_Driver/Src/stm32f7xx_hal_uart.c ****       break;
 3380              		.loc 1 1911 0
 3381 0228 D960     		str	r1, [r3, #12]
 3382              	.LVL265:
1928:Drivers/STM32F7xx_HAL_Driver/Src/stm32f7xx_hal_uart.c **** 
 3383              		.loc 1 1928 0
 3384 022a F8BD     		pop	{r3, r4, r5, r6, r7, pc}
 3385              	.LVL266:
 3386              	.L407:
1873:Drivers/STM32F7xx_HAL_Driver/Src/stm32f7xx_hal_uart.c ****     {
 3387              		.loc 1 1873 0
 3388 022c 0021     		movs	r1, #0
1892:Drivers/STM32F7xx_HAL_Driver/Src/stm32f7xx_hal_uart.c ****       break;
 3389              		.loc 1 1892 0
 3390 022e 0122     		movs	r2, #1
 3391              	.LVL267:
 3392 0230 95E7     		b	.L503
 3393              	.LVL268:
 3394              	.L522:
1868:Drivers/STM32F7xx_HAL_Driver/Src/stm32f7xx_hal_uart.c **** 
 3395              		.loc 1 1868 0 discriminator 61
 3396 0232 7FF672AF 		bls	.L524
 3397 0236 B2F5006F 		cmp	r2, #2048
 3398 023a D5D0     		beq	.L348
 3399 023c B2F5406F 		cmp	r2, #3072
 3400 0240 A9D0     		beq	.L394
 3401 0242 1DE7     		b	.L388
 3402              	.L523:
1868:Drivers/STM32F7xx_HAL_Driver/Src/stm32f7xx_hal_uart.c **** 
 3403              		.loc 1 1868 0 is_stmt 0 discriminator 37
 3404 0244 C02A     		cmp	r2, #192
 3405 0246 A6D0     		beq	.L394
 3406 0248 1AE7     		b	.L388
 3407              	.L519:
1868:Drivers/STM32F7xx_HAL_Driver/Src/stm32f7xx_hal_uart.c **** 
 3408              		.loc 1 1868 0 discriminator 73
ARM GAS  /tmp/cc6CQ8Vx.s 			page 107


 3409 024a 02F5E032 		add	r2, r2, #114688
 3410 024e D2F89020 		ldr	r2, [r2, #144]
 3411 0252 02F44052 		and	r2, r2, #12288
 3412 0256 B2F5805F 		cmp	r2, #4096
 3413 025a B1D0     		beq	.L390
 3414 025c 82D9     		bls	.L512
 3415 025e B2F5005F 		cmp	r2, #8192
 3416 0262 C1D0     		beq	.L348
 3417 0264 B2F5405F 		cmp	r2, #12288
 3418 0268 95D0     		beq	.L394
 3419 026a 09E7     		b	.L388
 3420              	.L520:
1868:Drivers/STM32F7xx_HAL_Driver/Src/stm32f7xx_hal_uart.c **** 
 3421              		.loc 1 1868 0 discriminator 85
 3422 026c 02F5DE32 		add	r2, r2, #113664
 3423 0270 D2F89020 		ldr	r2, [r2, #144]
 3424 0274 02F44042 		and	r2, r2, #49152
 3425 0278 B2F5804F 		cmp	r2, #16384
 3426 027c A0D0     		beq	.L390
 3427 027e 7FF671AF 		bls	.L512
 3428 0282 B2F5004F 		cmp	r2, #32768
 3429 0286 AFD0     		beq	.L348
 3430 0288 B2F5404F 		cmp	r2, #49152
 3431 028c 83D0     		beq	.L394
 3432 028e F7E6     		b	.L388
 3433              	.L526:
 3434              		.align	2
 3435              	.L525:
 3436 0290 F369FFEF 		.word	-268473869
 3437 0294 00100140 		.word	1073811456
 3438 0298 00440040 		.word	1073759232
 3439 029c 00480040 		.word	1073760256
 3440 02a0 004C0040 		.word	1073761280
 3441 02a4 00500040 		.word	1073762304
 3442 02a8 00140140 		.word	1073812480
 3443 02ac 00780040 		.word	1073772544
 3444 02b0 007C0040 		.word	1073773568
 3445 02b4 00000000 		.word	.LANCHOR1
 3446 02b8 00380240 		.word	1073887232
 3447 02bc 00000000 		.word	.LANCHOR0
 3448 02c0 0048E801 		.word	32000000
 3449 02c4 0024F400 		.word	16000000
 3450              		.cfi_endproc
 3451              	.LFE178:
 3453              		.section	.text.UART_AdvFeatureConfig,"ax",%progbits
 3454              		.align	1
 3455              		.p2align 2,,3
 3456              		.global	UART_AdvFeatureConfig
 3457              		.syntax unified
 3458              		.thumb
 3459              		.thumb_func
 3460              		.fpu fpv4-sp-d16
 3462              	UART_AdvFeatureConfig:
 3463              	.LFB179:
1937:Drivers/STM32F7xx_HAL_Driver/Src/stm32f7xx_hal_uart.c ****   /* Check whether the set of advanced features to configure is properly set */
 3464              		.loc 1 1937 0 is_stmt 1
 3465              		.cfi_startproc
ARM GAS  /tmp/cc6CQ8Vx.s 			page 108


 3466              		@ args = 0, pretend = 0, frame = 0
 3467              		@ frame_needed = 0, uses_anonymous_args = 0
 3468              		@ link register save eliminated.
 3469              	.LVL269:
1942:Drivers/STM32F7xx_HAL_Driver/Src/stm32f7xx_hal_uart.c ****   {
 3470              		.loc 1 1942 0
 3471 0000 436A     		ldr	r3, [r0, #36]
 3472 0002 DA07     		lsls	r2, r3, #31
1937:Drivers/STM32F7xx_HAL_Driver/Src/stm32f7xx_hal_uart.c ****   /* Check whether the set of advanced features to configure is properly set */
 3473              		.loc 1 1937 0
 3474 0004 10B4     		push	{r4}
 3475              	.LCFI44:
 3476              		.cfi_def_cfa_offset 4
 3477              		.cfi_offset 4, -4
1942:Drivers/STM32F7xx_HAL_Driver/Src/stm32f7xx_hal_uart.c ****   {
 3478              		.loc 1 1942 0
 3479 0006 06D5     		bpl	.L528
1945:Drivers/STM32F7xx_HAL_Driver/Src/stm32f7xx_hal_uart.c ****   }
 3480              		.loc 1 1945 0
 3481 0008 0168     		ldr	r1, [r0]
 3482 000a 846A     		ldr	r4, [r0, #40]
 3483 000c 4A68     		ldr	r2, [r1, #4]
 3484 000e 22F40032 		bic	r2, r2, #131072
 3485 0012 2243     		orrs	r2, r2, r4
 3486 0014 4A60     		str	r2, [r1, #4]
 3487              	.L528:
1949:Drivers/STM32F7xx_HAL_Driver/Src/stm32f7xx_hal_uart.c ****   {
 3488              		.loc 1 1949 0
 3489 0016 9C07     		lsls	r4, r3, #30
 3490 0018 06D5     		bpl	.L529
1952:Drivers/STM32F7xx_HAL_Driver/Src/stm32f7xx_hal_uart.c ****   }
 3491              		.loc 1 1952 0
 3492 001a 0168     		ldr	r1, [r0]
 3493 001c C46A     		ldr	r4, [r0, #44]
 3494 001e 4A68     		ldr	r2, [r1, #4]
 3495 0020 22F48032 		bic	r2, r2, #65536
 3496 0024 2243     		orrs	r2, r2, r4
 3497 0026 4A60     		str	r2, [r1, #4]
 3498              	.L529:
1956:Drivers/STM32F7xx_HAL_Driver/Src/stm32f7xx_hal_uart.c ****   {
 3499              		.loc 1 1956 0
 3500 0028 5907     		lsls	r1, r3, #29
 3501 002a 06D5     		bpl	.L530
1959:Drivers/STM32F7xx_HAL_Driver/Src/stm32f7xx_hal_uart.c ****   }
 3502              		.loc 1 1959 0
 3503 002c 0168     		ldr	r1, [r0]
 3504 002e 046B     		ldr	r4, [r0, #48]
 3505 0030 4A68     		ldr	r2, [r1, #4]
 3506 0032 22F48022 		bic	r2, r2, #262144
 3507 0036 2243     		orrs	r2, r2, r4
 3508 0038 4A60     		str	r2, [r1, #4]
 3509              	.L530:
1963:Drivers/STM32F7xx_HAL_Driver/Src/stm32f7xx_hal_uart.c ****   {
 3510              		.loc 1 1963 0
 3511 003a 1A07     		lsls	r2, r3, #28
 3512 003c 06D5     		bpl	.L531
1966:Drivers/STM32F7xx_HAL_Driver/Src/stm32f7xx_hal_uart.c ****   }
ARM GAS  /tmp/cc6CQ8Vx.s 			page 109


 3513              		.loc 1 1966 0
 3514 003e 0168     		ldr	r1, [r0]
 3515 0040 446B     		ldr	r4, [r0, #52]
 3516 0042 4A68     		ldr	r2, [r1, #4]
 3517 0044 22F40042 		bic	r2, r2, #32768
 3518 0048 2243     		orrs	r2, r2, r4
 3519 004a 4A60     		str	r2, [r1, #4]
 3520              	.L531:
1970:Drivers/STM32F7xx_HAL_Driver/Src/stm32f7xx_hal_uart.c ****   {
 3521              		.loc 1 1970 0
 3522 004c DC06     		lsls	r4, r3, #27
 3523 004e 06D5     		bpl	.L532
1973:Drivers/STM32F7xx_HAL_Driver/Src/stm32f7xx_hal_uart.c ****   }
 3524              		.loc 1 1973 0
 3525 0050 0168     		ldr	r1, [r0]
 3526 0052 846B     		ldr	r4, [r0, #56]
 3527 0054 8A68     		ldr	r2, [r1, #8]
 3528 0056 22F48052 		bic	r2, r2, #4096
 3529 005a 2243     		orrs	r2, r2, r4
 3530 005c 8A60     		str	r2, [r1, #8]
 3531              	.L532:
1977:Drivers/STM32F7xx_HAL_Driver/Src/stm32f7xx_hal_uart.c ****   {
 3532              		.loc 1 1977 0
 3533 005e 9906     		lsls	r1, r3, #26
 3534 0060 06D5     		bpl	.L533
1980:Drivers/STM32F7xx_HAL_Driver/Src/stm32f7xx_hal_uart.c ****   }
 3535              		.loc 1 1980 0
 3536 0062 0168     		ldr	r1, [r0]
 3537 0064 C46B     		ldr	r4, [r0, #60]
 3538 0066 8A68     		ldr	r2, [r1, #8]
 3539 0068 22F40052 		bic	r2, r2, #8192
 3540 006c 2243     		orrs	r2, r2, r4
 3541 006e 8A60     		str	r2, [r1, #8]
 3542              	.L533:
1984:Drivers/STM32F7xx_HAL_Driver/Src/stm32f7xx_hal_uart.c ****   {
 3543              		.loc 1 1984 0
 3544 0070 5A06     		lsls	r2, r3, #25
 3545 0072 0AD5     		bpl	.L535
1987:Drivers/STM32F7xx_HAL_Driver/Src/stm32f7xx_hal_uart.c ****     /* set auto Baudrate detection parameters if detection is enabled */
 3546              		.loc 1 1987 0
 3547 0074 0168     		ldr	r1, [r0]
 3548 0076 046C     		ldr	r4, [r0, #64]
 3549 0078 4A68     		ldr	r2, [r1, #4]
1989:Drivers/STM32F7xx_HAL_Driver/Src/stm32f7xx_hal_uart.c ****     {
 3550              		.loc 1 1989 0
 3551 007a B4F5801F 		cmp	r4, #1048576
1987:Drivers/STM32F7xx_HAL_Driver/Src/stm32f7xx_hal_uart.c ****     /* set auto Baudrate detection parameters if detection is enabled */
 3552              		.loc 1 1987 0
 3553 007e 22F48012 		bic	r2, r2, #1048576
 3554 0082 42EA0402 		orr	r2, r2, r4
 3555 0086 4A60     		str	r2, [r1, #4]
1989:Drivers/STM32F7xx_HAL_Driver/Src/stm32f7xx_hal_uart.c ****     {
 3556              		.loc 1 1989 0
 3557 0088 0BD0     		beq	.L560
 3558              	.L535:
1997:Drivers/STM32F7xx_HAL_Driver/Src/stm32f7xx_hal_uart.c ****   {
 3559              		.loc 1 1997 0
ARM GAS  /tmp/cc6CQ8Vx.s 			page 110


 3560 008a 1B06     		lsls	r3, r3, #24
 3561 008c 06D5     		bpl	.L527
2000:Drivers/STM32F7xx_HAL_Driver/Src/stm32f7xx_hal_uart.c ****   }
 3562              		.loc 1 2000 0
 3563 008e 0268     		ldr	r2, [r0]
 3564 0090 816C     		ldr	r1, [r0, #72]
 3565 0092 5368     		ldr	r3, [r2, #4]
 3566 0094 23F40023 		bic	r3, r3, #524288
 3567 0098 0B43     		orrs	r3, r3, r1
 3568 009a 5360     		str	r3, [r2, #4]
 3569              	.L527:
2002:Drivers/STM32F7xx_HAL_Driver/Src/stm32f7xx_hal_uart.c **** 
 3570              		.loc 1 2002 0
 3571 009c 5DF8044B 		ldr	r4, [sp], #4
 3572              	.LCFI45:
 3573              		.cfi_remember_state
 3574              		.cfi_restore 4
 3575              		.cfi_def_cfa_offset 0
 3576 00a0 7047     		bx	lr
 3577              	.L560:
 3578              	.LCFI46:
 3579              		.cfi_restore_state
1992:Drivers/STM32F7xx_HAL_Driver/Src/stm32f7xx_hal_uart.c ****     }
 3580              		.loc 1 1992 0
 3581 00a2 4A68     		ldr	r2, [r1, #4]
 3582 00a4 446C     		ldr	r4, [r0, #68]
 3583 00a6 22F4C002 		bic	r2, r2, #6291456
 3584 00aa 2243     		orrs	r2, r2, r4
 3585 00ac 4A60     		str	r2, [r1, #4]
 3586 00ae ECE7     		b	.L535
 3587              		.cfi_endproc
 3588              	.LFE179:
 3590              		.section	.text.HAL_UART_Init,"ax",%progbits
 3591              		.align	1
 3592              		.p2align 2,,3
 3593              		.global	HAL_UART_Init
 3594              		.syntax unified
 3595              		.thumb
 3596              		.thumb_func
 3597              		.fpu fpv4-sp-d16
 3599              	HAL_UART_Init:
 3600              	.LFB138:
 242:Drivers/STM32F7xx_HAL_Driver/Src/stm32f7xx_hal_uart.c ****   /* Check the UART handle allocation */
 3601              		.loc 1 242 0
 3602              		.cfi_startproc
 3603              		@ args = 0, pretend = 0, frame = 0
 3604              		@ frame_needed = 0, uses_anonymous_args = 0
 3605              	.LVL270:
 244:Drivers/STM32F7xx_HAL_Driver/Src/stm32f7xx_hal_uart.c ****   {
 3606              		.loc 1 244 0
 3607 0000 0028     		cmp	r0, #0
 3608 0002 00F02981 		beq	.L762
 242:Drivers/STM32F7xx_HAL_Driver/Src/stm32f7xx_hal_uart.c ****   /* Check the UART handle allocation */
 3609              		.loc 1 242 0
 3610 0006 F8B5     		push	{r3, r4, r5, r6, r7, lr}
 3611              	.LCFI47:
 3612              		.cfi_def_cfa_offset 24
ARM GAS  /tmp/cc6CQ8Vx.s 			page 111


 3613              		.cfi_offset 3, -24
 3614              		.cfi_offset 4, -20
 3615              		.cfi_offset 5, -16
 3616              		.cfi_offset 6, -12
 3617              		.cfi_offset 7, -8
 3618              		.cfi_offset 14, -4
 260:Drivers/STM32F7xx_HAL_Driver/Src/stm32f7xx_hal_uart.c ****   {
 3619              		.loc 1 260 0
 3620 0008 90F86930 		ldrb	r3, [r0, #105]	@ zero_extendqisi2
 3621 000c 0446     		mov	r4, r0
 3622 000e 03F0FF02 		and	r2, r3, #255
 3623 0012 002B     		cmp	r3, #0
 3624 0014 47D0     		beq	.L763
 3625              	.LVL271:
 3626              	.L564:
 272:Drivers/STM32F7xx_HAL_Driver/Src/stm32f7xx_hal_uart.c **** 
 3627              		.loc 1 272 0
 3628 0016 2368     		ldr	r3, [r4]
 269:Drivers/STM32F7xx_HAL_Driver/Src/stm32f7xx_hal_uart.c **** 
 3629              		.loc 1 269 0
 3630 0018 2421     		movs	r1, #36
 3631              	.LBB166:
 3632              	.LBB167:
1850:Drivers/STM32F7xx_HAL_Driver/Src/stm32f7xx_hal_uart.c ****   MODIFY_REG(huart->Instance->CR1, UART_CR1_FIELDS, tmpreg);
 3633              		.loc 1 1850 0
 3634 001a 2069     		ldr	r0, [r4, #16]
 3635              	.LBE167:
 3636              	.LBE166:
 269:Drivers/STM32F7xx_HAL_Driver/Src/stm32f7xx_hal_uart.c **** 
 3637              		.loc 1 269 0
 3638 001c 84F86910 		strb	r1, [r4, #105]
 3639              	.LBB176:
 3640              	.LBB168:
1850:Drivers/STM32F7xx_HAL_Driver/Src/stm32f7xx_hal_uart.c ****   MODIFY_REG(huart->Instance->CR1, UART_CR1_FIELDS, tmpreg);
 3641              		.loc 1 1850 0
 3642 0020 A268     		ldr	r2, [r4, #8]
 3643              	.LBE168:
 3644              	.LBE176:
 272:Drivers/STM32F7xx_HAL_Driver/Src/stm32f7xx_hal_uart.c **** 
 3645              		.loc 1 272 0
 3646 0022 1968     		ldr	r1, [r3]
 3647              	.LBB177:
 3648              	.LBB169:
1850:Drivers/STM32F7xx_HAL_Driver/Src/stm32f7xx_hal_uart.c ****   MODIFY_REG(huart->Instance->CR1, UART_CR1_FIELDS, tmpreg);
 3649              		.loc 1 1850 0
 3650 0024 0243     		orrs	r2, r2, r0
 3651 0026 6069     		ldr	r0, [r4, #20]
 3652              	.LBE169:
 3653              	.LBE177:
 272:Drivers/STM32F7xx_HAL_Driver/Src/stm32f7xx_hal_uart.c **** 
 3654              		.loc 1 272 0
 3655 0028 21F00101 		bic	r1, r1, #1
 3656              	.LBB178:
 3657              	.LBB170:
1851:Drivers/STM32F7xx_HAL_Driver/Src/stm32f7xx_hal_uart.c **** 
 3658              		.loc 1 1851 0
 3659 002c BB4D     		ldr	r5, .L778
ARM GAS  /tmp/cc6CQ8Vx.s 			page 112


1850:Drivers/STM32F7xx_HAL_Driver/Src/stm32f7xx_hal_uart.c ****   MODIFY_REG(huart->Instance->CR1, UART_CR1_FIELDS, tmpreg);
 3660              		.loc 1 1850 0
 3661 002e 0243     		orrs	r2, r2, r0
 3662 0030 E069     		ldr	r0, [r4, #28]
 3663              	.LBE170:
 3664              	.LBE178:
 272:Drivers/STM32F7xx_HAL_Driver/Src/stm32f7xx_hal_uart.c **** 
 3665              		.loc 1 272 0
 3666 0032 1960     		str	r1, [r3]
 3667              	.LVL272:
 3668              	.LBB179:
 3669              	.LBB171:
1851:Drivers/STM32F7xx_HAL_Driver/Src/stm32f7xx_hal_uart.c **** 
 3670              		.loc 1 1851 0
 3671 0034 1968     		ldr	r1, [r3]
1850:Drivers/STM32F7xx_HAL_Driver/Src/stm32f7xx_hal_uart.c ****   MODIFY_REG(huart->Instance->CR1, UART_CR1_FIELDS, tmpreg);
 3672              		.loc 1 1850 0
 3673 0036 0243     		orrs	r2, r2, r0
1856:Drivers/STM32F7xx_HAL_Driver/Src/stm32f7xx_hal_uart.c **** 
 3674              		.loc 1 1856 0
 3675 0038 E668     		ldr	r6, [r4, #12]
1851:Drivers/STM32F7xx_HAL_Driver/Src/stm32f7xx_hal_uart.c **** 
 3676              		.loc 1 1851 0
 3677 003a 0D40     		ands	r5, r5, r1
1864:Drivers/STM32F7xx_HAL_Driver/Src/stm32f7xx_hal_uart.c ****   MODIFY_REG(huart->Instance->CR3, (USART_CR3_RTSE | USART_CR3_CTSE | USART_CR3_ONEBIT), tmpreg);
 3678              		.loc 1 1864 0
 3679 003c A169     		ldr	r1, [r4, #24]
1851:Drivers/STM32F7xx_HAL_Driver/Src/stm32f7xx_hal_uart.c **** 
 3680              		.loc 1 1851 0
 3681 003e 2A43     		orrs	r2, r2, r5
1864:Drivers/STM32F7xx_HAL_Driver/Src/stm32f7xx_hal_uart.c ****   MODIFY_REG(huart->Instance->CR3, (USART_CR3_RTSE | USART_CR3_CTSE | USART_CR3_ONEBIT), tmpreg);
 3682              		.loc 1 1864 0
 3683 0040 256A     		ldr	r5, [r4, #32]
1851:Drivers/STM32F7xx_HAL_Driver/Src/stm32f7xx_hal_uart.c **** 
 3684              		.loc 1 1851 0
 3685 0042 1A60     		str	r2, [r3]
1864:Drivers/STM32F7xx_HAL_Driver/Src/stm32f7xx_hal_uart.c ****   MODIFY_REG(huart->Instance->CR3, (USART_CR3_RTSE | USART_CR3_CTSE | USART_CR3_ONEBIT), tmpreg);
 3686              		.loc 1 1864 0
 3687 0044 41EA0502 		orr	r2, r1, r5
1856:Drivers/STM32F7xx_HAL_Driver/Src/stm32f7xx_hal_uart.c **** 
 3688              		.loc 1 1856 0
 3689 0048 5968     		ldr	r1, [r3, #4]
1868:Drivers/STM32F7xx_HAL_Driver/Src/stm32f7xx_hal_uart.c **** 
 3690              		.loc 1 1868 0
 3691 004a B54D     		ldr	r5, .L778+4
1856:Drivers/STM32F7xx_HAL_Driver/Src/stm32f7xx_hal_uart.c **** 
 3692              		.loc 1 1856 0
 3693 004c 21F44051 		bic	r1, r1, #12288
1868:Drivers/STM32F7xx_HAL_Driver/Src/stm32f7xx_hal_uart.c **** 
 3694              		.loc 1 1868 0
 3695 0050 AB42     		cmp	r3, r5
1856:Drivers/STM32F7xx_HAL_Driver/Src/stm32f7xx_hal_uart.c **** 
 3696              		.loc 1 1856 0
 3697 0052 41EA0601 		orr	r1, r1, r6
 3698 0056 5960     		str	r1, [r3, #4]
 3699              	.LVL273:
1865:Drivers/STM32F7xx_HAL_Driver/Src/stm32f7xx_hal_uart.c **** 
ARM GAS  /tmp/cc6CQ8Vx.s 			page 113


 3700              		.loc 1 1865 0
 3701 0058 9968     		ldr	r1, [r3, #8]
 3702 005a 21F43061 		bic	r1, r1, #2816
 3703 005e 42EA0102 		orr	r2, r2, r1
 3704 0062 9A60     		str	r2, [r3, #8]
1868:Drivers/STM32F7xx_HAL_Driver/Src/stm32f7xx_hal_uart.c **** 
 3705              		.loc 1 1868 0
 3706 0064 24D0     		beq	.L764
 3707 0066 AF4A     		ldr	r2, .L778+8
 3708 0068 9342     		cmp	r3, r2
 3709 006a 43D0     		beq	.L765
 3710 006c AE4A     		ldr	r2, .L778+12
 3711 006e 9342     		cmp	r3, r2
 3712 0070 00F0A280 		beq	.L766
 3713 0074 AD4A     		ldr	r2, .L778+16
 3714 0076 9342     		cmp	r3, r2
 3715 0078 45D0     		beq	.L767
 3716 007a AD4A     		ldr	r2, .L778+20
 3717 007c 9342     		cmp	r3, r2
 3718 007e 00F0B280 		beq	.L768
 3719 0082 AC4A     		ldr	r2, .L778+24
 3720 0084 9342     		cmp	r3, r2
 3721 0086 00F03481 		beq	.L769
 3722 008a AB4A     		ldr	r2, .L778+28
 3723 008c 9342     		cmp	r3, r2
 3724 008e 00F06381 		beq	.L770
 3725 0092 AA4A     		ldr	r2, .L778+32
 3726 0094 9342     		cmp	r3, r2
 3727 0096 00F01981 		beq	.L771
 3728              	.L569:
1871:Drivers/STM32F7xx_HAL_Driver/Src/stm32f7xx_hal_uart.c ****   {
 3729              		.loc 1 1871 0
 3730 009a B0F5004F 		cmp	r0, #32768
 3731 009e 00F07081 		beq	.L618
 3732              	.LVL274:
 3733              	.L631:
 3734              	.LBE171:
 3735              	.LBE179:
 277:Drivers/STM32F7xx_HAL_Driver/Src/stm32f7xx_hal_uart.c ****   }
 3736              		.loc 1 277 0
 3737 00a2 0120     		movs	r0, #1
 296:Drivers/STM32F7xx_HAL_Driver/Src/stm32f7xx_hal_uart.c **** 
 3738              		.loc 1 296 0
 3739 00a4 F8BD     		pop	{r3, r4, r5, r6, r7, pc}
 3740              	.LVL275:
 3741              	.L763:
 263:Drivers/STM32F7xx_HAL_Driver/Src/stm32f7xx_hal_uart.c **** 
 3742              		.loc 1 263 0
 3743 00a6 80F86820 		strb	r2, [r0, #104]
 266:Drivers/STM32F7xx_HAL_Driver/Src/stm32f7xx_hal_uart.c ****   }
 3744              		.loc 1 266 0
 3745 00aa FFF7FEFF 		bl	HAL_UART_MspInit
 3746              	.LVL276:
 3747 00ae B2E7     		b	.L564
 3748              	.LVL277:
 3749              	.L764:
 3750              	.LBB180:
ARM GAS  /tmp/cc6CQ8Vx.s 			page 114


 3751              	.LBB172:
1868:Drivers/STM32F7xx_HAL_Driver/Src/stm32f7xx_hal_uart.c **** 
 3752              		.loc 1 1868 0
 3753 00b0 A34A     		ldr	r2, .L778+36
 3754 00b2 A449     		ldr	r1, .L778+40
 3755 00b4 D2F89020 		ldr	r2, [r2, #144]
 3756 00b8 02F00302 		and	r2, r2, #3
 3757 00bc 8A5C     		ldrb	r2, [r1, r2]	@ zero_extendqisi2
 3758              	.L566:
 3759              	.LVL278:
1871:Drivers/STM32F7xx_HAL_Driver/Src/stm32f7xx_hal_uart.c ****   {
 3760              		.loc 1 1871 0
 3761 00be B0F5004F 		cmp	r0, #32768
 3762 00c2 2FD0     		beq	.L772
1902:Drivers/STM32F7xx_HAL_Driver/Src/stm32f7xx_hal_uart.c ****     {
 3763              		.loc 1 1902 0
 3764 00c4 082A     		cmp	r2, #8
 3765 00c6 ECD8     		bhi	.L631
 3766 00c8 01A1     		adr	r1, .L625
 3767 00ca 51F822F0 		ldr	pc, [r1, r2, lsl #2]
 3768 00ce 00BF     		.p2align 2
 3769              	.L625:
 3770 00d0 B3010000 		.word	.L617+1
 3771 00d4 4D010000 		.word	.L621+1
 3772 00d8 D5010000 		.word	.L615+1
 3773 00dc A3000000 		.word	.L631+1
 3774 00e0 FF010000 		.word	.L613+1
 3775 00e4 A3000000 		.word	.L631+1
 3776 00e8 A3000000 		.word	.L631+1
 3777 00ec A3000000 		.word	.L631+1
 3778 00f0 05020000 		.word	.L611+1
 3779              	.LVL279:
 3780              		.p2align 1
 3781              	.L765:
1868:Drivers/STM32F7xx_HAL_Driver/Src/stm32f7xx_hal_uart.c **** 
 3782              		.loc 1 1868 0
 3783 00f4 02F5FA32 		add	r2, r2, #128000
 3784 00f8 9349     		ldr	r1, .L778+44
 3785 00fa D2F89020 		ldr	r2, [r2, #144]
 3786 00fe 02F00C02 		and	r2, r2, #12
 3787 0102 8A5C     		ldrb	r2, [r1, r2]	@ zero_extendqisi2
 3788 0104 DBE7     		b	.L566
 3789              	.L767:
 3790 0106 02F5F632 		add	r2, r2, #125952
 3791 010a D2F89020 		ldr	r2, [r2, #144]
 3792 010e 02F0C002 		and	r2, r2, #192
 3793 0112 402A     		cmp	r2, #64
 3794 0114 70D0     		beq	.L570
 3795 0116 45D9     		bls	.L761
 3796 0118 802A     		cmp	r2, #128
 3797 011a 58D0     		beq	.L573
 3798 011c C02A     		cmp	r2, #192
 3799 011e 00F0A580 		beq	.L574
 3800 0122 BAE7     		b	.L569
 3801              	.LVL280:
 3802              	.L772:
1873:Drivers/STM32F7xx_HAL_Driver/Src/stm32f7xx_hal_uart.c ****     {
ARM GAS  /tmp/cc6CQ8Vx.s 			page 115


 3803              		.loc 1 1873 0
 3804 0124 082A     		cmp	r2, #8
 3805 0126 00F22C81 		bhi	.L618
 3806 012a DFE812F0 		tbh	[pc, r2, lsl #1]
 3807              	.L623:
 3808 012e CC00     		.2byte	(.L616-.L623)/2
 3809 0130 B000     		.2byte	(.L620-.L623)/2
 3810 0132 C700     		.2byte	(.L614-.L623)/2
 3811 0134 2A01     		.2byte	(.L618-.L623)/2
 3812 0136 C400     		.2byte	(.L612-.L623)/2
 3813 0138 2A01     		.2byte	(.L618-.L623)/2
 3814 013a 2A01     		.2byte	(.L618-.L623)/2
 3815 013c 2A01     		.2byte	(.L618-.L623)/2
 3816 013e A200     		.2byte	(.L610-.L623)/2
 3817              	.LVL281:
 3818              		.p2align 1
 3819              	.L777:
1868:Drivers/STM32F7xx_HAL_Driver/Src/stm32f7xx_hal_uart.c **** 
 3820              		.loc 1 1868 0
 3821 0140 002A     		cmp	r2, #0
 3822 0142 AAD1     		bne	.L569
 3823              	.LVL282:
1871:Drivers/STM32F7xx_HAL_Driver/Src/stm32f7xx_hal_uart.c ****   {
 3824              		.loc 1 1871 0
 3825 0144 B0F5004F 		cmp	r0, #32768
 3826 0148 00F0A180 		beq	.L620
 3827              	.LVL283:
 3828              	.L621:
1908:Drivers/STM32F7xx_HAL_Driver/Src/stm32f7xx_hal_uart.c ****       break;
 3829              		.loc 1 1908 0
 3830 014c FFF7FEFF 		bl	HAL_RCC_GetPCLK2Freq
 3831              	.LVL284:
 3832              	.L758:
1914:Drivers/STM32F7xx_HAL_Driver/Src/stm32f7xx_hal_uart.c ****       break;
 3833              		.loc 1 1914 0
 3834 0150 D4E90031 		ldrd	r3, r1, [r4]
 3835 0154 00EB5102 		add	r2, r0, r1, lsr #1
 3836 0158 B2FBF1F2 		udiv	r2, r2, r1
 3837 015c 92B2     		uxth	r2, r2
 3838 015e DA60     		str	r2, [r3, #12]
 3839              	.LVL285:
 3840              	.L624:
 3841              	.LBE172:
 3842              	.LBE180:
 280:Drivers/STM32F7xx_HAL_Driver/Src/stm32f7xx_hal_uart.c ****   {
 3843              		.loc 1 280 0
 3844 0160 626A     		ldr	r2, [r4, #36]
 3845 0162 002A     		cmp	r2, #0
 3846 0164 57D1     		bne	.L773
 3847              	.L626:
 288:Drivers/STM32F7xx_HAL_Driver/Src/stm32f7xx_hal_uart.c ****   CLEAR_BIT(huart->Instance->CR3, (USART_CR3_SCEN | USART_CR3_HDSEL | USART_CR3_IREN));
 3848              		.loc 1 288 0
 3849 0166 5A68     		ldr	r2, [r3, #4]
 3850              	.LBB181:
 3851              	.LBB182:
2016:Drivers/STM32F7xx_HAL_Driver/Src/stm32f7xx_hal_uart.c **** 
 3852              		.loc 1 2016 0
ARM GAS  /tmp/cc6CQ8Vx.s 			page 116


 3853 0168 0021     		movs	r1, #0
 3854              	.LBE182:
 3855              	.LBE181:
 288:Drivers/STM32F7xx_HAL_Driver/Src/stm32f7xx_hal_uart.c ****   CLEAR_BIT(huart->Instance->CR3, (USART_CR3_SCEN | USART_CR3_HDSEL | USART_CR3_IREN));
 3856              		.loc 1 288 0
 3857 016a 22F49042 		bic	r2, r2, #18432
 3858 016e 5A60     		str	r2, [r3, #4]
 289:Drivers/STM32F7xx_HAL_Driver/Src/stm32f7xx_hal_uart.c **** 
 3859              		.loc 1 289 0
 3860 0170 9A68     		ldr	r2, [r3, #8]
 3861 0172 22F02A02 		bic	r2, r2, #42
 3862 0176 9A60     		str	r2, [r3, #8]
 292:Drivers/STM32F7xx_HAL_Driver/Src/stm32f7xx_hal_uart.c **** 
 3863              		.loc 1 292 0
 3864 0178 1A68     		ldr	r2, [r3]
 3865 017a 42F00102 		orr	r2, r2, #1
 3866 017e 1A60     		str	r2, [r3]
 3867              	.LVL286:
 3868              	.LBB195:
 3869              	.LBB193:
2016:Drivers/STM32F7xx_HAL_Driver/Src/stm32f7xx_hal_uart.c **** 
 3870              		.loc 1 2016 0
 3871 0180 E166     		str	r1, [r4, #108]
2019:Drivers/STM32F7xx_HAL_Driver/Src/stm32f7xx_hal_uart.c **** 
 3872              		.loc 1 2019 0
 3873 0182 FFF7FEFF 		bl	HAL_GetTick
 3874              	.LVL287:
2022:Drivers/STM32F7xx_HAL_Driver/Src/stm32f7xx_hal_uart.c ****   {
 3875              		.loc 1 2022 0
 3876 0186 2368     		ldr	r3, [r4]
2019:Drivers/STM32F7xx_HAL_Driver/Src/stm32f7xx_hal_uart.c **** 
 3877              		.loc 1 2019 0
 3878 0188 0646     		mov	r6, r0
 3879              	.LVL288:
2022:Drivers/STM32F7xx_HAL_Driver/Src/stm32f7xx_hal_uart.c ****   {
 3880              		.loc 1 2022 0
 3881 018a 1A68     		ldr	r2, [r3]
 3882 018c 1207     		lsls	r2, r2, #28
 3883 018e 47D4     		bmi	.L774
 3884              	.LVL289:
 3885              	.L630:
2033:Drivers/STM32F7xx_HAL_Driver/Src/stm32f7xx_hal_uart.c ****   huart->RxState= HAL_UART_STATE_READY;
 3886              		.loc 1 2033 0
 3887 0190 2022     		movs	r2, #32
2037:Drivers/STM32F7xx_HAL_Driver/Src/stm32f7xx_hal_uart.c **** 
 3888              		.loc 1 2037 0
 3889 0192 0023     		movs	r3, #0
2033:Drivers/STM32F7xx_HAL_Driver/Src/stm32f7xx_hal_uart.c ****   huart->RxState= HAL_UART_STATE_READY;
 3890              		.loc 1 2033 0
 3891 0194 84F86920 		strb	r2, [r4, #105]
 3892              		.loc 1 2039 0
 3893 0198 1846     		mov	r0, r3
2034:Drivers/STM32F7xx_HAL_Driver/Src/stm32f7xx_hal_uart.c **** 
 3894              		.loc 1 2034 0
 3895 019a 84F86A20 		strb	r2, [r4, #106]
2037:Drivers/STM32F7xx_HAL_Driver/Src/stm32f7xx_hal_uart.c **** 
 3896              		.loc 1 2037 0
ARM GAS  /tmp/cc6CQ8Vx.s 			page 117


 3897 019e 84F86830 		strb	r3, [r4, #104]
 3898              	.LBE193:
 3899              	.LBE195:
 296:Drivers/STM32F7xx_HAL_Driver/Src/stm32f7xx_hal_uart.c **** 
 3900              		.loc 1 296 0
 3901 01a2 F8BD     		pop	{r3, r4, r5, r6, r7, pc}
 3902              	.LVL290:
 3903              	.L761:
 3904              	.LBB196:
 3905              	.LBB173:
1868:Drivers/STM32F7xx_HAL_Driver/Src/stm32f7xx_hal_uart.c **** 
 3906              		.loc 1 1868 0
 3907 01a4 002A     		cmp	r2, #0
 3908 01a6 7FF478AF 		bne	.L569
 3909              	.LVL291:
1871:Drivers/STM32F7xx_HAL_Driver/Src/stm32f7xx_hal_uart.c ****   {
 3910              		.loc 1 1871 0
 3911 01aa B0F5004F 		cmp	r0, #32768
 3912 01ae 00F08A80 		beq	.L616
 3913              	.LVL292:
 3914              	.L617:
1905:Drivers/STM32F7xx_HAL_Driver/Src/stm32f7xx_hal_uart.c ****       break;
 3915              		.loc 1 1905 0
 3916 01b2 FFF7FEFF 		bl	HAL_RCC_GetPCLK1Freq
 3917              	.LVL293:
 3918 01b6 CBE7     		b	.L758
 3919              	.LVL294:
 3920              	.L766:
1868:Drivers/STM32F7xx_HAL_Driver/Src/stm32f7xx_hal_uart.c **** 
 3921              		.loc 1 1868 0
 3922 01b8 02F5F832 		add	r2, r2, #126976
 3923 01bc D2F89020 		ldr	r2, [r2, #144]
 3924 01c0 02F03002 		and	r2, r2, #48
 3925 01c4 102A     		cmp	r2, #16
 3926 01c6 17D0     		beq	.L570
 3927 01c8 ECD9     		bls	.L761
 3928 01ca 202A     		cmp	r2, #32
 3929 01cc 70D1     		bne	.L775
 3930              	.L573:
 3931              	.LVL295:
1871:Drivers/STM32F7xx_HAL_Driver/Src/stm32f7xx_hal_uart.c ****   {
 3932              		.loc 1 1871 0
 3933 01ce B0F5004F 		cmp	r0, #32768
 3934 01d2 73D0     		beq	.L614
 3935              	.LVL296:
 3936              	.L615:
1911:Drivers/STM32F7xx_HAL_Driver/Src/stm32f7xx_hal_uart.c ****       break;
 3937              		.loc 1 1911 0
 3938 01d4 6168     		ldr	r1, [r4, #4]
 3939 01d6 5D4A     		ldr	r2, .L778+48
 3940 01d8 02EB5102 		add	r2, r2, r1, lsr #1
 3941 01dc B2FBF1F2 		udiv	r2, r2, r1
 3942 01e0 92B2     		uxth	r2, r2
 3943 01e2 DA60     		str	r2, [r3, #12]
 3944              	.LVL297:
 3945 01e4 BCE7     		b	.L624
 3946              	.LVL298:
ARM GAS  /tmp/cc6CQ8Vx.s 			page 118


 3947              	.L768:
1868:Drivers/STM32F7xx_HAL_Driver/Src/stm32f7xx_hal_uart.c **** 
 3948              		.loc 1 1868 0
 3949 01e6 02F5F432 		add	r2, r2, #124928
 3950 01ea D2F89020 		ldr	r2, [r2, #144]
 3951 01ee 02F44072 		and	r2, r2, #768
 3952 01f2 B2F5807F 		cmp	r2, #256
 3953 01f6 31D1     		bne	.L776
 3954              	.L570:
 3955              	.LVL299:
1871:Drivers/STM32F7xx_HAL_Driver/Src/stm32f7xx_hal_uart.c ****   {
 3956              		.loc 1 1871 0
 3957 01f8 B0F5004F 		cmp	r0, #32768
 3958 01fc 5BD0     		beq	.L612
 3959              	.LVL300:
 3960              	.L613:
1914:Drivers/STM32F7xx_HAL_Driver/Src/stm32f7xx_hal_uart.c ****       break;
 3961              		.loc 1 1914 0
 3962 01fe FFF7FEFF 		bl	HAL_RCC_GetSysClockFreq
 3963              	.LVL301:
 3964 0202 A5E7     		b	.L758
 3965              	.LVL302:
 3966              	.L611:
1917:Drivers/STM32F7xx_HAL_Driver/Src/stm32f7xx_hal_uart.c ****       break;
 3967              		.loc 1 1917 0
 3968 0204 6168     		ldr	r1, [r4, #4]
 3969 0206 4A08     		lsrs	r2, r1, #1
 3970 0208 02F50042 		add	r2, r2, #32768
 3971 020c B2FBF1F2 		udiv	r2, r2, r1
 3972 0210 92B2     		uxth	r2, r2
 3973 0212 DA60     		str	r2, [r3, #12]
 3974              	.LVL303:
 3975 0214 A4E7     		b	.L624
 3976              	.L773:
 3977              	.LBE173:
 3978              	.LBE196:
 282:Drivers/STM32F7xx_HAL_Driver/Src/stm32f7xx_hal_uart.c ****   }
 3979              		.loc 1 282 0
 3980 0216 2046     		mov	r0, r4
 3981 0218 FFF7FEFF 		bl	UART_AdvFeatureConfig
 3982              	.LVL304:
 3983 021c 2368     		ldr	r3, [r4]
 3984 021e A2E7     		b	.L626
 3985              	.LVL305:
 3986              	.L774:
 3987              	.LBB197:
 3988              	.LBB194:
 3989              	.LBB183:
 3990              	.LBB184:
1343:Drivers/STM32F7xx_HAL_Driver/Src/stm32f7xx_hal_uart.c ****       {
 3991              		.loc 1 1343 0
 3992 0220 4B4F     		ldr	r7, .L778+52
 3993              	.LVL306:
 3994              	.L627:
1338:Drivers/STM32F7xx_HAL_Driver/Src/stm32f7xx_hal_uart.c ****   {
 3995              		.loc 1 1338 0
 3996 0222 DD69     		ldr	r5, [r3, #28]
ARM GAS  /tmp/cc6CQ8Vx.s 			page 119


 3997 0224 15F40015 		ands	r5, r5, #2097152
 3998 0228 B2D1     		bne	.L630
1343:Drivers/STM32F7xx_HAL_Driver/Src/stm32f7xx_hal_uart.c ****       {
 3999              		.loc 1 1343 0
 4000 022a FFF7FEFF 		bl	HAL_GetTick
 4001              	.LVL307:
 4002 022e 801B     		subs	r0, r0, r6
 4003              	.LBB185:
 4004              	.LBB186:
1346:Drivers/STM32F7xx_HAL_Driver/Src/stm32f7xx_hal_uart.c ****         CLEAR_BIT(huart->Instance->CR3, USART_CR3_EIE);
 4005              		.loc 1 1346 0
 4006 0230 2368     		ldr	r3, [r4]
 4007              	.LBE186:
 4008              	.LBE185:
1343:Drivers/STM32F7xx_HAL_Driver/Src/stm32f7xx_hal_uart.c ****       {
 4009              		.loc 1 1343 0
 4010 0232 B842     		cmp	r0, r7
 4011 0234 F5D9     		bls	.L627
 4012              	.LVL308:
 4013              	.LBB189:
 4014              	.LBB187:
1346:Drivers/STM32F7xx_HAL_Driver/Src/stm32f7xx_hal_uart.c ****         CLEAR_BIT(huart->Instance->CR3, USART_CR3_EIE);
 4015              		.loc 1 1346 0
 4016 0236 1A68     		ldr	r2, [r3]
1349:Drivers/STM32F7xx_HAL_Driver/Src/stm32f7xx_hal_uart.c ****         huart->RxState = HAL_UART_STATE_READY;
 4017              		.loc 1 1349 0
 4018 0238 2021     		movs	r1, #32
 4019              	.LBE187:
 4020              	.LBE189:
 4021              	.LBE184:
 4022              	.LBE183:
2028:Drivers/STM32F7xx_HAL_Driver/Src/stm32f7xx_hal_uart.c ****     }
 4023              		.loc 1 2028 0
 4024 023a 0320     		movs	r0, #3
 4025              	.LBB192:
 4026              	.LBB191:
 4027              	.LBB190:
 4028              	.LBB188:
1346:Drivers/STM32F7xx_HAL_Driver/Src/stm32f7xx_hal_uart.c ****         CLEAR_BIT(huart->Instance->CR3, USART_CR3_EIE);
 4029              		.loc 1 1346 0
 4030 023c 22F4D072 		bic	r2, r2, #416
 4031 0240 1A60     		str	r2, [r3]
1347:Drivers/STM32F7xx_HAL_Driver/Src/stm32f7xx_hal_uart.c **** 
 4032              		.loc 1 1347 0
 4033 0242 9A68     		ldr	r2, [r3, #8]
 4034 0244 22F00102 		bic	r2, r2, #1
 4035 0248 9A60     		str	r2, [r3, #8]
1349:Drivers/STM32F7xx_HAL_Driver/Src/stm32f7xx_hal_uart.c ****         huart->RxState = HAL_UART_STATE_READY;
 4036              		.loc 1 1349 0
 4037 024a 84F86910 		strb	r1, [r4, #105]
1353:Drivers/STM32F7xx_HAL_Driver/Src/stm32f7xx_hal_uart.c ****         return HAL_TIMEOUT;
 4038              		.loc 1 1353 0
 4039 024e 84F86850 		strb	r5, [r4, #104]
 4040              	.LVL309:
1350:Drivers/STM32F7xx_HAL_Driver/Src/stm32f7xx_hal_uart.c **** 
 4041              		.loc 1 1350 0
 4042 0252 84F86A10 		strb	r1, [r4, #106]
ARM GAS  /tmp/cc6CQ8Vx.s 			page 120


 4043              	.LBE188:
 4044              	.LBE190:
 4045              	.LBE191:
 4046              	.LBE192:
 4047              	.LBE194:
 4048              	.LBE197:
 296:Drivers/STM32F7xx_HAL_Driver/Src/stm32f7xx_hal_uart.c **** 
 4049              		.loc 1 296 0
 4050 0256 F8BD     		pop	{r3, r4, r5, r6, r7, pc}
 4051              	.LVL310:
 4052              	.L762:
 4053              	.LCFI48:
 4054              		.cfi_def_cfa_offset 0
 4055              		.cfi_restore 3
 4056              		.cfi_restore 4
 4057              		.cfi_restore 5
 4058              		.cfi_restore 6
 4059              		.cfi_restore 7
 4060              		.cfi_restore 14
 246:Drivers/STM32F7xx_HAL_Driver/Src/stm32f7xx_hal_uart.c ****   }
 4061              		.loc 1 246 0
 4062 0258 0120     		movs	r0, #1
 4063              	.LVL311:
 296:Drivers/STM32F7xx_HAL_Driver/Src/stm32f7xx_hal_uart.c **** 
 4064              		.loc 1 296 0
 4065 025a 7047     		bx	lr
 4066              	.LVL312:
 4067              	.L776:
 4068              	.LCFI49:
 4069              		.cfi_def_cfa_offset 24
 4070              		.cfi_offset 3, -24
 4071              		.cfi_offset 4, -20
 4072              		.cfi_offset 5, -16
 4073              		.cfi_offset 6, -12
 4074              		.cfi_offset 7, -8
 4075              		.cfi_offset 14, -4
 4076              	.LBB198:
 4077              	.LBB174:
1868:Drivers/STM32F7xx_HAL_Driver/Src/stm32f7xx_hal_uart.c **** 
 4078              		.loc 1 1868 0
 4079 025c A2D9     		bls	.L761
 4080 025e B2F5007F 		cmp	r2, #512
 4081 0262 B4D0     		beq	.L573
 4082 0264 B2F5407F 		cmp	r2, #768
 4083 0268 7FF417AF 		bne	.L569
 4084              	.L574:
 4085              	.LVL313:
1871:Drivers/STM32F7xx_HAL_Driver/Src/stm32f7xx_hal_uart.c ****   {
 4086              		.loc 1 1871 0
 4087 026c B0F5004F 		cmp	r0, #32768
 4088 0270 C8D1     		bne	.L611
 4089              	.LVL314:
 4090              	.L610:
1888:Drivers/STM32F7xx_HAL_Driver/Src/stm32f7xx_hal_uart.c ****       break;
 4091              		.loc 1 1888 0
 4092 0272 6168     		ldr	r1, [r4, #4]
 4093 0274 4A08     		lsrs	r2, r1, #1
ARM GAS  /tmp/cc6CQ8Vx.s 			page 121


 4094 0276 02F58032 		add	r2, r2, #65536
 4095              	.L759:
 4096 027a B2FBF1F2 		udiv	r2, r2, r1
 4097              	.LVL315:
1896:Drivers/STM32F7xx_HAL_Driver/Src/stm32f7xx_hal_uart.c ****     brrtemp |= (uint16_t)((usartdiv & (uint16_t)0x000FU) >> 1U);
 4098              		.loc 1 1896 0
 4099 027e 22F00F01 		bic	r1, r2, #15
1897:Drivers/STM32F7xx_HAL_Driver/Src/stm32f7xx_hal_uart.c ****     huart->Instance->BRR = brrtemp;
 4100              		.loc 1 1897 0
 4101 0282 C2F34202 		ubfx	r2, r2, #1, #3
 4102              	.LVL316:
1896:Drivers/STM32F7xx_HAL_Driver/Src/stm32f7xx_hal_uart.c ****     brrtemp |= (uint16_t)((usartdiv & (uint16_t)0x000FU) >> 1U);
 4103              		.loc 1 1896 0
 4104 0286 89B2     		uxth	r1, r1
 4105              	.LVL317:
1898:Drivers/STM32F7xx_HAL_Driver/Src/stm32f7xx_hal_uart.c ****   }
 4106              		.loc 1 1898 0
 4107 0288 0A43     		orrs	r2, r2, r1
 4108 028a DA60     		str	r2, [r3, #12]
 4109              	.LVL318:
 4110 028c 68E7     		b	.L624
 4111              	.LVL319:
 4112              	.L620:
1879:Drivers/STM32F7xx_HAL_Driver/Src/stm32f7xx_hal_uart.c ****       break;
 4113              		.loc 1 1879 0
 4114 028e FFF7FEFF 		bl	HAL_RCC_GetPCLK2Freq
 4115              	.LVL320:
 4116              	.L757:
1898:Drivers/STM32F7xx_HAL_Driver/Src/stm32f7xx_hal_uart.c ****   }
 4117              		.loc 1 1898 0
 4118 0292 D4E90031 		ldrd	r3, r1, [r4]
1885:Drivers/STM32F7xx_HAL_Driver/Src/stm32f7xx_hal_uart.c ****       break;
 4119              		.loc 1 1885 0
 4120 0296 4A08     		lsrs	r2, r1, #1
 4121 0298 02EB4000 		add	r0, r2, r0, lsl #1
 4122 029c B0FBF1F0 		udiv	r0, r0, r1
 4123              	.LVL321:
1896:Drivers/STM32F7xx_HAL_Driver/Src/stm32f7xx_hal_uart.c ****     brrtemp |= (uint16_t)((usartdiv & (uint16_t)0x000FU) >> 1U);
 4124              		.loc 1 1896 0
 4125 02a0 20F00F02 		bic	r2, r0, #15
1897:Drivers/STM32F7xx_HAL_Driver/Src/stm32f7xx_hal_uart.c ****     huart->Instance->BRR = brrtemp;
 4126              		.loc 1 1897 0
 4127 02a4 C0F34200 		ubfx	r0, r0, #1, #3
 4128              	.LVL322:
1896:Drivers/STM32F7xx_HAL_Driver/Src/stm32f7xx_hal_uart.c ****     brrtemp |= (uint16_t)((usartdiv & (uint16_t)0x000FU) >> 1U);
 4129              		.loc 1 1896 0
 4130 02a8 92B2     		uxth	r2, r2
 4131              	.LVL323:
1898:Drivers/STM32F7xx_HAL_Driver/Src/stm32f7xx_hal_uart.c ****   }
 4132              		.loc 1 1898 0
 4133 02aa 1043     		orrs	r0, r0, r2
 4134 02ac D860     		str	r0, [r3, #12]
 4135              	.LVL324:
 4136 02ae 57E7     		b	.L624
 4137              	.LVL325:
 4138              	.L775:
1868:Drivers/STM32F7xx_HAL_Driver/Src/stm32f7xx_hal_uart.c **** 
ARM GAS  /tmp/cc6CQ8Vx.s 			page 122


 4139              		.loc 1 1868 0
 4140 02b0 302A     		cmp	r2, #48
 4141 02b2 DBD0     		beq	.L574
 4142 02b4 F1E6     		b	.L569
 4143              	.LVL326:
 4144              	.L612:
1885:Drivers/STM32F7xx_HAL_Driver/Src/stm32f7xx_hal_uart.c ****       break;
 4145              		.loc 1 1885 0
 4146 02b6 FFF7FEFF 		bl	HAL_RCC_GetSysClockFreq
 4147              	.LVL327:
 4148 02ba EAE7     		b	.L757
 4149              	.LVL328:
 4150              	.L614:
1882:Drivers/STM32F7xx_HAL_Driver/Src/stm32f7xx_hal_uart.c ****       break;
 4151              		.loc 1 1882 0
 4152 02bc 6168     		ldr	r1, [r4, #4]
 4153 02be 254A     		ldr	r2, .L778+56
 4154 02c0 02EB5102 		add	r2, r2, r1, lsr #1
 4155 02c4 D9E7     		b	.L759
 4156              	.L616:
1876:Drivers/STM32F7xx_HAL_Driver/Src/stm32f7xx_hal_uart.c ****       break;
 4157              		.loc 1 1876 0
 4158 02c6 FFF7FEFF 		bl	HAL_RCC_GetPCLK1Freq
 4159              	.LVL329:
 4160 02ca E2E7     		b	.L757
 4161              	.LVL330:
 4162              	.L771:
1868:Drivers/STM32F7xx_HAL_Driver/Src/stm32f7xx_hal_uart.c **** 
 4163              		.loc 1 1868 0
 4164 02cc 02F5DE32 		add	r2, r2, #113664
 4165 02d0 D2F89020 		ldr	r2, [r2, #144]
 4166 02d4 02F44042 		and	r2, r2, #49152
 4167 02d8 B2F5804F 		cmp	r2, #16384
 4168 02dc 8CD0     		beq	.L570
 4169 02de 7FF661AF 		bls	.L761
 4170 02e2 B2F5004F 		cmp	r2, #32768
 4171 02e6 3FF472AF 		beq	.L573
 4172 02ea B2F5404F 		cmp	r2, #49152
 4173 02ee BDD0     		beq	.L574
 4174 02f0 D3E6     		b	.L569
 4175              	.L769:
 4176 02f2 02F59232 		add	r2, r2, #74752
 4177 02f6 D2F89020 		ldr	r2, [r2, #144]
 4178 02fa 02F44062 		and	r2, r2, #3072
 4179 02fe B2F5806F 		cmp	r2, #1024
 4180 0302 3FF479AF 		beq	.L570
 4181 0306 7FF61BAF 		bls	.L777
 4182 030a B2F5006F 		cmp	r2, #2048
 4183 030e 3FF45EAF 		beq	.L573
 4184 0312 B2F5406F 		cmp	r2, #3072
 4185 0316 A9D0     		beq	.L574
 4186 0318 BFE6     		b	.L569
 4187              	.L779:
 4188 031a 00BF     		.align	2
 4189              	.L778:
 4190 031c F369FFEF 		.word	-268473869
 4191 0320 00100140 		.word	1073811456
ARM GAS  /tmp/cc6CQ8Vx.s 			page 123


 4192 0324 00440040 		.word	1073759232
 4193 0328 00480040 		.word	1073760256
 4194 032c 004C0040 		.word	1073761280
 4195 0330 00500040 		.word	1073762304
 4196 0334 00140140 		.word	1073812480
 4197 0338 00780040 		.word	1073772544
 4198 033c 007C0040 		.word	1073773568
 4199 0340 00380240 		.word	1073887232
 4200 0344 00000000 		.word	.LANCHOR0
 4201 0348 00000000 		.word	.LANCHOR1
 4202 034c 0024F400 		.word	16000000
 4203 0350 FEFFFF01 		.word	33554430
 4204 0354 0048E801 		.word	32000000
 4205              	.L770:
 4206 0358 02F5E032 		add	r2, r2, #114688
 4207 035c D2F89020 		ldr	r2, [r2, #144]
 4208 0360 02F44052 		and	r2, r2, #12288
 4209 0364 B2F5805F 		cmp	r2, #4096
 4210 0368 3FF446AF 		beq	.L570
 4211 036c 7FF61AAF 		bls	.L761
 4212 0370 B2F5005F 		cmp	r2, #8192
 4213 0374 3FF42BAF 		beq	.L573
 4214 0378 B2F5405F 		cmp	r2, #12288
 4215 037c 3FF476AF 		beq	.L574
 4216 0380 8BE6     		b	.L569
 4217              	.LVL331:
 4218              	.L618:
1898:Drivers/STM32F7xx_HAL_Driver/Src/stm32f7xx_hal_uart.c ****   }
 4219              		.loc 1 1898 0
 4220 0382 0022     		movs	r2, #0
 4221              	.LBE174:
 4222              	.LBE198:
 277:Drivers/STM32F7xx_HAL_Driver/Src/stm32f7xx_hal_uart.c ****   }
 4223              		.loc 1 277 0
 4224 0384 0120     		movs	r0, #1
 4225              	.LBB199:
 4226              	.LBB175:
1898:Drivers/STM32F7xx_HAL_Driver/Src/stm32f7xx_hal_uart.c ****   }
 4227              		.loc 1 1898 0
 4228 0386 DA60     		str	r2, [r3, #12]
 4229              	.LVL332:
 4230              	.LBE175:
 4231              	.LBE199:
 296:Drivers/STM32F7xx_HAL_Driver/Src/stm32f7xx_hal_uart.c **** 
 4232              		.loc 1 296 0
 4233 0388 F8BD     		pop	{r3, r4, r5, r6, r7, pc}
 4234              		.cfi_endproc
 4235              	.LFE138:
 4237 038a 00BF     		.section	.text.HAL_HalfDuplex_Init,"ax",%progbits
 4238              		.align	1
 4239              		.p2align 2,,3
 4240              		.global	HAL_HalfDuplex_Init
 4241              		.syntax unified
 4242              		.thumb
 4243              		.thumb_func
 4244              		.fpu fpv4-sp-d16
 4246              	HAL_HalfDuplex_Init:
ARM GAS  /tmp/cc6CQ8Vx.s 			page 124


 4247              	.LFB139:
 305:Drivers/STM32F7xx_HAL_Driver/Src/stm32f7xx_hal_uart.c ****   /* Check the UART handle allocation */
 4248              		.loc 1 305 0
 4249              		.cfi_startproc
 4250              		@ args = 0, pretend = 0, frame = 0
 4251              		@ frame_needed = 0, uses_anonymous_args = 0
 4252              	.LVL333:
 307:Drivers/STM32F7xx_HAL_Driver/Src/stm32f7xx_hal_uart.c ****   {
 4253              		.loc 1 307 0
 4254 0000 0028     		cmp	r0, #0
 4255 0002 00F02D81 		beq	.L981
 305:Drivers/STM32F7xx_HAL_Driver/Src/stm32f7xx_hal_uart.c ****   /* Check the UART handle allocation */
 4256              		.loc 1 305 0
 4257 0006 F8B5     		push	{r3, r4, r5, r6, r7, lr}
 4258              	.LCFI50:
 4259              		.cfi_def_cfa_offset 24
 4260              		.cfi_offset 3, -24
 4261              		.cfi_offset 4, -20
 4262              		.cfi_offset 5, -16
 4263              		.cfi_offset 6, -12
 4264              		.cfi_offset 7, -8
 4265              		.cfi_offset 14, -4
 312:Drivers/STM32F7xx_HAL_Driver/Src/stm32f7xx_hal_uart.c ****   {
 4266              		.loc 1 312 0
 4267 0008 90F86930 		ldrb	r3, [r0, #105]	@ zero_extendqisi2
 4268 000c 0446     		mov	r4, r0
 4269 000e 03F0FF02 		and	r2, r3, #255
 4270 0012 002B     		cmp	r3, #0
 4271 0014 47D0     		beq	.L982
 4272              	.LVL334:
 4273              	.L783:
 324:Drivers/STM32F7xx_HAL_Driver/Src/stm32f7xx_hal_uart.c **** 
 4274              		.loc 1 324 0
 4275 0016 2368     		ldr	r3, [r4]
 321:Drivers/STM32F7xx_HAL_Driver/Src/stm32f7xx_hal_uart.c **** 
 4276              		.loc 1 321 0
 4277 0018 2421     		movs	r1, #36
 4278              	.LBB208:
 4279              	.LBB209:
1850:Drivers/STM32F7xx_HAL_Driver/Src/stm32f7xx_hal_uart.c ****   MODIFY_REG(huart->Instance->CR1, UART_CR1_FIELDS, tmpreg);
 4280              		.loc 1 1850 0
 4281 001a 2069     		ldr	r0, [r4, #16]
 4282              	.LBE209:
 4283              	.LBE208:
 321:Drivers/STM32F7xx_HAL_Driver/Src/stm32f7xx_hal_uart.c **** 
 4284              		.loc 1 321 0
 4285 001c 84F86910 		strb	r1, [r4, #105]
 4286              	.LBB218:
 4287              	.LBB210:
1850:Drivers/STM32F7xx_HAL_Driver/Src/stm32f7xx_hal_uart.c ****   MODIFY_REG(huart->Instance->CR1, UART_CR1_FIELDS, tmpreg);
 4288              		.loc 1 1850 0
 4289 0020 A268     		ldr	r2, [r4, #8]
 4290              	.LBE210:
 4291              	.LBE218:
 324:Drivers/STM32F7xx_HAL_Driver/Src/stm32f7xx_hal_uart.c **** 
 4292              		.loc 1 324 0
 4293 0022 1968     		ldr	r1, [r3]
ARM GAS  /tmp/cc6CQ8Vx.s 			page 125


 4294              	.LBB219:
 4295              	.LBB211:
1850:Drivers/STM32F7xx_HAL_Driver/Src/stm32f7xx_hal_uart.c ****   MODIFY_REG(huart->Instance->CR1, UART_CR1_FIELDS, tmpreg);
 4296              		.loc 1 1850 0
 4297 0024 0243     		orrs	r2, r2, r0
 4298 0026 6069     		ldr	r0, [r4, #20]
 4299              	.LBE211:
 4300              	.LBE219:
 324:Drivers/STM32F7xx_HAL_Driver/Src/stm32f7xx_hal_uart.c **** 
 4301              		.loc 1 324 0
 4302 0028 21F00101 		bic	r1, r1, #1
 4303              	.LBB220:
 4304              	.LBB212:
1851:Drivers/STM32F7xx_HAL_Driver/Src/stm32f7xx_hal_uart.c **** 
 4305              		.loc 1 1851 0
 4306 002c BD4D     		ldr	r5, .L997
1850:Drivers/STM32F7xx_HAL_Driver/Src/stm32f7xx_hal_uart.c ****   MODIFY_REG(huart->Instance->CR1, UART_CR1_FIELDS, tmpreg);
 4307              		.loc 1 1850 0
 4308 002e 0243     		orrs	r2, r2, r0
 4309 0030 E069     		ldr	r0, [r4, #28]
 4310              	.LBE212:
 4311              	.LBE220:
 324:Drivers/STM32F7xx_HAL_Driver/Src/stm32f7xx_hal_uart.c **** 
 4312              		.loc 1 324 0
 4313 0032 1960     		str	r1, [r3]
 4314              	.LVL335:
 4315              	.LBB221:
 4316              	.LBB213:
1851:Drivers/STM32F7xx_HAL_Driver/Src/stm32f7xx_hal_uart.c **** 
 4317              		.loc 1 1851 0
 4318 0034 1968     		ldr	r1, [r3]
1850:Drivers/STM32F7xx_HAL_Driver/Src/stm32f7xx_hal_uart.c ****   MODIFY_REG(huart->Instance->CR1, UART_CR1_FIELDS, tmpreg);
 4319              		.loc 1 1850 0
 4320 0036 0243     		orrs	r2, r2, r0
1856:Drivers/STM32F7xx_HAL_Driver/Src/stm32f7xx_hal_uart.c **** 
 4321              		.loc 1 1856 0
 4322 0038 E668     		ldr	r6, [r4, #12]
1851:Drivers/STM32F7xx_HAL_Driver/Src/stm32f7xx_hal_uart.c **** 
 4323              		.loc 1 1851 0
 4324 003a 0D40     		ands	r5, r5, r1
1864:Drivers/STM32F7xx_HAL_Driver/Src/stm32f7xx_hal_uart.c ****   MODIFY_REG(huart->Instance->CR3, (USART_CR3_RTSE | USART_CR3_CTSE | USART_CR3_ONEBIT), tmpreg);
 4325              		.loc 1 1864 0
 4326 003c A169     		ldr	r1, [r4, #24]
1851:Drivers/STM32F7xx_HAL_Driver/Src/stm32f7xx_hal_uart.c **** 
 4327              		.loc 1 1851 0
 4328 003e 2A43     		orrs	r2, r2, r5
1864:Drivers/STM32F7xx_HAL_Driver/Src/stm32f7xx_hal_uart.c ****   MODIFY_REG(huart->Instance->CR3, (USART_CR3_RTSE | USART_CR3_CTSE | USART_CR3_ONEBIT), tmpreg);
 4329              		.loc 1 1864 0
 4330 0040 256A     		ldr	r5, [r4, #32]
1851:Drivers/STM32F7xx_HAL_Driver/Src/stm32f7xx_hal_uart.c **** 
 4331              		.loc 1 1851 0
 4332 0042 1A60     		str	r2, [r3]
1864:Drivers/STM32F7xx_HAL_Driver/Src/stm32f7xx_hal_uart.c ****   MODIFY_REG(huart->Instance->CR3, (USART_CR3_RTSE | USART_CR3_CTSE | USART_CR3_ONEBIT), tmpreg);
 4333              		.loc 1 1864 0
 4334 0044 41EA0502 		orr	r2, r1, r5
1856:Drivers/STM32F7xx_HAL_Driver/Src/stm32f7xx_hal_uart.c **** 
 4335              		.loc 1 1856 0
ARM GAS  /tmp/cc6CQ8Vx.s 			page 126


 4336 0048 5968     		ldr	r1, [r3, #4]
1868:Drivers/STM32F7xx_HAL_Driver/Src/stm32f7xx_hal_uart.c **** 
 4337              		.loc 1 1868 0
 4338 004a B74D     		ldr	r5, .L997+4
1856:Drivers/STM32F7xx_HAL_Driver/Src/stm32f7xx_hal_uart.c **** 
 4339              		.loc 1 1856 0
 4340 004c 21F44051 		bic	r1, r1, #12288
1868:Drivers/STM32F7xx_HAL_Driver/Src/stm32f7xx_hal_uart.c **** 
 4341              		.loc 1 1868 0
 4342 0050 AB42     		cmp	r3, r5
1856:Drivers/STM32F7xx_HAL_Driver/Src/stm32f7xx_hal_uart.c **** 
 4343              		.loc 1 1856 0
 4344 0052 41EA0601 		orr	r1, r1, r6
 4345 0056 5960     		str	r1, [r3, #4]
 4346              	.LVL336:
1865:Drivers/STM32F7xx_HAL_Driver/Src/stm32f7xx_hal_uart.c **** 
 4347              		.loc 1 1865 0
 4348 0058 9968     		ldr	r1, [r3, #8]
 4349 005a 21F43061 		bic	r1, r1, #2816
 4350 005e 42EA0102 		orr	r2, r2, r1
 4351 0062 9A60     		str	r2, [r3, #8]
1868:Drivers/STM32F7xx_HAL_Driver/Src/stm32f7xx_hal_uart.c **** 
 4352              		.loc 1 1868 0
 4353 0064 24D0     		beq	.L983
 4354 0066 B14A     		ldr	r2, .L997+8
 4355 0068 9342     		cmp	r3, r2
 4356 006a 43D0     		beq	.L984
 4357 006c B04A     		ldr	r2, .L997+12
 4358 006e 9342     		cmp	r3, r2
 4359 0070 00F0A680 		beq	.L985
 4360 0074 AF4A     		ldr	r2, .L997+16
 4361 0076 9342     		cmp	r3, r2
 4362 0078 45D0     		beq	.L986
 4363 007a AF4A     		ldr	r2, .L997+20
 4364 007c 9342     		cmp	r3, r2
 4365 007e 00F0B680 		beq	.L987
 4366 0082 AE4A     		ldr	r2, .L997+24
 4367 0084 9342     		cmp	r3, r2
 4368 0086 00F03881 		beq	.L988
 4369 008a AD4A     		ldr	r2, .L997+28
 4370 008c 9342     		cmp	r3, r2
 4371 008e 00F06781 		beq	.L989
 4372 0092 AC4A     		ldr	r2, .L997+32
 4373 0094 9342     		cmp	r3, r2
 4374 0096 00F01D81 		beq	.L990
 4375              	.L788:
1871:Drivers/STM32F7xx_HAL_Driver/Src/stm32f7xx_hal_uart.c ****   {
 4376              		.loc 1 1871 0
 4377 009a B0F5004F 		cmp	r0, #32768
 4378 009e 00F07481 		beq	.L837
 4379              	.LVL337:
 4380              	.L850:
 4381              	.LBE213:
 4382              	.LBE221:
 329:Drivers/STM32F7xx_HAL_Driver/Src/stm32f7xx_hal_uart.c ****   }
 4383              		.loc 1 329 0
 4384 00a2 0120     		movs	r0, #1
ARM GAS  /tmp/cc6CQ8Vx.s 			page 127


 351:Drivers/STM32F7xx_HAL_Driver/Src/stm32f7xx_hal_uart.c **** 
 4385              		.loc 1 351 0
 4386 00a4 F8BD     		pop	{r3, r4, r5, r6, r7, pc}
 4387              	.LVL338:
 4388              	.L982:
 315:Drivers/STM32F7xx_HAL_Driver/Src/stm32f7xx_hal_uart.c **** 
 4389              		.loc 1 315 0
 4390 00a6 80F86820 		strb	r2, [r0, #104]
 318:Drivers/STM32F7xx_HAL_Driver/Src/stm32f7xx_hal_uart.c ****   }
 4391              		.loc 1 318 0
 4392 00aa FFF7FEFF 		bl	HAL_UART_MspInit
 4393              	.LVL339:
 4394 00ae B2E7     		b	.L783
 4395              	.LVL340:
 4396              	.L983:
 4397              	.LBB222:
 4398              	.LBB214:
1868:Drivers/STM32F7xx_HAL_Driver/Src/stm32f7xx_hal_uart.c **** 
 4399              		.loc 1 1868 0
 4400 00b0 A54A     		ldr	r2, .L997+36
 4401 00b2 A649     		ldr	r1, .L997+40
 4402 00b4 D2F89020 		ldr	r2, [r2, #144]
 4403 00b8 02F00302 		and	r2, r2, #3
 4404 00bc 8A5C     		ldrb	r2, [r1, r2]	@ zero_extendqisi2
 4405              	.L785:
 4406              	.LVL341:
1871:Drivers/STM32F7xx_HAL_Driver/Src/stm32f7xx_hal_uart.c ****   {
 4407              		.loc 1 1871 0
 4408 00be B0F5004F 		cmp	r0, #32768
 4409 00c2 2FD0     		beq	.L991
1902:Drivers/STM32F7xx_HAL_Driver/Src/stm32f7xx_hal_uart.c ****     {
 4410              		.loc 1 1902 0
 4411 00c4 082A     		cmp	r2, #8
 4412 00c6 ECD8     		bhi	.L850
 4413 00c8 01A1     		adr	r1, .L844
 4414 00ca 51F822F0 		ldr	pc, [r1, r2, lsl #2]
 4415 00ce 00BF     		.p2align 2
 4416              	.L844:
 4417 00d0 BB010000 		.word	.L836+1
 4418 00d4 4D010000 		.word	.L840+1
 4419 00d8 DD010000 		.word	.L834+1
 4420 00dc A3000000 		.word	.L850+1
 4421 00e0 07020000 		.word	.L832+1
 4422 00e4 A3000000 		.word	.L850+1
 4423 00e8 A3000000 		.word	.L850+1
 4424 00ec A3000000 		.word	.L850+1
 4425 00f0 0D020000 		.word	.L830+1
 4426              	.LVL342:
 4427              		.p2align 1
 4428              	.L984:
1868:Drivers/STM32F7xx_HAL_Driver/Src/stm32f7xx_hal_uart.c **** 
 4429              		.loc 1 1868 0
 4430 00f4 02F5FA32 		add	r2, r2, #128000
 4431 00f8 9549     		ldr	r1, .L997+44
 4432 00fa D2F89020 		ldr	r2, [r2, #144]
 4433 00fe 02F00C02 		and	r2, r2, #12
 4434 0102 8A5C     		ldrb	r2, [r1, r2]	@ zero_extendqisi2
ARM GAS  /tmp/cc6CQ8Vx.s 			page 128


 4435 0104 DBE7     		b	.L785
 4436              	.L986:
 4437 0106 02F5F632 		add	r2, r2, #125952
 4438 010a D2F89020 		ldr	r2, [r2, #144]
 4439 010e 02F0C002 		and	r2, r2, #192
 4440 0112 402A     		cmp	r2, #64
 4441 0114 74D0     		beq	.L789
 4442 0116 49D9     		bls	.L980
 4443 0118 802A     		cmp	r2, #128
 4444 011a 5CD0     		beq	.L792
 4445 011c C02A     		cmp	r2, #192
 4446 011e 00F0A980 		beq	.L793
 4447 0122 BAE7     		b	.L788
 4448              	.LVL343:
 4449              	.L991:
1873:Drivers/STM32F7xx_HAL_Driver/Src/stm32f7xx_hal_uart.c ****     {
 4450              		.loc 1 1873 0
 4451 0124 082A     		cmp	r2, #8
 4452 0126 00F23081 		bhi	.L837
 4453 012a DFE812F0 		tbh	[pc, r2, lsl #1]
 4454              	.L842:
 4455 012e D000     		.2byte	(.L835-.L842)/2
 4456 0130 B400     		.2byte	(.L839-.L842)/2
 4457 0132 CB00     		.2byte	(.L833-.L842)/2
 4458 0134 2E01     		.2byte	(.L837-.L842)/2
 4459 0136 C800     		.2byte	(.L831-.L842)/2
 4460 0138 2E01     		.2byte	(.L837-.L842)/2
 4461 013a 2E01     		.2byte	(.L837-.L842)/2
 4462 013c 2E01     		.2byte	(.L837-.L842)/2
 4463 013e A600     		.2byte	(.L829-.L842)/2
 4464              	.LVL344:
 4465              		.p2align 1
 4466              	.L996:
1868:Drivers/STM32F7xx_HAL_Driver/Src/stm32f7xx_hal_uart.c **** 
 4467              		.loc 1 1868 0
 4468 0140 002A     		cmp	r2, #0
 4469 0142 AAD1     		bne	.L788
 4470              	.LVL345:
1871:Drivers/STM32F7xx_HAL_Driver/Src/stm32f7xx_hal_uart.c ****   {
 4471              		.loc 1 1871 0
 4472 0144 B0F5004F 		cmp	r0, #32768
 4473 0148 00F0A580 		beq	.L839
 4474              	.LVL346:
 4475              	.L840:
1908:Drivers/STM32F7xx_HAL_Driver/Src/stm32f7xx_hal_uart.c ****       break;
 4476              		.loc 1 1908 0
 4477 014c FFF7FEFF 		bl	HAL_RCC_GetPCLK2Freq
 4478              	.LVL347:
 4479              	.L977:
1914:Drivers/STM32F7xx_HAL_Driver/Src/stm32f7xx_hal_uart.c ****       break;
 4480              		.loc 1 1914 0
 4481 0150 D4E90031 		ldrd	r3, r1, [r4]
 4482 0154 00EB5102 		add	r2, r0, r1, lsr #1
 4483 0158 B2FBF1F2 		udiv	r2, r2, r1
 4484 015c 92B2     		uxth	r2, r2
 4485 015e DA60     		str	r2, [r3, #12]
 4486              	.LVL348:
ARM GAS  /tmp/cc6CQ8Vx.s 			page 129


 4487              	.L843:
 4488              	.LBE214:
 4489              	.LBE222:
 332:Drivers/STM32F7xx_HAL_Driver/Src/stm32f7xx_hal_uart.c ****   {
 4490              		.loc 1 332 0
 4491 0160 626A     		ldr	r2, [r4, #36]
 4492 0162 002A     		cmp	r2, #0
 4493 0164 5BD1     		bne	.L992
 4494              	.L845:
 340:Drivers/STM32F7xx_HAL_Driver/Src/stm32f7xx_hal_uart.c ****   CLEAR_BIT(huart->Instance->CR3, (USART_CR3_IREN | USART_CR3_SCEN));
 4495              		.loc 1 340 0
 4496 0166 5A68     		ldr	r2, [r3, #4]
 4497              	.LBB223:
 4498              	.LBB224:
2016:Drivers/STM32F7xx_HAL_Driver/Src/stm32f7xx_hal_uart.c **** 
 4499              		.loc 1 2016 0
 4500 0168 0021     		movs	r1, #0
 4501              	.LBE224:
 4502              	.LBE223:
 340:Drivers/STM32F7xx_HAL_Driver/Src/stm32f7xx_hal_uart.c ****   CLEAR_BIT(huart->Instance->CR3, (USART_CR3_IREN | USART_CR3_SCEN));
 4503              		.loc 1 340 0
 4504 016a 22F49042 		bic	r2, r2, #18432
 4505 016e 5A60     		str	r2, [r3, #4]
 341:Drivers/STM32F7xx_HAL_Driver/Src/stm32f7xx_hal_uart.c **** 
 4506              		.loc 1 341 0
 4507 0170 9A68     		ldr	r2, [r3, #8]
 4508 0172 22F02202 		bic	r2, r2, #34
 4509 0176 9A60     		str	r2, [r3, #8]
 344:Drivers/STM32F7xx_HAL_Driver/Src/stm32f7xx_hal_uart.c **** 
 4510              		.loc 1 344 0
 4511 0178 9A68     		ldr	r2, [r3, #8]
 4512 017a 42F00802 		orr	r2, r2, #8
 4513 017e 9A60     		str	r2, [r3, #8]
 347:Drivers/STM32F7xx_HAL_Driver/Src/stm32f7xx_hal_uart.c **** 
 4514              		.loc 1 347 0
 4515 0180 1A68     		ldr	r2, [r3]
 4516 0182 42F00102 		orr	r2, r2, #1
 4517 0186 1A60     		str	r2, [r3]
 4518              	.LVL349:
 4519              	.LBB237:
 4520              	.LBB235:
2016:Drivers/STM32F7xx_HAL_Driver/Src/stm32f7xx_hal_uart.c **** 
 4521              		.loc 1 2016 0
 4522 0188 E166     		str	r1, [r4, #108]
2019:Drivers/STM32F7xx_HAL_Driver/Src/stm32f7xx_hal_uart.c **** 
 4523              		.loc 1 2019 0
 4524 018a FFF7FEFF 		bl	HAL_GetTick
 4525              	.LVL350:
2022:Drivers/STM32F7xx_HAL_Driver/Src/stm32f7xx_hal_uart.c ****   {
 4526              		.loc 1 2022 0
 4527 018e 2368     		ldr	r3, [r4]
2019:Drivers/STM32F7xx_HAL_Driver/Src/stm32f7xx_hal_uart.c **** 
 4528              		.loc 1 2019 0
 4529 0190 0646     		mov	r6, r0
 4530              	.LVL351:
2022:Drivers/STM32F7xx_HAL_Driver/Src/stm32f7xx_hal_uart.c ****   {
 4531              		.loc 1 2022 0
ARM GAS  /tmp/cc6CQ8Vx.s 			page 130


 4532 0192 1A68     		ldr	r2, [r3]
 4533 0194 1207     		lsls	r2, r2, #28
 4534 0196 47D4     		bmi	.L993
 4535              	.LVL352:
 4536              	.L849:
2033:Drivers/STM32F7xx_HAL_Driver/Src/stm32f7xx_hal_uart.c ****   huart->RxState= HAL_UART_STATE_READY;
 4537              		.loc 1 2033 0
 4538 0198 2022     		movs	r2, #32
2037:Drivers/STM32F7xx_HAL_Driver/Src/stm32f7xx_hal_uart.c **** 
 4539              		.loc 1 2037 0
 4540 019a 0023     		movs	r3, #0
2033:Drivers/STM32F7xx_HAL_Driver/Src/stm32f7xx_hal_uart.c ****   huart->RxState= HAL_UART_STATE_READY;
 4541              		.loc 1 2033 0
 4542 019c 84F86920 		strb	r2, [r4, #105]
 4543              		.loc 1 2039 0
 4544 01a0 1846     		mov	r0, r3
2034:Drivers/STM32F7xx_HAL_Driver/Src/stm32f7xx_hal_uart.c **** 
 4545              		.loc 1 2034 0
 4546 01a2 84F86A20 		strb	r2, [r4, #106]
2037:Drivers/STM32F7xx_HAL_Driver/Src/stm32f7xx_hal_uart.c **** 
 4547              		.loc 1 2037 0
 4548 01a6 84F86830 		strb	r3, [r4, #104]
 4549              	.LBE235:
 4550              	.LBE237:
 351:Drivers/STM32F7xx_HAL_Driver/Src/stm32f7xx_hal_uart.c **** 
 4551              		.loc 1 351 0
 4552 01aa F8BD     		pop	{r3, r4, r5, r6, r7, pc}
 4553              	.LVL353:
 4554              	.L980:
 4555              	.LBB238:
 4556              	.LBB215:
1868:Drivers/STM32F7xx_HAL_Driver/Src/stm32f7xx_hal_uart.c **** 
 4557              		.loc 1 1868 0
 4558 01ac 002A     		cmp	r2, #0
 4559 01ae 7FF474AF 		bne	.L788
 4560              	.LVL354:
1871:Drivers/STM32F7xx_HAL_Driver/Src/stm32f7xx_hal_uart.c ****   {
 4561              		.loc 1 1871 0
 4562 01b2 B0F5004F 		cmp	r0, #32768
 4563 01b6 00F08A80 		beq	.L835
 4564              	.LVL355:
 4565              	.L836:
1905:Drivers/STM32F7xx_HAL_Driver/Src/stm32f7xx_hal_uart.c ****       break;
 4566              		.loc 1 1905 0
 4567 01ba FFF7FEFF 		bl	HAL_RCC_GetPCLK1Freq
 4568              	.LVL356:
 4569 01be C7E7     		b	.L977
 4570              	.LVL357:
 4571              	.L985:
1868:Drivers/STM32F7xx_HAL_Driver/Src/stm32f7xx_hal_uart.c **** 
 4572              		.loc 1 1868 0
 4573 01c0 02F5F832 		add	r2, r2, #126976
 4574 01c4 D2F89020 		ldr	r2, [r2, #144]
 4575 01c8 02F03002 		and	r2, r2, #48
 4576 01cc 102A     		cmp	r2, #16
 4577 01ce 17D0     		beq	.L789
 4578 01d0 ECD9     		bls	.L980
ARM GAS  /tmp/cc6CQ8Vx.s 			page 131


 4579 01d2 202A     		cmp	r2, #32
 4580 01d4 70D1     		bne	.L994
 4581              	.L792:
 4582              	.LVL358:
1871:Drivers/STM32F7xx_HAL_Driver/Src/stm32f7xx_hal_uart.c ****   {
 4583              		.loc 1 1871 0
 4584 01d6 B0F5004F 		cmp	r0, #32768
 4585 01da 73D0     		beq	.L833
 4586              	.LVL359:
 4587              	.L834:
1911:Drivers/STM32F7xx_HAL_Driver/Src/stm32f7xx_hal_uart.c ****       break;
 4588              		.loc 1 1911 0
 4589 01dc 6168     		ldr	r1, [r4, #4]
 4590 01de 5D4A     		ldr	r2, .L997+48
 4591 01e0 02EB5102 		add	r2, r2, r1, lsr #1
 4592 01e4 B2FBF1F2 		udiv	r2, r2, r1
 4593 01e8 92B2     		uxth	r2, r2
 4594 01ea DA60     		str	r2, [r3, #12]
 4595              	.LVL360:
 4596 01ec B8E7     		b	.L843
 4597              	.LVL361:
 4598              	.L987:
1868:Drivers/STM32F7xx_HAL_Driver/Src/stm32f7xx_hal_uart.c **** 
 4599              		.loc 1 1868 0
 4600 01ee 02F5F432 		add	r2, r2, #124928
 4601 01f2 D2F89020 		ldr	r2, [r2, #144]
 4602 01f6 02F44072 		and	r2, r2, #768
 4603 01fa B2F5807F 		cmp	r2, #256
 4604 01fe 31D1     		bne	.L995
 4605              	.L789:
 4606              	.LVL362:
1871:Drivers/STM32F7xx_HAL_Driver/Src/stm32f7xx_hal_uart.c ****   {
 4607              		.loc 1 1871 0
 4608 0200 B0F5004F 		cmp	r0, #32768
 4609 0204 5BD0     		beq	.L831
 4610              	.LVL363:
 4611              	.L832:
1914:Drivers/STM32F7xx_HAL_Driver/Src/stm32f7xx_hal_uart.c ****       break;
 4612              		.loc 1 1914 0
 4613 0206 FFF7FEFF 		bl	HAL_RCC_GetSysClockFreq
 4614              	.LVL364:
 4615 020a A1E7     		b	.L977
 4616              	.LVL365:
 4617              	.L830:
1917:Drivers/STM32F7xx_HAL_Driver/Src/stm32f7xx_hal_uart.c ****       break;
 4618              		.loc 1 1917 0
 4619 020c 6168     		ldr	r1, [r4, #4]
 4620 020e 4A08     		lsrs	r2, r1, #1
 4621 0210 02F50042 		add	r2, r2, #32768
 4622 0214 B2FBF1F2 		udiv	r2, r2, r1
 4623 0218 92B2     		uxth	r2, r2
 4624 021a DA60     		str	r2, [r3, #12]
 4625              	.LVL366:
 4626 021c A0E7     		b	.L843
 4627              	.L992:
 4628              	.LBE215:
 4629              	.LBE238:
ARM GAS  /tmp/cc6CQ8Vx.s 			page 132


 334:Drivers/STM32F7xx_HAL_Driver/Src/stm32f7xx_hal_uart.c ****   }
 4630              		.loc 1 334 0
 4631 021e 2046     		mov	r0, r4
 4632 0220 FFF7FEFF 		bl	UART_AdvFeatureConfig
 4633              	.LVL367:
 4634 0224 2368     		ldr	r3, [r4]
 4635 0226 9EE7     		b	.L845
 4636              	.LVL368:
 4637              	.L993:
 4638              	.LBB239:
 4639              	.LBB236:
 4640              	.LBB225:
 4641              	.LBB226:
1343:Drivers/STM32F7xx_HAL_Driver/Src/stm32f7xx_hal_uart.c ****       {
 4642              		.loc 1 1343 0
 4643 0228 4B4F     		ldr	r7, .L997+52
 4644              	.LVL369:
 4645              	.L846:
1338:Drivers/STM32F7xx_HAL_Driver/Src/stm32f7xx_hal_uart.c ****   {
 4646              		.loc 1 1338 0
 4647 022a DD69     		ldr	r5, [r3, #28]
 4648 022c 15F40015 		ands	r5, r5, #2097152
 4649 0230 B2D1     		bne	.L849
1343:Drivers/STM32F7xx_HAL_Driver/Src/stm32f7xx_hal_uart.c ****       {
 4650              		.loc 1 1343 0
 4651 0232 FFF7FEFF 		bl	HAL_GetTick
 4652              	.LVL370:
 4653 0236 801B     		subs	r0, r0, r6
 4654              	.LBB227:
 4655              	.LBB228:
1346:Drivers/STM32F7xx_HAL_Driver/Src/stm32f7xx_hal_uart.c ****         CLEAR_BIT(huart->Instance->CR3, USART_CR3_EIE);
 4656              		.loc 1 1346 0
 4657 0238 2368     		ldr	r3, [r4]
 4658              	.LBE228:
 4659              	.LBE227:
1343:Drivers/STM32F7xx_HAL_Driver/Src/stm32f7xx_hal_uart.c ****       {
 4660              		.loc 1 1343 0
 4661 023a B842     		cmp	r0, r7
 4662 023c F5D9     		bls	.L846
 4663              	.LVL371:
 4664              	.LBB231:
 4665              	.LBB229:
1346:Drivers/STM32F7xx_HAL_Driver/Src/stm32f7xx_hal_uart.c ****         CLEAR_BIT(huart->Instance->CR3, USART_CR3_EIE);
 4666              		.loc 1 1346 0
 4667 023e 1A68     		ldr	r2, [r3]
1349:Drivers/STM32F7xx_HAL_Driver/Src/stm32f7xx_hal_uart.c ****         huart->RxState = HAL_UART_STATE_READY;
 4668              		.loc 1 1349 0
 4669 0240 2021     		movs	r1, #32
 4670              	.LBE229:
 4671              	.LBE231:
 4672              	.LBE226:
 4673              	.LBE225:
2028:Drivers/STM32F7xx_HAL_Driver/Src/stm32f7xx_hal_uart.c ****     }
 4674              		.loc 1 2028 0
 4675 0242 0320     		movs	r0, #3
 4676              	.LBB234:
 4677              	.LBB233:
ARM GAS  /tmp/cc6CQ8Vx.s 			page 133


 4678              	.LBB232:
 4679              	.LBB230:
1346:Drivers/STM32F7xx_HAL_Driver/Src/stm32f7xx_hal_uart.c ****         CLEAR_BIT(huart->Instance->CR3, USART_CR3_EIE);
 4680              		.loc 1 1346 0
 4681 0244 22F4D072 		bic	r2, r2, #416
 4682 0248 1A60     		str	r2, [r3]
1347:Drivers/STM32F7xx_HAL_Driver/Src/stm32f7xx_hal_uart.c **** 
 4683              		.loc 1 1347 0
 4684 024a 9A68     		ldr	r2, [r3, #8]
 4685 024c 22F00102 		bic	r2, r2, #1
 4686 0250 9A60     		str	r2, [r3, #8]
1349:Drivers/STM32F7xx_HAL_Driver/Src/stm32f7xx_hal_uart.c ****         huart->RxState = HAL_UART_STATE_READY;
 4687              		.loc 1 1349 0
 4688 0252 84F86910 		strb	r1, [r4, #105]
1353:Drivers/STM32F7xx_HAL_Driver/Src/stm32f7xx_hal_uart.c ****         return HAL_TIMEOUT;
 4689              		.loc 1 1353 0
 4690 0256 84F86850 		strb	r5, [r4, #104]
 4691              	.LVL372:
1350:Drivers/STM32F7xx_HAL_Driver/Src/stm32f7xx_hal_uart.c **** 
 4692              		.loc 1 1350 0
 4693 025a 84F86A10 		strb	r1, [r4, #106]
 4694              	.LBE230:
 4695              	.LBE232:
 4696              	.LBE233:
 4697              	.LBE234:
 4698              	.LBE236:
 4699              	.LBE239:
 351:Drivers/STM32F7xx_HAL_Driver/Src/stm32f7xx_hal_uart.c **** 
 4700              		.loc 1 351 0
 4701 025e F8BD     		pop	{r3, r4, r5, r6, r7, pc}
 4702              	.LVL373:
 4703              	.L981:
 4704              	.LCFI51:
 4705              		.cfi_def_cfa_offset 0
 4706              		.cfi_restore 3
 4707              		.cfi_restore 4
 4708              		.cfi_restore 5
 4709              		.cfi_restore 6
 4710              		.cfi_restore 7
 4711              		.cfi_restore 14
 309:Drivers/STM32F7xx_HAL_Driver/Src/stm32f7xx_hal_uart.c ****   }
 4712              		.loc 1 309 0
 4713 0260 0120     		movs	r0, #1
 4714              	.LVL374:
 351:Drivers/STM32F7xx_HAL_Driver/Src/stm32f7xx_hal_uart.c **** 
 4715              		.loc 1 351 0
 4716 0262 7047     		bx	lr
 4717              	.LVL375:
 4718              	.L995:
 4719              	.LCFI52:
 4720              		.cfi_def_cfa_offset 24
 4721              		.cfi_offset 3, -24
 4722              		.cfi_offset 4, -20
 4723              		.cfi_offset 5, -16
 4724              		.cfi_offset 6, -12
 4725              		.cfi_offset 7, -8
 4726              		.cfi_offset 14, -4
ARM GAS  /tmp/cc6CQ8Vx.s 			page 134


 4727              	.LBB240:
 4728              	.LBB216:
1868:Drivers/STM32F7xx_HAL_Driver/Src/stm32f7xx_hal_uart.c **** 
 4729              		.loc 1 1868 0
 4730 0264 A2D9     		bls	.L980
 4731 0266 B2F5007F 		cmp	r2, #512
 4732 026a B4D0     		beq	.L792
 4733 026c B2F5407F 		cmp	r2, #768
 4734 0270 7FF413AF 		bne	.L788
 4735              	.L793:
 4736              	.LVL376:
1871:Drivers/STM32F7xx_HAL_Driver/Src/stm32f7xx_hal_uart.c ****   {
 4737              		.loc 1 1871 0
 4738 0274 B0F5004F 		cmp	r0, #32768
 4739 0278 C8D1     		bne	.L830
 4740              	.LVL377:
 4741              	.L829:
1888:Drivers/STM32F7xx_HAL_Driver/Src/stm32f7xx_hal_uart.c ****       break;
 4742              		.loc 1 1888 0
 4743 027a 6168     		ldr	r1, [r4, #4]
 4744 027c 4A08     		lsrs	r2, r1, #1
 4745 027e 02F58032 		add	r2, r2, #65536
 4746              	.L978:
 4747 0282 B2FBF1F2 		udiv	r2, r2, r1
 4748              	.LVL378:
1896:Drivers/STM32F7xx_HAL_Driver/Src/stm32f7xx_hal_uart.c ****     brrtemp |= (uint16_t)((usartdiv & (uint16_t)0x000FU) >> 1U);
 4749              		.loc 1 1896 0
 4750 0286 22F00F01 		bic	r1, r2, #15
1897:Drivers/STM32F7xx_HAL_Driver/Src/stm32f7xx_hal_uart.c ****     huart->Instance->BRR = brrtemp;
 4751              		.loc 1 1897 0
 4752 028a C2F34202 		ubfx	r2, r2, #1, #3
 4753              	.LVL379:
1896:Drivers/STM32F7xx_HAL_Driver/Src/stm32f7xx_hal_uart.c ****     brrtemp |= (uint16_t)((usartdiv & (uint16_t)0x000FU) >> 1U);
 4754              		.loc 1 1896 0
 4755 028e 89B2     		uxth	r1, r1
 4756              	.LVL380:
1898:Drivers/STM32F7xx_HAL_Driver/Src/stm32f7xx_hal_uart.c ****   }
 4757              		.loc 1 1898 0
 4758 0290 0A43     		orrs	r2, r2, r1
 4759 0292 DA60     		str	r2, [r3, #12]
 4760              	.LVL381:
 4761 0294 64E7     		b	.L843
 4762              	.LVL382:
 4763              	.L839:
1879:Drivers/STM32F7xx_HAL_Driver/Src/stm32f7xx_hal_uart.c ****       break;
 4764              		.loc 1 1879 0
 4765 0296 FFF7FEFF 		bl	HAL_RCC_GetPCLK2Freq
 4766              	.LVL383:
 4767              	.L976:
1898:Drivers/STM32F7xx_HAL_Driver/Src/stm32f7xx_hal_uart.c ****   }
 4768              		.loc 1 1898 0
 4769 029a D4E90031 		ldrd	r3, r1, [r4]
1885:Drivers/STM32F7xx_HAL_Driver/Src/stm32f7xx_hal_uart.c ****       break;
 4770              		.loc 1 1885 0
 4771 029e 4A08     		lsrs	r2, r1, #1
 4772 02a0 02EB4000 		add	r0, r2, r0, lsl #1
 4773 02a4 B0FBF1F0 		udiv	r0, r0, r1
ARM GAS  /tmp/cc6CQ8Vx.s 			page 135


 4774              	.LVL384:
1896:Drivers/STM32F7xx_HAL_Driver/Src/stm32f7xx_hal_uart.c ****     brrtemp |= (uint16_t)((usartdiv & (uint16_t)0x000FU) >> 1U);
 4775              		.loc 1 1896 0
 4776 02a8 20F00F02 		bic	r2, r0, #15
1897:Drivers/STM32F7xx_HAL_Driver/Src/stm32f7xx_hal_uart.c ****     huart->Instance->BRR = brrtemp;
 4777              		.loc 1 1897 0
 4778 02ac C0F34200 		ubfx	r0, r0, #1, #3
 4779              	.LVL385:
1896:Drivers/STM32F7xx_HAL_Driver/Src/stm32f7xx_hal_uart.c ****     brrtemp |= (uint16_t)((usartdiv & (uint16_t)0x000FU) >> 1U);
 4780              		.loc 1 1896 0
 4781 02b0 92B2     		uxth	r2, r2
 4782              	.LVL386:
1898:Drivers/STM32F7xx_HAL_Driver/Src/stm32f7xx_hal_uart.c ****   }
 4783              		.loc 1 1898 0
 4784 02b2 1043     		orrs	r0, r0, r2
 4785 02b4 D860     		str	r0, [r3, #12]
 4786              	.LVL387:
 4787 02b6 53E7     		b	.L843
 4788              	.LVL388:
 4789              	.L994:
1868:Drivers/STM32F7xx_HAL_Driver/Src/stm32f7xx_hal_uart.c **** 
 4790              		.loc 1 1868 0
 4791 02b8 302A     		cmp	r2, #48
 4792 02ba DBD0     		beq	.L793
 4793 02bc EDE6     		b	.L788
 4794              	.LVL389:
 4795              	.L831:
1885:Drivers/STM32F7xx_HAL_Driver/Src/stm32f7xx_hal_uart.c ****       break;
 4796              		.loc 1 1885 0
 4797 02be FFF7FEFF 		bl	HAL_RCC_GetSysClockFreq
 4798              	.LVL390:
 4799 02c2 EAE7     		b	.L976
 4800              	.LVL391:
 4801              	.L833:
1882:Drivers/STM32F7xx_HAL_Driver/Src/stm32f7xx_hal_uart.c ****       break;
 4802              		.loc 1 1882 0
 4803 02c4 6168     		ldr	r1, [r4, #4]
 4804 02c6 254A     		ldr	r2, .L997+56
 4805 02c8 02EB5102 		add	r2, r2, r1, lsr #1
 4806 02cc D9E7     		b	.L978
 4807              	.L835:
1876:Drivers/STM32F7xx_HAL_Driver/Src/stm32f7xx_hal_uart.c ****       break;
 4808              		.loc 1 1876 0
 4809 02ce FFF7FEFF 		bl	HAL_RCC_GetPCLK1Freq
 4810              	.LVL392:
 4811 02d2 E2E7     		b	.L976
 4812              	.LVL393:
 4813              	.L990:
1868:Drivers/STM32F7xx_HAL_Driver/Src/stm32f7xx_hal_uart.c **** 
 4814              		.loc 1 1868 0
 4815 02d4 02F5DE32 		add	r2, r2, #113664
 4816 02d8 D2F89020 		ldr	r2, [r2, #144]
 4817 02dc 02F44042 		and	r2, r2, #49152
 4818 02e0 B2F5804F 		cmp	r2, #16384
 4819 02e4 8CD0     		beq	.L789
 4820 02e6 7FF661AF 		bls	.L980
 4821 02ea B2F5004F 		cmp	r2, #32768
ARM GAS  /tmp/cc6CQ8Vx.s 			page 136


 4822 02ee 3FF472AF 		beq	.L792
 4823 02f2 B2F5404F 		cmp	r2, #49152
 4824 02f6 BDD0     		beq	.L793
 4825 02f8 CFE6     		b	.L788
 4826              	.L988:
 4827 02fa 02F59232 		add	r2, r2, #74752
 4828 02fe D2F89020 		ldr	r2, [r2, #144]
 4829 0302 02F44062 		and	r2, r2, #3072
 4830 0306 B2F5806F 		cmp	r2, #1024
 4831 030a 3FF479AF 		beq	.L789
 4832 030e 7FF617AF 		bls	.L996
 4833 0312 B2F5006F 		cmp	r2, #2048
 4834 0316 3FF45EAF 		beq	.L792
 4835 031a B2F5406F 		cmp	r2, #3072
 4836 031e A9D0     		beq	.L793
 4837 0320 BBE6     		b	.L788
 4838              	.L998:
 4839 0322 00BF     		.align	2
 4840              	.L997:
 4841 0324 F369FFEF 		.word	-268473869
 4842 0328 00100140 		.word	1073811456
 4843 032c 00440040 		.word	1073759232
 4844 0330 00480040 		.word	1073760256
 4845 0334 004C0040 		.word	1073761280
 4846 0338 00500040 		.word	1073762304
 4847 033c 00140140 		.word	1073812480
 4848 0340 00780040 		.word	1073772544
 4849 0344 007C0040 		.word	1073773568
 4850 0348 00380240 		.word	1073887232
 4851 034c 00000000 		.word	.LANCHOR0
 4852 0350 00000000 		.word	.LANCHOR1
 4853 0354 0024F400 		.word	16000000
 4854 0358 FEFFFF01 		.word	33554430
 4855 035c 0048E801 		.word	32000000
 4856              	.L989:
 4857 0360 02F5E032 		add	r2, r2, #114688
 4858 0364 D2F89020 		ldr	r2, [r2, #144]
 4859 0368 02F44052 		and	r2, r2, #12288
 4860 036c B2F5805F 		cmp	r2, #4096
 4861 0370 3FF446AF 		beq	.L789
 4862 0374 7FF61AAF 		bls	.L980
 4863 0378 B2F5005F 		cmp	r2, #8192
 4864 037c 3FF42BAF 		beq	.L792
 4865 0380 B2F5405F 		cmp	r2, #12288
 4866 0384 3FF476AF 		beq	.L793
 4867 0388 87E6     		b	.L788
 4868              	.LVL394:
 4869              	.L837:
1898:Drivers/STM32F7xx_HAL_Driver/Src/stm32f7xx_hal_uart.c ****   }
 4870              		.loc 1 1898 0
 4871 038a 0022     		movs	r2, #0
 4872              	.LBE216:
 4873              	.LBE240:
 329:Drivers/STM32F7xx_HAL_Driver/Src/stm32f7xx_hal_uart.c ****   }
 4874              		.loc 1 329 0
 4875 038c 0120     		movs	r0, #1
 4876              	.LBB241:
ARM GAS  /tmp/cc6CQ8Vx.s 			page 137


 4877              	.LBB217:
1898:Drivers/STM32F7xx_HAL_Driver/Src/stm32f7xx_hal_uart.c ****   }
 4878              		.loc 1 1898 0
 4879 038e DA60     		str	r2, [r3, #12]
 4880              	.LVL395:
 4881              	.LBE217:
 4882              	.LBE241:
 351:Drivers/STM32F7xx_HAL_Driver/Src/stm32f7xx_hal_uart.c **** 
 4883              		.loc 1 351 0
 4884 0390 F8BD     		pop	{r3, r4, r5, r6, r7, pc}
 4885              		.cfi_endproc
 4886              	.LFE139:
 4888 0392 00BF     		.section	.text.HAL_LIN_Init,"ax",%progbits
 4889              		.align	1
 4890              		.p2align 2,,3
 4891              		.global	HAL_LIN_Init
 4892              		.syntax unified
 4893              		.thumb
 4894              		.thumb_func
 4895              		.fpu fpv4-sp-d16
 4897              	HAL_LIN_Init:
 4898              	.LFB140:
 365:Drivers/STM32F7xx_HAL_Driver/Src/stm32f7xx_hal_uart.c ****   /* Check the UART handle allocation */
 4899              		.loc 1 365 0
 4900              		.cfi_startproc
 4901              		@ args = 0, pretend = 0, frame = 0
 4902              		@ frame_needed = 0, uses_anonymous_args = 0
 4903              	.LVL396:
 367:Drivers/STM32F7xx_HAL_Driver/Src/stm32f7xx_hal_uart.c ****   {
 4904              		.loc 1 367 0
 4905 0000 0028     		cmp	r0, #0
 4906 0002 00F03281 		beq	.L1200
 365:Drivers/STM32F7xx_HAL_Driver/Src/stm32f7xx_hal_uart.c ****   /* Check the UART handle allocation */
 4907              		.loc 1 365 0
 4908 0006 F8B5     		push	{r3, r4, r5, r6, r7, lr}
 4909              	.LCFI53:
 4910              		.cfi_def_cfa_offset 24
 4911              		.cfi_offset 3, -24
 4912              		.cfi_offset 4, -20
 4913              		.cfi_offset 5, -16
 4914              		.cfi_offset 6, -12
 4915              		.cfi_offset 7, -8
 4916              		.cfi_offset 14, -4
 377:Drivers/STM32F7xx_HAL_Driver/Src/stm32f7xx_hal_uart.c ****   {
 4917              		.loc 1 377 0
 4918 0008 90F86930 		ldrb	r3, [r0, #105]	@ zero_extendqisi2
 4919 000c 0446     		mov	r4, r0
 4920 000e 0D46     		mov	r5, r1
 4921 0010 03F0FF02 		and	r2, r3, #255
 4922 0014 002B     		cmp	r3, #0
 4923 0016 47D0     		beq	.L1201
 4924              	.LVL397:
 4925              	.L1002:
 389:Drivers/STM32F7xx_HAL_Driver/Src/stm32f7xx_hal_uart.c **** 
 4926              		.loc 1 389 0
 4927 0018 2368     		ldr	r3, [r4]
 386:Drivers/STM32F7xx_HAL_Driver/Src/stm32f7xx_hal_uart.c **** 
ARM GAS  /tmp/cc6CQ8Vx.s 			page 138


 4928              		.loc 1 386 0
 4929 001a 2421     		movs	r1, #36
 4930              	.LBB250:
 4931              	.LBB251:
1850:Drivers/STM32F7xx_HAL_Driver/Src/stm32f7xx_hal_uart.c ****   MODIFY_REG(huart->Instance->CR1, UART_CR1_FIELDS, tmpreg);
 4932              		.loc 1 1850 0
 4933 001c 2069     		ldr	r0, [r4, #16]
 4934              	.LBE251:
 4935              	.LBE250:
 386:Drivers/STM32F7xx_HAL_Driver/Src/stm32f7xx_hal_uart.c **** 
 4936              		.loc 1 386 0
 4937 001e 84F86910 		strb	r1, [r4, #105]
 4938              	.LBB260:
 4939              	.LBB252:
1850:Drivers/STM32F7xx_HAL_Driver/Src/stm32f7xx_hal_uart.c ****   MODIFY_REG(huart->Instance->CR1, UART_CR1_FIELDS, tmpreg);
 4940              		.loc 1 1850 0
 4941 0022 A268     		ldr	r2, [r4, #8]
 4942              	.LBE252:
 4943              	.LBE260:
 389:Drivers/STM32F7xx_HAL_Driver/Src/stm32f7xx_hal_uart.c **** 
 4944              		.loc 1 389 0
 4945 0024 1968     		ldr	r1, [r3]
 4946              	.LBB261:
 4947              	.LBB253:
1850:Drivers/STM32F7xx_HAL_Driver/Src/stm32f7xx_hal_uart.c ****   MODIFY_REG(huart->Instance->CR1, UART_CR1_FIELDS, tmpreg);
 4948              		.loc 1 1850 0
 4949 0026 0243     		orrs	r2, r2, r0
 4950 0028 6069     		ldr	r0, [r4, #20]
 4951              	.LBE253:
 4952              	.LBE261:
 389:Drivers/STM32F7xx_HAL_Driver/Src/stm32f7xx_hal_uart.c **** 
 4953              		.loc 1 389 0
 4954 002a 21F00101 		bic	r1, r1, #1
 4955              	.LBB262:
 4956              	.LBB254:
1851:Drivers/STM32F7xx_HAL_Driver/Src/stm32f7xx_hal_uart.c **** 
 4957              		.loc 1 1851 0
 4958 002e B54E     		ldr	r6, .L1216
1850:Drivers/STM32F7xx_HAL_Driver/Src/stm32f7xx_hal_uart.c ****   MODIFY_REG(huart->Instance->CR1, UART_CR1_FIELDS, tmpreg);
 4959              		.loc 1 1850 0
 4960 0030 0243     		orrs	r2, r2, r0
 4961 0032 E069     		ldr	r0, [r4, #28]
 4962              	.LBE254:
 4963              	.LBE262:
 389:Drivers/STM32F7xx_HAL_Driver/Src/stm32f7xx_hal_uart.c **** 
 4964              		.loc 1 389 0
 4965 0034 1960     		str	r1, [r3]
 4966              	.LVL398:
 4967              	.LBB263:
 4968              	.LBB255:
1851:Drivers/STM32F7xx_HAL_Driver/Src/stm32f7xx_hal_uart.c **** 
 4969              		.loc 1 1851 0
 4970 0036 1968     		ldr	r1, [r3]
1850:Drivers/STM32F7xx_HAL_Driver/Src/stm32f7xx_hal_uart.c ****   MODIFY_REG(huart->Instance->CR1, UART_CR1_FIELDS, tmpreg);
 4971              		.loc 1 1850 0
 4972 0038 0243     		orrs	r2, r2, r0
1856:Drivers/STM32F7xx_HAL_Driver/Src/stm32f7xx_hal_uart.c **** 
ARM GAS  /tmp/cc6CQ8Vx.s 			page 139


 4973              		.loc 1 1856 0
 4974 003a E768     		ldr	r7, [r4, #12]
1851:Drivers/STM32F7xx_HAL_Driver/Src/stm32f7xx_hal_uart.c **** 
 4975              		.loc 1 1851 0
 4976 003c 0E40     		ands	r6, r6, r1
1864:Drivers/STM32F7xx_HAL_Driver/Src/stm32f7xx_hal_uart.c ****   MODIFY_REG(huart->Instance->CR3, (USART_CR3_RTSE | USART_CR3_CTSE | USART_CR3_ONEBIT), tmpreg);
 4977              		.loc 1 1864 0
 4978 003e A169     		ldr	r1, [r4, #24]
1851:Drivers/STM32F7xx_HAL_Driver/Src/stm32f7xx_hal_uart.c **** 
 4979              		.loc 1 1851 0
 4980 0040 3243     		orrs	r2, r2, r6
1864:Drivers/STM32F7xx_HAL_Driver/Src/stm32f7xx_hal_uart.c ****   MODIFY_REG(huart->Instance->CR3, (USART_CR3_RTSE | USART_CR3_CTSE | USART_CR3_ONEBIT), tmpreg);
 4981              		.loc 1 1864 0
 4982 0042 266A     		ldr	r6, [r4, #32]
1851:Drivers/STM32F7xx_HAL_Driver/Src/stm32f7xx_hal_uart.c **** 
 4983              		.loc 1 1851 0
 4984 0044 1A60     		str	r2, [r3]
1864:Drivers/STM32F7xx_HAL_Driver/Src/stm32f7xx_hal_uart.c ****   MODIFY_REG(huart->Instance->CR3, (USART_CR3_RTSE | USART_CR3_CTSE | USART_CR3_ONEBIT), tmpreg);
 4985              		.loc 1 1864 0
 4986 0046 41EA0602 		orr	r2, r1, r6
1856:Drivers/STM32F7xx_HAL_Driver/Src/stm32f7xx_hal_uart.c **** 
 4987              		.loc 1 1856 0
 4988 004a 5968     		ldr	r1, [r3, #4]
1868:Drivers/STM32F7xx_HAL_Driver/Src/stm32f7xx_hal_uart.c **** 
 4989              		.loc 1 1868 0
 4990 004c AE4E     		ldr	r6, .L1216+4
1856:Drivers/STM32F7xx_HAL_Driver/Src/stm32f7xx_hal_uart.c **** 
 4991              		.loc 1 1856 0
 4992 004e 21F44051 		bic	r1, r1, #12288
1868:Drivers/STM32F7xx_HAL_Driver/Src/stm32f7xx_hal_uart.c **** 
 4993              		.loc 1 1868 0
 4994 0052 B342     		cmp	r3, r6
1856:Drivers/STM32F7xx_HAL_Driver/Src/stm32f7xx_hal_uart.c **** 
 4995              		.loc 1 1856 0
 4996 0054 41EA0701 		orr	r1, r1, r7
 4997 0058 5960     		str	r1, [r3, #4]
 4998              	.LVL399:
1865:Drivers/STM32F7xx_HAL_Driver/Src/stm32f7xx_hal_uart.c **** 
 4999              		.loc 1 1865 0
 5000 005a 9968     		ldr	r1, [r3, #8]
 5001 005c 21F43061 		bic	r1, r1, #2816
 5002 0060 42EA0102 		orr	r2, r2, r1
 5003 0064 9A60     		str	r2, [r3, #8]
1868:Drivers/STM32F7xx_HAL_Driver/Src/stm32f7xx_hal_uart.c **** 
 5004              		.loc 1 1868 0
 5005 0066 24D0     		beq	.L1202
 5006 0068 A84A     		ldr	r2, .L1216+8
 5007 006a 9342     		cmp	r3, r2
 5008 006c 42D0     		beq	.L1203
 5009 006e A84A     		ldr	r2, .L1216+12
 5010 0070 9342     		cmp	r3, r2
 5011 0072 00F0AA80 		beq	.L1204
 5012 0076 A74A     		ldr	r2, .L1216+16
 5013 0078 9342     		cmp	r3, r2
 5014 007a 44D0     		beq	.L1205
 5015 007c A64A     		ldr	r2, .L1216+20
 5016 007e 9342     		cmp	r3, r2
ARM GAS  /tmp/cc6CQ8Vx.s 			page 140


 5017 0080 00F0BA80 		beq	.L1206
 5018 0084 A54A     		ldr	r2, .L1216+24
 5019 0086 9342     		cmp	r3, r2
 5020 0088 00F05A81 		beq	.L1207
 5021 008c A44A     		ldr	r2, .L1216+28
 5022 008e 9342     		cmp	r3, r2
 5023 0090 00F06A81 		beq	.L1208
 5024 0094 A34A     		ldr	r2, .L1216+32
 5025 0096 9342     		cmp	r3, r2
 5026 0098 00F02181 		beq	.L1209
 5027              	.L1007:
1871:Drivers/STM32F7xx_HAL_Driver/Src/stm32f7xx_hal_uart.c ****   {
 5028              		.loc 1 1871 0
 5029 009c B0F5004F 		cmp	r0, #32768
 5030 00a0 00F07781 		beq	.L1056
 5031              	.LVL400:
 5032              	.L1069:
 5033              	.LBE255:
 5034              	.LBE263:
 394:Drivers/STM32F7xx_HAL_Driver/Src/stm32f7xx_hal_uart.c ****   }
 5035              		.loc 1 394 0
 5036 00a4 0120     		movs	r0, #1
 419:Drivers/STM32F7xx_HAL_Driver/Src/stm32f7xx_hal_uart.c **** 
 5037              		.loc 1 419 0
 5038 00a6 F8BD     		pop	{r3, r4, r5, r6, r7, pc}
 5039              	.LVL401:
 5040              	.L1201:
 380:Drivers/STM32F7xx_HAL_Driver/Src/stm32f7xx_hal_uart.c **** 
 5041              		.loc 1 380 0
 5042 00a8 80F86820 		strb	r2, [r0, #104]
 383:Drivers/STM32F7xx_HAL_Driver/Src/stm32f7xx_hal_uart.c ****   }
 5043              		.loc 1 383 0
 5044 00ac FFF7FEFF 		bl	HAL_UART_MspInit
 5045              	.LVL402:
 5046 00b0 B2E7     		b	.L1002
 5047              	.LVL403:
 5048              	.L1202:
 5049              	.LBB264:
 5050              	.LBB256:
1868:Drivers/STM32F7xx_HAL_Driver/Src/stm32f7xx_hal_uart.c **** 
 5051              		.loc 1 1868 0
 5052 00b2 9D4A     		ldr	r2, .L1216+36
 5053 00b4 9D49     		ldr	r1, .L1216+40
 5054 00b6 D2F89020 		ldr	r2, [r2, #144]
 5055 00ba 02F00302 		and	r2, r2, #3
 5056 00be 8A5C     		ldrb	r2, [r1, r2]	@ zero_extendqisi2
 5057              	.L1004:
 5058              	.LVL404:
1871:Drivers/STM32F7xx_HAL_Driver/Src/stm32f7xx_hal_uart.c ****   {
 5059              		.loc 1 1871 0
 5060 00c0 B0F5004F 		cmp	r0, #32768
 5061 00c4 2ED0     		beq	.L1210
1902:Drivers/STM32F7xx_HAL_Driver/Src/stm32f7xx_hal_uart.c ****     {
 5062              		.loc 1 1902 0
 5063 00c6 082A     		cmp	r2, #8
 5064 00c8 ECD8     		bhi	.L1069
 5065 00ca 01A1     		adr	r1, .L1063
ARM GAS  /tmp/cc6CQ8Vx.s 			page 141


 5066 00cc 51F822F0 		ldr	pc, [r1, r2, lsl #2]
 5067              		.p2align 2
 5068              	.L1063:
 5069 00d0 C5010000 		.word	.L1055+1
 5070 00d4 4D010000 		.word	.L1059+1
 5071 00d8 E7010000 		.word	.L1053+1
 5072 00dc A5000000 		.word	.L1069+1
 5073 00e0 11020000 		.word	.L1051+1
 5074 00e4 A5000000 		.word	.L1069+1
 5075 00e8 A5000000 		.word	.L1069+1
 5076 00ec A5000000 		.word	.L1069+1
 5077 00f0 17020000 		.word	.L1049+1
 5078              	.LVL405:
 5079              		.p2align 1
 5080              	.L1203:
1868:Drivers/STM32F7xx_HAL_Driver/Src/stm32f7xx_hal_uart.c **** 
 5081              		.loc 1 1868 0
 5082 00f4 02F5FA32 		add	r2, r2, #128000
 5083 00f8 8D49     		ldr	r1, .L1216+44
 5084 00fa D2F89020 		ldr	r2, [r2, #144]
 5085 00fe 02F00C02 		and	r2, r2, #12
 5086 0102 8A5C     		ldrb	r2, [r1, r2]	@ zero_extendqisi2
 5087 0104 DCE7     		b	.L1004
 5088              	.L1205:
 5089 0106 02F5F632 		add	r2, r2, #125952
 5090 010a D2F89020 		ldr	r2, [r2, #144]
 5091 010e 02F0C002 		and	r2, r2, #192
 5092 0112 402A     		cmp	r2, #64
 5093 0114 79D0     		beq	.L1008
 5094 0116 4ED9     		bls	.L1199
 5095 0118 802A     		cmp	r2, #128
 5096 011a 61D0     		beq	.L1011
 5097 011c C02A     		cmp	r2, #192
 5098 011e 00F0AE80 		beq	.L1012
 5099 0122 BBE7     		b	.L1007
 5100              	.LVL406:
 5101              	.L1210:
1873:Drivers/STM32F7xx_HAL_Driver/Src/stm32f7xx_hal_uart.c ****     {
 5102              		.loc 1 1873 0
 5103 0124 082A     		cmp	r2, #8
 5104 0126 00F23481 		bhi	.L1056
 5105 012a DFE812F0 		tbh	[pc, r2, lsl #1]
 5106              	.L1061:
 5107 012e D500     		.2byte	(.L1054-.L1061)/2
 5108 0130 B900     		.2byte	(.L1058-.L1061)/2
 5109 0132 D000     		.2byte	(.L1052-.L1061)/2
 5110 0134 3201     		.2byte	(.L1056-.L1061)/2
 5111 0136 CD00     		.2byte	(.L1050-.L1061)/2
 5112 0138 3201     		.2byte	(.L1056-.L1061)/2
 5113 013a 3201     		.2byte	(.L1056-.L1061)/2
 5114 013c 3201     		.2byte	(.L1056-.L1061)/2
 5115 013e AB00     		.2byte	(.L1048-.L1061)/2
 5116              	.LVL407:
 5117              		.p2align 1
 5118              	.L1215:
1868:Drivers/STM32F7xx_HAL_Driver/Src/stm32f7xx_hal_uart.c **** 
 5119              		.loc 1 1868 0
ARM GAS  /tmp/cc6CQ8Vx.s 			page 142


 5120 0140 002A     		cmp	r2, #0
 5121 0142 ABD1     		bne	.L1007
 5122              	.LVL408:
1871:Drivers/STM32F7xx_HAL_Driver/Src/stm32f7xx_hal_uart.c ****   {
 5123              		.loc 1 1871 0
 5124 0144 B0F5004F 		cmp	r0, #32768
 5125 0148 00F0AA80 		beq	.L1058
 5126              	.LVL409:
 5127              	.L1059:
1908:Drivers/STM32F7xx_HAL_Driver/Src/stm32f7xx_hal_uart.c ****       break;
 5128              		.loc 1 1908 0
 5129 014c FFF7FEFF 		bl	HAL_RCC_GetPCLK2Freq
 5130              	.LVL410:
 5131              	.L1196:
1914:Drivers/STM32F7xx_HAL_Driver/Src/stm32f7xx_hal_uart.c ****       break;
 5132              		.loc 1 1914 0
 5133 0150 D4E90031 		ldrd	r3, r1, [r4]
 5134 0154 00EB5102 		add	r2, r0, r1, lsr #1
 5135 0158 B2FBF1F2 		udiv	r2, r2, r1
 5136 015c 92B2     		uxth	r2, r2
 5137 015e DA60     		str	r2, [r3, #12]
 5138              	.LVL411:
 5139              	.L1062:
 5140              	.LBE256:
 5141              	.LBE264:
 397:Drivers/STM32F7xx_HAL_Driver/Src/stm32f7xx_hal_uart.c ****   {
 5142              		.loc 1 397 0
 5143 0160 626A     		ldr	r2, [r4, #36]
 5144 0162 002A     		cmp	r2, #0
 5145 0164 60D1     		bne	.L1211
 5146              	.L1064:
 405:Drivers/STM32F7xx_HAL_Driver/Src/stm32f7xx_hal_uart.c ****   CLEAR_BIT(huart->Instance->CR3, (USART_CR3_HDSEL | USART_CR3_IREN | USART_CR3_SCEN));
 5147              		.loc 1 405 0
 5148 0166 5A68     		ldr	r2, [r3, #4]
 5149              	.LBB265:
 5150              	.LBB266:
2016:Drivers/STM32F7xx_HAL_Driver/Src/stm32f7xx_hal_uart.c **** 
 5151              		.loc 1 2016 0
 5152 0168 0020     		movs	r0, #0
 5153              	.LBE266:
 5154              	.LBE265:
 405:Drivers/STM32F7xx_HAL_Driver/Src/stm32f7xx_hal_uart.c ****   CLEAR_BIT(huart->Instance->CR3, (USART_CR3_HDSEL | USART_CR3_IREN | USART_CR3_SCEN));
 5155              		.loc 1 405 0
 5156 016a 22F40062 		bic	r2, r2, #2048
 5157 016e 5A60     		str	r2, [r3, #4]
 406:Drivers/STM32F7xx_HAL_Driver/Src/stm32f7xx_hal_uart.c **** 
 5158              		.loc 1 406 0
 5159 0170 9A68     		ldr	r2, [r3, #8]
 5160 0172 22F02A02 		bic	r2, r2, #42
 5161 0176 9A60     		str	r2, [r3, #8]
 409:Drivers/STM32F7xx_HAL_Driver/Src/stm32f7xx_hal_uart.c **** 
 5162              		.loc 1 409 0
 5163 0178 5A68     		ldr	r2, [r3, #4]
 5164 017a 42F48042 		orr	r2, r2, #16384
 5165 017e 5A60     		str	r2, [r3, #4]
 412:Drivers/STM32F7xx_HAL_Driver/Src/stm32f7xx_hal_uart.c **** 
 5166              		.loc 1 412 0
ARM GAS  /tmp/cc6CQ8Vx.s 			page 143


 5167 0180 5968     		ldr	r1, [r3, #4]
 5168 0182 21F02001 		bic	r1, r1, #32
 5169 0186 0D43     		orrs	r5, r5, r1
 5170              	.LVL412:
 5171 0188 5D60     		str	r5, [r3, #4]
 415:Drivers/STM32F7xx_HAL_Driver/Src/stm32f7xx_hal_uart.c **** 
 5172              		.loc 1 415 0
 5173 018a 1A68     		ldr	r2, [r3]
 5174 018c 42F00102 		orr	r2, r2, #1
 5175 0190 1A60     		str	r2, [r3]
 5176              	.LVL413:
 5177              	.LBB279:
 5178              	.LBB277:
2016:Drivers/STM32F7xx_HAL_Driver/Src/stm32f7xx_hal_uart.c **** 
 5179              		.loc 1 2016 0
 5180 0192 E066     		str	r0, [r4, #108]
2019:Drivers/STM32F7xx_HAL_Driver/Src/stm32f7xx_hal_uart.c **** 
 5181              		.loc 1 2019 0
 5182 0194 FFF7FEFF 		bl	HAL_GetTick
 5183              	.LVL414:
2022:Drivers/STM32F7xx_HAL_Driver/Src/stm32f7xx_hal_uart.c ****   {
 5184              		.loc 1 2022 0
 5185 0198 2368     		ldr	r3, [r4]
2019:Drivers/STM32F7xx_HAL_Driver/Src/stm32f7xx_hal_uart.c **** 
 5186              		.loc 1 2019 0
 5187 019a 0646     		mov	r6, r0
 5188              	.LVL415:
2022:Drivers/STM32F7xx_HAL_Driver/Src/stm32f7xx_hal_uart.c ****   {
 5189              		.loc 1 2022 0
 5190 019c 1A68     		ldr	r2, [r3]
 5191 019e 1207     		lsls	r2, r2, #28
 5192 01a0 47D4     		bmi	.L1212
 5193              	.LVL416:
 5194              	.L1068:
2033:Drivers/STM32F7xx_HAL_Driver/Src/stm32f7xx_hal_uart.c ****   huart->RxState= HAL_UART_STATE_READY;
 5195              		.loc 1 2033 0
 5196 01a2 2022     		movs	r2, #32
2037:Drivers/STM32F7xx_HAL_Driver/Src/stm32f7xx_hal_uart.c **** 
 5197              		.loc 1 2037 0
 5198 01a4 0023     		movs	r3, #0
2033:Drivers/STM32F7xx_HAL_Driver/Src/stm32f7xx_hal_uart.c ****   huart->RxState= HAL_UART_STATE_READY;
 5199              		.loc 1 2033 0
 5200 01a6 84F86920 		strb	r2, [r4, #105]
 5201              		.loc 1 2039 0
 5202 01aa 1846     		mov	r0, r3
2034:Drivers/STM32F7xx_HAL_Driver/Src/stm32f7xx_hal_uart.c **** 
 5203              		.loc 1 2034 0
 5204 01ac 84F86A20 		strb	r2, [r4, #106]
2037:Drivers/STM32F7xx_HAL_Driver/Src/stm32f7xx_hal_uart.c **** 
 5205              		.loc 1 2037 0
 5206 01b0 84F86830 		strb	r3, [r4, #104]
 5207              	.LBE277:
 5208              	.LBE279:
 419:Drivers/STM32F7xx_HAL_Driver/Src/stm32f7xx_hal_uart.c **** 
 5209              		.loc 1 419 0
 5210 01b4 F8BD     		pop	{r3, r4, r5, r6, r7, pc}
 5211              	.LVL417:
ARM GAS  /tmp/cc6CQ8Vx.s 			page 144


 5212              	.L1199:
 5213              	.LBB280:
 5214              	.LBB257:
1868:Drivers/STM32F7xx_HAL_Driver/Src/stm32f7xx_hal_uart.c **** 
 5215              		.loc 1 1868 0
 5216 01b6 002A     		cmp	r2, #0
 5217 01b8 7FF470AF 		bne	.L1007
 5218              	.LVL418:
1871:Drivers/STM32F7xx_HAL_Driver/Src/stm32f7xx_hal_uart.c ****   {
 5219              		.loc 1 1871 0
 5220 01bc B0F5004F 		cmp	r0, #32768
 5221 01c0 00F08A80 		beq	.L1054
 5222              	.LVL419:
 5223              	.L1055:
1905:Drivers/STM32F7xx_HAL_Driver/Src/stm32f7xx_hal_uart.c ****       break;
 5224              		.loc 1 1905 0
 5225 01c4 FFF7FEFF 		bl	HAL_RCC_GetPCLK1Freq
 5226              	.LVL420:
 5227 01c8 C2E7     		b	.L1196
 5228              	.LVL421:
 5229              	.L1204:
1868:Drivers/STM32F7xx_HAL_Driver/Src/stm32f7xx_hal_uart.c **** 
 5230              		.loc 1 1868 0
 5231 01ca 02F5F832 		add	r2, r2, #126976
 5232 01ce D2F89020 		ldr	r2, [r2, #144]
 5233 01d2 02F03002 		and	r2, r2, #48
 5234 01d6 102A     		cmp	r2, #16
 5235 01d8 17D0     		beq	.L1008
 5236 01da ECD9     		bls	.L1199
 5237 01dc 202A     		cmp	r2, #32
 5238 01de 70D1     		bne	.L1213
 5239              	.L1011:
 5240              	.LVL422:
1871:Drivers/STM32F7xx_HAL_Driver/Src/stm32f7xx_hal_uart.c ****   {
 5241              		.loc 1 1871 0
 5242 01e0 B0F5004F 		cmp	r0, #32768
 5243 01e4 73D0     		beq	.L1052
 5244              	.LVL423:
 5245              	.L1053:
1911:Drivers/STM32F7xx_HAL_Driver/Src/stm32f7xx_hal_uart.c ****       break;
 5246              		.loc 1 1911 0
 5247 01e6 6168     		ldr	r1, [r4, #4]
 5248 01e8 524A     		ldr	r2, .L1216+48
 5249 01ea 02EB5102 		add	r2, r2, r1, lsr #1
 5250 01ee B2FBF1F2 		udiv	r2, r2, r1
 5251 01f2 92B2     		uxth	r2, r2
 5252 01f4 DA60     		str	r2, [r3, #12]
 5253              	.LVL424:
 5254 01f6 B3E7     		b	.L1062
 5255              	.LVL425:
 5256              	.L1206:
1868:Drivers/STM32F7xx_HAL_Driver/Src/stm32f7xx_hal_uart.c **** 
 5257              		.loc 1 1868 0
 5258 01f8 02F5F432 		add	r2, r2, #124928
 5259 01fc D2F89020 		ldr	r2, [r2, #144]
 5260 0200 02F44072 		and	r2, r2, #768
 5261 0204 B2F5807F 		cmp	r2, #256
ARM GAS  /tmp/cc6CQ8Vx.s 			page 145


 5262 0208 31D1     		bne	.L1214
 5263              	.L1008:
 5264              	.LVL426:
1871:Drivers/STM32F7xx_HAL_Driver/Src/stm32f7xx_hal_uart.c ****   {
 5265              		.loc 1 1871 0
 5266 020a B0F5004F 		cmp	r0, #32768
 5267 020e 5BD0     		beq	.L1050
 5268              	.LVL427:
 5269              	.L1051:
1914:Drivers/STM32F7xx_HAL_Driver/Src/stm32f7xx_hal_uart.c ****       break;
 5270              		.loc 1 1914 0
 5271 0210 FFF7FEFF 		bl	HAL_RCC_GetSysClockFreq
 5272              	.LVL428:
 5273 0214 9CE7     		b	.L1196
 5274              	.LVL429:
 5275              	.L1049:
1917:Drivers/STM32F7xx_HAL_Driver/Src/stm32f7xx_hal_uart.c ****       break;
 5276              		.loc 1 1917 0
 5277 0216 6168     		ldr	r1, [r4, #4]
 5278 0218 4A08     		lsrs	r2, r1, #1
 5279 021a 02F50042 		add	r2, r2, #32768
 5280 021e B2FBF1F2 		udiv	r2, r2, r1
 5281 0222 92B2     		uxth	r2, r2
 5282 0224 DA60     		str	r2, [r3, #12]
 5283              	.LVL430:
 5284 0226 9BE7     		b	.L1062
 5285              	.L1211:
 5286              	.LBE257:
 5287              	.LBE280:
 399:Drivers/STM32F7xx_HAL_Driver/Src/stm32f7xx_hal_uart.c ****   }
 5288              		.loc 1 399 0
 5289 0228 2046     		mov	r0, r4
 5290 022a FFF7FEFF 		bl	UART_AdvFeatureConfig
 5291              	.LVL431:
 5292 022e 2368     		ldr	r3, [r4]
 5293 0230 99E7     		b	.L1064
 5294              	.LVL432:
 5295              	.L1212:
 5296              	.LBB281:
 5297              	.LBB278:
 5298              	.LBB267:
 5299              	.LBB268:
1343:Drivers/STM32F7xx_HAL_Driver/Src/stm32f7xx_hal_uart.c ****       {
 5300              		.loc 1 1343 0
 5301 0232 414F     		ldr	r7, .L1216+52
 5302              	.LVL433:
 5303              	.L1065:
1338:Drivers/STM32F7xx_HAL_Driver/Src/stm32f7xx_hal_uart.c ****   {
 5304              		.loc 1 1338 0
 5305 0234 DD69     		ldr	r5, [r3, #28]
 5306 0236 15F40015 		ands	r5, r5, #2097152
 5307 023a B2D1     		bne	.L1068
1343:Drivers/STM32F7xx_HAL_Driver/Src/stm32f7xx_hal_uart.c ****       {
 5308              		.loc 1 1343 0
 5309 023c FFF7FEFF 		bl	HAL_GetTick
 5310              	.LVL434:
 5311 0240 801B     		subs	r0, r0, r6
ARM GAS  /tmp/cc6CQ8Vx.s 			page 146


 5312              	.LBB269:
 5313              	.LBB270:
1346:Drivers/STM32F7xx_HAL_Driver/Src/stm32f7xx_hal_uart.c ****         CLEAR_BIT(huart->Instance->CR3, USART_CR3_EIE);
 5314              		.loc 1 1346 0
 5315 0242 2368     		ldr	r3, [r4]
 5316              	.LBE270:
 5317              	.LBE269:
1343:Drivers/STM32F7xx_HAL_Driver/Src/stm32f7xx_hal_uart.c ****       {
 5318              		.loc 1 1343 0
 5319 0244 B842     		cmp	r0, r7
 5320 0246 F5D9     		bls	.L1065
 5321              	.LVL435:
 5322              	.LBB273:
 5323              	.LBB271:
1346:Drivers/STM32F7xx_HAL_Driver/Src/stm32f7xx_hal_uart.c ****         CLEAR_BIT(huart->Instance->CR3, USART_CR3_EIE);
 5324              		.loc 1 1346 0
 5325 0248 1A68     		ldr	r2, [r3]
1349:Drivers/STM32F7xx_HAL_Driver/Src/stm32f7xx_hal_uart.c ****         huart->RxState = HAL_UART_STATE_READY;
 5326              		.loc 1 1349 0
 5327 024a 2021     		movs	r1, #32
 5328              	.LBE271:
 5329              	.LBE273:
 5330              	.LBE268:
 5331              	.LBE267:
2028:Drivers/STM32F7xx_HAL_Driver/Src/stm32f7xx_hal_uart.c ****     }
 5332              		.loc 1 2028 0
 5333 024c 0320     		movs	r0, #3
 5334              	.LBB276:
 5335              	.LBB275:
 5336              	.LBB274:
 5337              	.LBB272:
1346:Drivers/STM32F7xx_HAL_Driver/Src/stm32f7xx_hal_uart.c ****         CLEAR_BIT(huart->Instance->CR3, USART_CR3_EIE);
 5338              		.loc 1 1346 0
 5339 024e 22F4D072 		bic	r2, r2, #416
 5340 0252 1A60     		str	r2, [r3]
1347:Drivers/STM32F7xx_HAL_Driver/Src/stm32f7xx_hal_uart.c **** 
 5341              		.loc 1 1347 0
 5342 0254 9A68     		ldr	r2, [r3, #8]
 5343 0256 22F00102 		bic	r2, r2, #1
 5344 025a 9A60     		str	r2, [r3, #8]
1349:Drivers/STM32F7xx_HAL_Driver/Src/stm32f7xx_hal_uart.c ****         huart->RxState = HAL_UART_STATE_READY;
 5345              		.loc 1 1349 0
 5346 025c 84F86910 		strb	r1, [r4, #105]
1353:Drivers/STM32F7xx_HAL_Driver/Src/stm32f7xx_hal_uart.c ****         return HAL_TIMEOUT;
 5347              		.loc 1 1353 0
 5348 0260 84F86850 		strb	r5, [r4, #104]
 5349              	.LVL436:
1350:Drivers/STM32F7xx_HAL_Driver/Src/stm32f7xx_hal_uart.c **** 
 5350              		.loc 1 1350 0
 5351 0264 84F86A10 		strb	r1, [r4, #106]
 5352              	.LBE272:
 5353              	.LBE274:
 5354              	.LBE275:
 5355              	.LBE276:
 5356              	.LBE278:
 5357              	.LBE281:
 419:Drivers/STM32F7xx_HAL_Driver/Src/stm32f7xx_hal_uart.c **** 
ARM GAS  /tmp/cc6CQ8Vx.s 			page 147


 5358              		.loc 1 419 0
 5359 0268 F8BD     		pop	{r3, r4, r5, r6, r7, pc}
 5360              	.LVL437:
 5361              	.L1200:
 5362              	.LCFI54:
 5363              		.cfi_def_cfa_offset 0
 5364              		.cfi_restore 3
 5365              		.cfi_restore 4
 5366              		.cfi_restore 5
 5367              		.cfi_restore 6
 5368              		.cfi_restore 7
 5369              		.cfi_restore 14
 369:Drivers/STM32F7xx_HAL_Driver/Src/stm32f7xx_hal_uart.c ****   }
 5370              		.loc 1 369 0
 5371 026a 0120     		movs	r0, #1
 5372              	.LVL438:
 419:Drivers/STM32F7xx_HAL_Driver/Src/stm32f7xx_hal_uart.c **** 
 5373              		.loc 1 419 0
 5374 026c 7047     		bx	lr
 5375              	.LVL439:
 5376              	.L1214:
 5377              	.LCFI55:
 5378              		.cfi_def_cfa_offset 24
 5379              		.cfi_offset 3, -24
 5380              		.cfi_offset 4, -20
 5381              		.cfi_offset 5, -16
 5382              		.cfi_offset 6, -12
 5383              		.cfi_offset 7, -8
 5384              		.cfi_offset 14, -4
 5385              	.LBB282:
 5386              	.LBB258:
1868:Drivers/STM32F7xx_HAL_Driver/Src/stm32f7xx_hal_uart.c **** 
 5387              		.loc 1 1868 0
 5388 026e A2D9     		bls	.L1199
 5389 0270 B2F5007F 		cmp	r2, #512
 5390 0274 B4D0     		beq	.L1011
 5391 0276 B2F5407F 		cmp	r2, #768
 5392 027a 7FF40FAF 		bne	.L1007
 5393              	.L1012:
 5394              	.LVL440:
1871:Drivers/STM32F7xx_HAL_Driver/Src/stm32f7xx_hal_uart.c ****   {
 5395              		.loc 1 1871 0
 5396 027e B0F5004F 		cmp	r0, #32768
 5397 0282 C8D1     		bne	.L1049
 5398              	.LVL441:
 5399              	.L1048:
1888:Drivers/STM32F7xx_HAL_Driver/Src/stm32f7xx_hal_uart.c ****       break;
 5400              		.loc 1 1888 0
 5401 0284 6168     		ldr	r1, [r4, #4]
 5402 0286 4A08     		lsrs	r2, r1, #1
 5403 0288 02F58032 		add	r2, r2, #65536
 5404              	.L1197:
 5405 028c B2FBF1F2 		udiv	r2, r2, r1
 5406              	.LVL442:
1896:Drivers/STM32F7xx_HAL_Driver/Src/stm32f7xx_hal_uart.c ****     brrtemp |= (uint16_t)((usartdiv & (uint16_t)0x000FU) >> 1U);
 5407              		.loc 1 1896 0
 5408 0290 22F00F01 		bic	r1, r2, #15
ARM GAS  /tmp/cc6CQ8Vx.s 			page 148


1897:Drivers/STM32F7xx_HAL_Driver/Src/stm32f7xx_hal_uart.c ****     huart->Instance->BRR = brrtemp;
 5409              		.loc 1 1897 0
 5410 0294 C2F34202 		ubfx	r2, r2, #1, #3
 5411              	.LVL443:
1896:Drivers/STM32F7xx_HAL_Driver/Src/stm32f7xx_hal_uart.c ****     brrtemp |= (uint16_t)((usartdiv & (uint16_t)0x000FU) >> 1U);
 5412              		.loc 1 1896 0
 5413 0298 89B2     		uxth	r1, r1
 5414              	.LVL444:
1898:Drivers/STM32F7xx_HAL_Driver/Src/stm32f7xx_hal_uart.c ****   }
 5415              		.loc 1 1898 0
 5416 029a 0A43     		orrs	r2, r2, r1
 5417 029c DA60     		str	r2, [r3, #12]
 5418              	.LVL445:
 5419 029e 5FE7     		b	.L1062
 5420              	.LVL446:
 5421              	.L1058:
1879:Drivers/STM32F7xx_HAL_Driver/Src/stm32f7xx_hal_uart.c ****       break;
 5422              		.loc 1 1879 0
 5423 02a0 FFF7FEFF 		bl	HAL_RCC_GetPCLK2Freq
 5424              	.LVL447:
 5425              	.L1195:
1898:Drivers/STM32F7xx_HAL_Driver/Src/stm32f7xx_hal_uart.c ****   }
 5426              		.loc 1 1898 0
 5427 02a4 D4E90031 		ldrd	r3, r1, [r4]
1885:Drivers/STM32F7xx_HAL_Driver/Src/stm32f7xx_hal_uart.c ****       break;
 5428              		.loc 1 1885 0
 5429 02a8 4A08     		lsrs	r2, r1, #1
 5430 02aa 02EB4000 		add	r0, r2, r0, lsl #1
 5431 02ae B0FBF1F0 		udiv	r0, r0, r1
 5432              	.LVL448:
1896:Drivers/STM32F7xx_HAL_Driver/Src/stm32f7xx_hal_uart.c ****     brrtemp |= (uint16_t)((usartdiv & (uint16_t)0x000FU) >> 1U);
 5433              		.loc 1 1896 0
 5434 02b2 20F00F02 		bic	r2, r0, #15
1897:Drivers/STM32F7xx_HAL_Driver/Src/stm32f7xx_hal_uart.c ****     huart->Instance->BRR = brrtemp;
 5435              		.loc 1 1897 0
 5436 02b6 C0F34200 		ubfx	r0, r0, #1, #3
 5437              	.LVL449:
1896:Drivers/STM32F7xx_HAL_Driver/Src/stm32f7xx_hal_uart.c ****     brrtemp |= (uint16_t)((usartdiv & (uint16_t)0x000FU) >> 1U);
 5438              		.loc 1 1896 0
 5439 02ba 92B2     		uxth	r2, r2
 5440              	.LVL450:
1898:Drivers/STM32F7xx_HAL_Driver/Src/stm32f7xx_hal_uart.c ****   }
 5441              		.loc 1 1898 0
 5442 02bc 1043     		orrs	r0, r0, r2
 5443 02be D860     		str	r0, [r3, #12]
 5444              	.LVL451:
 5445 02c0 4EE7     		b	.L1062
 5446              	.LVL452:
 5447              	.L1213:
1868:Drivers/STM32F7xx_HAL_Driver/Src/stm32f7xx_hal_uart.c **** 
 5448              		.loc 1 1868 0
 5449 02c2 302A     		cmp	r2, #48
 5450 02c4 DBD0     		beq	.L1012
 5451 02c6 E9E6     		b	.L1007
 5452              	.LVL453:
 5453              	.L1050:
1885:Drivers/STM32F7xx_HAL_Driver/Src/stm32f7xx_hal_uart.c ****       break;
ARM GAS  /tmp/cc6CQ8Vx.s 			page 149


 5454              		.loc 1 1885 0
 5455 02c8 FFF7FEFF 		bl	HAL_RCC_GetSysClockFreq
 5456              	.LVL454:
 5457 02cc EAE7     		b	.L1195
 5458              	.LVL455:
 5459              	.L1052:
1882:Drivers/STM32F7xx_HAL_Driver/Src/stm32f7xx_hal_uart.c ****       break;
 5460              		.loc 1 1882 0
 5461 02ce 6168     		ldr	r1, [r4, #4]
 5462 02d0 1A4A     		ldr	r2, .L1216+56
 5463 02d2 02EB5102 		add	r2, r2, r1, lsr #1
 5464 02d6 D9E7     		b	.L1197
 5465              	.L1054:
1876:Drivers/STM32F7xx_HAL_Driver/Src/stm32f7xx_hal_uart.c ****       break;
 5466              		.loc 1 1876 0
 5467 02d8 FFF7FEFF 		bl	HAL_RCC_GetPCLK1Freq
 5468              	.LVL456:
 5469 02dc E2E7     		b	.L1195
 5470              	.LVL457:
 5471              	.L1209:
1868:Drivers/STM32F7xx_HAL_Driver/Src/stm32f7xx_hal_uart.c **** 
 5472              		.loc 1 1868 0
 5473 02de 02F5DE32 		add	r2, r2, #113664
 5474 02e2 D2F89020 		ldr	r2, [r2, #144]
 5475 02e6 02F44042 		and	r2, r2, #49152
 5476 02ea B2F5804F 		cmp	r2, #16384
 5477 02ee 8CD0     		beq	.L1008
 5478 02f0 7FF661AF 		bls	.L1199
 5479 02f4 B2F5004F 		cmp	r2, #32768
 5480 02f8 3FF472AF 		beq	.L1011
 5481 02fc B2F5404F 		cmp	r2, #49152
 5482 0300 BDD0     		beq	.L1012
 5483 0302 CBE6     		b	.L1007
 5484              	.L1217:
 5485              		.align	2
 5486              	.L1216:
 5487 0304 F369FFEF 		.word	-268473869
 5488 0308 00100140 		.word	1073811456
 5489 030c 00440040 		.word	1073759232
 5490 0310 00480040 		.word	1073760256
 5491 0314 004C0040 		.word	1073761280
 5492 0318 00500040 		.word	1073762304
 5493 031c 00140140 		.word	1073812480
 5494 0320 00780040 		.word	1073772544
 5495 0324 007C0040 		.word	1073773568
 5496 0328 00380240 		.word	1073887232
 5497 032c 00000000 		.word	.LANCHOR0
 5498 0330 00000000 		.word	.LANCHOR1
 5499 0334 0024F400 		.word	16000000
 5500 0338 FEFFFF01 		.word	33554430
 5501 033c 0048E801 		.word	32000000
 5502              	.L1207:
 5503 0340 02F59232 		add	r2, r2, #74752
 5504 0344 D2F89020 		ldr	r2, [r2, #144]
 5505 0348 02F44062 		and	r2, r2, #3072
 5506 034c B2F5806F 		cmp	r2, #1024
 5507 0350 3FF45BAF 		beq	.L1008
ARM GAS  /tmp/cc6CQ8Vx.s 			page 150


 5508 0354 7FF6F4AE 		bls	.L1215
 5509 0358 B2F5006F 		cmp	r2, #2048
 5510 035c 3FF440AF 		beq	.L1011
 5511 0360 B2F5406F 		cmp	r2, #3072
 5512 0364 8BD0     		beq	.L1012
 5513 0366 99E6     		b	.L1007
 5514              	.L1208:
 5515 0368 02F5E032 		add	r2, r2, #114688
 5516 036c D2F89020 		ldr	r2, [r2, #144]
 5517 0370 02F44052 		and	r2, r2, #12288
 5518 0374 B2F5805F 		cmp	r2, #4096
 5519 0378 3FF447AF 		beq	.L1008
 5520 037c 7FF61BAF 		bls	.L1199
 5521 0380 B2F5005F 		cmp	r2, #8192
 5522 0384 3FF42CAF 		beq	.L1011
 5523 0388 B2F5405F 		cmp	r2, #12288
 5524 038c 3FF477AF 		beq	.L1012
 5525 0390 84E6     		b	.L1007
 5526              	.LVL458:
 5527              	.L1056:
1898:Drivers/STM32F7xx_HAL_Driver/Src/stm32f7xx_hal_uart.c ****   }
 5528              		.loc 1 1898 0
 5529 0392 0022     		movs	r2, #0
 5530              	.LBE258:
 5531              	.LBE282:
 394:Drivers/STM32F7xx_HAL_Driver/Src/stm32f7xx_hal_uart.c ****   }
 5532              		.loc 1 394 0
 5533 0394 0120     		movs	r0, #1
 5534              	.LBB283:
 5535              	.LBB259:
1898:Drivers/STM32F7xx_HAL_Driver/Src/stm32f7xx_hal_uart.c ****   }
 5536              		.loc 1 1898 0
 5537 0396 DA60     		str	r2, [r3, #12]
 5538              	.LVL459:
 5539              	.LBE259:
 5540              	.LBE283:
 419:Drivers/STM32F7xx_HAL_Driver/Src/stm32f7xx_hal_uart.c **** 
 5541              		.loc 1 419 0
 5542 0398 F8BD     		pop	{r3, r4, r5, r6, r7, pc}
 5543              		.cfi_endproc
 5544              	.LFE140:
 5546 039a 00BF     		.section	.text.HAL_MultiProcessor_Init,"ax",%progbits
 5547              		.align	1
 5548              		.p2align 2,,3
 5549              		.global	HAL_MultiProcessor_Init
 5550              		.syntax unified
 5551              		.thumb
 5552              		.thumb_func
 5553              		.fpu fpv4-sp-d16
 5555              	HAL_MultiProcessor_Init:
 5556              	.LFB141:
 439:Drivers/STM32F7xx_HAL_Driver/Src/stm32f7xx_hal_uart.c ****   /* Check the UART handle allocation */
 5557              		.loc 1 439 0
 5558              		.cfi_startproc
 5559              		@ args = 0, pretend = 0, frame = 0
 5560              		@ frame_needed = 0, uses_anonymous_args = 0
 5561              	.LVL460:
ARM GAS  /tmp/cc6CQ8Vx.s 			page 151


 441:Drivers/STM32F7xx_HAL_Driver/Src/stm32f7xx_hal_uart.c ****   {
 5562              		.loc 1 441 0
 5563 0000 0028     		cmp	r0, #0
 5564 0002 00F03981 		beq	.L1420
 439:Drivers/STM32F7xx_HAL_Driver/Src/stm32f7xx_hal_uart.c ****   /* Check the UART handle allocation */
 5565              		.loc 1 439 0
 5566 0006 F8B5     		push	{r3, r4, r5, r6, r7, lr}
 5567              	.LCFI56:
 5568              		.cfi_def_cfa_offset 24
 5569              		.cfi_offset 3, -24
 5570              		.cfi_offset 4, -20
 5571              		.cfi_offset 5, -16
 5572              		.cfi_offset 6, -12
 5573              		.cfi_offset 7, -8
 5574              		.cfi_offset 14, -4
 449:Drivers/STM32F7xx_HAL_Driver/Src/stm32f7xx_hal_uart.c ****   {
 5575              		.loc 1 449 0
 5576 0008 90F86930 		ldrb	r3, [r0, #105]	@ zero_extendqisi2
 5577 000c 1646     		mov	r6, r2
 5578 000e 0446     		mov	r4, r0
 5579 0010 0D46     		mov	r5, r1
 5580 0012 03F0FF02 		and	r2, r3, #255
 5581              	.LVL461:
 5582 0016 002B     		cmp	r3, #0
 5583 0018 47D0     		beq	.L1421
 5584              	.LVL462:
 5585              	.L1221:
 461:Drivers/STM32F7xx_HAL_Driver/Src/stm32f7xx_hal_uart.c **** 
 5586              		.loc 1 461 0
 5587 001a 2368     		ldr	r3, [r4]
 458:Drivers/STM32F7xx_HAL_Driver/Src/stm32f7xx_hal_uart.c **** 
 5588              		.loc 1 458 0
 5589 001c 2422     		movs	r2, #36
 5590              	.LBB292:
 5591              	.LBB293:
1850:Drivers/STM32F7xx_HAL_Driver/Src/stm32f7xx_hal_uart.c ****   MODIFY_REG(huart->Instance->CR1, UART_CR1_FIELDS, tmpreg);
 5592              		.loc 1 1850 0
 5593 001e A068     		ldr	r0, [r4, #8]
 5594              	.LBE293:
 5595              	.LBE292:
 458:Drivers/STM32F7xx_HAL_Driver/Src/stm32f7xx_hal_uart.c **** 
 5596              		.loc 1 458 0
 5597 0020 84F86920 		strb	r2, [r4, #105]
 5598              	.LBB302:
 5599              	.LBB294:
1850:Drivers/STM32F7xx_HAL_Driver/Src/stm32f7xx_hal_uart.c ****   MODIFY_REG(huart->Instance->CR1, UART_CR1_FIELDS, tmpreg);
 5600              		.loc 1 1850 0
 5601 0024 2269     		ldr	r2, [r4, #16]
 5602              	.LBE294:
 5603              	.LBE302:
 461:Drivers/STM32F7xx_HAL_Driver/Src/stm32f7xx_hal_uart.c **** 
 5604              		.loc 1 461 0
 5605 0026 1968     		ldr	r1, [r3]
 5606              	.LBB303:
 5607              	.LBB295:
1850:Drivers/STM32F7xx_HAL_Driver/Src/stm32f7xx_hal_uart.c ****   MODIFY_REG(huart->Instance->CR1, UART_CR1_FIELDS, tmpreg);
 5608              		.loc 1 1850 0
ARM GAS  /tmp/cc6CQ8Vx.s 			page 152


 5609 0028 6769     		ldr	r7, [r4, #20]
 5610 002a 1043     		orrs	r0, r0, r2
 5611              	.LBE295:
 5612              	.LBE303:
 461:Drivers/STM32F7xx_HAL_Driver/Src/stm32f7xx_hal_uart.c **** 
 5613              		.loc 1 461 0
 5614 002c 21F00101 		bic	r1, r1, #1
 5615              	.LBB304:
 5616              	.LBB296:
1851:Drivers/STM32F7xx_HAL_Driver/Src/stm32f7xx_hal_uart.c **** 
 5617              		.loc 1 1851 0
 5618 0030 B84A     		ldr	r2, .L1436
1850:Drivers/STM32F7xx_HAL_Driver/Src/stm32f7xx_hal_uart.c ****   MODIFY_REG(huart->Instance->CR1, UART_CR1_FIELDS, tmpreg);
 5619              		.loc 1 1850 0
 5620 0032 3843     		orrs	r0, r0, r7
 5621 0034 E769     		ldr	r7, [r4, #28]
 5622              	.LBE296:
 5623              	.LBE304:
 461:Drivers/STM32F7xx_HAL_Driver/Src/stm32f7xx_hal_uart.c **** 
 5624              		.loc 1 461 0
 5625 0036 1960     		str	r1, [r3]
 5626              	.LVL463:
 5627              	.LBB305:
 5628              	.LBB297:
1851:Drivers/STM32F7xx_HAL_Driver/Src/stm32f7xx_hal_uart.c **** 
 5629              		.loc 1 1851 0
 5630 0038 1968     		ldr	r1, [r3]
1850:Drivers/STM32F7xx_HAL_Driver/Src/stm32f7xx_hal_uart.c ****   MODIFY_REG(huart->Instance->CR1, UART_CR1_FIELDS, tmpreg);
 5631              		.loc 1 1850 0
 5632 003a 3843     		orrs	r0, r0, r7
1856:Drivers/STM32F7xx_HAL_Driver/Src/stm32f7xx_hal_uart.c **** 
 5633              		.loc 1 1856 0
 5634 003c D4F80CC0 		ldr	ip, [r4, #12]
1851:Drivers/STM32F7xx_HAL_Driver/Src/stm32f7xx_hal_uart.c **** 
 5635              		.loc 1 1851 0
 5636 0040 0A40     		ands	r2, r2, r1
1864:Drivers/STM32F7xx_HAL_Driver/Src/stm32f7xx_hal_uart.c ****   MODIFY_REG(huart->Instance->CR3, (USART_CR3_RTSE | USART_CR3_CTSE | USART_CR3_ONEBIT), tmpreg);
 5637              		.loc 1 1864 0
 5638 0042 A169     		ldr	r1, [r4, #24]
1851:Drivers/STM32F7xx_HAL_Driver/Src/stm32f7xx_hal_uart.c **** 
 5639              		.loc 1 1851 0
 5640 0044 1043     		orrs	r0, r0, r2
1864:Drivers/STM32F7xx_HAL_Driver/Src/stm32f7xx_hal_uart.c ****   MODIFY_REG(huart->Instance->CR3, (USART_CR3_RTSE | USART_CR3_CTSE | USART_CR3_ONEBIT), tmpreg);
 5641              		.loc 1 1864 0
 5642 0046 226A     		ldr	r2, [r4, #32]
1851:Drivers/STM32F7xx_HAL_Driver/Src/stm32f7xx_hal_uart.c **** 
 5643              		.loc 1 1851 0
 5644 0048 1860     		str	r0, [r3]
1864:Drivers/STM32F7xx_HAL_Driver/Src/stm32f7xx_hal_uart.c ****   MODIFY_REG(huart->Instance->CR3, (USART_CR3_RTSE | USART_CR3_CTSE | USART_CR3_ONEBIT), tmpreg);
 5645              		.loc 1 1864 0
 5646 004a 1143     		orrs	r1, r1, r2
1856:Drivers/STM32F7xx_HAL_Driver/Src/stm32f7xx_hal_uart.c **** 
 5647              		.loc 1 1856 0
 5648 004c 5A68     		ldr	r2, [r3, #4]
1868:Drivers/STM32F7xx_HAL_Driver/Src/stm32f7xx_hal_uart.c **** 
 5649              		.loc 1 1868 0
 5650 004e B248     		ldr	r0, .L1436+4
ARM GAS  /tmp/cc6CQ8Vx.s 			page 153


1856:Drivers/STM32F7xx_HAL_Driver/Src/stm32f7xx_hal_uart.c **** 
 5651              		.loc 1 1856 0
 5652 0050 22F44052 		bic	r2, r2, #12288
1868:Drivers/STM32F7xx_HAL_Driver/Src/stm32f7xx_hal_uart.c **** 
 5653              		.loc 1 1868 0
 5654 0054 8342     		cmp	r3, r0
1856:Drivers/STM32F7xx_HAL_Driver/Src/stm32f7xx_hal_uart.c **** 
 5655              		.loc 1 1856 0
 5656 0056 42EA0C02 		orr	r2, r2, ip
 5657 005a 5A60     		str	r2, [r3, #4]
 5658              	.LVL464:
1865:Drivers/STM32F7xx_HAL_Driver/Src/stm32f7xx_hal_uart.c **** 
 5659              		.loc 1 1865 0
 5660 005c 9A68     		ldr	r2, [r3, #8]
 5661 005e 22F43062 		bic	r2, r2, #2816
 5662 0062 41EA0201 		orr	r1, r1, r2
 5663 0066 9960     		str	r1, [r3, #8]
1868:Drivers/STM32F7xx_HAL_Driver/Src/stm32f7xx_hal_uart.c **** 
 5664              		.loc 1 1868 0
 5665 0068 24D0     		beq	.L1422
 5666 006a AC4A     		ldr	r2, .L1436+8
 5667 006c 9342     		cmp	r3, r2
 5668 006e 43D0     		beq	.L1423
 5669 0070 AB4A     		ldr	r2, .L1436+12
 5670 0072 9342     		cmp	r3, r2
 5671 0074 00F0B080 		beq	.L1424
 5672 0078 AA4A     		ldr	r2, .L1436+16
 5673 007a 9342     		cmp	r3, r2
 5674 007c 45D0     		beq	.L1425
 5675 007e AA4A     		ldr	r2, .L1436+20
 5676 0080 9342     		cmp	r3, r2
 5677 0082 00F0C080 		beq	.L1426
 5678 0086 A94A     		ldr	r2, .L1436+24
 5679 0088 9342     		cmp	r3, r2
 5680 008a 00F06181 		beq	.L1427
 5681 008e A84A     		ldr	r2, .L1436+28
 5682 0090 9342     		cmp	r3, r2
 5683 0092 00F07181 		beq	.L1428
 5684 0096 A74A     		ldr	r2, .L1436+32
 5685 0098 9342     		cmp	r3, r2
 5686 009a 00F02781 		beq	.L1429
 5687              	.L1226:
1871:Drivers/STM32F7xx_HAL_Driver/Src/stm32f7xx_hal_uart.c ****   {
 5688              		.loc 1 1871 0
 5689 009e B7F5004F 		cmp	r7, #32768
 5690 00a2 00F07E81 		beq	.L1275
 5691              	.LVL465:
 5692              	.L1289:
 5693              	.LBE297:
 5694              	.LBE305:
 466:Drivers/STM32F7xx_HAL_Driver/Src/stm32f7xx_hal_uart.c ****   }
 5695              		.loc 1 466 0
 5696 00a6 0120     		movs	r0, #1
 494:Drivers/STM32F7xx_HAL_Driver/Src/stm32f7xx_hal_uart.c **** 
 5697              		.loc 1 494 0
 5698 00a8 F8BD     		pop	{r3, r4, r5, r6, r7, pc}
 5699              	.LVL466:
ARM GAS  /tmp/cc6CQ8Vx.s 			page 154


 5700              	.L1421:
 452:Drivers/STM32F7xx_HAL_Driver/Src/stm32f7xx_hal_uart.c **** 
 5701              		.loc 1 452 0
 5702 00aa 80F86820 		strb	r2, [r0, #104]
 455:Drivers/STM32F7xx_HAL_Driver/Src/stm32f7xx_hal_uart.c ****   }
 5703              		.loc 1 455 0
 5704 00ae FFF7FEFF 		bl	HAL_UART_MspInit
 5705              	.LVL467:
 5706 00b2 B2E7     		b	.L1221
 5707              	.LVL468:
 5708              	.L1422:
 5709              	.LBB306:
 5710              	.LBB298:
1868:Drivers/STM32F7xx_HAL_Driver/Src/stm32f7xx_hal_uart.c **** 
 5711              		.loc 1 1868 0
 5712 00b4 A04A     		ldr	r2, .L1436+36
 5713 00b6 A149     		ldr	r1, .L1436+40
 5714 00b8 D2F89020 		ldr	r2, [r2, #144]
 5715 00bc 02F00302 		and	r2, r2, #3
 5716 00c0 8A5C     		ldrb	r2, [r1, r2]	@ zero_extendqisi2
 5717              	.L1223:
 5718              	.LVL469:
1871:Drivers/STM32F7xx_HAL_Driver/Src/stm32f7xx_hal_uart.c ****   {
 5719              		.loc 1 1871 0
 5720 00c2 B7F5004F 		cmp	r7, #32768
 5721 00c6 2FD0     		beq	.L1430
1902:Drivers/STM32F7xx_HAL_Driver/Src/stm32f7xx_hal_uart.c ****     {
 5722              		.loc 1 1902 0
 5723 00c8 082A     		cmp	r2, #8
 5724 00ca ECD8     		bhi	.L1289
 5725 00cc 01A1     		adr	r1, .L1282
 5726 00ce 51F822F0 		ldr	pc, [r1, r2, lsl #2]
 5727 00d2 00BF     		.p2align 2
 5728              	.L1282:
 5729 00d4 D3010000 		.word	.L1274+1
 5730 00d8 51010000 		.word	.L1278+1
 5731 00dc F5010000 		.word	.L1272+1
 5732 00e0 A7000000 		.word	.L1289+1
 5733 00e4 1F020000 		.word	.L1270+1
 5734 00e8 A7000000 		.word	.L1289+1
 5735 00ec A7000000 		.word	.L1289+1
 5736 00f0 A7000000 		.word	.L1289+1
 5737 00f4 25020000 		.word	.L1268+1
 5738              	.LVL470:
 5739              		.p2align 1
 5740              	.L1423:
1868:Drivers/STM32F7xx_HAL_Driver/Src/stm32f7xx_hal_uart.c **** 
 5741              		.loc 1 1868 0
 5742 00f8 02F5FA32 		add	r2, r2, #128000
 5743 00fc 9049     		ldr	r1, .L1436+44
 5744 00fe D2F89020 		ldr	r2, [r2, #144]
 5745 0102 02F00C02 		and	r2, r2, #12
 5746 0106 8A5C     		ldrb	r2, [r1, r2]	@ zero_extendqisi2
 5747 0108 DBE7     		b	.L1223
 5748              	.L1425:
 5749 010a 02F5F632 		add	r2, r2, #125952
 5750 010e D2F89020 		ldr	r2, [r2, #144]
ARM GAS  /tmp/cc6CQ8Vx.s 			page 155


 5751 0112 02F0C002 		and	r2, r2, #192
 5752 0116 402A     		cmp	r2, #64
 5753 0118 7ED0     		beq	.L1227
 5754 011a 53D9     		bls	.L1419
 5755 011c 802A     		cmp	r2, #128
 5756 011e 66D0     		beq	.L1230
 5757 0120 C02A     		cmp	r2, #192
 5758 0122 00F0B380 		beq	.L1231
 5759 0126 BAE7     		b	.L1226
 5760              	.LVL471:
 5761              	.L1430:
1873:Drivers/STM32F7xx_HAL_Driver/Src/stm32f7xx_hal_uart.c ****     {
 5762              		.loc 1 1873 0
 5763 0128 082A     		cmp	r2, #8
 5764 012a 00F23A81 		bhi	.L1275
 5765 012e DFE812F0 		tbh	[pc, r2, lsl #1]
 5766              	.L1280:
 5767 0132 DA00     		.2byte	(.L1273-.L1280)/2
 5768 0134 BE00     		.2byte	(.L1277-.L1280)/2
 5769 0136 D500     		.2byte	(.L1271-.L1280)/2
 5770 0138 3801     		.2byte	(.L1275-.L1280)/2
 5771 013a D200     		.2byte	(.L1269-.L1280)/2
 5772 013c 3801     		.2byte	(.L1275-.L1280)/2
 5773 013e 3801     		.2byte	(.L1275-.L1280)/2
 5774 0140 3801     		.2byte	(.L1275-.L1280)/2
 5775 0142 B000     		.2byte	(.L1267-.L1280)/2
 5776              	.LVL472:
 5777              		.p2align 1
 5778              	.L1435:
1868:Drivers/STM32F7xx_HAL_Driver/Src/stm32f7xx_hal_uart.c **** 
 5779              		.loc 1 1868 0
 5780 0144 002A     		cmp	r2, #0
 5781 0146 AAD1     		bne	.L1226
 5782              	.LVL473:
1871:Drivers/STM32F7xx_HAL_Driver/Src/stm32f7xx_hal_uart.c ****   {
 5783              		.loc 1 1871 0
 5784 0148 B7F5004F 		cmp	r7, #32768
 5785 014c 00F0AF80 		beq	.L1277
 5786              	.LVL474:
 5787              	.L1278:
1908:Drivers/STM32F7xx_HAL_Driver/Src/stm32f7xx_hal_uart.c ****       break;
 5788              		.loc 1 1908 0
 5789 0150 FFF7FEFF 		bl	HAL_RCC_GetPCLK2Freq
 5790              	.LVL475:
 5791              	.L1416:
1914:Drivers/STM32F7xx_HAL_Driver/Src/stm32f7xx_hal_uart.c ****       break;
 5792              		.loc 1 1914 0
 5793 0154 D4E90031 		ldrd	r3, r1, [r4]
 5794 0158 00EB5102 		add	r2, r0, r1, lsr #1
 5795 015c B2FBF1F2 		udiv	r2, r2, r1
 5796 0160 92B2     		uxth	r2, r2
 5797 0162 DA60     		str	r2, [r3, #12]
 5798              	.LVL476:
 5799              	.L1281:
 5800              	.LBE298:
 5801              	.LBE306:
 469:Drivers/STM32F7xx_HAL_Driver/Src/stm32f7xx_hal_uart.c ****   {
ARM GAS  /tmp/cc6CQ8Vx.s 			page 156


 5802              		.loc 1 469 0
 5803 0164 626A     		ldr	r2, [r4, #36]
 5804 0166 002A     		cmp	r2, #0
 5805 0168 65D1     		bne	.L1431
 5806              	.L1283:
 477:Drivers/STM32F7xx_HAL_Driver/Src/stm32f7xx_hal_uart.c ****   CLEAR_BIT(huart->Instance->CR3, (USART_CR3_SCEN | USART_CR3_HDSEL | USART_CR3_IREN));
 5807              		.loc 1 477 0
 5808 016a 5A68     		ldr	r2, [r3, #4]
 480:Drivers/STM32F7xx_HAL_Driver/Src/stm32f7xx_hal_uart.c ****   {
 5809              		.loc 1 480 0
 5810 016c B6F5006F 		cmp	r6, #2048
 477:Drivers/STM32F7xx_HAL_Driver/Src/stm32f7xx_hal_uart.c ****   CLEAR_BIT(huart->Instance->CR3, (USART_CR3_SCEN | USART_CR3_HDSEL | USART_CR3_IREN));
 5811              		.loc 1 477 0
 5812 0170 22F49042 		bic	r2, r2, #18432
 5813 0174 5A60     		str	r2, [r3, #4]
 478:Drivers/STM32F7xx_HAL_Driver/Src/stm32f7xx_hal_uart.c **** 
 5814              		.loc 1 478 0
 5815 0176 9A68     		ldr	r2, [r3, #8]
 5816 0178 22F02A02 		bic	r2, r2, #42
 5817 017c 9A60     		str	r2, [r3, #8]
 480:Drivers/STM32F7xx_HAL_Driver/Src/stm32f7xx_hal_uart.c ****   {
 5818              		.loc 1 480 0
 5819 017e 05D1     		bne	.L1284
 483:Drivers/STM32F7xx_HAL_Driver/Src/stm32f7xx_hal_uart.c ****   }
 5820              		.loc 1 483 0
 5821 0180 5968     		ldr	r1, [r3, #4]
 5822 0182 21F07F41 		bic	r1, r1, #-16777216
 5823 0186 41EA0565 		orr	r5, r1, r5, lsl #24
 5824 018a 5D60     		str	r5, [r3, #4]
 5825              	.L1284:
 487:Drivers/STM32F7xx_HAL_Driver/Src/stm32f7xx_hal_uart.c **** 
 5826              		.loc 1 487 0
 5827 018c 1A68     		ldr	r2, [r3]
 5828              	.LBB307:
 5829              	.LBB308:
2016:Drivers/STM32F7xx_HAL_Driver/Src/stm32f7xx_hal_uart.c **** 
 5830              		.loc 1 2016 0
 5831 018e 0021     		movs	r1, #0
 5832              	.LBE308:
 5833              	.LBE307:
 487:Drivers/STM32F7xx_HAL_Driver/Src/stm32f7xx_hal_uart.c **** 
 5834              		.loc 1 487 0
 5835 0190 22F40062 		bic	r2, r2, #2048
 5836 0194 1643     		orrs	r6, r6, r2
 5837              	.LVL477:
 5838 0196 1E60     		str	r6, [r3]
 490:Drivers/STM32F7xx_HAL_Driver/Src/stm32f7xx_hal_uart.c **** 
 5839              		.loc 1 490 0
 5840 0198 1A68     		ldr	r2, [r3]
 5841 019a 42F00102 		orr	r2, r2, #1
 5842 019e 1A60     		str	r2, [r3]
 5843              	.LVL478:
 5844              	.LBB321:
 5845              	.LBB319:
2016:Drivers/STM32F7xx_HAL_Driver/Src/stm32f7xx_hal_uart.c **** 
 5846              		.loc 1 2016 0
 5847 01a0 E166     		str	r1, [r4, #108]
ARM GAS  /tmp/cc6CQ8Vx.s 			page 157


2019:Drivers/STM32F7xx_HAL_Driver/Src/stm32f7xx_hal_uart.c **** 
 5848              		.loc 1 2019 0
 5849 01a2 FFF7FEFF 		bl	HAL_GetTick
 5850              	.LVL479:
2022:Drivers/STM32F7xx_HAL_Driver/Src/stm32f7xx_hal_uart.c ****   {
 5851              		.loc 1 2022 0
 5852 01a6 2368     		ldr	r3, [r4]
2019:Drivers/STM32F7xx_HAL_Driver/Src/stm32f7xx_hal_uart.c **** 
 5853              		.loc 1 2019 0
 5854 01a8 0646     		mov	r6, r0
 5855              	.LVL480:
2022:Drivers/STM32F7xx_HAL_Driver/Src/stm32f7xx_hal_uart.c ****   {
 5856              		.loc 1 2022 0
 5857 01aa 1A68     		ldr	r2, [r3]
 5858 01ac 1207     		lsls	r2, r2, #28
 5859 01ae 47D4     		bmi	.L1432
 5860              	.LVL481:
 5861              	.L1288:
2033:Drivers/STM32F7xx_HAL_Driver/Src/stm32f7xx_hal_uart.c ****   huart->RxState= HAL_UART_STATE_READY;
 5862              		.loc 1 2033 0
 5863 01b0 2022     		movs	r2, #32
2037:Drivers/STM32F7xx_HAL_Driver/Src/stm32f7xx_hal_uart.c **** 
 5864              		.loc 1 2037 0
 5865 01b2 0023     		movs	r3, #0
2033:Drivers/STM32F7xx_HAL_Driver/Src/stm32f7xx_hal_uart.c ****   huart->RxState= HAL_UART_STATE_READY;
 5866              		.loc 1 2033 0
 5867 01b4 84F86920 		strb	r2, [r4, #105]
 5868              		.loc 1 2039 0
 5869 01b8 1846     		mov	r0, r3
2034:Drivers/STM32F7xx_HAL_Driver/Src/stm32f7xx_hal_uart.c **** 
 5870              		.loc 1 2034 0
 5871 01ba 84F86A20 		strb	r2, [r4, #106]
2037:Drivers/STM32F7xx_HAL_Driver/Src/stm32f7xx_hal_uart.c **** 
 5872              		.loc 1 2037 0
 5873 01be 84F86830 		strb	r3, [r4, #104]
 5874              	.LBE319:
 5875              	.LBE321:
 494:Drivers/STM32F7xx_HAL_Driver/Src/stm32f7xx_hal_uart.c **** 
 5876              		.loc 1 494 0
 5877 01c2 F8BD     		pop	{r3, r4, r5, r6, r7, pc}
 5878              	.LVL482:
 5879              	.L1419:
 5880              	.LBB322:
 5881              	.LBB299:
1868:Drivers/STM32F7xx_HAL_Driver/Src/stm32f7xx_hal_uart.c **** 
 5882              		.loc 1 1868 0
 5883 01c4 002A     		cmp	r2, #0
 5884 01c6 7FF46AAF 		bne	.L1226
 5885              	.LVL483:
1871:Drivers/STM32F7xx_HAL_Driver/Src/stm32f7xx_hal_uart.c ****   {
 5886              		.loc 1 1871 0
 5887 01ca B7F5004F 		cmp	r7, #32768
 5888 01ce 00F08A80 		beq	.L1273
 5889              	.LVL484:
 5890              	.L1274:
1905:Drivers/STM32F7xx_HAL_Driver/Src/stm32f7xx_hal_uart.c ****       break;
 5891              		.loc 1 1905 0
ARM GAS  /tmp/cc6CQ8Vx.s 			page 158


 5892 01d2 FFF7FEFF 		bl	HAL_RCC_GetPCLK1Freq
 5893              	.LVL485:
 5894 01d6 BDE7     		b	.L1416
 5895              	.LVL486:
 5896              	.L1424:
1868:Drivers/STM32F7xx_HAL_Driver/Src/stm32f7xx_hal_uart.c **** 
 5897              		.loc 1 1868 0
 5898 01d8 02F5F832 		add	r2, r2, #126976
 5899 01dc D2F89020 		ldr	r2, [r2, #144]
 5900 01e0 02F03002 		and	r2, r2, #48
 5901 01e4 102A     		cmp	r2, #16
 5902 01e6 17D0     		beq	.L1227
 5903 01e8 ECD9     		bls	.L1419
 5904 01ea 202A     		cmp	r2, #32
 5905 01ec 70D1     		bne	.L1433
 5906              	.L1230:
 5907              	.LVL487:
1871:Drivers/STM32F7xx_HAL_Driver/Src/stm32f7xx_hal_uart.c ****   {
 5908              		.loc 1 1871 0
 5909 01ee B7F5004F 		cmp	r7, #32768
 5910 01f2 73D0     		beq	.L1271
 5911              	.LVL488:
 5912              	.L1272:
1911:Drivers/STM32F7xx_HAL_Driver/Src/stm32f7xx_hal_uart.c ****       break;
 5913              		.loc 1 1911 0
 5914 01f4 6168     		ldr	r1, [r4, #4]
 5915 01f6 534A     		ldr	r2, .L1436+48
 5916 01f8 02EB5102 		add	r2, r2, r1, lsr #1
 5917 01fc B2FBF1F2 		udiv	r2, r2, r1
 5918 0200 92B2     		uxth	r2, r2
 5919 0202 DA60     		str	r2, [r3, #12]
 5920              	.LVL489:
 5921 0204 AEE7     		b	.L1281
 5922              	.LVL490:
 5923              	.L1426:
1868:Drivers/STM32F7xx_HAL_Driver/Src/stm32f7xx_hal_uart.c **** 
 5924              		.loc 1 1868 0
 5925 0206 02F5F432 		add	r2, r2, #124928
 5926 020a D2F89020 		ldr	r2, [r2, #144]
 5927 020e 02F44072 		and	r2, r2, #768
 5928 0212 B2F5807F 		cmp	r2, #256
 5929 0216 31D1     		bne	.L1434
 5930              	.L1227:
 5931              	.LVL491:
1871:Drivers/STM32F7xx_HAL_Driver/Src/stm32f7xx_hal_uart.c ****   {
 5932              		.loc 1 1871 0
 5933 0218 B7F5004F 		cmp	r7, #32768
 5934 021c 5BD0     		beq	.L1269
 5935              	.LVL492:
 5936              	.L1270:
1914:Drivers/STM32F7xx_HAL_Driver/Src/stm32f7xx_hal_uart.c ****       break;
 5937              		.loc 1 1914 0
 5938 021e FFF7FEFF 		bl	HAL_RCC_GetSysClockFreq
 5939              	.LVL493:
 5940 0222 97E7     		b	.L1416
 5941              	.LVL494:
 5942              	.L1268:
ARM GAS  /tmp/cc6CQ8Vx.s 			page 159


1917:Drivers/STM32F7xx_HAL_Driver/Src/stm32f7xx_hal_uart.c ****       break;
 5943              		.loc 1 1917 0
 5944 0224 6168     		ldr	r1, [r4, #4]
 5945 0226 4A08     		lsrs	r2, r1, #1
 5946 0228 02F50042 		add	r2, r2, #32768
 5947 022c B2FBF1F2 		udiv	r2, r2, r1
 5948 0230 92B2     		uxth	r2, r2
 5949 0232 DA60     		str	r2, [r3, #12]
 5950              	.LVL495:
 5951 0234 96E7     		b	.L1281
 5952              	.L1431:
 5953              	.LBE299:
 5954              	.LBE322:
 471:Drivers/STM32F7xx_HAL_Driver/Src/stm32f7xx_hal_uart.c ****   }
 5955              		.loc 1 471 0
 5956 0236 2046     		mov	r0, r4
 5957 0238 FFF7FEFF 		bl	UART_AdvFeatureConfig
 5958              	.LVL496:
 5959 023c 2368     		ldr	r3, [r4]
 5960 023e 94E7     		b	.L1283
 5961              	.LVL497:
 5962              	.L1432:
 5963              	.LBB323:
 5964              	.LBB320:
 5965              	.LBB309:
 5966              	.LBB310:
1343:Drivers/STM32F7xx_HAL_Driver/Src/stm32f7xx_hal_uart.c ****       {
 5967              		.loc 1 1343 0
 5968 0240 414F     		ldr	r7, .L1436+52
 5969              	.LVL498:
 5970              	.L1285:
1338:Drivers/STM32F7xx_HAL_Driver/Src/stm32f7xx_hal_uart.c ****   {
 5971              		.loc 1 1338 0
 5972 0242 DD69     		ldr	r5, [r3, #28]
 5973 0244 15F40015 		ands	r5, r5, #2097152
 5974 0248 B2D1     		bne	.L1288
1343:Drivers/STM32F7xx_HAL_Driver/Src/stm32f7xx_hal_uart.c ****       {
 5975              		.loc 1 1343 0
 5976 024a FFF7FEFF 		bl	HAL_GetTick
 5977              	.LVL499:
 5978 024e 801B     		subs	r0, r0, r6
 5979              	.LBB311:
 5980              	.LBB312:
1346:Drivers/STM32F7xx_HAL_Driver/Src/stm32f7xx_hal_uart.c ****         CLEAR_BIT(huart->Instance->CR3, USART_CR3_EIE);
 5981              		.loc 1 1346 0
 5982 0250 2368     		ldr	r3, [r4]
 5983              	.LBE312:
 5984              	.LBE311:
1343:Drivers/STM32F7xx_HAL_Driver/Src/stm32f7xx_hal_uart.c ****       {
 5985              		.loc 1 1343 0
 5986 0252 B842     		cmp	r0, r7
 5987 0254 F5D9     		bls	.L1285
 5988              	.LVL500:
 5989              	.LBB315:
 5990              	.LBB313:
1346:Drivers/STM32F7xx_HAL_Driver/Src/stm32f7xx_hal_uart.c ****         CLEAR_BIT(huart->Instance->CR3, USART_CR3_EIE);
 5991              		.loc 1 1346 0
ARM GAS  /tmp/cc6CQ8Vx.s 			page 160


 5992 0256 1A68     		ldr	r2, [r3]
1349:Drivers/STM32F7xx_HAL_Driver/Src/stm32f7xx_hal_uart.c ****         huart->RxState = HAL_UART_STATE_READY;
 5993              		.loc 1 1349 0
 5994 0258 2021     		movs	r1, #32
 5995              	.LBE313:
 5996              	.LBE315:
 5997              	.LBE310:
 5998              	.LBE309:
2028:Drivers/STM32F7xx_HAL_Driver/Src/stm32f7xx_hal_uart.c ****     }
 5999              		.loc 1 2028 0
 6000 025a 0320     		movs	r0, #3
 6001              	.LBB318:
 6002              	.LBB317:
 6003              	.LBB316:
 6004              	.LBB314:
1346:Drivers/STM32F7xx_HAL_Driver/Src/stm32f7xx_hal_uart.c ****         CLEAR_BIT(huart->Instance->CR3, USART_CR3_EIE);
 6005              		.loc 1 1346 0
 6006 025c 22F4D072 		bic	r2, r2, #416
 6007 0260 1A60     		str	r2, [r3]
1347:Drivers/STM32F7xx_HAL_Driver/Src/stm32f7xx_hal_uart.c **** 
 6008              		.loc 1 1347 0
 6009 0262 9A68     		ldr	r2, [r3, #8]
 6010 0264 22F00102 		bic	r2, r2, #1
 6011 0268 9A60     		str	r2, [r3, #8]
1349:Drivers/STM32F7xx_HAL_Driver/Src/stm32f7xx_hal_uart.c ****         huart->RxState = HAL_UART_STATE_READY;
 6012              		.loc 1 1349 0
 6013 026a 84F86910 		strb	r1, [r4, #105]
1353:Drivers/STM32F7xx_HAL_Driver/Src/stm32f7xx_hal_uart.c ****         return HAL_TIMEOUT;
 6014              		.loc 1 1353 0
 6015 026e 84F86850 		strb	r5, [r4, #104]
 6016              	.LVL501:
1350:Drivers/STM32F7xx_HAL_Driver/Src/stm32f7xx_hal_uart.c **** 
 6017              		.loc 1 1350 0
 6018 0272 84F86A10 		strb	r1, [r4, #106]
 6019              	.LBE314:
 6020              	.LBE316:
 6021              	.LBE317:
 6022              	.LBE318:
 6023              	.LBE320:
 6024              	.LBE323:
 494:Drivers/STM32F7xx_HAL_Driver/Src/stm32f7xx_hal_uart.c **** 
 6025              		.loc 1 494 0
 6026 0276 F8BD     		pop	{r3, r4, r5, r6, r7, pc}
 6027              	.LVL502:
 6028              	.L1420:
 6029              	.LCFI57:
 6030              		.cfi_def_cfa_offset 0
 6031              		.cfi_restore 3
 6032              		.cfi_restore 4
 6033              		.cfi_restore 5
 6034              		.cfi_restore 6
 6035              		.cfi_restore 7
 6036              		.cfi_restore 14
 443:Drivers/STM32F7xx_HAL_Driver/Src/stm32f7xx_hal_uart.c ****   }
 6037              		.loc 1 443 0
 6038 0278 0120     		movs	r0, #1
 6039              	.LVL503:
ARM GAS  /tmp/cc6CQ8Vx.s 			page 161


 494:Drivers/STM32F7xx_HAL_Driver/Src/stm32f7xx_hal_uart.c **** 
 6040              		.loc 1 494 0
 6041 027a 7047     		bx	lr
 6042              	.LVL504:
 6043              	.L1434:
 6044              	.LCFI58:
 6045              		.cfi_def_cfa_offset 24
 6046              		.cfi_offset 3, -24
 6047              		.cfi_offset 4, -20
 6048              		.cfi_offset 5, -16
 6049              		.cfi_offset 6, -12
 6050              		.cfi_offset 7, -8
 6051              		.cfi_offset 14, -4
 6052              	.LBB324:
 6053              	.LBB300:
1868:Drivers/STM32F7xx_HAL_Driver/Src/stm32f7xx_hal_uart.c **** 
 6054              		.loc 1 1868 0
 6055 027c A2D9     		bls	.L1419
 6056 027e B2F5007F 		cmp	r2, #512
 6057 0282 B4D0     		beq	.L1230
 6058 0284 B2F5407F 		cmp	r2, #768
 6059 0288 7FF409AF 		bne	.L1226
 6060              	.L1231:
 6061              	.LVL505:
1871:Drivers/STM32F7xx_HAL_Driver/Src/stm32f7xx_hal_uart.c ****   {
 6062              		.loc 1 1871 0
 6063 028c B7F5004F 		cmp	r7, #32768
 6064 0290 C8D1     		bne	.L1268
 6065              	.LVL506:
 6066              	.L1267:
1888:Drivers/STM32F7xx_HAL_Driver/Src/stm32f7xx_hal_uart.c ****       break;
 6067              		.loc 1 1888 0
 6068 0292 6168     		ldr	r1, [r4, #4]
 6069 0294 4A08     		lsrs	r2, r1, #1
 6070 0296 02F58032 		add	r2, r2, #65536
 6071              	.L1417:
 6072 029a B2FBF1F2 		udiv	r2, r2, r1
 6073              	.LVL507:
1896:Drivers/STM32F7xx_HAL_Driver/Src/stm32f7xx_hal_uart.c ****     brrtemp |= (uint16_t)((usartdiv & (uint16_t)0x000FU) >> 1U);
 6074              		.loc 1 1896 0
 6075 029e 22F00F01 		bic	r1, r2, #15
1897:Drivers/STM32F7xx_HAL_Driver/Src/stm32f7xx_hal_uart.c ****     huart->Instance->BRR = brrtemp;
 6076              		.loc 1 1897 0
 6077 02a2 C2F34202 		ubfx	r2, r2, #1, #3
 6078              	.LVL508:
1896:Drivers/STM32F7xx_HAL_Driver/Src/stm32f7xx_hal_uart.c ****     brrtemp |= (uint16_t)((usartdiv & (uint16_t)0x000FU) >> 1U);
 6079              		.loc 1 1896 0
 6080 02a6 89B2     		uxth	r1, r1
 6081              	.LVL509:
1898:Drivers/STM32F7xx_HAL_Driver/Src/stm32f7xx_hal_uart.c ****   }
 6082              		.loc 1 1898 0
 6083 02a8 0A43     		orrs	r2, r2, r1
 6084 02aa DA60     		str	r2, [r3, #12]
 6085              	.LVL510:
 6086 02ac 5AE7     		b	.L1281
 6087              	.LVL511:
 6088              	.L1277:
ARM GAS  /tmp/cc6CQ8Vx.s 			page 162


1879:Drivers/STM32F7xx_HAL_Driver/Src/stm32f7xx_hal_uart.c ****       break;
 6089              		.loc 1 1879 0
 6090 02ae FFF7FEFF 		bl	HAL_RCC_GetPCLK2Freq
 6091              	.LVL512:
 6092              	.L1415:
1898:Drivers/STM32F7xx_HAL_Driver/Src/stm32f7xx_hal_uart.c ****   }
 6093              		.loc 1 1898 0
 6094 02b2 D4E90031 		ldrd	r3, r1, [r4]
1885:Drivers/STM32F7xx_HAL_Driver/Src/stm32f7xx_hal_uart.c ****       break;
 6095              		.loc 1 1885 0
 6096 02b6 4A08     		lsrs	r2, r1, #1
 6097 02b8 02EB4000 		add	r0, r2, r0, lsl #1
 6098 02bc B0FBF1F0 		udiv	r0, r0, r1
 6099              	.LVL513:
1896:Drivers/STM32F7xx_HAL_Driver/Src/stm32f7xx_hal_uart.c ****     brrtemp |= (uint16_t)((usartdiv & (uint16_t)0x000FU) >> 1U);
 6100              		.loc 1 1896 0
 6101 02c0 20F00F02 		bic	r2, r0, #15
1897:Drivers/STM32F7xx_HAL_Driver/Src/stm32f7xx_hal_uart.c ****     huart->Instance->BRR = brrtemp;
 6102              		.loc 1 1897 0
 6103 02c4 C0F34200 		ubfx	r0, r0, #1, #3
 6104              	.LVL514:
1896:Drivers/STM32F7xx_HAL_Driver/Src/stm32f7xx_hal_uart.c ****     brrtemp |= (uint16_t)((usartdiv & (uint16_t)0x000FU) >> 1U);
 6105              		.loc 1 1896 0
 6106 02c8 92B2     		uxth	r2, r2
 6107              	.LVL515:
1898:Drivers/STM32F7xx_HAL_Driver/Src/stm32f7xx_hal_uart.c ****   }
 6108              		.loc 1 1898 0
 6109 02ca 1043     		orrs	r0, r0, r2
 6110 02cc D860     		str	r0, [r3, #12]
 6111              	.LVL516:
 6112 02ce 49E7     		b	.L1281
 6113              	.LVL517:
 6114              	.L1433:
1868:Drivers/STM32F7xx_HAL_Driver/Src/stm32f7xx_hal_uart.c **** 
 6115              		.loc 1 1868 0
 6116 02d0 302A     		cmp	r2, #48
 6117 02d2 DBD0     		beq	.L1231
 6118 02d4 E3E6     		b	.L1226
 6119              	.LVL518:
 6120              	.L1269:
1885:Drivers/STM32F7xx_HAL_Driver/Src/stm32f7xx_hal_uart.c ****       break;
 6121              		.loc 1 1885 0
 6122 02d6 FFF7FEFF 		bl	HAL_RCC_GetSysClockFreq
 6123              	.LVL519:
 6124 02da EAE7     		b	.L1415
 6125              	.LVL520:
 6126              	.L1271:
1882:Drivers/STM32F7xx_HAL_Driver/Src/stm32f7xx_hal_uart.c ****       break;
 6127              		.loc 1 1882 0
 6128 02dc 6168     		ldr	r1, [r4, #4]
 6129 02de 1B4A     		ldr	r2, .L1436+56
 6130 02e0 02EB5102 		add	r2, r2, r1, lsr #1
 6131 02e4 D9E7     		b	.L1417
 6132              	.L1273:
1876:Drivers/STM32F7xx_HAL_Driver/Src/stm32f7xx_hal_uart.c ****       break;
 6133              		.loc 1 1876 0
 6134 02e6 FFF7FEFF 		bl	HAL_RCC_GetPCLK1Freq
ARM GAS  /tmp/cc6CQ8Vx.s 			page 163


 6135              	.LVL521:
 6136 02ea E2E7     		b	.L1415
 6137              	.LVL522:
 6138              	.L1429:
1868:Drivers/STM32F7xx_HAL_Driver/Src/stm32f7xx_hal_uart.c **** 
 6139              		.loc 1 1868 0
 6140 02ec 02F5DE32 		add	r2, r2, #113664
 6141 02f0 D2F89020 		ldr	r2, [r2, #144]
 6142 02f4 02F44042 		and	r2, r2, #49152
 6143 02f8 B2F5804F 		cmp	r2, #16384
 6144 02fc 8CD0     		beq	.L1227
 6145 02fe 7FF661AF 		bls	.L1419
 6146 0302 B2F5004F 		cmp	r2, #32768
 6147 0306 3FF472AF 		beq	.L1230
 6148 030a B2F5404F 		cmp	r2, #49152
 6149 030e BDD0     		beq	.L1231
 6150 0310 C5E6     		b	.L1226
 6151              	.L1437:
 6152 0312 00BF     		.align	2
 6153              	.L1436:
 6154 0314 F369FFEF 		.word	-268473869
 6155 0318 00100140 		.word	1073811456
 6156 031c 00440040 		.word	1073759232
 6157 0320 00480040 		.word	1073760256
 6158 0324 004C0040 		.word	1073761280
 6159 0328 00500040 		.word	1073762304
 6160 032c 00140140 		.word	1073812480
 6161 0330 00780040 		.word	1073772544
 6162 0334 007C0040 		.word	1073773568
 6163 0338 00380240 		.word	1073887232
 6164 033c 00000000 		.word	.LANCHOR0
 6165 0340 00000000 		.word	.LANCHOR1
 6166 0344 0024F400 		.word	16000000
 6167 0348 FEFFFF01 		.word	33554430
 6168 034c 0048E801 		.word	32000000
 6169              	.L1427:
 6170 0350 02F59232 		add	r2, r2, #74752
 6171 0354 D2F89020 		ldr	r2, [r2, #144]
 6172 0358 02F44062 		and	r2, r2, #3072
 6173 035c B2F5806F 		cmp	r2, #1024
 6174 0360 3FF45AAF 		beq	.L1227
 6175 0364 7FF6EEAE 		bls	.L1435
 6176 0368 B2F5006F 		cmp	r2, #2048
 6177 036c 3FF43FAF 		beq	.L1230
 6178 0370 B2F5406F 		cmp	r2, #3072
 6179 0374 8AD0     		beq	.L1231
 6180 0376 92E6     		b	.L1226
 6181              	.L1428:
 6182 0378 02F5E032 		add	r2, r2, #114688
 6183 037c D2F89020 		ldr	r2, [r2, #144]
 6184 0380 02F44052 		and	r2, r2, #12288
 6185 0384 B2F5805F 		cmp	r2, #4096
 6186 0388 3FF446AF 		beq	.L1227
 6187 038c 7FF61AAF 		bls	.L1419
 6188 0390 B2F5005F 		cmp	r2, #8192
 6189 0394 3FF42BAF 		beq	.L1230
 6190 0398 B2F5405F 		cmp	r2, #12288
ARM GAS  /tmp/cc6CQ8Vx.s 			page 164


 6191 039c 3FF476AF 		beq	.L1231
 6192 03a0 7DE6     		b	.L1226
 6193              	.LVL523:
 6194              	.L1275:
1898:Drivers/STM32F7xx_HAL_Driver/Src/stm32f7xx_hal_uart.c ****   }
 6195              		.loc 1 1898 0
 6196 03a2 0022     		movs	r2, #0
 6197              	.LBE300:
 6198              	.LBE324:
 466:Drivers/STM32F7xx_HAL_Driver/Src/stm32f7xx_hal_uart.c ****   }
 6199              		.loc 1 466 0
 6200 03a4 0120     		movs	r0, #1
 6201              	.LBB325:
 6202              	.LBB301:
1898:Drivers/STM32F7xx_HAL_Driver/Src/stm32f7xx_hal_uart.c ****   }
 6203              		.loc 1 1898 0
 6204 03a6 DA60     		str	r2, [r3, #12]
 6205              	.LVL524:
 6206              	.LBE301:
 6207              	.LBE325:
 494:Drivers/STM32F7xx_HAL_Driver/Src/stm32f7xx_hal_uart.c **** 
 6208              		.loc 1 494 0
 6209 03a8 F8BD     		pop	{r3, r4, r5, r6, r7, pc}
 6210              		.cfi_endproc
 6211              	.LFE141:
 6213 03aa 00BF     		.section	.text.HAL_RS485Ex_Init,"ax",%progbits
 6214              		.align	1
 6215              		.p2align 2,,3
 6216              		.global	HAL_RS485Ex_Init
 6217              		.syntax unified
 6218              		.thumb
 6219              		.thumb_func
 6220              		.fpu fpv4-sp-d16
 6222              	HAL_RS485Ex_Init:
 6223              	.LFB142:
 517:Drivers/STM32F7xx_HAL_Driver/Src/stm32f7xx_hal_uart.c ****   uint32_t temp = 0x0;
 6224              		.loc 1 517 0
 6225              		.cfi_startproc
 6226              		@ args = 0, pretend = 0, frame = 0
 6227              		@ frame_needed = 0, uses_anonymous_args = 0
 6228              	.LVL525:
 521:Drivers/STM32F7xx_HAL_Driver/Src/stm32f7xx_hal_uart.c ****   {
 6229              		.loc 1 521 0
 6230 0000 0028     		cmp	r0, #0
 6231 0002 00F03881 		beq	.L1639
 517:Drivers/STM32F7xx_HAL_Driver/Src/stm32f7xx_hal_uart.c ****   uint32_t temp = 0x0;
 6232              		.loc 1 517 0
 6233 0006 2DE9F041 		push	{r4, r5, r6, r7, r8, lr}
 6234              	.LCFI59:
 6235              		.cfi_def_cfa_offset 24
 6236              		.cfi_offset 4, -24
 6237              		.cfi_offset 5, -20
 6238              		.cfi_offset 6, -16
 6239              		.cfi_offset 7, -12
 6240              		.cfi_offset 8, -8
 6241              		.cfi_offset 14, -4
 6242 000a 1E46     		mov	r6, r3
ARM GAS  /tmp/cc6CQ8Vx.s 			page 165


 537:Drivers/STM32F7xx_HAL_Driver/Src/stm32f7xx_hal_uart.c ****   {
 6243              		.loc 1 537 0
 6244 000c 90F86930 		ldrb	r3, [r0, #105]	@ zero_extendqisi2
 6245              	.LVL526:
 6246 0010 9046     		mov	r8, r2
 6247 0012 0446     		mov	r4, r0
 6248 0014 0F46     		mov	r7, r1
 6249 0016 03F0FF02 		and	r2, r3, #255
 6250              	.LVL527:
 6251 001a 002B     		cmp	r3, #0
 6252 001c 48D0     		beq	.L1640
 6253              	.LVL528:
 6254              	.L1441:
 549:Drivers/STM32F7xx_HAL_Driver/Src/stm32f7xx_hal_uart.c **** 
 6255              		.loc 1 549 0
 6256 001e 2568     		ldr	r5, [r4]
 546:Drivers/STM32F7xx_HAL_Driver/Src/stm32f7xx_hal_uart.c **** 
 6257              		.loc 1 546 0
 6258 0020 2423     		movs	r3, #36
 6259              	.LBB334:
 6260              	.LBB335:
1850:Drivers/STM32F7xx_HAL_Driver/Src/stm32f7xx_hal_uart.c ****   MODIFY_REG(huart->Instance->CR1, UART_CR1_FIELDS, tmpreg);
 6261              		.loc 1 1850 0
 6262 0022 2269     		ldr	r2, [r4, #16]
 6263              	.LBE335:
 6264              	.LBE334:
 546:Drivers/STM32F7xx_HAL_Driver/Src/stm32f7xx_hal_uart.c **** 
 6265              		.loc 1 546 0
 6266 0024 84F86930 		strb	r3, [r4, #105]
 6267              	.LBB344:
 6268              	.LBB336:
1850:Drivers/STM32F7xx_HAL_Driver/Src/stm32f7xx_hal_uart.c ****   MODIFY_REG(huart->Instance->CR1, UART_CR1_FIELDS, tmpreg);
 6269              		.loc 1 1850 0
 6270 0028 A068     		ldr	r0, [r4, #8]
 6271              	.LBE336:
 6272              	.LBE344:
 549:Drivers/STM32F7xx_HAL_Driver/Src/stm32f7xx_hal_uart.c **** 
 6273              		.loc 1 549 0
 6274 002a 2B68     		ldr	r3, [r5]
 6275              	.LBB345:
 6276              	.LBB337:
1850:Drivers/STM32F7xx_HAL_Driver/Src/stm32f7xx_hal_uart.c ****   MODIFY_REG(huart->Instance->CR1, UART_CR1_FIELDS, tmpreg);
 6277              		.loc 1 1850 0
 6278 002c 6169     		ldr	r1, [r4, #20]
 6279 002e 1043     		orrs	r0, r0, r2
 6280              	.LBE337:
 6281              	.LBE345:
 549:Drivers/STM32F7xx_HAL_Driver/Src/stm32f7xx_hal_uart.c **** 
 6282              		.loc 1 549 0
 6283 0030 23F00103 		bic	r3, r3, #1
 6284              	.LBB346:
 6285              	.LBB338:
1851:Drivers/STM32F7xx_HAL_Driver/Src/stm32f7xx_hal_uart.c **** 
 6286              		.loc 1 1851 0
 6287 0034 B64A     		ldr	r2, .L1655
1850:Drivers/STM32F7xx_HAL_Driver/Src/stm32f7xx_hal_uart.c ****   MODIFY_REG(huart->Instance->CR1, UART_CR1_FIELDS, tmpreg);
 6288              		.loc 1 1850 0
ARM GAS  /tmp/cc6CQ8Vx.s 			page 166


 6289 0036 0843     		orrs	r0, r0, r1
 6290 0038 E169     		ldr	r1, [r4, #28]
 6291              	.LBE338:
 6292              	.LBE346:
 549:Drivers/STM32F7xx_HAL_Driver/Src/stm32f7xx_hal_uart.c **** 
 6293              		.loc 1 549 0
 6294 003a 2B60     		str	r3, [r5]
 6295              	.LVL529:
 6296              	.LBB347:
 6297              	.LBB339:
1851:Drivers/STM32F7xx_HAL_Driver/Src/stm32f7xx_hal_uart.c **** 
 6298              		.loc 1 1851 0
 6299 003c 2B68     		ldr	r3, [r5]
1850:Drivers/STM32F7xx_HAL_Driver/Src/stm32f7xx_hal_uart.c ****   MODIFY_REG(huart->Instance->CR1, UART_CR1_FIELDS, tmpreg);
 6300              		.loc 1 1850 0
 6301 003e 0843     		orrs	r0, r0, r1
1856:Drivers/STM32F7xx_HAL_Driver/Src/stm32f7xx_hal_uart.c **** 
 6302              		.loc 1 1856 0
 6303 0040 D4F80CC0 		ldr	ip, [r4, #12]
1851:Drivers/STM32F7xx_HAL_Driver/Src/stm32f7xx_hal_uart.c **** 
 6304              		.loc 1 1851 0
 6305 0044 1A40     		ands	r2, r2, r3
1864:Drivers/STM32F7xx_HAL_Driver/Src/stm32f7xx_hal_uart.c ****   MODIFY_REG(huart->Instance->CR3, (USART_CR3_RTSE | USART_CR3_CTSE | USART_CR3_ONEBIT), tmpreg);
 6306              		.loc 1 1864 0
 6307 0046 A369     		ldr	r3, [r4, #24]
1851:Drivers/STM32F7xx_HAL_Driver/Src/stm32f7xx_hal_uart.c **** 
 6308              		.loc 1 1851 0
 6309 0048 1043     		orrs	r0, r0, r2
1864:Drivers/STM32F7xx_HAL_Driver/Src/stm32f7xx_hal_uart.c ****   MODIFY_REG(huart->Instance->CR3, (USART_CR3_RTSE | USART_CR3_CTSE | USART_CR3_ONEBIT), tmpreg);
 6310              		.loc 1 1864 0
 6311 004a 226A     		ldr	r2, [r4, #32]
1851:Drivers/STM32F7xx_HAL_Driver/Src/stm32f7xx_hal_uart.c **** 
 6312              		.loc 1 1851 0
 6313 004c 2860     		str	r0, [r5]
1864:Drivers/STM32F7xx_HAL_Driver/Src/stm32f7xx_hal_uart.c ****   MODIFY_REG(huart->Instance->CR3, (USART_CR3_RTSE | USART_CR3_CTSE | USART_CR3_ONEBIT), tmpreg);
 6314              		.loc 1 1864 0
 6315 004e 1343     		orrs	r3, r3, r2
1856:Drivers/STM32F7xx_HAL_Driver/Src/stm32f7xx_hal_uart.c **** 
 6316              		.loc 1 1856 0
 6317 0050 6A68     		ldr	r2, [r5, #4]
1868:Drivers/STM32F7xx_HAL_Driver/Src/stm32f7xx_hal_uart.c **** 
 6318              		.loc 1 1868 0
 6319 0052 B048     		ldr	r0, .L1655+4
1856:Drivers/STM32F7xx_HAL_Driver/Src/stm32f7xx_hal_uart.c **** 
 6320              		.loc 1 1856 0
 6321 0054 22F44052 		bic	r2, r2, #12288
1868:Drivers/STM32F7xx_HAL_Driver/Src/stm32f7xx_hal_uart.c **** 
 6322              		.loc 1 1868 0
 6323 0058 8542     		cmp	r5, r0
1856:Drivers/STM32F7xx_HAL_Driver/Src/stm32f7xx_hal_uart.c **** 
 6324              		.loc 1 1856 0
 6325 005a 42EA0C02 		orr	r2, r2, ip
 6326 005e 6A60     		str	r2, [r5, #4]
 6327              	.LVL530:
1865:Drivers/STM32F7xx_HAL_Driver/Src/stm32f7xx_hal_uart.c **** 
 6328              		.loc 1 1865 0
 6329 0060 AA68     		ldr	r2, [r5, #8]
ARM GAS  /tmp/cc6CQ8Vx.s 			page 167


 6330 0062 22F43062 		bic	r2, r2, #2816
 6331 0066 43EA0203 		orr	r3, r3, r2
 6332 006a AB60     		str	r3, [r5, #8]
1868:Drivers/STM32F7xx_HAL_Driver/Src/stm32f7xx_hal_uart.c **** 
 6333              		.loc 1 1868 0
 6334 006c 25D0     		beq	.L1641
 6335 006e AA4B     		ldr	r3, .L1655+8
 6336 0070 9D42     		cmp	r5, r3
 6337 0072 43D0     		beq	.L1642
 6338 0074 A94B     		ldr	r3, .L1655+12
 6339 0076 9D42     		cmp	r5, r3
 6340 0078 00F0AD80 		beq	.L1643
 6341 007c A84B     		ldr	r3, .L1655+16
 6342 007e 9D42     		cmp	r5, r3
 6343 0080 45D0     		beq	.L1644
 6344 0082 A84B     		ldr	r3, .L1655+20
 6345 0084 9D42     		cmp	r5, r3
 6346 0086 00F0BD80 		beq	.L1645
 6347 008a A74B     		ldr	r3, .L1655+24
 6348 008c 9D42     		cmp	r5, r3
 6349 008e 00F05F81 		beq	.L1646
 6350 0092 A64B     		ldr	r3, .L1655+28
 6351 0094 9D42     		cmp	r5, r3
 6352 0096 00F06F81 		beq	.L1647
 6353 009a A54B     		ldr	r3, .L1655+32
 6354 009c 9D42     		cmp	r5, r3
 6355 009e 00F02481 		beq	.L1648
 6356              	.L1446:
1871:Drivers/STM32F7xx_HAL_Driver/Src/stm32f7xx_hal_uart.c ****   {
 6357              		.loc 1 1871 0
 6358 00a2 B1F5004F 		cmp	r1, #32768
 6359 00a6 00F07C81 		beq	.L1495
 6360              	.LVL531:
 6361              	.L1508:
 6362              	.LBE339:
 6363              	.LBE347:
 554:Drivers/STM32F7xx_HAL_Driver/Src/stm32f7xx_hal_uart.c ****   }
 6364              		.loc 1 554 0
 6365 00aa 0120     		movs	r0, #1
 578:Drivers/STM32F7xx_HAL_Driver/Src/stm32f7xx_hal_uart.c **** 
 6366              		.loc 1 578 0
 6367 00ac BDE8F081 		pop	{r4, r5, r6, r7, r8, pc}
 6368              	.LVL532:
 6369              	.L1640:
 540:Drivers/STM32F7xx_HAL_Driver/Src/stm32f7xx_hal_uart.c **** 
 6370              		.loc 1 540 0
 6371 00b0 80F86820 		strb	r2, [r0, #104]
 543:Drivers/STM32F7xx_HAL_Driver/Src/stm32f7xx_hal_uart.c ****   }
 6372              		.loc 1 543 0
 6373 00b4 FFF7FEFF 		bl	HAL_UART_MspInit
 6374              	.LVL533:
 6375 00b8 B1E7     		b	.L1441
 6376              	.LVL534:
 6377              	.L1641:
 6378              	.LBB348:
 6379              	.LBB340:
1868:Drivers/STM32F7xx_HAL_Driver/Src/stm32f7xx_hal_uart.c **** 
ARM GAS  /tmp/cc6CQ8Vx.s 			page 168


 6380              		.loc 1 1868 0
 6381 00ba 9E4B     		ldr	r3, .L1655+36
 6382 00bc 9E4A     		ldr	r2, .L1655+40
 6383 00be D3F89030 		ldr	r3, [r3, #144]
 6384 00c2 03F00303 		and	r3, r3, #3
 6385 00c6 D35C     		ldrb	r3, [r2, r3]	@ zero_extendqisi2
 6386              	.L1443:
 6387              	.LVL535:
1871:Drivers/STM32F7xx_HAL_Driver/Src/stm32f7xx_hal_uart.c ****   {
 6388              		.loc 1 1871 0
 6389 00c8 B1F5004F 		cmp	r1, #32768
 6390 00cc 2ED0     		beq	.L1649
1902:Drivers/STM32F7xx_HAL_Driver/Src/stm32f7xx_hal_uart.c ****     {
 6391              		.loc 1 1902 0
 6392 00ce 082B     		cmp	r3, #8
 6393 00d0 EBD8     		bhi	.L1508
 6394 00d2 01A2     		adr	r2, .L1502
 6395 00d4 52F823F0 		ldr	pc, [r2, r3, lsl #2]
 6396              		.p2align 2
 6397              	.L1502:
 6398 00d8 D1010000 		.word	.L1494+1
 6399 00dc 55010000 		.word	.L1498+1
 6400 00e0 F3010000 		.word	.L1492+1
 6401 00e4 AB000000 		.word	.L1508+1
 6402 00e8 1D020000 		.word	.L1490+1
 6403 00ec AB000000 		.word	.L1508+1
 6404 00f0 AB000000 		.word	.L1508+1
 6405 00f4 AB000000 		.word	.L1508+1
 6406 00f8 23020000 		.word	.L1488+1
 6407              	.LVL536:
 6408              		.p2align 1
 6409              	.L1642:
1868:Drivers/STM32F7xx_HAL_Driver/Src/stm32f7xx_hal_uart.c **** 
 6410              		.loc 1 1868 0
 6411 00fc 03F5FA33 		add	r3, r3, #128000
 6412 0100 8E4A     		ldr	r2, .L1655+44
 6413 0102 D3F89030 		ldr	r3, [r3, #144]
 6414 0106 03F00C03 		and	r3, r3, #12
 6415 010a D35C     		ldrb	r3, [r2, r3]	@ zero_extendqisi2
 6416 010c DCE7     		b	.L1443
 6417              	.L1644:
 6418 010e 03F5F633 		add	r3, r3, #125952
 6419 0112 D3F89030 		ldr	r3, [r3, #144]
 6420 0116 03F0C003 		and	r3, r3, #192
 6421 011a 402B     		cmp	r3, #64
 6422 011c 7BD0     		beq	.L1447
 6423 011e 50D9     		bls	.L1638
 6424 0120 802B     		cmp	r3, #128
 6425 0122 63D0     		beq	.L1450
 6426 0124 C02B     		cmp	r3, #192
 6427 0126 00F0B080 		beq	.L1451
 6428 012a BAE7     		b	.L1446
 6429              	.LVL537:
 6430              	.L1649:
1873:Drivers/STM32F7xx_HAL_Driver/Src/stm32f7xx_hal_uart.c ****     {
 6431              		.loc 1 1873 0
 6432 012c 082B     		cmp	r3, #8
ARM GAS  /tmp/cc6CQ8Vx.s 			page 169


 6433 012e 00F23881 		bhi	.L1495
 6434 0132 DFE813F0 		tbh	[pc, r3, lsl #1]
 6435              	.L1500:
 6436 0136 D700     		.2byte	(.L1493-.L1500)/2
 6437 0138 BB00     		.2byte	(.L1497-.L1500)/2
 6438 013a D200     		.2byte	(.L1491-.L1500)/2
 6439 013c 3601     		.2byte	(.L1495-.L1500)/2
 6440 013e CF00     		.2byte	(.L1489-.L1500)/2
 6441 0140 3601     		.2byte	(.L1495-.L1500)/2
 6442 0142 3601     		.2byte	(.L1495-.L1500)/2
 6443 0144 3601     		.2byte	(.L1495-.L1500)/2
 6444 0146 AD00     		.2byte	(.L1487-.L1500)/2
 6445              	.LVL538:
 6446              		.p2align 1
 6447              	.L1654:
1868:Drivers/STM32F7xx_HAL_Driver/Src/stm32f7xx_hal_uart.c **** 
 6448              		.loc 1 1868 0
 6449 0148 002B     		cmp	r3, #0
 6450 014a AAD1     		bne	.L1446
 6451              	.LVL539:
1871:Drivers/STM32F7xx_HAL_Driver/Src/stm32f7xx_hal_uart.c ****   {
 6452              		.loc 1 1871 0
 6453 014c B1F5004F 		cmp	r1, #32768
 6454 0150 00F0AC80 		beq	.L1497
 6455              	.LVL540:
 6456              	.L1498:
1908:Drivers/STM32F7xx_HAL_Driver/Src/stm32f7xx_hal_uart.c ****       break;
 6457              		.loc 1 1908 0
 6458 0154 FFF7FEFF 		bl	HAL_RCC_GetPCLK2Freq
 6459              	.LVL541:
 6460              	.L1635:
1914:Drivers/STM32F7xx_HAL_Driver/Src/stm32f7xx_hal_uart.c ****       break;
 6461              		.loc 1 1914 0
 6462 0158 D4E90052 		ldrd	r5, r2, [r4]
 6463 015c 00EB5203 		add	r3, r0, r2, lsr #1
 6464 0160 B3FBF2F3 		udiv	r3, r3, r2
 6465 0164 9BB2     		uxth	r3, r3
 6466 0166 EB60     		str	r3, [r5, #12]
 6467              	.LVL542:
 6468              	.L1501:
 6469              	.LBE340:
 6470              	.LBE348:
 557:Drivers/STM32F7xx_HAL_Driver/Src/stm32f7xx_hal_uart.c ****   {
 6471              		.loc 1 557 0
 6472 0168 636A     		ldr	r3, [r4, #36]
 6473 016a 002B     		cmp	r3, #0
 6474 016c 7ED1     		bne	.L1650
 6475              	.L1503:
 6476              	.LVL543:
 563:Drivers/STM32F7xx_HAL_Driver/Src/stm32f7xx_hal_uart.c **** 
 6477              		.loc 1 563 0
 6478 016e AB68     		ldr	r3, [r5, #8]
 570:Drivers/STM32F7xx_HAL_Driver/Src/stm32f7xx_hal_uart.c ****   MODIFY_REG(huart->Instance->CR1, (USART_CR1_DEDT|USART_CR1_DEAT), temp);
 6479              		.loc 1 570 0
 6480 0170 3604     		lsls	r6, r6, #16
 6481              	.LVL544:
 6482              	.LBB349:
ARM GAS  /tmp/cc6CQ8Vx.s 			page 170


 6483              	.LBB350:
2016:Drivers/STM32F7xx_HAL_Driver/Src/stm32f7xx_hal_uart.c **** 
 6484              		.loc 1 2016 0
 6485 0172 0022     		movs	r2, #0
 6486              	.LBE350:
 6487              	.LBE349:
 563:Drivers/STM32F7xx_HAL_Driver/Src/stm32f7xx_hal_uart.c **** 
 6488              		.loc 1 563 0
 6489 0174 43F48043 		orr	r3, r3, #16384
 570:Drivers/STM32F7xx_HAL_Driver/Src/stm32f7xx_hal_uart.c ****   MODIFY_REG(huart->Instance->CR1, (USART_CR1_DEDT|USART_CR1_DEAT), temp);
 6490              		.loc 1 570 0
 6491 0178 46EA4858 		orr	r8, r6, r8, lsl #21
 6492              	.LVL545:
 571:Drivers/STM32F7xx_HAL_Driver/Src/stm32f7xx_hal_uart.c **** 
 6493              		.loc 1 571 0
 6494 017c 704E     		ldr	r6, .L1655+48
 563:Drivers/STM32F7xx_HAL_Driver/Src/stm32f7xx_hal_uart.c **** 
 6495              		.loc 1 563 0
 6496 017e AB60     		str	r3, [r5, #8]
 566:Drivers/STM32F7xx_HAL_Driver/Src/stm32f7xx_hal_uart.c **** 
 6497              		.loc 1 566 0
 6498 0180 A968     		ldr	r1, [r5, #8]
 6499 0182 21F40041 		bic	r1, r1, #32768
 6500 0186 0F43     		orrs	r7, r7, r1
 6501              	.LVL546:
 6502 0188 AF60     		str	r7, [r5, #8]
 571:Drivers/STM32F7xx_HAL_Driver/Src/stm32f7xx_hal_uart.c **** 
 6503              		.loc 1 571 0
 6504 018a 2B68     		ldr	r3, [r5]
 6505 018c 1E40     		ands	r6, r6, r3
 6506 018e 48EA0606 		orr	r6, r8, r6
 6507 0192 2E60     		str	r6, [r5]
 574:Drivers/STM32F7xx_HAL_Driver/Src/stm32f7xx_hal_uart.c **** 
 6508              		.loc 1 574 0
 6509 0194 2B68     		ldr	r3, [r5]
 6510 0196 43F00103 		orr	r3, r3, #1
 6511 019a 2B60     		str	r3, [r5]
 6512              	.LVL547:
 6513              	.LBB363:
 6514              	.LBB361:
2016:Drivers/STM32F7xx_HAL_Driver/Src/stm32f7xx_hal_uart.c **** 
 6515              		.loc 1 2016 0
 6516 019c E266     		str	r2, [r4, #108]
2019:Drivers/STM32F7xx_HAL_Driver/Src/stm32f7xx_hal_uart.c **** 
 6517              		.loc 1 2019 0
 6518 019e FFF7FEFF 		bl	HAL_GetTick
 6519              	.LVL548:
2022:Drivers/STM32F7xx_HAL_Driver/Src/stm32f7xx_hal_uart.c ****   {
 6520              		.loc 1 2022 0
 6521 01a2 2368     		ldr	r3, [r4]
2019:Drivers/STM32F7xx_HAL_Driver/Src/stm32f7xx_hal_uart.c **** 
 6522              		.loc 1 2019 0
 6523 01a4 0646     		mov	r6, r0
 6524              	.LVL549:
2022:Drivers/STM32F7xx_HAL_Driver/Src/stm32f7xx_hal_uart.c ****   {
 6525              		.loc 1 2022 0
 6526 01a6 1A68     		ldr	r2, [r3]
ARM GAS  /tmp/cc6CQ8Vx.s 			page 171


 6527 01a8 1207     		lsls	r2, r2, #28
 6528 01aa 43D4     		bmi	.L1651
 6529              	.LVL550:
 6530              	.L1507:
2037:Drivers/STM32F7xx_HAL_Driver/Src/stm32f7xx_hal_uart.c **** 
 6531              		.loc 1 2037 0
 6532 01ac 0023     		movs	r3, #0
2033:Drivers/STM32F7xx_HAL_Driver/Src/stm32f7xx_hal_uart.c ****   huart->RxState= HAL_UART_STATE_READY;
 6533              		.loc 1 2033 0
 6534 01ae 2022     		movs	r2, #32
 6535              		.loc 1 2039 0
 6536 01b0 1846     		mov	r0, r3
2033:Drivers/STM32F7xx_HAL_Driver/Src/stm32f7xx_hal_uart.c ****   huart->RxState= HAL_UART_STATE_READY;
 6537              		.loc 1 2033 0
 6538 01b2 84F86920 		strb	r2, [r4, #105]
2037:Drivers/STM32F7xx_HAL_Driver/Src/stm32f7xx_hal_uart.c **** 
 6539              		.loc 1 2037 0
 6540 01b6 84F86830 		strb	r3, [r4, #104]
2034:Drivers/STM32F7xx_HAL_Driver/Src/stm32f7xx_hal_uart.c **** 
 6541              		.loc 1 2034 0
 6542 01ba 84F86A20 		strb	r2, [r4, #106]
 6543              	.LVL551:
 6544              	.L1440:
 6545              	.LBE361:
 6546              	.LBE363:
 578:Drivers/STM32F7xx_HAL_Driver/Src/stm32f7xx_hal_uart.c **** 
 6547              		.loc 1 578 0
 6548 01be BDE8F081 		pop	{r4, r5, r6, r7, r8, pc}
 6549              	.LVL552:
 6550              	.L1638:
 6551              	.LBB364:
 6552              	.LBB341:
1868:Drivers/STM32F7xx_HAL_Driver/Src/stm32f7xx_hal_uart.c **** 
 6553              		.loc 1 1868 0
 6554 01c2 002B     		cmp	r3, #0
 6555 01c4 7FF46DAF 		bne	.L1446
 6556              	.LVL553:
1871:Drivers/STM32F7xx_HAL_Driver/Src/stm32f7xx_hal_uart.c ****   {
 6557              		.loc 1 1871 0
 6558 01c8 B1F5004F 		cmp	r1, #32768
 6559 01cc 00F08A80 		beq	.L1493
 6560              	.LVL554:
 6561              	.L1494:
1905:Drivers/STM32F7xx_HAL_Driver/Src/stm32f7xx_hal_uart.c ****       break;
 6562              		.loc 1 1905 0
 6563 01d0 FFF7FEFF 		bl	HAL_RCC_GetPCLK1Freq
 6564              	.LVL555:
 6565 01d4 C0E7     		b	.L1635
 6566              	.LVL556:
 6567              	.L1643:
1868:Drivers/STM32F7xx_HAL_Driver/Src/stm32f7xx_hal_uart.c **** 
 6568              		.loc 1 1868 0
 6569 01d6 03F5F833 		add	r3, r3, #126976
 6570 01da D3F89030 		ldr	r3, [r3, #144]
 6571 01de 03F03003 		and	r3, r3, #48
 6572 01e2 102B     		cmp	r3, #16
 6573 01e4 17D0     		beq	.L1447
ARM GAS  /tmp/cc6CQ8Vx.s 			page 172


 6574 01e6 ECD9     		bls	.L1638
 6575 01e8 202B     		cmp	r3, #32
 6576 01ea 70D1     		bne	.L1652
 6577              	.L1450:
 6578              	.LVL557:
1871:Drivers/STM32F7xx_HAL_Driver/Src/stm32f7xx_hal_uart.c ****   {
 6579              		.loc 1 1871 0
 6580 01ec B1F5004F 		cmp	r1, #32768
 6581 01f0 73D0     		beq	.L1491
 6582              	.LVL558:
 6583              	.L1492:
1911:Drivers/STM32F7xx_HAL_Driver/Src/stm32f7xx_hal_uart.c ****       break;
 6584              		.loc 1 1911 0
 6585 01f2 6268     		ldr	r2, [r4, #4]
 6586 01f4 534B     		ldr	r3, .L1655+52
 6587 01f6 03EB5203 		add	r3, r3, r2, lsr #1
 6588 01fa B3FBF2F3 		udiv	r3, r3, r2
 6589 01fe 9BB2     		uxth	r3, r3
 6590 0200 EB60     		str	r3, [r5, #12]
 6591              	.LVL559:
 6592 0202 B1E7     		b	.L1501
 6593              	.LVL560:
 6594              	.L1645:
1868:Drivers/STM32F7xx_HAL_Driver/Src/stm32f7xx_hal_uart.c **** 
 6595              		.loc 1 1868 0
 6596 0204 03F5F433 		add	r3, r3, #124928
 6597 0208 D3F89030 		ldr	r3, [r3, #144]
 6598 020c 03F44073 		and	r3, r3, #768
 6599 0210 B3F5807F 		cmp	r3, #256
 6600 0214 31D1     		bne	.L1653
 6601              	.L1447:
 6602              	.LVL561:
1871:Drivers/STM32F7xx_HAL_Driver/Src/stm32f7xx_hal_uart.c ****   {
 6603              		.loc 1 1871 0
 6604 0216 B1F5004F 		cmp	r1, #32768
 6605 021a 5BD0     		beq	.L1489
 6606              	.LVL562:
 6607              	.L1490:
1914:Drivers/STM32F7xx_HAL_Driver/Src/stm32f7xx_hal_uart.c ****       break;
 6608              		.loc 1 1914 0
 6609 021c FFF7FEFF 		bl	HAL_RCC_GetSysClockFreq
 6610              	.LVL563:
 6611 0220 9AE7     		b	.L1635
 6612              	.LVL564:
 6613              	.L1488:
1917:Drivers/STM32F7xx_HAL_Driver/Src/stm32f7xx_hal_uart.c ****       break;
 6614              		.loc 1 1917 0
 6615 0222 6268     		ldr	r2, [r4, #4]
 6616 0224 5308     		lsrs	r3, r2, #1
 6617 0226 03F50043 		add	r3, r3, #32768
 6618 022a B3FBF2F3 		udiv	r3, r3, r2
 6619 022e 9BB2     		uxth	r3, r3
 6620 0230 EB60     		str	r3, [r5, #12]
 6621              	.LVL565:
 6622 0232 99E7     		b	.L1501
 6623              	.LVL566:
 6624              	.L1651:
ARM GAS  /tmp/cc6CQ8Vx.s 			page 173


 6625              	.LBE341:
 6626              	.LBE364:
 6627              	.LBB365:
 6628              	.LBB362:
 6629              	.LBB351:
 6630              	.LBB352:
1343:Drivers/STM32F7xx_HAL_Driver/Src/stm32f7xx_hal_uart.c ****       {
 6631              		.loc 1 1343 0
 6632 0234 444F     		ldr	r7, .L1655+56
 6633              	.LVL567:
 6634              	.L1504:
1338:Drivers/STM32F7xx_HAL_Driver/Src/stm32f7xx_hal_uart.c ****   {
 6635              		.loc 1 1338 0
 6636 0236 DD69     		ldr	r5, [r3, #28]
 6637 0238 15F40015 		ands	r5, r5, #2097152
 6638 023c B6D1     		bne	.L1507
1343:Drivers/STM32F7xx_HAL_Driver/Src/stm32f7xx_hal_uart.c ****       {
 6639              		.loc 1 1343 0
 6640 023e FFF7FEFF 		bl	HAL_GetTick
 6641              	.LVL568:
 6642 0242 801B     		subs	r0, r0, r6
 6643              	.LBB353:
 6644              	.LBB354:
1346:Drivers/STM32F7xx_HAL_Driver/Src/stm32f7xx_hal_uart.c ****         CLEAR_BIT(huart->Instance->CR3, USART_CR3_EIE);
 6645              		.loc 1 1346 0
 6646 0244 2368     		ldr	r3, [r4]
 6647              	.LBE354:
 6648              	.LBE353:
1343:Drivers/STM32F7xx_HAL_Driver/Src/stm32f7xx_hal_uart.c ****       {
 6649              		.loc 1 1343 0
 6650 0246 B842     		cmp	r0, r7
 6651 0248 F5D9     		bls	.L1504
 6652              	.LVL569:
 6653              	.LBB357:
 6654              	.LBB355:
1346:Drivers/STM32F7xx_HAL_Driver/Src/stm32f7xx_hal_uart.c ****         CLEAR_BIT(huart->Instance->CR3, USART_CR3_EIE);
 6655              		.loc 1 1346 0
 6656 024a 1A68     		ldr	r2, [r3]
1349:Drivers/STM32F7xx_HAL_Driver/Src/stm32f7xx_hal_uart.c ****         huart->RxState = HAL_UART_STATE_READY;
 6657              		.loc 1 1349 0
 6658 024c 2021     		movs	r1, #32
 6659              	.LBE355:
 6660              	.LBE357:
 6661              	.LBE352:
 6662              	.LBE351:
2028:Drivers/STM32F7xx_HAL_Driver/Src/stm32f7xx_hal_uart.c ****     }
 6663              		.loc 1 2028 0
 6664 024e 0320     		movs	r0, #3
 6665              	.LBB360:
 6666              	.LBB359:
 6667              	.LBB358:
 6668              	.LBB356:
1346:Drivers/STM32F7xx_HAL_Driver/Src/stm32f7xx_hal_uart.c ****         CLEAR_BIT(huart->Instance->CR3, USART_CR3_EIE);
 6669              		.loc 1 1346 0
 6670 0250 22F4D072 		bic	r2, r2, #416
 6671 0254 1A60     		str	r2, [r3]
1347:Drivers/STM32F7xx_HAL_Driver/Src/stm32f7xx_hal_uart.c **** 
ARM GAS  /tmp/cc6CQ8Vx.s 			page 174


 6672              		.loc 1 1347 0
 6673 0256 9A68     		ldr	r2, [r3, #8]
 6674 0258 22F00102 		bic	r2, r2, #1
 6675 025c 9A60     		str	r2, [r3, #8]
1349:Drivers/STM32F7xx_HAL_Driver/Src/stm32f7xx_hal_uart.c ****         huart->RxState = HAL_UART_STATE_READY;
 6676              		.loc 1 1349 0
 6677 025e 84F86910 		strb	r1, [r4, #105]
1353:Drivers/STM32F7xx_HAL_Driver/Src/stm32f7xx_hal_uart.c ****         return HAL_TIMEOUT;
 6678              		.loc 1 1353 0
 6679 0262 84F86850 		strb	r5, [r4, #104]
 6680              	.LVL570:
1350:Drivers/STM32F7xx_HAL_Driver/Src/stm32f7xx_hal_uart.c **** 
 6681              		.loc 1 1350 0
 6682 0266 84F86A10 		strb	r1, [r4, #106]
 6683 026a A8E7     		b	.L1440
 6684              	.LVL571:
 6685              	.L1650:
 6686              	.LBE356:
 6687              	.LBE358:
 6688              	.LBE359:
 6689              	.LBE360:
 6690              	.LBE362:
 6691              	.LBE365:
 559:Drivers/STM32F7xx_HAL_Driver/Src/stm32f7xx_hal_uart.c ****   }
 6692              		.loc 1 559 0
 6693 026c 2046     		mov	r0, r4
 6694 026e FFF7FEFF 		bl	UART_AdvFeatureConfig
 6695              	.LVL572:
 6696 0272 2568     		ldr	r5, [r4]
 6697 0274 7BE7     		b	.L1503
 6698              	.LVL573:
 6699              	.L1639:
 6700              	.LCFI60:
 6701              		.cfi_def_cfa_offset 0
 6702              		.cfi_restore 4
 6703              		.cfi_restore 5
 6704              		.cfi_restore 6
 6705              		.cfi_restore 7
 6706              		.cfi_restore 8
 6707              		.cfi_restore 14
 523:Drivers/STM32F7xx_HAL_Driver/Src/stm32f7xx_hal_uart.c ****   }
 6708              		.loc 1 523 0
 6709 0276 0120     		movs	r0, #1
 6710              	.LVL574:
 578:Drivers/STM32F7xx_HAL_Driver/Src/stm32f7xx_hal_uart.c **** 
 6711              		.loc 1 578 0
 6712 0278 7047     		bx	lr
 6713              	.LVL575:
 6714              	.L1653:
 6715              	.LCFI61:
 6716              		.cfi_def_cfa_offset 24
 6717              		.cfi_offset 4, -24
 6718              		.cfi_offset 5, -20
 6719              		.cfi_offset 6, -16
 6720              		.cfi_offset 7, -12
 6721              		.cfi_offset 8, -8
 6722              		.cfi_offset 14, -4
ARM GAS  /tmp/cc6CQ8Vx.s 			page 175


 6723              	.LBB366:
 6724              	.LBB342:
1868:Drivers/STM32F7xx_HAL_Driver/Src/stm32f7xx_hal_uart.c **** 
 6725              		.loc 1 1868 0
 6726 027a A2D9     		bls	.L1638
 6727 027c B3F5007F 		cmp	r3, #512
 6728 0280 B4D0     		beq	.L1450
 6729 0282 B3F5407F 		cmp	r3, #768
 6730 0286 7FF40CAF 		bne	.L1446
 6731              	.L1451:
 6732              	.LVL576:
1871:Drivers/STM32F7xx_HAL_Driver/Src/stm32f7xx_hal_uart.c ****   {
 6733              		.loc 1 1871 0
 6734 028a B1F5004F 		cmp	r1, #32768
 6735 028e C8D1     		bne	.L1488
 6736              	.LVL577:
 6737              	.L1487:
1888:Drivers/STM32F7xx_HAL_Driver/Src/stm32f7xx_hal_uart.c ****       break;
 6738              		.loc 1 1888 0
 6739 0290 6268     		ldr	r2, [r4, #4]
 6740 0292 5308     		lsrs	r3, r2, #1
 6741 0294 03F58033 		add	r3, r3, #65536
 6742              	.L1636:
 6743 0298 B3FBF2F3 		udiv	r3, r3, r2
 6744              	.LVL578:
1896:Drivers/STM32F7xx_HAL_Driver/Src/stm32f7xx_hal_uart.c ****     brrtemp |= (uint16_t)((usartdiv & (uint16_t)0x000FU) >> 1U);
 6745              		.loc 1 1896 0
 6746 029c 23F00F02 		bic	r2, r3, #15
1897:Drivers/STM32F7xx_HAL_Driver/Src/stm32f7xx_hal_uart.c ****     huart->Instance->BRR = brrtemp;
 6747              		.loc 1 1897 0
 6748 02a0 C3F34203 		ubfx	r3, r3, #1, #3
 6749              	.LVL579:
1896:Drivers/STM32F7xx_HAL_Driver/Src/stm32f7xx_hal_uart.c ****     brrtemp |= (uint16_t)((usartdiv & (uint16_t)0x000FU) >> 1U);
 6750              		.loc 1 1896 0
 6751 02a4 92B2     		uxth	r2, r2
 6752              	.LVL580:
1898:Drivers/STM32F7xx_HAL_Driver/Src/stm32f7xx_hal_uart.c ****   }
 6753              		.loc 1 1898 0
 6754 02a6 1343     		orrs	r3, r3, r2
 6755 02a8 EB60     		str	r3, [r5, #12]
 6756              	.LVL581:
 6757 02aa 5DE7     		b	.L1501
 6758              	.LVL582:
 6759              	.L1497:
1879:Drivers/STM32F7xx_HAL_Driver/Src/stm32f7xx_hal_uart.c ****       break;
 6760              		.loc 1 1879 0
 6761 02ac FFF7FEFF 		bl	HAL_RCC_GetPCLK2Freq
 6762              	.LVL583:
 6763              	.L1634:
1898:Drivers/STM32F7xx_HAL_Driver/Src/stm32f7xx_hal_uart.c ****   }
 6764              		.loc 1 1898 0
 6765 02b0 D4E90052 		ldrd	r5, r2, [r4]
1885:Drivers/STM32F7xx_HAL_Driver/Src/stm32f7xx_hal_uart.c ****       break;
 6766              		.loc 1 1885 0
 6767 02b4 5308     		lsrs	r3, r2, #1
 6768 02b6 03EB4000 		add	r0, r3, r0, lsl #1
 6769 02ba B0FBF2F0 		udiv	r0, r0, r2
ARM GAS  /tmp/cc6CQ8Vx.s 			page 176


 6770              	.LVL584:
1896:Drivers/STM32F7xx_HAL_Driver/Src/stm32f7xx_hal_uart.c ****     brrtemp |= (uint16_t)((usartdiv & (uint16_t)0x000FU) >> 1U);
 6771              		.loc 1 1896 0
 6772 02be 20F00F03 		bic	r3, r0, #15
1897:Drivers/STM32F7xx_HAL_Driver/Src/stm32f7xx_hal_uart.c ****     huart->Instance->BRR = brrtemp;
 6773              		.loc 1 1897 0
 6774 02c2 C0F34200 		ubfx	r0, r0, #1, #3
 6775              	.LVL585:
1896:Drivers/STM32F7xx_HAL_Driver/Src/stm32f7xx_hal_uart.c ****     brrtemp |= (uint16_t)((usartdiv & (uint16_t)0x000FU) >> 1U);
 6776              		.loc 1 1896 0
 6777 02c6 9BB2     		uxth	r3, r3
 6778              	.LVL586:
1898:Drivers/STM32F7xx_HAL_Driver/Src/stm32f7xx_hal_uart.c ****   }
 6779              		.loc 1 1898 0
 6780 02c8 1843     		orrs	r0, r0, r3
 6781 02ca E860     		str	r0, [r5, #12]
 6782              	.LVL587:
 6783 02cc 4CE7     		b	.L1501
 6784              	.LVL588:
 6785              	.L1652:
1868:Drivers/STM32F7xx_HAL_Driver/Src/stm32f7xx_hal_uart.c **** 
 6786              		.loc 1 1868 0
 6787 02ce 302B     		cmp	r3, #48
 6788 02d0 DBD0     		beq	.L1451
 6789 02d2 E6E6     		b	.L1446
 6790              	.LVL589:
 6791              	.L1489:
1885:Drivers/STM32F7xx_HAL_Driver/Src/stm32f7xx_hal_uart.c ****       break;
 6792              		.loc 1 1885 0
 6793 02d4 FFF7FEFF 		bl	HAL_RCC_GetSysClockFreq
 6794              	.LVL590:
 6795 02d8 EAE7     		b	.L1634
 6796              	.LVL591:
 6797              	.L1491:
1882:Drivers/STM32F7xx_HAL_Driver/Src/stm32f7xx_hal_uart.c ****       break;
 6798              		.loc 1 1882 0
 6799 02da 6268     		ldr	r2, [r4, #4]
 6800 02dc 1B4B     		ldr	r3, .L1655+60
 6801 02de 03EB5203 		add	r3, r3, r2, lsr #1
 6802 02e2 D9E7     		b	.L1636
 6803              	.L1493:
1876:Drivers/STM32F7xx_HAL_Driver/Src/stm32f7xx_hal_uart.c ****       break;
 6804              		.loc 1 1876 0
 6805 02e4 FFF7FEFF 		bl	HAL_RCC_GetPCLK1Freq
 6806              	.LVL592:
 6807 02e8 E2E7     		b	.L1634
 6808              	.LVL593:
 6809              	.L1648:
1868:Drivers/STM32F7xx_HAL_Driver/Src/stm32f7xx_hal_uart.c **** 
 6810              		.loc 1 1868 0
 6811 02ea 03F5DE33 		add	r3, r3, #113664
 6812 02ee D3F89030 		ldr	r3, [r3, #144]
 6813 02f2 03F44043 		and	r3, r3, #49152
 6814 02f6 B3F5804F 		cmp	r3, #16384
 6815 02fa 8CD0     		beq	.L1447
 6816 02fc 7FF661AF 		bls	.L1638
 6817 0300 B3F5004F 		cmp	r3, #32768
ARM GAS  /tmp/cc6CQ8Vx.s 			page 177


 6818 0304 3FF472AF 		beq	.L1450
 6819 0308 B3F5404F 		cmp	r3, #49152
 6820 030c BDD0     		beq	.L1451
 6821 030e C8E6     		b	.L1446
 6822              	.L1656:
 6823              		.align	2
 6824              	.L1655:
 6825 0310 F369FFEF 		.word	-268473869
 6826 0314 00100140 		.word	1073811456
 6827 0318 00440040 		.word	1073759232
 6828 031c 00480040 		.word	1073760256
 6829 0320 004C0040 		.word	1073761280
 6830 0324 00500040 		.word	1073762304
 6831 0328 00140140 		.word	1073812480
 6832 032c 00780040 		.word	1073772544
 6833 0330 007C0040 		.word	1073773568
 6834 0334 00380240 		.word	1073887232
 6835 0338 00000000 		.word	.LANCHOR0
 6836 033c 00000000 		.word	.LANCHOR1
 6837 0340 FFFF00FC 		.word	-67043329
 6838 0344 0024F400 		.word	16000000
 6839 0348 FEFFFF01 		.word	33554430
 6840 034c 0048E801 		.word	32000000
 6841              	.L1646:
 6842 0350 03F59233 		add	r3, r3, #74752
 6843 0354 D3F89030 		ldr	r3, [r3, #144]
 6844 0358 03F44063 		and	r3, r3, #3072
 6845 035c B3F5806F 		cmp	r3, #1024
 6846 0360 3FF459AF 		beq	.L1447
 6847 0364 7FF6F0AE 		bls	.L1654
 6848 0368 B3F5006F 		cmp	r3, #2048
 6849 036c 3FF43EAF 		beq	.L1450
 6850 0370 B3F5406F 		cmp	r3, #3072
 6851 0374 89D0     		beq	.L1451
 6852 0376 94E6     		b	.L1446
 6853              	.L1647:
 6854 0378 03F5E033 		add	r3, r3, #114688
 6855 037c D3F89030 		ldr	r3, [r3, #144]
 6856 0380 03F44053 		and	r3, r3, #12288
 6857 0384 B3F5805F 		cmp	r3, #4096
 6858 0388 3FF445AF 		beq	.L1447
 6859 038c 7FF619AF 		bls	.L1638
 6860 0390 B3F5005F 		cmp	r3, #8192
 6861 0394 3FF42AAF 		beq	.L1450
 6862 0398 B3F5405F 		cmp	r3, #12288
 6863 039c 3FF475AF 		beq	.L1451
 6864 03a0 7FE6     		b	.L1446
 6865              	.LVL594:
 6866              	.L1495:
1898:Drivers/STM32F7xx_HAL_Driver/Src/stm32f7xx_hal_uart.c ****   }
 6867              		.loc 1 1898 0
 6868 03a2 0023     		movs	r3, #0
 6869              	.LBE342:
 6870              	.LBE366:
 554:Drivers/STM32F7xx_HAL_Driver/Src/stm32f7xx_hal_uart.c ****   }
 6871              		.loc 1 554 0
 6872 03a4 0120     		movs	r0, #1
ARM GAS  /tmp/cc6CQ8Vx.s 			page 178


 6873              	.LBB367:
 6874              	.LBB343:
1898:Drivers/STM32F7xx_HAL_Driver/Src/stm32f7xx_hal_uart.c ****   }
 6875              		.loc 1 1898 0
 6876 03a6 EB60     		str	r3, [r5, #12]
 6877              	.LVL595:
 6878 03a8 09E7     		b	.L1440
 6879              	.LBE343:
 6880              	.LBE367:
 6881              		.cfi_endproc
 6882              	.LFE142:
 6884 03aa 00BF     		.section	.text.UART_CheckIdleState,"ax",%progbits
 6885              		.align	1
 6886              		.p2align 2,,3
 6887              		.global	UART_CheckIdleState
 6888              		.syntax unified
 6889              		.thumb
 6890              		.thumb_func
 6891              		.fpu fpv4-sp-d16
 6893              	UART_CheckIdleState:
 6894              	.LFB180:
2012:Drivers/STM32F7xx_HAL_Driver/Src/stm32f7xx_hal_uart.c ****   uint32_t tickstart = 0U;
 6895              		.loc 1 2012 0
 6896              		.cfi_startproc
 6897              		@ args = 0, pretend = 0, frame = 0
 6898              		@ frame_needed = 0, uses_anonymous_args = 0
 6899              	.LVL596:
 6900 0000 F8B5     		push	{r3, r4, r5, r6, r7, lr}
 6901              	.LCFI62:
 6902              		.cfi_def_cfa_offset 24
 6903              		.cfi_offset 3, -24
 6904              		.cfi_offset 4, -20
 6905              		.cfi_offset 5, -16
 6906              		.cfi_offset 6, -12
 6907              		.cfi_offset 7, -8
 6908              		.cfi_offset 14, -4
2016:Drivers/STM32F7xx_HAL_Driver/Src/stm32f7xx_hal_uart.c **** 
 6909              		.loc 1 2016 0
 6910 0002 0023     		movs	r3, #0
2012:Drivers/STM32F7xx_HAL_Driver/Src/stm32f7xx_hal_uart.c ****   uint32_t tickstart = 0U;
 6911              		.loc 1 2012 0
 6912 0004 0546     		mov	r5, r0
2016:Drivers/STM32F7xx_HAL_Driver/Src/stm32f7xx_hal_uart.c **** 
 6913              		.loc 1 2016 0
 6914 0006 C366     		str	r3, [r0, #108]
2019:Drivers/STM32F7xx_HAL_Driver/Src/stm32f7xx_hal_uart.c **** 
 6915              		.loc 1 2019 0
 6916 0008 FFF7FEFF 		bl	HAL_GetTick
 6917              	.LVL597:
2022:Drivers/STM32F7xx_HAL_Driver/Src/stm32f7xx_hal_uart.c ****   {
 6918              		.loc 1 2022 0
 6919 000c 2B68     		ldr	r3, [r5]
 6920 000e 1A68     		ldr	r2, [r3]
 6921 0010 1207     		lsls	r2, r2, #28
 6922 0012 09D4     		bmi	.L1665
 6923              	.LVL598:
 6924              	.L1662:
ARM GAS  /tmp/cc6CQ8Vx.s 			page 179


2033:Drivers/STM32F7xx_HAL_Driver/Src/stm32f7xx_hal_uart.c ****   huart->RxState= HAL_UART_STATE_READY;
 6925              		.loc 1 2033 0
 6926 0014 2022     		movs	r2, #32
2037:Drivers/STM32F7xx_HAL_Driver/Src/stm32f7xx_hal_uart.c **** 
 6927              		.loc 1 2037 0
 6928 0016 0023     		movs	r3, #0
2033:Drivers/STM32F7xx_HAL_Driver/Src/stm32f7xx_hal_uart.c ****   huart->RxState= HAL_UART_STATE_READY;
 6929              		.loc 1 2033 0
 6930 0018 85F86920 		strb	r2, [r5, #105]
 6931              		.loc 1 2039 0
 6932 001c 1846     		mov	r0, r3
2034:Drivers/STM32F7xx_HAL_Driver/Src/stm32f7xx_hal_uart.c **** 
 6933              		.loc 1 2034 0
 6934 001e 85F86A20 		strb	r2, [r5, #106]
2037:Drivers/STM32F7xx_HAL_Driver/Src/stm32f7xx_hal_uart.c **** 
 6935              		.loc 1 2037 0
 6936 0022 85F86830 		strb	r3, [r5, #104]
2040:Drivers/STM32F7xx_HAL_Driver/Src/stm32f7xx_hal_uart.c **** }
 6937              		.loc 1 2040 0
 6938 0026 F8BD     		pop	{r3, r4, r5, r6, r7, pc}
 6939              	.LVL599:
 6940              	.L1665:
 6941 0028 0646     		mov	r6, r0
 6942              	.LBB372:
 6943              	.LBB373:
1343:Drivers/STM32F7xx_HAL_Driver/Src/stm32f7xx_hal_uart.c ****       {
 6944              		.loc 1 1343 0
 6945 002a 0E4F     		ldr	r7, .L1666
 6946              	.LVL600:
 6947              	.L1658:
1338:Drivers/STM32F7xx_HAL_Driver/Src/stm32f7xx_hal_uart.c ****   {
 6948              		.loc 1 1338 0
 6949 002c DC69     		ldr	r4, [r3, #28]
 6950 002e 14F40014 		ands	r4, r4, #2097152
 6951 0032 EFD1     		bne	.L1662
1343:Drivers/STM32F7xx_HAL_Driver/Src/stm32f7xx_hal_uart.c ****       {
 6952              		.loc 1 1343 0
 6953 0034 FFF7FEFF 		bl	HAL_GetTick
 6954              	.LVL601:
 6955 0038 801B     		subs	r0, r0, r6
 6956              	.LBB374:
 6957              	.LBB375:
1346:Drivers/STM32F7xx_HAL_Driver/Src/stm32f7xx_hal_uart.c ****         CLEAR_BIT(huart->Instance->CR3, USART_CR3_EIE);
 6958              		.loc 1 1346 0
 6959 003a 2B68     		ldr	r3, [r5]
 6960              	.LBE375:
 6961              	.LBE374:
1343:Drivers/STM32F7xx_HAL_Driver/Src/stm32f7xx_hal_uart.c ****       {
 6962              		.loc 1 1343 0
 6963 003c B842     		cmp	r0, r7
 6964 003e F5D9     		bls	.L1658
 6965              	.LVL602:
 6966              	.LBB378:
 6967              	.LBB376:
1346:Drivers/STM32F7xx_HAL_Driver/Src/stm32f7xx_hal_uart.c ****         CLEAR_BIT(huart->Instance->CR3, USART_CR3_EIE);
 6968              		.loc 1 1346 0
 6969 0040 1A68     		ldr	r2, [r3]
ARM GAS  /tmp/cc6CQ8Vx.s 			page 180


1349:Drivers/STM32F7xx_HAL_Driver/Src/stm32f7xx_hal_uart.c ****         huart->RxState = HAL_UART_STATE_READY;
 6970              		.loc 1 1349 0
 6971 0042 2021     		movs	r1, #32
 6972              	.LBE376:
 6973              	.LBE378:
 6974              	.LBE373:
 6975              	.LBE372:
2028:Drivers/STM32F7xx_HAL_Driver/Src/stm32f7xx_hal_uart.c ****     }
 6976              		.loc 1 2028 0
 6977 0044 0320     		movs	r0, #3
 6978              	.LBB381:
 6979              	.LBB380:
 6980              	.LBB379:
 6981              	.LBB377:
1346:Drivers/STM32F7xx_HAL_Driver/Src/stm32f7xx_hal_uart.c ****         CLEAR_BIT(huart->Instance->CR3, USART_CR3_EIE);
 6982              		.loc 1 1346 0
 6983 0046 22F4D072 		bic	r2, r2, #416
 6984 004a 1A60     		str	r2, [r3]
1347:Drivers/STM32F7xx_HAL_Driver/Src/stm32f7xx_hal_uart.c **** 
 6985              		.loc 1 1347 0
 6986 004c 9A68     		ldr	r2, [r3, #8]
 6987 004e 22F00102 		bic	r2, r2, #1
 6988 0052 9A60     		str	r2, [r3, #8]
1349:Drivers/STM32F7xx_HAL_Driver/Src/stm32f7xx_hal_uart.c ****         huart->RxState = HAL_UART_STATE_READY;
 6989              		.loc 1 1349 0
 6990 0054 85F86910 		strb	r1, [r5, #105]
1353:Drivers/STM32F7xx_HAL_Driver/Src/stm32f7xx_hal_uart.c ****         return HAL_TIMEOUT;
 6991              		.loc 1 1353 0
 6992 0058 85F86840 		strb	r4, [r5, #104]
 6993              	.LVL603:
1350:Drivers/STM32F7xx_HAL_Driver/Src/stm32f7xx_hal_uart.c **** 
 6994              		.loc 1 1350 0
 6995 005c 85F86A10 		strb	r1, [r5, #106]
 6996              	.LBE377:
 6997              	.LBE379:
 6998              	.LBE380:
 6999              	.LBE381:
 7000              		.loc 1 2040 0
 7001 0060 F8BD     		pop	{r3, r4, r5, r6, r7, pc}
 7002              	.LVL604:
 7003              	.L1667:
 7004 0062 00BF     		.align	2
 7005              	.L1666:
 7006 0064 FEFFFF01 		.word	33554430
 7007              		.cfi_endproc
 7008              	.LFE180:
 7010              		.section	.text.HAL_HalfDuplex_EnableTransmitter,"ax",%progbits
 7011              		.align	1
 7012              		.p2align 2,,3
 7013              		.global	HAL_HalfDuplex_EnableTransmitter
 7014              		.syntax unified
 7015              		.thumb
 7016              		.thumb_func
 7017              		.fpu fpv4-sp-d16
 7019              	HAL_HalfDuplex_EnableTransmitter:
 7020              	.LFB181:
2041:Drivers/STM32F7xx_HAL_Driver/Src/stm32f7xx_hal_uart.c **** 
ARM GAS  /tmp/cc6CQ8Vx.s 			page 181


2042:Drivers/STM32F7xx_HAL_Driver/Src/stm32f7xx_hal_uart.c **** /**
2043:Drivers/STM32F7xx_HAL_Driver/Src/stm32f7xx_hal_uart.c ****   * @brief  Enables the UART transmitter and disables the UART receiver.
2044:Drivers/STM32F7xx_HAL_Driver/Src/stm32f7xx_hal_uart.c ****   * @param  huart UART handle
2045:Drivers/STM32F7xx_HAL_Driver/Src/stm32f7xx_hal_uart.c ****   * @retval HAL status
2046:Drivers/STM32F7xx_HAL_Driver/Src/stm32f7xx_hal_uart.c ****   * @retval None
2047:Drivers/STM32F7xx_HAL_Driver/Src/stm32f7xx_hal_uart.c ****   */
2048:Drivers/STM32F7xx_HAL_Driver/Src/stm32f7xx_hal_uart.c **** HAL_StatusTypeDef HAL_HalfDuplex_EnableTransmitter(UART_HandleTypeDef *huart)
2049:Drivers/STM32F7xx_HAL_Driver/Src/stm32f7xx_hal_uart.c **** {
 7021              		.loc 1 2049 0
 7022              		.cfi_startproc
 7023              		@ args = 0, pretend = 0, frame = 0
 7024              		@ frame_needed = 0, uses_anonymous_args = 0
 7025              		@ link register save eliminated.
 7026              	.LVL605:
2050:Drivers/STM32F7xx_HAL_Driver/Src/stm32f7xx_hal_uart.c ****   /* Process Locked */
2051:Drivers/STM32F7xx_HAL_Driver/Src/stm32f7xx_hal_uart.c ****   __HAL_LOCK(huart);
 7027              		.loc 1 2051 0
 7028 0000 90F86820 		ldrb	r2, [r0, #104]	@ zero_extendqisi2
 7029 0004 012A     		cmp	r2, #1
 7030 0006 16D0     		beq	.L1670
2052:Drivers/STM32F7xx_HAL_Driver/Src/stm32f7xx_hal_uart.c ****   huart->gState = HAL_UART_STATE_BUSY;
2053:Drivers/STM32F7xx_HAL_Driver/Src/stm32f7xx_hal_uart.c **** 
2054:Drivers/STM32F7xx_HAL_Driver/Src/stm32f7xx_hal_uart.c ****   /* Clear TE and RE bits */
2055:Drivers/STM32F7xx_HAL_Driver/Src/stm32f7xx_hal_uart.c ****   CLEAR_BIT(huart->Instance->CR1, (USART_CR1_TE | USART_CR1_RE));
 7031              		.loc 1 2055 0 discriminator 2
 7032 0008 0268     		ldr	r2, [r0]
2052:Drivers/STM32F7xx_HAL_Driver/Src/stm32f7xx_hal_uart.c ****   huart->gState = HAL_UART_STATE_BUSY;
 7033              		.loc 1 2052 0 discriminator 2
 7034 000a 2421     		movs	r1, #36
 7035 000c 0346     		mov	r3, r0
2049:Drivers/STM32F7xx_HAL_Driver/Src/stm32f7xx_hal_uart.c ****   /* Process Locked */
 7036              		.loc 1 2049 0 discriminator 2
 7037 000e 30B4     		push	{r4, r5}
 7038              	.LCFI63:
 7039              		.cfi_def_cfa_offset 8
 7040              		.cfi_offset 4, -8
 7041              		.cfi_offset 5, -4
2052:Drivers/STM32F7xx_HAL_Driver/Src/stm32f7xx_hal_uart.c ****   huart->gState = HAL_UART_STATE_BUSY;
 7042              		.loc 1 2052 0 discriminator 2
 7043 0010 80F86910 		strb	r1, [r0, #105]
2056:Drivers/STM32F7xx_HAL_Driver/Src/stm32f7xx_hal_uart.c ****   /* Enable the USART's transmit interface by setting the TE bit in the USART CR1 register */
2057:Drivers/STM32F7xx_HAL_Driver/Src/stm32f7xx_hal_uart.c ****   SET_BIT(huart->Instance->CR1, USART_CR1_TE);
2058:Drivers/STM32F7xx_HAL_Driver/Src/stm32f7xx_hal_uart.c **** 
2059:Drivers/STM32F7xx_HAL_Driver/Src/stm32f7xx_hal_uart.c ****   huart->gState= HAL_UART_STATE_READY;
2060:Drivers/STM32F7xx_HAL_Driver/Src/stm32f7xx_hal_uart.c ****   /* Process Unlocked */
2061:Drivers/STM32F7xx_HAL_Driver/Src/stm32f7xx_hal_uart.c ****   __HAL_UNLOCK(huart);
 7044              		.loc 1 2061 0 discriminator 2
 7045 0014 0024     		movs	r4, #0
2055:Drivers/STM32F7xx_HAL_Driver/Src/stm32f7xx_hal_uart.c ****   /* Enable the USART's transmit interface by setting the TE bit in the USART CR1 register */
 7046              		.loc 1 2055 0 discriminator 2
 7047 0016 1168     		ldr	r1, [r2]
2059:Drivers/STM32F7xx_HAL_Driver/Src/stm32f7xx_hal_uart.c ****   /* Process Unlocked */
 7048              		.loc 1 2059 0 discriminator 2
 7049 0018 2025     		movs	r5, #32
2062:Drivers/STM32F7xx_HAL_Driver/Src/stm32f7xx_hal_uart.c **** 
2063:Drivers/STM32F7xx_HAL_Driver/Src/stm32f7xx_hal_uart.c ****   return HAL_OK;
 7050              		.loc 1 2063 0 discriminator 2
ARM GAS  /tmp/cc6CQ8Vx.s 			page 182


 7051 001a 2046     		mov	r0, r4
 7052              	.LVL606:
2055:Drivers/STM32F7xx_HAL_Driver/Src/stm32f7xx_hal_uart.c ****   /* Enable the USART's transmit interface by setting the TE bit in the USART CR1 register */
 7053              		.loc 1 2055 0 discriminator 2
 7054 001c 21F00C01 		bic	r1, r1, #12
 7055 0020 1160     		str	r1, [r2]
2057:Drivers/STM32F7xx_HAL_Driver/Src/stm32f7xx_hal_uart.c **** 
 7056              		.loc 1 2057 0 discriminator 2
 7057 0022 1168     		ldr	r1, [r2]
 7058 0024 41F00801 		orr	r1, r1, #8
 7059 0028 1160     		str	r1, [r2]
2059:Drivers/STM32F7xx_HAL_Driver/Src/stm32f7xx_hal_uart.c ****   /* Process Unlocked */
 7060              		.loc 1 2059 0 discriminator 2
 7061 002a 83F86950 		strb	r5, [r3, #105]
2061:Drivers/STM32F7xx_HAL_Driver/Src/stm32f7xx_hal_uart.c **** 
 7062              		.loc 1 2061 0 discriminator 2
 7063 002e 83F86840 		strb	r4, [r3, #104]
2064:Drivers/STM32F7xx_HAL_Driver/Src/stm32f7xx_hal_uart.c **** }
 7064              		.loc 1 2064 0 discriminator 2
 7065 0032 30BC     		pop	{r4, r5}
 7066              	.LCFI64:
 7067              		.cfi_restore 5
 7068              		.cfi_restore 4
 7069              		.cfi_def_cfa_offset 0
 7070 0034 7047     		bx	lr
 7071              	.LVL607:
 7072              	.L1670:
2051:Drivers/STM32F7xx_HAL_Driver/Src/stm32f7xx_hal_uart.c ****   huart->gState = HAL_UART_STATE_BUSY;
 7073              		.loc 1 2051 0
 7074 0036 0220     		movs	r0, #2
 7075              	.LVL608:
 7076              		.loc 1 2064 0
 7077 0038 7047     		bx	lr
 7078              		.cfi_endproc
 7079              	.LFE181:
 7081 003a 00BF     		.section	.text.HAL_HalfDuplex_EnableReceiver,"ax",%progbits
 7082              		.align	1
 7083              		.p2align 2,,3
 7084              		.global	HAL_HalfDuplex_EnableReceiver
 7085              		.syntax unified
 7086              		.thumb
 7087              		.thumb_func
 7088              		.fpu fpv4-sp-d16
 7090              	HAL_HalfDuplex_EnableReceiver:
 7091              	.LFB182:
2065:Drivers/STM32F7xx_HAL_Driver/Src/stm32f7xx_hal_uart.c **** 
2066:Drivers/STM32F7xx_HAL_Driver/Src/stm32f7xx_hal_uart.c **** /**
2067:Drivers/STM32F7xx_HAL_Driver/Src/stm32f7xx_hal_uart.c ****   * @brief  Enables the UART receiver and disables the UART transmitter.
2068:Drivers/STM32F7xx_HAL_Driver/Src/stm32f7xx_hal_uart.c ****   * @param  huart UART handle
2069:Drivers/STM32F7xx_HAL_Driver/Src/stm32f7xx_hal_uart.c ****   * @retval HAL status
2070:Drivers/STM32F7xx_HAL_Driver/Src/stm32f7xx_hal_uart.c ****   */
2071:Drivers/STM32F7xx_HAL_Driver/Src/stm32f7xx_hal_uart.c **** HAL_StatusTypeDef HAL_HalfDuplex_EnableReceiver(UART_HandleTypeDef *huart)
2072:Drivers/STM32F7xx_HAL_Driver/Src/stm32f7xx_hal_uart.c **** {
 7092              		.loc 1 2072 0
 7093              		.cfi_startproc
 7094              		@ args = 0, pretend = 0, frame = 0
 7095              		@ frame_needed = 0, uses_anonymous_args = 0
ARM GAS  /tmp/cc6CQ8Vx.s 			page 183


 7096              		@ link register save eliminated.
 7097              	.LVL609:
2073:Drivers/STM32F7xx_HAL_Driver/Src/stm32f7xx_hal_uart.c ****   /* Process Locked */
2074:Drivers/STM32F7xx_HAL_Driver/Src/stm32f7xx_hal_uart.c ****   __HAL_LOCK(huart);
 7098              		.loc 1 2074 0
 7099 0000 90F86820 		ldrb	r2, [r0, #104]	@ zero_extendqisi2
 7100 0004 012A     		cmp	r2, #1
 7101 0006 16D0     		beq	.L1677
2075:Drivers/STM32F7xx_HAL_Driver/Src/stm32f7xx_hal_uart.c ****   huart->gState = HAL_UART_STATE_BUSY;
2076:Drivers/STM32F7xx_HAL_Driver/Src/stm32f7xx_hal_uart.c **** 
2077:Drivers/STM32F7xx_HAL_Driver/Src/stm32f7xx_hal_uart.c ****   /* Clear TE and RE bits */
2078:Drivers/STM32F7xx_HAL_Driver/Src/stm32f7xx_hal_uart.c ****   CLEAR_BIT(huart->Instance->CR1, (USART_CR1_TE | USART_CR1_RE));
 7102              		.loc 1 2078 0 discriminator 2
 7103 0008 0268     		ldr	r2, [r0]
2075:Drivers/STM32F7xx_HAL_Driver/Src/stm32f7xx_hal_uart.c ****   huart->gState = HAL_UART_STATE_BUSY;
 7104              		.loc 1 2075 0 discriminator 2
 7105 000a 2421     		movs	r1, #36
 7106 000c 0346     		mov	r3, r0
2072:Drivers/STM32F7xx_HAL_Driver/Src/stm32f7xx_hal_uart.c ****   /* Process Locked */
 7107              		.loc 1 2072 0 discriminator 2
 7108 000e 30B4     		push	{r4, r5}
 7109              	.LCFI65:
 7110              		.cfi_def_cfa_offset 8
 7111              		.cfi_offset 4, -8
 7112              		.cfi_offset 5, -4
2075:Drivers/STM32F7xx_HAL_Driver/Src/stm32f7xx_hal_uart.c ****   huart->gState = HAL_UART_STATE_BUSY;
 7113              		.loc 1 2075 0 discriminator 2
 7114 0010 80F86910 		strb	r1, [r0, #105]
2079:Drivers/STM32F7xx_HAL_Driver/Src/stm32f7xx_hal_uart.c ****   /* Enable the USART's receive interface by setting the RE bit in the USART CR1 register */
2080:Drivers/STM32F7xx_HAL_Driver/Src/stm32f7xx_hal_uart.c ****   SET_BIT(huart->Instance->CR1, USART_CR1_RE);
2081:Drivers/STM32F7xx_HAL_Driver/Src/stm32f7xx_hal_uart.c **** 
2082:Drivers/STM32F7xx_HAL_Driver/Src/stm32f7xx_hal_uart.c ****   huart->gState = HAL_UART_STATE_READY;
2083:Drivers/STM32F7xx_HAL_Driver/Src/stm32f7xx_hal_uart.c ****   /* Process Unlocked */
2084:Drivers/STM32F7xx_HAL_Driver/Src/stm32f7xx_hal_uart.c ****   __HAL_UNLOCK(huart);
 7115              		.loc 1 2084 0 discriminator 2
 7116 0014 0024     		movs	r4, #0
2078:Drivers/STM32F7xx_HAL_Driver/Src/stm32f7xx_hal_uart.c ****   /* Enable the USART's receive interface by setting the RE bit in the USART CR1 register */
 7117              		.loc 1 2078 0 discriminator 2
 7118 0016 1168     		ldr	r1, [r2]
2082:Drivers/STM32F7xx_HAL_Driver/Src/stm32f7xx_hal_uart.c ****   /* Process Unlocked */
 7119              		.loc 1 2082 0 discriminator 2
 7120 0018 2025     		movs	r5, #32
2085:Drivers/STM32F7xx_HAL_Driver/Src/stm32f7xx_hal_uart.c **** 
2086:Drivers/STM32F7xx_HAL_Driver/Src/stm32f7xx_hal_uart.c ****   return HAL_OK;
 7121              		.loc 1 2086 0 discriminator 2
 7122 001a 2046     		mov	r0, r4
 7123              	.LVL610:
2078:Drivers/STM32F7xx_HAL_Driver/Src/stm32f7xx_hal_uart.c ****   /* Enable the USART's receive interface by setting the RE bit in the USART CR1 register */
 7124              		.loc 1 2078 0 discriminator 2
 7125 001c 21F00C01 		bic	r1, r1, #12
 7126 0020 1160     		str	r1, [r2]
2080:Drivers/STM32F7xx_HAL_Driver/Src/stm32f7xx_hal_uart.c **** 
 7127              		.loc 1 2080 0 discriminator 2
 7128 0022 1168     		ldr	r1, [r2]
 7129 0024 41F00401 		orr	r1, r1, #4
 7130 0028 1160     		str	r1, [r2]
2082:Drivers/STM32F7xx_HAL_Driver/Src/stm32f7xx_hal_uart.c ****   /* Process Unlocked */
ARM GAS  /tmp/cc6CQ8Vx.s 			page 184


 7131              		.loc 1 2082 0 discriminator 2
 7132 002a 83F86950 		strb	r5, [r3, #105]
2084:Drivers/STM32F7xx_HAL_Driver/Src/stm32f7xx_hal_uart.c **** 
 7133              		.loc 1 2084 0 discriminator 2
 7134 002e 83F86840 		strb	r4, [r3, #104]
2087:Drivers/STM32F7xx_HAL_Driver/Src/stm32f7xx_hal_uart.c **** }
 7135              		.loc 1 2087 0 discriminator 2
 7136 0032 30BC     		pop	{r4, r5}
 7137              	.LCFI66:
 7138              		.cfi_restore 5
 7139              		.cfi_restore 4
 7140              		.cfi_def_cfa_offset 0
 7141 0034 7047     		bx	lr
 7142              	.LVL611:
 7143              	.L1677:
2074:Drivers/STM32F7xx_HAL_Driver/Src/stm32f7xx_hal_uart.c ****   huart->gState = HAL_UART_STATE_BUSY;
 7144              		.loc 1 2074 0
 7145 0036 0220     		movs	r0, #2
 7146              	.LVL612:
 7147              		.loc 1 2087 0
 7148 0038 7047     		bx	lr
 7149              		.cfi_endproc
 7150              	.LFE182:
 7152 003a 00BF     		.section	.text.HAL_LIN_SendBreak,"ax",%progbits
 7153              		.align	1
 7154              		.p2align 2,,3
 7155              		.global	HAL_LIN_SendBreak
 7156              		.syntax unified
 7157              		.thumb
 7158              		.thumb_func
 7159              		.fpu fpv4-sp-d16
 7161              	HAL_LIN_SendBreak:
 7162              	.LFB183:
2088:Drivers/STM32F7xx_HAL_Driver/Src/stm32f7xx_hal_uart.c **** 
2089:Drivers/STM32F7xx_HAL_Driver/Src/stm32f7xx_hal_uart.c **** 
2090:Drivers/STM32F7xx_HAL_Driver/Src/stm32f7xx_hal_uart.c **** /**
2091:Drivers/STM32F7xx_HAL_Driver/Src/stm32f7xx_hal_uart.c ****   * @brief  Transmits break characters.
2092:Drivers/STM32F7xx_HAL_Driver/Src/stm32f7xx_hal_uart.c ****   * @param  huart UART handle
2093:Drivers/STM32F7xx_HAL_Driver/Src/stm32f7xx_hal_uart.c ****   * @retval HAL status
2094:Drivers/STM32F7xx_HAL_Driver/Src/stm32f7xx_hal_uart.c ****   */
2095:Drivers/STM32F7xx_HAL_Driver/Src/stm32f7xx_hal_uart.c **** HAL_StatusTypeDef HAL_LIN_SendBreak(UART_HandleTypeDef *huart)
2096:Drivers/STM32F7xx_HAL_Driver/Src/stm32f7xx_hal_uart.c **** {
 7163              		.loc 1 2096 0
 7164              		.cfi_startproc
 7165              		@ args = 0, pretend = 0, frame = 0
 7166              		@ frame_needed = 0, uses_anonymous_args = 0
 7167              		@ link register save eliminated.
 7168              	.LVL613:
2097:Drivers/STM32F7xx_HAL_Driver/Src/stm32f7xx_hal_uart.c ****   /* Check the parameters */
2098:Drivers/STM32F7xx_HAL_Driver/Src/stm32f7xx_hal_uart.c ****   assert_param(IS_UART_INSTANCE(huart->Instance));
2099:Drivers/STM32F7xx_HAL_Driver/Src/stm32f7xx_hal_uart.c **** 
2100:Drivers/STM32F7xx_HAL_Driver/Src/stm32f7xx_hal_uart.c ****   /* Process Locked */
2101:Drivers/STM32F7xx_HAL_Driver/Src/stm32f7xx_hal_uart.c ****   __HAL_LOCK(huart);
 7169              		.loc 1 2101 0
 7170 0000 90F86820 		ldrb	r2, [r0, #104]	@ zero_extendqisi2
 7171 0004 012A     		cmp	r2, #1
 7172 0006 12D0     		beq	.L1684
ARM GAS  /tmp/cc6CQ8Vx.s 			page 185


2102:Drivers/STM32F7xx_HAL_Driver/Src/stm32f7xx_hal_uart.c **** 
2103:Drivers/STM32F7xx_HAL_Driver/Src/stm32f7xx_hal_uart.c ****   huart->gState = HAL_UART_STATE_BUSY;
 7173              		.loc 1 2103 0 discriminator 2
 7174 0008 2422     		movs	r2, #36
 7175 000a 0346     		mov	r3, r0
2104:Drivers/STM32F7xx_HAL_Driver/Src/stm32f7xx_hal_uart.c **** 
2105:Drivers/STM32F7xx_HAL_Driver/Src/stm32f7xx_hal_uart.c ****   /* Send break characters */
2106:Drivers/STM32F7xx_HAL_Driver/Src/stm32f7xx_hal_uart.c ****   SET_BIT(huart->Instance->RQR, UART_SENDBREAK_REQUEST);
2107:Drivers/STM32F7xx_HAL_Driver/Src/stm32f7xx_hal_uart.c **** 
2108:Drivers/STM32F7xx_HAL_Driver/Src/stm32f7xx_hal_uart.c ****   huart->gState = HAL_UART_STATE_READY;
2109:Drivers/STM32F7xx_HAL_Driver/Src/stm32f7xx_hal_uart.c **** 
2110:Drivers/STM32F7xx_HAL_Driver/Src/stm32f7xx_hal_uart.c ****   /* Process Unlocked */
2111:Drivers/STM32F7xx_HAL_Driver/Src/stm32f7xx_hal_uart.c ****   __HAL_UNLOCK(huart);
 7176              		.loc 1 2111 0 discriminator 2
 7177 000c 0021     		movs	r1, #0
2096:Drivers/STM32F7xx_HAL_Driver/Src/stm32f7xx_hal_uart.c ****   /* Check the parameters */
 7178              		.loc 1 2096 0 discriminator 2
 7179 000e 30B4     		push	{r4, r5}
 7180              	.LCFI67:
 7181              		.cfi_def_cfa_offset 8
 7182              		.cfi_offset 4, -8
 7183              		.cfi_offset 5, -4
2106:Drivers/STM32F7xx_HAL_Driver/Src/stm32f7xx_hal_uart.c **** 
 7184              		.loc 1 2106 0 discriminator 2
 7185 0010 0468     		ldr	r4, [r0]
2108:Drivers/STM32F7xx_HAL_Driver/Src/stm32f7xx_hal_uart.c **** 
 7186              		.loc 1 2108 0 discriminator 2
 7187 0012 2025     		movs	r5, #32
2103:Drivers/STM32F7xx_HAL_Driver/Src/stm32f7xx_hal_uart.c **** 
 7188              		.loc 1 2103 0 discriminator 2
 7189 0014 80F86920 		strb	r2, [r0, #105]
2112:Drivers/STM32F7xx_HAL_Driver/Src/stm32f7xx_hal_uart.c **** 
2113:Drivers/STM32F7xx_HAL_Driver/Src/stm32f7xx_hal_uart.c ****   return HAL_OK;
 7190              		.loc 1 2113 0 discriminator 2
 7191 0018 0846     		mov	r0, r1
 7192              	.LVL614:
2106:Drivers/STM32F7xx_HAL_Driver/Src/stm32f7xx_hal_uart.c **** 
 7193              		.loc 1 2106 0 discriminator 2
 7194 001a A269     		ldr	r2, [r4, #24]
 7195 001c 42F00202 		orr	r2, r2, #2
 7196 0020 A261     		str	r2, [r4, #24]
2108:Drivers/STM32F7xx_HAL_Driver/Src/stm32f7xx_hal_uart.c **** 
 7197              		.loc 1 2108 0 discriminator 2
 7198 0022 83F86950 		strb	r5, [r3, #105]
2111:Drivers/STM32F7xx_HAL_Driver/Src/stm32f7xx_hal_uart.c **** 
 7199              		.loc 1 2111 0 discriminator 2
 7200 0026 83F86810 		strb	r1, [r3, #104]
2114:Drivers/STM32F7xx_HAL_Driver/Src/stm32f7xx_hal_uart.c **** }
 7201              		.loc 1 2114 0 discriminator 2
 7202 002a 30BC     		pop	{r4, r5}
 7203              	.LCFI68:
 7204              		.cfi_restore 5
 7205              		.cfi_restore 4
 7206              		.cfi_def_cfa_offset 0
 7207 002c 7047     		bx	lr
 7208              	.LVL615:
 7209              	.L1684:
ARM GAS  /tmp/cc6CQ8Vx.s 			page 186


2101:Drivers/STM32F7xx_HAL_Driver/Src/stm32f7xx_hal_uart.c **** 
 7210              		.loc 1 2101 0
 7211 002e 0220     		movs	r0, #2
 7212              	.LVL616:
 7213              		.loc 1 2114 0
 7214 0030 7047     		bx	lr
 7215              		.cfi_endproc
 7216              	.LFE183:
 7218 0032 00BF     		.section	.text.HAL_MultiProcessorEx_AddressLength_Set,"ax",%progbits
 7219              		.align	1
 7220              		.p2align 2,,3
 7221              		.global	HAL_MultiProcessorEx_AddressLength_Set
 7222              		.syntax unified
 7223              		.thumb
 7224              		.thumb_func
 7225              		.fpu fpv4-sp-d16
 7227              	HAL_MultiProcessorEx_AddressLength_Set:
 7228              	.LFB184:
2115:Drivers/STM32F7xx_HAL_Driver/Src/stm32f7xx_hal_uart.c **** 
2116:Drivers/STM32F7xx_HAL_Driver/Src/stm32f7xx_hal_uart.c **** /**
2117:Drivers/STM32F7xx_HAL_Driver/Src/stm32f7xx_hal_uart.c ****   * @brief By default in multiprocessor mode, when the wake up method is set
2118:Drivers/STM32F7xx_HAL_Driver/Src/stm32f7xx_hal_uart.c ****   *        to address mark, the UART handles only 4-bit long addresses detection;
2119:Drivers/STM32F7xx_HAL_Driver/Src/stm32f7xx_hal_uart.c ****   *        this API allows to enable longer addresses detection (6-, 7- or 8-bit
2120:Drivers/STM32F7xx_HAL_Driver/Src/stm32f7xx_hal_uart.c ****   *        long).
2121:Drivers/STM32F7xx_HAL_Driver/Src/stm32f7xx_hal_uart.c ****   * @note  Addresses detection lengths are: 6-bit address detection in 7-bit data mode,
2122:Drivers/STM32F7xx_HAL_Driver/Src/stm32f7xx_hal_uart.c ****   *        7-bit address detection in 8-bit data mode, 8-bit address detection in 9-bit data mode.
2123:Drivers/STM32F7xx_HAL_Driver/Src/stm32f7xx_hal_uart.c ****   * @param huart UART handle.
2124:Drivers/STM32F7xx_HAL_Driver/Src/stm32f7xx_hal_uart.c ****   * @param AddressLength this parameter can be one of the following values:
2125:Drivers/STM32F7xx_HAL_Driver/Src/stm32f7xx_hal_uart.c ****   *          @arg @ref UART_ADDRESS_DETECT_4B 4-bit long address
2126:Drivers/STM32F7xx_HAL_Driver/Src/stm32f7xx_hal_uart.c ****   *          @arg @ref UART_ADDRESS_DETECT_7B 6-, 7- or 8-bit long address
2127:Drivers/STM32F7xx_HAL_Driver/Src/stm32f7xx_hal_uart.c ****   * @retval HAL status
2128:Drivers/STM32F7xx_HAL_Driver/Src/stm32f7xx_hal_uart.c ****   */
2129:Drivers/STM32F7xx_HAL_Driver/Src/stm32f7xx_hal_uart.c **** HAL_StatusTypeDef HAL_MultiProcessorEx_AddressLength_Set(UART_HandleTypeDef *huart, uint32_t Addres
2130:Drivers/STM32F7xx_HAL_Driver/Src/stm32f7xx_hal_uart.c **** {
 7229              		.loc 1 2130 0
 7230              		.cfi_startproc
 7231              		@ args = 0, pretend = 0, frame = 0
 7232              		@ frame_needed = 0, uses_anonymous_args = 0
 7233              	.LVL617:
2131:Drivers/STM32F7xx_HAL_Driver/Src/stm32f7xx_hal_uart.c ****   /* Check the UART handle allocation */
2132:Drivers/STM32F7xx_HAL_Driver/Src/stm32f7xx_hal_uart.c ****   if(huart == NULL)
 7234              		.loc 1 2132 0
 7235 0000 28B3     		cbz	r0, .L1695
2133:Drivers/STM32F7xx_HAL_Driver/Src/stm32f7xx_hal_uart.c ****   {
2134:Drivers/STM32F7xx_HAL_Driver/Src/stm32f7xx_hal_uart.c ****     return HAL_ERROR;
2135:Drivers/STM32F7xx_HAL_Driver/Src/stm32f7xx_hal_uart.c ****   }
2136:Drivers/STM32F7xx_HAL_Driver/Src/stm32f7xx_hal_uart.c **** 
2137:Drivers/STM32F7xx_HAL_Driver/Src/stm32f7xx_hal_uart.c ****   /* Check the address length parameter */
2138:Drivers/STM32F7xx_HAL_Driver/Src/stm32f7xx_hal_uart.c ****   assert_param(IS_UART_ADDRESSLENGTH_DETECT(AddressLength));
2139:Drivers/STM32F7xx_HAL_Driver/Src/stm32f7xx_hal_uart.c **** 
2140:Drivers/STM32F7xx_HAL_Driver/Src/stm32f7xx_hal_uart.c ****   huart->gState = HAL_UART_STATE_BUSY;
 7236              		.loc 1 2140 0
 7237 0002 2422     		movs	r2, #36
2130:Drivers/STM32F7xx_HAL_Driver/Src/stm32f7xx_hal_uart.c ****   /* Check the UART handle allocation */
 7238              		.loc 1 2130 0
 7239 0004 F8B5     		push	{r3, r4, r5, r6, r7, lr}
 7240              	.LCFI69:
ARM GAS  /tmp/cc6CQ8Vx.s 			page 187


 7241              		.cfi_def_cfa_offset 24
 7242              		.cfi_offset 3, -24
 7243              		.cfi_offset 4, -20
 7244              		.cfi_offset 5, -16
 7245              		.cfi_offset 6, -12
 7246              		.cfi_offset 7, -8
 7247              		.cfi_offset 14, -4
2141:Drivers/STM32F7xx_HAL_Driver/Src/stm32f7xx_hal_uart.c **** 
2142:Drivers/STM32F7xx_HAL_Driver/Src/stm32f7xx_hal_uart.c ****   /* Disable the Peripheral */
2143:Drivers/STM32F7xx_HAL_Driver/Src/stm32f7xx_hal_uart.c ****   __HAL_UART_DISABLE(huart);
 7248              		.loc 1 2143 0
 7249 0006 0368     		ldr	r3, [r0]
 7250 0008 0446     		mov	r4, r0
 7251              	.LBB388:
 7252              	.LBB389:
2016:Drivers/STM32F7xx_HAL_Driver/Src/stm32f7xx_hal_uart.c **** 
 7253              		.loc 1 2016 0
 7254 000a 0020     		movs	r0, #0
 7255              	.LVL618:
 7256              	.LBE389:
 7257              	.LBE388:
2140:Drivers/STM32F7xx_HAL_Driver/Src/stm32f7xx_hal_uart.c **** 
 7258              		.loc 1 2140 0
 7259 000c 84F86920 		strb	r2, [r4, #105]
 7260              		.loc 1 2143 0
 7261 0010 1A68     		ldr	r2, [r3]
 7262 0012 22F00102 		bic	r2, r2, #1
 7263 0016 1A60     		str	r2, [r3]
2144:Drivers/STM32F7xx_HAL_Driver/Src/stm32f7xx_hal_uart.c **** 
2145:Drivers/STM32F7xx_HAL_Driver/Src/stm32f7xx_hal_uart.c ****   /* Set the address length */
2146:Drivers/STM32F7xx_HAL_Driver/Src/stm32f7xx_hal_uart.c ****   MODIFY_REG(huart->Instance->CR2, USART_CR2_ADDM7, AddressLength);
 7264              		.loc 1 2146 0
 7265 0018 5A68     		ldr	r2, [r3, #4]
 7266 001a 22F01002 		bic	r2, r2, #16
 7267 001e 1143     		orrs	r1, r1, r2
 7268              	.LVL619:
 7269 0020 5960     		str	r1, [r3, #4]
2147:Drivers/STM32F7xx_HAL_Driver/Src/stm32f7xx_hal_uart.c **** 
2148:Drivers/STM32F7xx_HAL_Driver/Src/stm32f7xx_hal_uart.c ****   /* Enable the Peripheral */
2149:Drivers/STM32F7xx_HAL_Driver/Src/stm32f7xx_hal_uart.c ****   __HAL_UART_ENABLE(huart);
 7270              		.loc 1 2149 0
 7271 0022 1A68     		ldr	r2, [r3]
 7272 0024 42F00102 		orr	r2, r2, #1
 7273 0028 1A60     		str	r2, [r3]
 7274              	.LVL620:
 7275              	.LBB402:
 7276              	.LBB400:
2016:Drivers/STM32F7xx_HAL_Driver/Src/stm32f7xx_hal_uart.c **** 
 7277              		.loc 1 2016 0
 7278 002a E066     		str	r0, [r4, #108]
2019:Drivers/STM32F7xx_HAL_Driver/Src/stm32f7xx_hal_uart.c **** 
 7279              		.loc 1 2019 0
 7280 002c FFF7FEFF 		bl	HAL_GetTick
 7281              	.LVL621:
2022:Drivers/STM32F7xx_HAL_Driver/Src/stm32f7xx_hal_uart.c ****   {
 7282              		.loc 1 2022 0
 7283 0030 2368     		ldr	r3, [r4]
ARM GAS  /tmp/cc6CQ8Vx.s 			page 188


2019:Drivers/STM32F7xx_HAL_Driver/Src/stm32f7xx_hal_uart.c **** 
 7284              		.loc 1 2019 0
 7285 0032 0646     		mov	r6, r0
 7286              	.LVL622:
2022:Drivers/STM32F7xx_HAL_Driver/Src/stm32f7xx_hal_uart.c ****   {
 7287              		.loc 1 2022 0
 7288 0034 1A68     		ldr	r2, [r3]
 7289 0036 1207     		lsls	r2, r2, #28
 7290 0038 0BD4     		bmi	.L1701
 7291              	.LVL623:
 7292              	.L1694:
2033:Drivers/STM32F7xx_HAL_Driver/Src/stm32f7xx_hal_uart.c ****   huart->RxState= HAL_UART_STATE_READY;
 7293              		.loc 1 2033 0
 7294 003a 2022     		movs	r2, #32
2037:Drivers/STM32F7xx_HAL_Driver/Src/stm32f7xx_hal_uart.c **** 
 7295              		.loc 1 2037 0
 7296 003c 0023     		movs	r3, #0
2033:Drivers/STM32F7xx_HAL_Driver/Src/stm32f7xx_hal_uart.c ****   huart->RxState= HAL_UART_STATE_READY;
 7297              		.loc 1 2033 0
 7298 003e 84F86920 		strb	r2, [r4, #105]
2039:Drivers/STM32F7xx_HAL_Driver/Src/stm32f7xx_hal_uart.c **** }
 7299              		.loc 1 2039 0
 7300 0042 1846     		mov	r0, r3
2034:Drivers/STM32F7xx_HAL_Driver/Src/stm32f7xx_hal_uart.c **** 
 7301              		.loc 1 2034 0
 7302 0044 84F86A20 		strb	r2, [r4, #106]
2037:Drivers/STM32F7xx_HAL_Driver/Src/stm32f7xx_hal_uart.c **** 
 7303              		.loc 1 2037 0
 7304 0048 84F86830 		strb	r3, [r4, #104]
 7305              	.LBE400:
 7306              	.LBE402:
2150:Drivers/STM32F7xx_HAL_Driver/Src/stm32f7xx_hal_uart.c **** 
2151:Drivers/STM32F7xx_HAL_Driver/Src/stm32f7xx_hal_uart.c ****   /* TEACK and/or REACK to check before moving huart->gState to Ready */
2152:Drivers/STM32F7xx_HAL_Driver/Src/stm32f7xx_hal_uart.c ****   return (UART_CheckIdleState(huart));
2153:Drivers/STM32F7xx_HAL_Driver/Src/stm32f7xx_hal_uart.c **** }
 7307              		.loc 1 2153 0
 7308 004c F8BD     		pop	{r3, r4, r5, r6, r7, pc}
 7309              	.LVL624:
 7310              	.L1695:
 7311              	.LCFI70:
 7312              		.cfi_def_cfa_offset 0
 7313              		.cfi_restore 3
 7314              		.cfi_restore 4
 7315              		.cfi_restore 5
 7316              		.cfi_restore 6
 7317              		.cfi_restore 7
 7318              		.cfi_restore 14
2134:Drivers/STM32F7xx_HAL_Driver/Src/stm32f7xx_hal_uart.c ****   }
 7319              		.loc 1 2134 0
 7320 004e 0120     		movs	r0, #1
 7321              	.LVL625:
 7322              		.loc 1 2153 0
 7323 0050 7047     		bx	lr
 7324              	.LVL626:
 7325              	.L1701:
 7326              	.LCFI71:
 7327              		.cfi_def_cfa_offset 24
ARM GAS  /tmp/cc6CQ8Vx.s 			page 189


 7328              		.cfi_offset 3, -24
 7329              		.cfi_offset 4, -20
 7330              		.cfi_offset 5, -16
 7331              		.cfi_offset 6, -12
 7332              		.cfi_offset 7, -8
 7333              		.cfi_offset 14, -4
 7334              	.LBB403:
 7335              	.LBB401:
 7336              	.LBB390:
 7337              	.LBB391:
1343:Drivers/STM32F7xx_HAL_Driver/Src/stm32f7xx_hal_uart.c ****       {
 7338              		.loc 1 1343 0
 7339 0052 0F4F     		ldr	r7, .L1702
 7340 0054 05E0     		b	.L1691
 7341              	.LVL627:
 7342              	.L1693:
 7343 0056 FFF7FEFF 		bl	HAL_GetTick
 7344              	.LVL628:
 7345 005a 801B     		subs	r0, r0, r6
 7346              	.LBB392:
 7347              	.LBB393:
1346:Drivers/STM32F7xx_HAL_Driver/Src/stm32f7xx_hal_uart.c ****         CLEAR_BIT(huart->Instance->CR3, USART_CR3_EIE);
 7348              		.loc 1 1346 0
 7349 005c 2368     		ldr	r3, [r4]
 7350              	.LBE393:
 7351              	.LBE392:
1343:Drivers/STM32F7xx_HAL_Driver/Src/stm32f7xx_hal_uart.c ****       {
 7352              		.loc 1 1343 0
 7353 005e B842     		cmp	r0, r7
 7354 0060 04D8     		bhi	.L1692
 7355              	.L1691:
1338:Drivers/STM32F7xx_HAL_Driver/Src/stm32f7xx_hal_uart.c ****   {
 7356              		.loc 1 1338 0
 7357 0062 DD69     		ldr	r5, [r3, #28]
 7358 0064 15F40015 		ands	r5, r5, #2097152
 7359 0068 F5D0     		beq	.L1693
 7360 006a E6E7     		b	.L1694
 7361              	.L1692:
 7362              	.LVL629:
 7363              	.LBB396:
 7364              	.LBB394:
1346:Drivers/STM32F7xx_HAL_Driver/Src/stm32f7xx_hal_uart.c ****         CLEAR_BIT(huart->Instance->CR3, USART_CR3_EIE);
 7365              		.loc 1 1346 0
 7366 006c 1A68     		ldr	r2, [r3]
1349:Drivers/STM32F7xx_HAL_Driver/Src/stm32f7xx_hal_uart.c ****         huart->RxState = HAL_UART_STATE_READY;
 7367              		.loc 1 1349 0
 7368 006e 2021     		movs	r1, #32
 7369              	.LBE394:
 7370              	.LBE396:
 7371              	.LBE391:
 7372              	.LBE390:
2028:Drivers/STM32F7xx_HAL_Driver/Src/stm32f7xx_hal_uart.c ****     }
 7373              		.loc 1 2028 0
 7374 0070 0320     		movs	r0, #3
 7375              	.LBB399:
 7376              	.LBB398:
 7377              	.LBB397:
ARM GAS  /tmp/cc6CQ8Vx.s 			page 190


 7378              	.LBB395:
1346:Drivers/STM32F7xx_HAL_Driver/Src/stm32f7xx_hal_uart.c ****         CLEAR_BIT(huart->Instance->CR3, USART_CR3_EIE);
 7379              		.loc 1 1346 0
 7380 0072 22F4D072 		bic	r2, r2, #416
 7381 0076 1A60     		str	r2, [r3]
1347:Drivers/STM32F7xx_HAL_Driver/Src/stm32f7xx_hal_uart.c **** 
 7382              		.loc 1 1347 0
 7383 0078 9A68     		ldr	r2, [r3, #8]
 7384 007a 22F00102 		bic	r2, r2, #1
 7385 007e 9A60     		str	r2, [r3, #8]
1349:Drivers/STM32F7xx_HAL_Driver/Src/stm32f7xx_hal_uart.c ****         huart->RxState = HAL_UART_STATE_READY;
 7386              		.loc 1 1349 0
 7387 0080 84F86910 		strb	r1, [r4, #105]
1353:Drivers/STM32F7xx_HAL_Driver/Src/stm32f7xx_hal_uart.c ****         return HAL_TIMEOUT;
 7388              		.loc 1 1353 0
 7389 0084 84F86850 		strb	r5, [r4, #104]
 7390              	.LVL630:
1350:Drivers/STM32F7xx_HAL_Driver/Src/stm32f7xx_hal_uart.c **** 
 7391              		.loc 1 1350 0
 7392 0088 84F86A10 		strb	r1, [r4, #106]
 7393              	.LBE395:
 7394              	.LBE397:
 7395              	.LBE398:
 7396              	.LBE399:
 7397              	.LBE401:
 7398              	.LBE403:
 7399              		.loc 1 2153 0
 7400 008c F8BD     		pop	{r3, r4, r5, r6, r7, pc}
 7401              	.LVL631:
 7402              	.L1703:
 7403 008e 00BF     		.align	2
 7404              	.L1702:
 7405 0090 FEFFFF01 		.word	33554430
 7406              		.cfi_endproc
 7407              	.LFE184:
 7409              		.comm	UpdateFile,4,4
 7410              		.comm	SpiRxData,4,4
 7411              		.comm	SpiTxData,4,4
 7412              		.section	.rodata.CSWTCH.40,"a",%progbits
 7413              		.align	2
 7414              		.set	.LANCHOR0,. + 0
 7417              	CSWTCH.40:
 7418 0000 01       		.byte	1
 7419 0001 04       		.byte	4
 7420 0002 02       		.byte	2
 7421 0003 08       		.byte	8
 7422              		.section	.rodata.CSWTCH.41,"a",%progbits
 7423              		.align	2
 7424              		.set	.LANCHOR1,. + 0
 7427              	CSWTCH.41:
 7428 0000 00       		.byte	0
 7429 0001 10       		.byte	16
 7430 0002 10       		.byte	16
 7431 0003 10       		.byte	16
 7432 0004 04       		.byte	4
 7433 0005 10       		.byte	16
 7434 0006 10       		.byte	16
ARM GAS  /tmp/cc6CQ8Vx.s 			page 191


 7435 0007 10       		.byte	16
 7436 0008 02       		.byte	2
 7437 0009 10       		.byte	16
 7438 000a 10       		.byte	16
 7439 000b 10       		.byte	16
 7440 000c 08       		.byte	8
 7441              		.text
 7442              	.Letext0:
 7443              		.file 2 "/usr/include/newlib/machine/_default_types.h"
 7444              		.file 3 "/usr/include/newlib/sys/lock.h"
 7445              		.file 4 "/usr/include/newlib/sys/_types.h"
 7446              		.file 5 "/usr/lib/gcc/arm-none-eabi/7.3.1/include/stddef.h"
 7447              		.file 6 "/usr/include/newlib/sys/reent.h"
 7448              		.file 7 "/usr/include/newlib/sys/_stdint.h"
 7449              		.file 8 "Inc/main.h"
 7450              		.file 9 "Drivers/CMSIS/Include/core_cm7.h"
 7451              		.file 10 "Drivers/CMSIS/Device/ST/STM32F7xx/Include/system_stm32f7xx.h"
 7452              		.file 11 "Drivers/CMSIS/Device/ST/STM32F7xx/Include/stm32f746xx.h"
 7453              		.file 12 "Drivers/CMSIS/Device/ST/STM32F7xx/Include/stm32f7xx.h"
 7454              		.file 13 "Drivers/STM32F7xx_HAL_Driver/Inc/stm32f7xx_hal_def.h"
 7455              		.file 14 "Drivers/STM32F7xx_HAL_Driver/Inc/stm32f7xx_hal_dma.h"
 7456              		.file 15 "Drivers/STM32F7xx_HAL_Driver/Inc/stm32f7xx_hal_uart.h"
 7457              		.file 16 "Drivers/STM32F7xx_HAL_Driver/Inc/stm32f7xx_hal.h"
 7458              		.file 17 "Drivers/STM32F7xx_HAL_Driver/Inc/stm32f7xx_hal_rcc.h"
ARM GAS  /tmp/cc6CQ8Vx.s 			page 192


DEFINED SYMBOLS
                            *ABS*:0000000000000000 stm32f7xx_hal_uart.c
     /tmp/cc6CQ8Vx.s:18     .text.HAL_UART_MspInit:0000000000000000 $t
     /tmp/cc6CQ8Vx.s:26     .text.HAL_UART_MspInit:0000000000000000 HAL_UART_MspInit
     /tmp/cc6CQ8Vx.s:41     .text.HAL_UART_MspDeInit:0000000000000000 $t
     /tmp/cc6CQ8Vx.s:49     .text.HAL_UART_MspDeInit:0000000000000000 HAL_UART_MspDeInit
     /tmp/cc6CQ8Vx.s:60     .text.HAL_UART_DeInit:0000000000000000 $t
     /tmp/cc6CQ8Vx.s:68     .text.HAL_UART_DeInit:0000000000000000 HAL_UART_DeInit
     /tmp/cc6CQ8Vx.s:136    .text.HAL_UART_Transmit:0000000000000000 $t
     /tmp/cc6CQ8Vx.s:144    .text.HAL_UART_Transmit:0000000000000000 HAL_UART_Transmit
     /tmp/cc6CQ8Vx.s:412    .text.HAL_UART_Receive:0000000000000000 $t
     /tmp/cc6CQ8Vx.s:420    .text.HAL_UART_Receive:0000000000000000 HAL_UART_Receive
     /tmp/cc6CQ8Vx.s:704    .text.HAL_UART_Transmit_IT:0000000000000000 $t
     /tmp/cc6CQ8Vx.s:712    .text.HAL_UART_Transmit_IT:0000000000000000 HAL_UART_Transmit_IT
     /tmp/cc6CQ8Vx.s:812    .text.HAL_UART_Receive_IT:0000000000000000 $t
     /tmp/cc6CQ8Vx.s:820    .text.HAL_UART_Receive_IT:0000000000000000 HAL_UART_Receive_IT
     /tmp/cc6CQ8Vx.s:951    .text.HAL_UART_Transmit_DMA:0000000000000000 $t
     /tmp/cc6CQ8Vx.s:959    .text.HAL_UART_Transmit_DMA:0000000000000000 HAL_UART_Transmit_DMA
     /tmp/cc6CQ8Vx.s:1066   .text.HAL_UART_Transmit_DMA:0000000000000070 $d
     /tmp/cc6CQ8Vx.s:1634   .text.UART_DMATransmitCplt:0000000000000000 UART_DMATransmitCplt
     /tmp/cc6CQ8Vx.s:1706   .text.UART_DMATxHalfCplt:0000000000000000 UART_DMATxHalfCplt
     /tmp/cc6CQ8Vx.s:1884   .text.UART_DMAError:0000000000000000 UART_DMAError
     /tmp/cc6CQ8Vx.s:1073   .text.HAL_UART_Receive_DMA:0000000000000000 $t
     /tmp/cc6CQ8Vx.s:1081   .text.HAL_UART_Receive_DMA:0000000000000000 HAL_UART_Receive_DMA
     /tmp/cc6CQ8Vx.s:1193   .text.HAL_UART_Receive_DMA:0000000000000080 $d
     /tmp/cc6CQ8Vx.s:1756   .text.UART_DMAReceiveCplt:0000000000000000 UART_DMAReceiveCplt
     /tmp/cc6CQ8Vx.s:1834   .text.UART_DMARxHalfCplt:0000000000000000 UART_DMARxHalfCplt
     /tmp/cc6CQ8Vx.s:1200   .text.HAL_UART_DMAPause:0000000000000000 $t
     /tmp/cc6CQ8Vx.s:1208   .text.HAL_UART_DMAPause:0000000000000000 HAL_UART_DMAPause
     /tmp/cc6CQ8Vx.s:1296   .text.HAL_UART_DMAResume:0000000000000000 $t
     /tmp/cc6CQ8Vx.s:1304   .text.HAL_UART_DMAResume:0000000000000000 HAL_UART_DMAResume
     /tmp/cc6CQ8Vx.s:1377   .text.HAL_UART_DMAStop:0000000000000000 $t
     /tmp/cc6CQ8Vx.s:1385   .text.HAL_UART_DMAStop:0000000000000000 HAL_UART_DMAStop
     /tmp/cc6CQ8Vx.s:1505   .text.UART_WaitOnFlagUntilTimeout:0000000000000000 $t
     /tmp/cc6CQ8Vx.s:1513   .text.UART_WaitOnFlagUntilTimeout:0000000000000000 UART_WaitOnFlagUntilTimeout
     /tmp/cc6CQ8Vx.s:1608   .text.HAL_UART_TxCpltCallback:0000000000000000 $t
     /tmp/cc6CQ8Vx.s:1616   .text.HAL_UART_TxCpltCallback:0000000000000000 HAL_UART_TxCpltCallback
     /tmp/cc6CQ8Vx.s:1627   .text.UART_DMATransmitCplt:0000000000000000 $t
     /tmp/cc6CQ8Vx.s:1680   .text.HAL_UART_TxHalfCpltCallback:0000000000000000 $t
     /tmp/cc6CQ8Vx.s:1688   .text.HAL_UART_TxHalfCpltCallback:0000000000000000 HAL_UART_TxHalfCpltCallback
     /tmp/cc6CQ8Vx.s:1699   .text.UART_DMATxHalfCplt:0000000000000000 $t
     /tmp/cc6CQ8Vx.s:1730   .text.HAL_UART_RxCpltCallback:0000000000000000 $t
     /tmp/cc6CQ8Vx.s:1738   .text.HAL_UART_RxCpltCallback:0000000000000000 HAL_UART_RxCpltCallback
     /tmp/cc6CQ8Vx.s:1749   .text.UART_DMAReceiveCplt:0000000000000000 $t
     /tmp/cc6CQ8Vx.s:1808   .text.HAL_UART_RxHalfCpltCallback:0000000000000000 $t
     /tmp/cc6CQ8Vx.s:1816   .text.HAL_UART_RxHalfCpltCallback:0000000000000000 HAL_UART_RxHalfCpltCallback
     /tmp/cc6CQ8Vx.s:1827   .text.UART_DMARxHalfCplt:0000000000000000 $t
     /tmp/cc6CQ8Vx.s:1858   .text.HAL_UART_ErrorCallback:0000000000000000 $t
     /tmp/cc6CQ8Vx.s:1866   .text.HAL_UART_ErrorCallback:0000000000000000 HAL_UART_ErrorCallback
     /tmp/cc6CQ8Vx.s:1877   .text.UART_DMAError:0000000000000000 $t
     /tmp/cc6CQ8Vx.s:1982   .text.HAL_UART_IRQHandler:0000000000000000 $t
     /tmp/cc6CQ8Vx.s:1990   .text.HAL_UART_IRQHandler:0000000000000000 HAL_UART_IRQHandler
     /tmp/cc6CQ8Vx.s:2509   .text.HAL_UART_IRQHandler:0000000000000258 $d
     /tmp/cc6CQ8Vx.s:2523   .text.UART_DMAAbortOnError:0000000000000000 UART_DMAAbortOnError
     /tmp/cc6CQ8Vx.s:2516   .text.UART_DMAAbortOnError:0000000000000000 $t
     /tmp/cc6CQ8Vx.s:2556   .text.HAL_MultiProcessor_EnableMuteMode:0000000000000000 $t
     /tmp/cc6CQ8Vx.s:2564   .text.HAL_MultiProcessor_EnableMuteMode:0000000000000000 HAL_MultiProcessor_EnableMuteMode
ARM GAS  /tmp/cc6CQ8Vx.s 			page 193


     /tmp/cc6CQ8Vx.s:2734   .text.HAL_MultiProcessor_EnableMuteMode:0000000000000090 $d
     /tmp/cc6CQ8Vx.s:2739   .text.HAL_MultiProcessor_DisableMuteMode:0000000000000000 $t
     /tmp/cc6CQ8Vx.s:2747   .text.HAL_MultiProcessor_DisableMuteMode:0000000000000000 HAL_MultiProcessor_DisableMuteMode
     /tmp/cc6CQ8Vx.s:2917   .text.HAL_MultiProcessor_DisableMuteMode:0000000000000090 $d
     /tmp/cc6CQ8Vx.s:2922   .text.HAL_MultiProcessor_EnterMuteMode:0000000000000000 $t
     /tmp/cc6CQ8Vx.s:2930   .text.HAL_MultiProcessor_EnterMuteMode:0000000000000000 HAL_MultiProcessor_EnterMuteMode
     /tmp/cc6CQ8Vx.s:2949   .text.HAL_UART_GetState:0000000000000000 $t
     /tmp/cc6CQ8Vx.s:2957   .text.HAL_UART_GetState:0000000000000000 HAL_UART_GetState
     /tmp/cc6CQ8Vx.s:2979   .text.HAL_UART_GetError:0000000000000000 $t
     /tmp/cc6CQ8Vx.s:2987   .text.HAL_UART_GetError:0000000000000000 HAL_UART_GetError
     /tmp/cc6CQ8Vx.s:3004   .text.UART_SetConfig:0000000000000000 $t
     /tmp/cc6CQ8Vx.s:3012   .text.UART_SetConfig:0000000000000000 UART_SetConfig
     /tmp/cc6CQ8Vx.s:3143   .text.UART_SetConfig:00000000000000b0 $d
     /tmp/cc6CQ8Vx.s:3153   .text.UART_SetConfig:00000000000000d4 $t
     /tmp/cc6CQ8Vx.s:3169   .text.UART_SetConfig:00000000000000ee $d
     /tmp/cc6CQ8Vx.s:3436   .text.UART_SetConfig:0000000000000290 $d
     /tmp/cc6CQ8Vx.s:3454   .text.UART_AdvFeatureConfig:0000000000000000 $t
     /tmp/cc6CQ8Vx.s:3462   .text.UART_AdvFeatureConfig:0000000000000000 UART_AdvFeatureConfig
     /tmp/cc6CQ8Vx.s:3591   .text.HAL_UART_Init:0000000000000000 $t
     /tmp/cc6CQ8Vx.s:3599   .text.HAL_UART_Init:0000000000000000 HAL_UART_Init
     /tmp/cc6CQ8Vx.s:3770   .text.HAL_UART_Init:00000000000000d0 $d
     /tmp/cc6CQ8Vx.s:3780   .text.HAL_UART_Init:00000000000000f4 $t
     /tmp/cc6CQ8Vx.s:3808   .text.HAL_UART_Init:000000000000012e $d
     /tmp/cc6CQ8Vx.s:3818   .text.HAL_UART_Init:0000000000000140 $t
     /tmp/cc6CQ8Vx.s:4190   .text.HAL_UART_Init:000000000000031c $d
     /tmp/cc6CQ8Vx.s:4206   .text.HAL_UART_Init:0000000000000358 $t
     /tmp/cc6CQ8Vx.s:4238   .text.HAL_HalfDuplex_Init:0000000000000000 $t
     /tmp/cc6CQ8Vx.s:4246   .text.HAL_HalfDuplex_Init:0000000000000000 HAL_HalfDuplex_Init
     /tmp/cc6CQ8Vx.s:4417   .text.HAL_HalfDuplex_Init:00000000000000d0 $d
     /tmp/cc6CQ8Vx.s:4427   .text.HAL_HalfDuplex_Init:00000000000000f4 $t
     /tmp/cc6CQ8Vx.s:4455   .text.HAL_HalfDuplex_Init:000000000000012e $d
     /tmp/cc6CQ8Vx.s:4465   .text.HAL_HalfDuplex_Init:0000000000000140 $t
     /tmp/cc6CQ8Vx.s:4841   .text.HAL_HalfDuplex_Init:0000000000000324 $d
     /tmp/cc6CQ8Vx.s:4857   .text.HAL_HalfDuplex_Init:0000000000000360 $t
     /tmp/cc6CQ8Vx.s:4889   .text.HAL_LIN_Init:0000000000000000 $t
     /tmp/cc6CQ8Vx.s:4897   .text.HAL_LIN_Init:0000000000000000 HAL_LIN_Init
     /tmp/cc6CQ8Vx.s:5069   .text.HAL_LIN_Init:00000000000000d0 $d
     /tmp/cc6CQ8Vx.s:5079   .text.HAL_LIN_Init:00000000000000f4 $t
     /tmp/cc6CQ8Vx.s:5107   .text.HAL_LIN_Init:000000000000012e $d
     /tmp/cc6CQ8Vx.s:5117   .text.HAL_LIN_Init:0000000000000140 $t
     /tmp/cc6CQ8Vx.s:5487   .text.HAL_LIN_Init:0000000000000304 $d
     /tmp/cc6CQ8Vx.s:5503   .text.HAL_LIN_Init:0000000000000340 $t
     /tmp/cc6CQ8Vx.s:5547   .text.HAL_MultiProcessor_Init:0000000000000000 $t
     /tmp/cc6CQ8Vx.s:5555   .text.HAL_MultiProcessor_Init:0000000000000000 HAL_MultiProcessor_Init
     /tmp/cc6CQ8Vx.s:5729   .text.HAL_MultiProcessor_Init:00000000000000d4 $d
     /tmp/cc6CQ8Vx.s:5739   .text.HAL_MultiProcessor_Init:00000000000000f8 $t
     /tmp/cc6CQ8Vx.s:5767   .text.HAL_MultiProcessor_Init:0000000000000132 $d
     /tmp/cc6CQ8Vx.s:5777   .text.HAL_MultiProcessor_Init:0000000000000144 $t
     /tmp/cc6CQ8Vx.s:6154   .text.HAL_MultiProcessor_Init:0000000000000314 $d
     /tmp/cc6CQ8Vx.s:6170   .text.HAL_MultiProcessor_Init:0000000000000350 $t
     /tmp/cc6CQ8Vx.s:6214   .text.HAL_RS485Ex_Init:0000000000000000 $t
     /tmp/cc6CQ8Vx.s:6222   .text.HAL_RS485Ex_Init:0000000000000000 HAL_RS485Ex_Init
     /tmp/cc6CQ8Vx.s:6398   .text.HAL_RS485Ex_Init:00000000000000d8 $d
     /tmp/cc6CQ8Vx.s:6408   .text.HAL_RS485Ex_Init:00000000000000fc $t
     /tmp/cc6CQ8Vx.s:6436   .text.HAL_RS485Ex_Init:0000000000000136 $d
     /tmp/cc6CQ8Vx.s:6446   .text.HAL_RS485Ex_Init:0000000000000148 $t
     /tmp/cc6CQ8Vx.s:6825   .text.HAL_RS485Ex_Init:0000000000000310 $d
ARM GAS  /tmp/cc6CQ8Vx.s 			page 194


     /tmp/cc6CQ8Vx.s:6842   .text.HAL_RS485Ex_Init:0000000000000350 $t
     /tmp/cc6CQ8Vx.s:6885   .text.UART_CheckIdleState:0000000000000000 $t
     /tmp/cc6CQ8Vx.s:6893   .text.UART_CheckIdleState:0000000000000000 UART_CheckIdleState
     /tmp/cc6CQ8Vx.s:7006   .text.UART_CheckIdleState:0000000000000064 $d
     /tmp/cc6CQ8Vx.s:7011   .text.HAL_HalfDuplex_EnableTransmitter:0000000000000000 $t
     /tmp/cc6CQ8Vx.s:7019   .text.HAL_HalfDuplex_EnableTransmitter:0000000000000000 HAL_HalfDuplex_EnableTransmitter
     /tmp/cc6CQ8Vx.s:7082   .text.HAL_HalfDuplex_EnableReceiver:0000000000000000 $t
     /tmp/cc6CQ8Vx.s:7090   .text.HAL_HalfDuplex_EnableReceiver:0000000000000000 HAL_HalfDuplex_EnableReceiver
     /tmp/cc6CQ8Vx.s:7153   .text.HAL_LIN_SendBreak:0000000000000000 $t
     /tmp/cc6CQ8Vx.s:7161   .text.HAL_LIN_SendBreak:0000000000000000 HAL_LIN_SendBreak
     /tmp/cc6CQ8Vx.s:7219   .text.HAL_MultiProcessorEx_AddressLength_Set:0000000000000000 $t
     /tmp/cc6CQ8Vx.s:7227   .text.HAL_MultiProcessorEx_AddressLength_Set:0000000000000000 HAL_MultiProcessorEx_AddressLength_Set
     /tmp/cc6CQ8Vx.s:7405   .text.HAL_MultiProcessorEx_AddressLength_Set:0000000000000090 $d
                            *COM*:0000000000000004 UpdateFile
                            *COM*:0000000000000004 SpiRxData
                            *COM*:0000000000000004 SpiTxData
     /tmp/cc6CQ8Vx.s:7413   .rodata.CSWTCH.40:0000000000000000 $d
     /tmp/cc6CQ8Vx.s:7417   .rodata.CSWTCH.40:0000000000000000 CSWTCH.40
     /tmp/cc6CQ8Vx.s:7423   .rodata.CSWTCH.41:0000000000000000 $d
     /tmp/cc6CQ8Vx.s:7427   .rodata.CSWTCH.41:0000000000000000 CSWTCH.41
     /tmp/cc6CQ8Vx.s:3179   .text.UART_SetConfig:00000000000000f7 $d
     /tmp/cc6CQ8Vx.s:3179   .text.UART_SetConfig:00000000000000f8 $t

UNDEFINED SYMBOLS
HAL_GetTick
HAL_DMA_Start_IT
HAL_DMA_Abort
HAL_DMA_Abort_IT
HAL_RCC_GetPCLK2Freq
HAL_RCC_GetPCLK1Freq
HAL_RCC_GetSysClockFreq
