ARM GAS  /tmp/ccB7WBLo.s 			page 1


   1              		.cpu cortex-m7
   2              		.eabi_attribute 27, 1
   3              		.eabi_attribute 28, 1
   4              		.eabi_attribute 20, 1
   5              		.eabi_attribute 21, 1
   6              		.eabi_attribute 23, 3
   7              		.eabi_attribute 24, 1
   8              		.eabi_attribute 25, 1
   9              		.eabi_attribute 26, 1
  10              		.eabi_attribute 30, 6
  11              		.eabi_attribute 34, 1
  12              		.eabi_attribute 18, 4
  13              		.file	"stm32f7xx_hal_gpio.c"
  14              		.text
  15              	.Ltext0:
  16              		.cfi_sections	.debug_frame
  17              		.comm	SpiTxData,4,4
  18              		.comm	SpiRxData,4,4
  19              		.comm	UpdateFile,4,4
  20              		.section	.text.HAL_GPIO_Init,"ax",%progbits
  21              		.align	1
  22              		.global	HAL_GPIO_Init
  23              		.syntax unified
  24              		.thumb
  25              		.thumb_func
  26              		.fpu fpv4-sp-d16
  28              	HAL_GPIO_Init:
  29              	.LFB138:
  30              		.file 1 "Drivers/STM32F7xx_HAL_Driver/Src/stm32f7xx_hal_gpio.c"
   1:Drivers/STM32F7xx_HAL_Driver/Src/stm32f7xx_hal_gpio.c **** /**
   2:Drivers/STM32F7xx_HAL_Driver/Src/stm32f7xx_hal_gpio.c ****   ******************************************************************************
   3:Drivers/STM32F7xx_HAL_Driver/Src/stm32f7xx_hal_gpio.c ****   * @file    stm32f7xx_hal_gpio.c
   4:Drivers/STM32F7xx_HAL_Driver/Src/stm32f7xx_hal_gpio.c ****   * @author  MCD Application Team
   5:Drivers/STM32F7xx_HAL_Driver/Src/stm32f7xx_hal_gpio.c ****   * @brief   GPIO HAL module driver.
   6:Drivers/STM32F7xx_HAL_Driver/Src/stm32f7xx_hal_gpio.c ****   *          This file provides firmware functions to manage the following 
   7:Drivers/STM32F7xx_HAL_Driver/Src/stm32f7xx_hal_gpio.c ****   *          functionalities of the General Purpose Input/Output (GPIO) peripheral:
   8:Drivers/STM32F7xx_HAL_Driver/Src/stm32f7xx_hal_gpio.c ****   *           + Initialization and de-initialization functions
   9:Drivers/STM32F7xx_HAL_Driver/Src/stm32f7xx_hal_gpio.c ****   *           + IO operation functions
  10:Drivers/STM32F7xx_HAL_Driver/Src/stm32f7xx_hal_gpio.c ****   *
  11:Drivers/STM32F7xx_HAL_Driver/Src/stm32f7xx_hal_gpio.c ****   @verbatim
  12:Drivers/STM32F7xx_HAL_Driver/Src/stm32f7xx_hal_gpio.c ****   ==============================================================================
  13:Drivers/STM32F7xx_HAL_Driver/Src/stm32f7xx_hal_gpio.c ****                     ##### GPIO Peripheral features #####
  14:Drivers/STM32F7xx_HAL_Driver/Src/stm32f7xx_hal_gpio.c ****   ==============================================================================
  15:Drivers/STM32F7xx_HAL_Driver/Src/stm32f7xx_hal_gpio.c ****   [..] 
  16:Drivers/STM32F7xx_HAL_Driver/Src/stm32f7xx_hal_gpio.c ****   Subject to the specific hardware characteristics of each I/O port listed in the datasheet, each
  17:Drivers/STM32F7xx_HAL_Driver/Src/stm32f7xx_hal_gpio.c ****   port bit of the General Purpose IO (GPIO) Ports, can be individually configured by software
  18:Drivers/STM32F7xx_HAL_Driver/Src/stm32f7xx_hal_gpio.c ****   in several modes:
  19:Drivers/STM32F7xx_HAL_Driver/Src/stm32f7xx_hal_gpio.c ****   (+) Input mode 
  20:Drivers/STM32F7xx_HAL_Driver/Src/stm32f7xx_hal_gpio.c ****   (+) Analog mode
  21:Drivers/STM32F7xx_HAL_Driver/Src/stm32f7xx_hal_gpio.c ****   (+) Output mode
  22:Drivers/STM32F7xx_HAL_Driver/Src/stm32f7xx_hal_gpio.c ****   (+) Alternate function mode
  23:Drivers/STM32F7xx_HAL_Driver/Src/stm32f7xx_hal_gpio.c ****   (+) External interrupt/event lines
  24:Drivers/STM32F7xx_HAL_Driver/Src/stm32f7xx_hal_gpio.c **** 
  25:Drivers/STM32F7xx_HAL_Driver/Src/stm32f7xx_hal_gpio.c ****   [..]  
  26:Drivers/STM32F7xx_HAL_Driver/Src/stm32f7xx_hal_gpio.c ****   During and just after reset, the alternate functions and external interrupt  
  27:Drivers/STM32F7xx_HAL_Driver/Src/stm32f7xx_hal_gpio.c ****   lines are not active and the I/O ports are configured in input floating mode.
  28:Drivers/STM32F7xx_HAL_Driver/Src/stm32f7xx_hal_gpio.c ****   
ARM GAS  /tmp/ccB7WBLo.s 			page 2


  29:Drivers/STM32F7xx_HAL_Driver/Src/stm32f7xx_hal_gpio.c ****   [..]   
  30:Drivers/STM32F7xx_HAL_Driver/Src/stm32f7xx_hal_gpio.c ****   All GPIO pins have weak internal pull-up and pull-down resistors, which can be 
  31:Drivers/STM32F7xx_HAL_Driver/Src/stm32f7xx_hal_gpio.c ****   activated or not.
  32:Drivers/STM32F7xx_HAL_Driver/Src/stm32f7xx_hal_gpio.c **** 
  33:Drivers/STM32F7xx_HAL_Driver/Src/stm32f7xx_hal_gpio.c ****   [..]
  34:Drivers/STM32F7xx_HAL_Driver/Src/stm32f7xx_hal_gpio.c ****   In Output or Alternate mode, each IO can be configured on open-drain or push-pull
  35:Drivers/STM32F7xx_HAL_Driver/Src/stm32f7xx_hal_gpio.c ****   type and the IO speed can be selected depending on the VDD value.
  36:Drivers/STM32F7xx_HAL_Driver/Src/stm32f7xx_hal_gpio.c **** 
  37:Drivers/STM32F7xx_HAL_Driver/Src/stm32f7xx_hal_gpio.c ****   [..]  
  38:Drivers/STM32F7xx_HAL_Driver/Src/stm32f7xx_hal_gpio.c ****   All ports have external interrupt/event capability. To use external interrupt 
  39:Drivers/STM32F7xx_HAL_Driver/Src/stm32f7xx_hal_gpio.c ****   lines, the port must be configured in input mode. All available GPIO pins are 
  40:Drivers/STM32F7xx_HAL_Driver/Src/stm32f7xx_hal_gpio.c ****   connected to the 16 external interrupt/event lines from EXTI0 to EXTI15.
  41:Drivers/STM32F7xx_HAL_Driver/Src/stm32f7xx_hal_gpio.c ****   
  42:Drivers/STM32F7xx_HAL_Driver/Src/stm32f7xx_hal_gpio.c ****   [..]
  43:Drivers/STM32F7xx_HAL_Driver/Src/stm32f7xx_hal_gpio.c ****   The external interrupt/event controller consists of up to 23 edge detectors 
  44:Drivers/STM32F7xx_HAL_Driver/Src/stm32f7xx_hal_gpio.c ****   (16 lines are connected to GPIO) for generating event/interrupt requests (each 
  45:Drivers/STM32F7xx_HAL_Driver/Src/stm32f7xx_hal_gpio.c ****   input line can be independently configured to select the type (interrupt or event) 
  46:Drivers/STM32F7xx_HAL_Driver/Src/stm32f7xx_hal_gpio.c ****   and the corresponding trigger event (rising or falling or both). Each line can 
  47:Drivers/STM32F7xx_HAL_Driver/Src/stm32f7xx_hal_gpio.c ****   also be masked independently. 
  48:Drivers/STM32F7xx_HAL_Driver/Src/stm32f7xx_hal_gpio.c **** 
  49:Drivers/STM32F7xx_HAL_Driver/Src/stm32f7xx_hal_gpio.c ****                      ##### How to use this driver #####
  50:Drivers/STM32F7xx_HAL_Driver/Src/stm32f7xx_hal_gpio.c ****   ==============================================================================  
  51:Drivers/STM32F7xx_HAL_Driver/Src/stm32f7xx_hal_gpio.c ****   [..]
  52:Drivers/STM32F7xx_HAL_Driver/Src/stm32f7xx_hal_gpio.c ****     (#) Enable the GPIO AHB clock using the following function: __HAL_RCC_GPIOx_CLK_ENABLE(). 
  53:Drivers/STM32F7xx_HAL_Driver/Src/stm32f7xx_hal_gpio.c **** 
  54:Drivers/STM32F7xx_HAL_Driver/Src/stm32f7xx_hal_gpio.c ****     (#) Configure the GPIO pin(s) using HAL_GPIO_Init().
  55:Drivers/STM32F7xx_HAL_Driver/Src/stm32f7xx_hal_gpio.c ****         (++) Configure the IO mode using "Mode" member from GPIO_InitTypeDef structure
  56:Drivers/STM32F7xx_HAL_Driver/Src/stm32f7xx_hal_gpio.c ****         (++) Activate Pull-up, Pull-down resistor using "Pull" member from GPIO_InitTypeDef 
  57:Drivers/STM32F7xx_HAL_Driver/Src/stm32f7xx_hal_gpio.c ****              structure.
  58:Drivers/STM32F7xx_HAL_Driver/Src/stm32f7xx_hal_gpio.c ****         (++) In case of Output or alternate function mode selection: the speed is 
  59:Drivers/STM32F7xx_HAL_Driver/Src/stm32f7xx_hal_gpio.c ****              configured through "Speed" member from GPIO_InitTypeDef structure.
  60:Drivers/STM32F7xx_HAL_Driver/Src/stm32f7xx_hal_gpio.c ****         (++) In alternate mode is selection, the alternate function connected to the IO
  61:Drivers/STM32F7xx_HAL_Driver/Src/stm32f7xx_hal_gpio.c ****              is configured through "Alternate" member from GPIO_InitTypeDef structure.
  62:Drivers/STM32F7xx_HAL_Driver/Src/stm32f7xx_hal_gpio.c ****         (++) Analog mode is required when a pin is to be used as ADC channel 
  63:Drivers/STM32F7xx_HAL_Driver/Src/stm32f7xx_hal_gpio.c ****              or DAC output.
  64:Drivers/STM32F7xx_HAL_Driver/Src/stm32f7xx_hal_gpio.c ****         (++) In case of external interrupt/event selection the "Mode" member from 
  65:Drivers/STM32F7xx_HAL_Driver/Src/stm32f7xx_hal_gpio.c ****              GPIO_InitTypeDef structure select the type (interrupt or event) and 
  66:Drivers/STM32F7xx_HAL_Driver/Src/stm32f7xx_hal_gpio.c ****              the corresponding trigger event (rising or falling or both).
  67:Drivers/STM32F7xx_HAL_Driver/Src/stm32f7xx_hal_gpio.c **** 
  68:Drivers/STM32F7xx_HAL_Driver/Src/stm32f7xx_hal_gpio.c ****     (#) In case of external interrupt/event mode selection, configure NVIC IRQ priority 
  69:Drivers/STM32F7xx_HAL_Driver/Src/stm32f7xx_hal_gpio.c ****         mapped to the EXTI line using HAL_NVIC_SetPriority() and enable it using
  70:Drivers/STM32F7xx_HAL_Driver/Src/stm32f7xx_hal_gpio.c ****         HAL_NVIC_EnableIRQ().
  71:Drivers/STM32F7xx_HAL_Driver/Src/stm32f7xx_hal_gpio.c ****          
  72:Drivers/STM32F7xx_HAL_Driver/Src/stm32f7xx_hal_gpio.c ****     (#) To get the level of a pin configured in input mode use HAL_GPIO_ReadPin().
  73:Drivers/STM32F7xx_HAL_Driver/Src/stm32f7xx_hal_gpio.c ****             
  74:Drivers/STM32F7xx_HAL_Driver/Src/stm32f7xx_hal_gpio.c ****     (#) To set/reset the level of a pin configured in output mode use 
  75:Drivers/STM32F7xx_HAL_Driver/Src/stm32f7xx_hal_gpio.c ****         HAL_GPIO_WritePin()/HAL_GPIO_TogglePin().
  76:Drivers/STM32F7xx_HAL_Driver/Src/stm32f7xx_hal_gpio.c ****     
  77:Drivers/STM32F7xx_HAL_Driver/Src/stm32f7xx_hal_gpio.c ****     (#) To lock pin configuration until next reset use HAL_GPIO_LockPin().
  78:Drivers/STM32F7xx_HAL_Driver/Src/stm32f7xx_hal_gpio.c **** 
  79:Drivers/STM32F7xx_HAL_Driver/Src/stm32f7xx_hal_gpio.c ****                  
  80:Drivers/STM32F7xx_HAL_Driver/Src/stm32f7xx_hal_gpio.c ****     (#) During and just after reset, the alternate functions are not 
  81:Drivers/STM32F7xx_HAL_Driver/Src/stm32f7xx_hal_gpio.c ****         active and the GPIO pins are configured in input floating mode (except JTAG
  82:Drivers/STM32F7xx_HAL_Driver/Src/stm32f7xx_hal_gpio.c ****         pins).
  83:Drivers/STM32F7xx_HAL_Driver/Src/stm32f7xx_hal_gpio.c ****   
  84:Drivers/STM32F7xx_HAL_Driver/Src/stm32f7xx_hal_gpio.c ****     (#) The LSE oscillator pins OSC32_IN and OSC32_OUT can be used as general purpose 
  85:Drivers/STM32F7xx_HAL_Driver/Src/stm32f7xx_hal_gpio.c ****         (PC14 and PC15, respectively) when the LSE oscillator is off. The LSE has 
ARM GAS  /tmp/ccB7WBLo.s 			page 3


  86:Drivers/STM32F7xx_HAL_Driver/Src/stm32f7xx_hal_gpio.c ****         priority over the GPIO function.
  87:Drivers/STM32F7xx_HAL_Driver/Src/stm32f7xx_hal_gpio.c ****   
  88:Drivers/STM32F7xx_HAL_Driver/Src/stm32f7xx_hal_gpio.c ****     (#) The HSE oscillator pins OSC_IN/OSC_OUT can be used as 
  89:Drivers/STM32F7xx_HAL_Driver/Src/stm32f7xx_hal_gpio.c ****         general purpose PH0 and PH1, respectively, when the HSE oscillator is off. 
  90:Drivers/STM32F7xx_HAL_Driver/Src/stm32f7xx_hal_gpio.c ****         The HSE has priority over the GPIO function.
  91:Drivers/STM32F7xx_HAL_Driver/Src/stm32f7xx_hal_gpio.c ****   
  92:Drivers/STM32F7xx_HAL_Driver/Src/stm32f7xx_hal_gpio.c ****   @endverbatim
  93:Drivers/STM32F7xx_HAL_Driver/Src/stm32f7xx_hal_gpio.c ****   ******************************************************************************
  94:Drivers/STM32F7xx_HAL_Driver/Src/stm32f7xx_hal_gpio.c ****   * @attention
  95:Drivers/STM32F7xx_HAL_Driver/Src/stm32f7xx_hal_gpio.c ****   *
  96:Drivers/STM32F7xx_HAL_Driver/Src/stm32f7xx_hal_gpio.c ****   * <h2><center>&copy; COPYRIGHT(c) 2017 STMicroelectronics</center></h2>
  97:Drivers/STM32F7xx_HAL_Driver/Src/stm32f7xx_hal_gpio.c ****   *
  98:Drivers/STM32F7xx_HAL_Driver/Src/stm32f7xx_hal_gpio.c ****   * Redistribution and use in source and binary forms, with or without modification,
  99:Drivers/STM32F7xx_HAL_Driver/Src/stm32f7xx_hal_gpio.c ****   * are permitted provided that the following conditions are met:
 100:Drivers/STM32F7xx_HAL_Driver/Src/stm32f7xx_hal_gpio.c ****   *   1. Redistributions of source code must retain the above copyright notice,
 101:Drivers/STM32F7xx_HAL_Driver/Src/stm32f7xx_hal_gpio.c ****   *      this list of conditions and the following disclaimer.
 102:Drivers/STM32F7xx_HAL_Driver/Src/stm32f7xx_hal_gpio.c ****   *   2. Redistributions in binary form must reproduce the above copyright notice,
 103:Drivers/STM32F7xx_HAL_Driver/Src/stm32f7xx_hal_gpio.c ****   *      this list of conditions and the following disclaimer in the documentation
 104:Drivers/STM32F7xx_HAL_Driver/Src/stm32f7xx_hal_gpio.c ****   *      and/or other materials provided with the distribution.
 105:Drivers/STM32F7xx_HAL_Driver/Src/stm32f7xx_hal_gpio.c ****   *   3. Neither the name of STMicroelectronics nor the names of its contributors
 106:Drivers/STM32F7xx_HAL_Driver/Src/stm32f7xx_hal_gpio.c ****   *      may be used to endorse or promote products derived from this software
 107:Drivers/STM32F7xx_HAL_Driver/Src/stm32f7xx_hal_gpio.c ****   *      without specific prior written permission.
 108:Drivers/STM32F7xx_HAL_Driver/Src/stm32f7xx_hal_gpio.c ****   *
 109:Drivers/STM32F7xx_HAL_Driver/Src/stm32f7xx_hal_gpio.c ****   * THIS SOFTWARE IS PROVIDED BY THE COPYRIGHT HOLDERS AND CONTRIBUTORS "AS IS"
 110:Drivers/STM32F7xx_HAL_Driver/Src/stm32f7xx_hal_gpio.c ****   * AND ANY EXPRESS OR IMPLIED WARRANTIES, INCLUDING, BUT NOT LIMITED TO, THE
 111:Drivers/STM32F7xx_HAL_Driver/Src/stm32f7xx_hal_gpio.c ****   * IMPLIED WARRANTIES OF MERCHANTABILITY AND FITNESS FOR A PARTICULAR PURPOSE ARE
 112:Drivers/STM32F7xx_HAL_Driver/Src/stm32f7xx_hal_gpio.c ****   * DISCLAIMED. IN NO EVENT SHALL THE COPYRIGHT HOLDER OR CONTRIBUTORS BE LIABLE
 113:Drivers/STM32F7xx_HAL_Driver/Src/stm32f7xx_hal_gpio.c ****   * FOR ANY DIRECT, INDIRECT, INCIDENTAL, SPECIAL, EXEMPLARY, OR CONSEQUENTIAL
 114:Drivers/STM32F7xx_HAL_Driver/Src/stm32f7xx_hal_gpio.c ****   * DAMAGES (INCLUDING, BUT NOT LIMITED TO, PROCUREMENT OF SUBSTITUTE GOODS OR
 115:Drivers/STM32F7xx_HAL_Driver/Src/stm32f7xx_hal_gpio.c ****   * SERVICES; LOSS OF USE, DATA, OR PROFITS; OR BUSINESS INTERRUPTION) HOWEVER
 116:Drivers/STM32F7xx_HAL_Driver/Src/stm32f7xx_hal_gpio.c ****   * CAUSED AND ON ANY THEORY OF LIABILITY, WHETHER IN CONTRACT, STRICT LIABILITY,
 117:Drivers/STM32F7xx_HAL_Driver/Src/stm32f7xx_hal_gpio.c ****   * OR TORT (INCLUDING NEGLIGENCE OR OTHERWISE) ARISING IN ANY WAY OUT OF THE USE
 118:Drivers/STM32F7xx_HAL_Driver/Src/stm32f7xx_hal_gpio.c ****   * OF THIS SOFTWARE, EVEN IF ADVISED OF THE POSSIBILITY OF SUCH DAMAGE.
 119:Drivers/STM32F7xx_HAL_Driver/Src/stm32f7xx_hal_gpio.c ****   *
 120:Drivers/STM32F7xx_HAL_Driver/Src/stm32f7xx_hal_gpio.c ****   ******************************************************************************
 121:Drivers/STM32F7xx_HAL_Driver/Src/stm32f7xx_hal_gpio.c ****   */ 
 122:Drivers/STM32F7xx_HAL_Driver/Src/stm32f7xx_hal_gpio.c **** 
 123:Drivers/STM32F7xx_HAL_Driver/Src/stm32f7xx_hal_gpio.c **** /* Includes ------------------------------------------------------------------*/
 124:Drivers/STM32F7xx_HAL_Driver/Src/stm32f7xx_hal_gpio.c **** #include "stm32f7xx_hal.h"
 125:Drivers/STM32F7xx_HAL_Driver/Src/stm32f7xx_hal_gpio.c **** 
 126:Drivers/STM32F7xx_HAL_Driver/Src/stm32f7xx_hal_gpio.c **** /** @addtogroup STM32F7xx_HAL_Driver
 127:Drivers/STM32F7xx_HAL_Driver/Src/stm32f7xx_hal_gpio.c ****   * @{
 128:Drivers/STM32F7xx_HAL_Driver/Src/stm32f7xx_hal_gpio.c ****   */
 129:Drivers/STM32F7xx_HAL_Driver/Src/stm32f7xx_hal_gpio.c **** 
 130:Drivers/STM32F7xx_HAL_Driver/Src/stm32f7xx_hal_gpio.c **** /** @defgroup GPIO GPIO
 131:Drivers/STM32F7xx_HAL_Driver/Src/stm32f7xx_hal_gpio.c ****   * @brief GPIO HAL module driver
 132:Drivers/STM32F7xx_HAL_Driver/Src/stm32f7xx_hal_gpio.c ****   * @{
 133:Drivers/STM32F7xx_HAL_Driver/Src/stm32f7xx_hal_gpio.c ****   */
 134:Drivers/STM32F7xx_HAL_Driver/Src/stm32f7xx_hal_gpio.c **** 
 135:Drivers/STM32F7xx_HAL_Driver/Src/stm32f7xx_hal_gpio.c **** #ifdef HAL_GPIO_MODULE_ENABLED
 136:Drivers/STM32F7xx_HAL_Driver/Src/stm32f7xx_hal_gpio.c **** 
 137:Drivers/STM32F7xx_HAL_Driver/Src/stm32f7xx_hal_gpio.c **** /* Private typedef -----------------------------------------------------------*/
 138:Drivers/STM32F7xx_HAL_Driver/Src/stm32f7xx_hal_gpio.c **** /* Private define ------------------------------------------------------------*/
 139:Drivers/STM32F7xx_HAL_Driver/Src/stm32f7xx_hal_gpio.c **** /** @addtogroup GPIO_Private_Constants GPIO Private Constants
 140:Drivers/STM32F7xx_HAL_Driver/Src/stm32f7xx_hal_gpio.c ****   * @{
 141:Drivers/STM32F7xx_HAL_Driver/Src/stm32f7xx_hal_gpio.c ****   */
 142:Drivers/STM32F7xx_HAL_Driver/Src/stm32f7xx_hal_gpio.c **** #define GPIO_MODE             ((uint32_t)0x00000003U)
ARM GAS  /tmp/ccB7WBLo.s 			page 4


 143:Drivers/STM32F7xx_HAL_Driver/Src/stm32f7xx_hal_gpio.c **** #define EXTI_MODE             ((uint32_t)0x10000000U)
 144:Drivers/STM32F7xx_HAL_Driver/Src/stm32f7xx_hal_gpio.c **** #define GPIO_MODE_IT          ((uint32_t)0x00010000U)
 145:Drivers/STM32F7xx_HAL_Driver/Src/stm32f7xx_hal_gpio.c **** #define GPIO_MODE_EVT         ((uint32_t)0x00020000U)
 146:Drivers/STM32F7xx_HAL_Driver/Src/stm32f7xx_hal_gpio.c **** #define RISING_EDGE           ((uint32_t)0x00100000U)
 147:Drivers/STM32F7xx_HAL_Driver/Src/stm32f7xx_hal_gpio.c **** #define FALLING_EDGE          ((uint32_t)0x00200000U)
 148:Drivers/STM32F7xx_HAL_Driver/Src/stm32f7xx_hal_gpio.c **** #define GPIO_OUTPUT_TYPE      ((uint32_t)0x00000010U)
 149:Drivers/STM32F7xx_HAL_Driver/Src/stm32f7xx_hal_gpio.c **** 
 150:Drivers/STM32F7xx_HAL_Driver/Src/stm32f7xx_hal_gpio.c **** #define GPIO_NUMBER           ((uint32_t)16U)
 151:Drivers/STM32F7xx_HAL_Driver/Src/stm32f7xx_hal_gpio.c **** /**
 152:Drivers/STM32F7xx_HAL_Driver/Src/stm32f7xx_hal_gpio.c ****   * @}
 153:Drivers/STM32F7xx_HAL_Driver/Src/stm32f7xx_hal_gpio.c ****   */
 154:Drivers/STM32F7xx_HAL_Driver/Src/stm32f7xx_hal_gpio.c **** /* Private macro -------------------------------------------------------------*/
 155:Drivers/STM32F7xx_HAL_Driver/Src/stm32f7xx_hal_gpio.c **** /* Private variables ---------------------------------------------------------*/
 156:Drivers/STM32F7xx_HAL_Driver/Src/stm32f7xx_hal_gpio.c **** /* Private function prototypes -----------------------------------------------*/
 157:Drivers/STM32F7xx_HAL_Driver/Src/stm32f7xx_hal_gpio.c **** /* Private functions ---------------------------------------------------------*/
 158:Drivers/STM32F7xx_HAL_Driver/Src/stm32f7xx_hal_gpio.c **** /* Exported functions --------------------------------------------------------*/
 159:Drivers/STM32F7xx_HAL_Driver/Src/stm32f7xx_hal_gpio.c **** /** @defgroup GPIO_Exported_Functions GPIO Exported Functions
 160:Drivers/STM32F7xx_HAL_Driver/Src/stm32f7xx_hal_gpio.c ****   * @{
 161:Drivers/STM32F7xx_HAL_Driver/Src/stm32f7xx_hal_gpio.c ****   */
 162:Drivers/STM32F7xx_HAL_Driver/Src/stm32f7xx_hal_gpio.c **** 
 163:Drivers/STM32F7xx_HAL_Driver/Src/stm32f7xx_hal_gpio.c **** /** @defgroup GPIO_Exported_Functions_Group1 Initialization and de-initialization functions
 164:Drivers/STM32F7xx_HAL_Driver/Src/stm32f7xx_hal_gpio.c ****  *  @brief    Initialization and Configuration functions
 165:Drivers/STM32F7xx_HAL_Driver/Src/stm32f7xx_hal_gpio.c ****  *
 166:Drivers/STM32F7xx_HAL_Driver/Src/stm32f7xx_hal_gpio.c **** @verbatim
 167:Drivers/STM32F7xx_HAL_Driver/Src/stm32f7xx_hal_gpio.c ****  ===============================================================================
 168:Drivers/STM32F7xx_HAL_Driver/Src/stm32f7xx_hal_gpio.c ****               ##### Initialization and de-initialization functions #####
 169:Drivers/STM32F7xx_HAL_Driver/Src/stm32f7xx_hal_gpio.c ****  ===============================================================================
 170:Drivers/STM32F7xx_HAL_Driver/Src/stm32f7xx_hal_gpio.c ****   [..]
 171:Drivers/STM32F7xx_HAL_Driver/Src/stm32f7xx_hal_gpio.c ****     This section provides functions allowing to initialize and de-initialize the GPIOs
 172:Drivers/STM32F7xx_HAL_Driver/Src/stm32f7xx_hal_gpio.c ****     to be ready for use.
 173:Drivers/STM32F7xx_HAL_Driver/Src/stm32f7xx_hal_gpio.c ****  
 174:Drivers/STM32F7xx_HAL_Driver/Src/stm32f7xx_hal_gpio.c **** @endverbatim
 175:Drivers/STM32F7xx_HAL_Driver/Src/stm32f7xx_hal_gpio.c ****   * @{
 176:Drivers/STM32F7xx_HAL_Driver/Src/stm32f7xx_hal_gpio.c ****   */
 177:Drivers/STM32F7xx_HAL_Driver/Src/stm32f7xx_hal_gpio.c **** 
 178:Drivers/STM32F7xx_HAL_Driver/Src/stm32f7xx_hal_gpio.c **** /**
 179:Drivers/STM32F7xx_HAL_Driver/Src/stm32f7xx_hal_gpio.c ****   * @brief  Initializes the GPIOx peripheral according to the specified parameters in the GPIO_Init
 180:Drivers/STM32F7xx_HAL_Driver/Src/stm32f7xx_hal_gpio.c ****   * @param  GPIOx where x can be (A..K) to select the GPIO peripheral.
 181:Drivers/STM32F7xx_HAL_Driver/Src/stm32f7xx_hal_gpio.c ****   * @param  GPIO_Init pointer to a GPIO_InitTypeDef structure that contains
 182:Drivers/STM32F7xx_HAL_Driver/Src/stm32f7xx_hal_gpio.c ****   *         the configuration information for the specified GPIO peripheral.
 183:Drivers/STM32F7xx_HAL_Driver/Src/stm32f7xx_hal_gpio.c ****   * @retval None
 184:Drivers/STM32F7xx_HAL_Driver/Src/stm32f7xx_hal_gpio.c ****   */
 185:Drivers/STM32F7xx_HAL_Driver/Src/stm32f7xx_hal_gpio.c **** void HAL_GPIO_Init(GPIO_TypeDef  *GPIOx, GPIO_InitTypeDef *GPIO_Init)
 186:Drivers/STM32F7xx_HAL_Driver/Src/stm32f7xx_hal_gpio.c **** {
  31              		.loc 1 186 0
  32              		.cfi_startproc
  33              		@ args = 0, pretend = 0, frame = 32
  34              		@ frame_needed = 1, uses_anonymous_args = 0
  35              		@ link register save eliminated.
  36 0000 80B4     		push	{r7}
  37              	.LCFI0:
  38              		.cfi_def_cfa_offset 4
  39              		.cfi_offset 7, -4
  40 0002 89B0     		sub	sp, sp, #36
  41              	.LCFI1:
  42              		.cfi_def_cfa_offset 40
  43 0004 00AF     		add	r7, sp, #0
ARM GAS  /tmp/ccB7WBLo.s 			page 5


  44              	.LCFI2:
  45              		.cfi_def_cfa_register 7
  46 0006 7860     		str	r0, [r7, #4]
  47 0008 3960     		str	r1, [r7]
 187:Drivers/STM32F7xx_HAL_Driver/Src/stm32f7xx_hal_gpio.c ****   uint32_t position = 0x00;
  48              		.loc 1 187 0
  49 000a 0023     		movs	r3, #0
  50 000c FB61     		str	r3, [r7, #28]
 188:Drivers/STM32F7xx_HAL_Driver/Src/stm32f7xx_hal_gpio.c ****   uint32_t ioposition = 0x00;
  51              		.loc 1 188 0
  52 000e 0023     		movs	r3, #0
  53 0010 7B61     		str	r3, [r7, #20]
 189:Drivers/STM32F7xx_HAL_Driver/Src/stm32f7xx_hal_gpio.c ****   uint32_t iocurrent = 0x00;
  54              		.loc 1 189 0
  55 0012 0023     		movs	r3, #0
  56 0014 3B61     		str	r3, [r7, #16]
 190:Drivers/STM32F7xx_HAL_Driver/Src/stm32f7xx_hal_gpio.c ****   uint32_t temp = 0x00;
  57              		.loc 1 190 0
  58 0016 0023     		movs	r3, #0
  59 0018 BB61     		str	r3, [r7, #24]
 191:Drivers/STM32F7xx_HAL_Driver/Src/stm32f7xx_hal_gpio.c **** 
 192:Drivers/STM32F7xx_HAL_Driver/Src/stm32f7xx_hal_gpio.c ****   /* Check the parameters */
 193:Drivers/STM32F7xx_HAL_Driver/Src/stm32f7xx_hal_gpio.c ****   assert_param(IS_GPIO_ALL_INSTANCE(GPIOx));
 194:Drivers/STM32F7xx_HAL_Driver/Src/stm32f7xx_hal_gpio.c ****   assert_param(IS_GPIO_PIN(GPIO_Init->Pin));
 195:Drivers/STM32F7xx_HAL_Driver/Src/stm32f7xx_hal_gpio.c ****   assert_param(IS_GPIO_MODE(GPIO_Init->Mode));
 196:Drivers/STM32F7xx_HAL_Driver/Src/stm32f7xx_hal_gpio.c ****   assert_param(IS_GPIO_PULL(GPIO_Init->Pull));
 197:Drivers/STM32F7xx_HAL_Driver/Src/stm32f7xx_hal_gpio.c **** 
 198:Drivers/STM32F7xx_HAL_Driver/Src/stm32f7xx_hal_gpio.c ****   /* Configure the port pins */
 199:Drivers/STM32F7xx_HAL_Driver/Src/stm32f7xx_hal_gpio.c ****   for(position = 0; position < GPIO_NUMBER; position++)
  60              		.loc 1 199 0
  61 001a 0023     		movs	r3, #0
  62 001c FB61     		str	r3, [r7, #28]
  63 001e 75E1     		b	.L2
  64              	.L32:
 200:Drivers/STM32F7xx_HAL_Driver/Src/stm32f7xx_hal_gpio.c ****   {
 201:Drivers/STM32F7xx_HAL_Driver/Src/stm32f7xx_hal_gpio.c ****     /* Get the IO position */
 202:Drivers/STM32F7xx_HAL_Driver/Src/stm32f7xx_hal_gpio.c ****     ioposition = ((uint32_t)0x01) << position;
  65              		.loc 1 202 0
  66 0020 0122     		movs	r2, #1
  67 0022 FB69     		ldr	r3, [r7, #28]
  68 0024 02FA03F3 		lsl	r3, r2, r3
  69 0028 7B61     		str	r3, [r7, #20]
 203:Drivers/STM32F7xx_HAL_Driver/Src/stm32f7xx_hal_gpio.c ****     /* Get the current IO position */
 204:Drivers/STM32F7xx_HAL_Driver/Src/stm32f7xx_hal_gpio.c ****     iocurrent = (uint32_t)(GPIO_Init->Pin) & ioposition;
  70              		.loc 1 204 0
  71 002a 3B68     		ldr	r3, [r7]
  72 002c 1B68     		ldr	r3, [r3]
  73 002e 7A69     		ldr	r2, [r7, #20]
  74 0030 1340     		ands	r3, r3, r2
  75 0032 3B61     		str	r3, [r7, #16]
 205:Drivers/STM32F7xx_HAL_Driver/Src/stm32f7xx_hal_gpio.c **** 
 206:Drivers/STM32F7xx_HAL_Driver/Src/stm32f7xx_hal_gpio.c ****     if(iocurrent == ioposition)
  76              		.loc 1 206 0
  77 0034 3A69     		ldr	r2, [r7, #16]
  78 0036 7B69     		ldr	r3, [r7, #20]
  79 0038 9A42     		cmp	r2, r3
  80 003a 40F06481 		bne	.L3
ARM GAS  /tmp/ccB7WBLo.s 			page 6


 207:Drivers/STM32F7xx_HAL_Driver/Src/stm32f7xx_hal_gpio.c ****     {
 208:Drivers/STM32F7xx_HAL_Driver/Src/stm32f7xx_hal_gpio.c ****       /*--------------------- GPIO Mode Configuration ------------------------*/
 209:Drivers/STM32F7xx_HAL_Driver/Src/stm32f7xx_hal_gpio.c ****       /* In case of Alternate function mode selection */
 210:Drivers/STM32F7xx_HAL_Driver/Src/stm32f7xx_hal_gpio.c ****       if((GPIO_Init->Mode == GPIO_MODE_AF_PP) || (GPIO_Init->Mode == GPIO_MODE_AF_OD))
  81              		.loc 1 210 0
  82 003e 3B68     		ldr	r3, [r7]
  83 0040 5B68     		ldr	r3, [r3, #4]
  84 0042 022B     		cmp	r3, #2
  85 0044 03D0     		beq	.L4
  86              		.loc 1 210 0 is_stmt 0 discriminator 1
  87 0046 3B68     		ldr	r3, [r7]
  88 0048 5B68     		ldr	r3, [r3, #4]
  89 004a 122B     		cmp	r3, #18
  90 004c 23D1     		bne	.L5
  91              	.L4:
 211:Drivers/STM32F7xx_HAL_Driver/Src/stm32f7xx_hal_gpio.c ****       {
 212:Drivers/STM32F7xx_HAL_Driver/Src/stm32f7xx_hal_gpio.c ****         /* Check the Alternate function parameter */
 213:Drivers/STM32F7xx_HAL_Driver/Src/stm32f7xx_hal_gpio.c ****         assert_param(IS_GPIO_AF(GPIO_Init->Alternate));
 214:Drivers/STM32F7xx_HAL_Driver/Src/stm32f7xx_hal_gpio.c ****         
 215:Drivers/STM32F7xx_HAL_Driver/Src/stm32f7xx_hal_gpio.c ****         /* Configure Alternate function mapped with the current IO */
 216:Drivers/STM32F7xx_HAL_Driver/Src/stm32f7xx_hal_gpio.c ****         temp = GPIOx->AFR[position >> 3];
  92              		.loc 1 216 0 is_stmt 1
  93 004e FB69     		ldr	r3, [r7, #28]
  94 0050 DA08     		lsrs	r2, r3, #3
  95 0052 7B68     		ldr	r3, [r7, #4]
  96 0054 0832     		adds	r2, r2, #8
  97 0056 53F82230 		ldr	r3, [r3, r2, lsl #2]
  98 005a BB61     		str	r3, [r7, #24]
 217:Drivers/STM32F7xx_HAL_Driver/Src/stm32f7xx_hal_gpio.c ****         temp &= ~((uint32_t)0xF << ((uint32_t)(position & (uint32_t)0x07) * 4)) ;
  99              		.loc 1 217 0
 100 005c FB69     		ldr	r3, [r7, #28]
 101 005e 03F00703 		and	r3, r3, #7
 102 0062 9B00     		lsls	r3, r3, #2
 103 0064 0F22     		movs	r2, #15
 104 0066 02FA03F3 		lsl	r3, r2, r3
 105 006a DB43     		mvns	r3, r3
 106 006c BA69     		ldr	r2, [r7, #24]
 107 006e 1340     		ands	r3, r3, r2
 108 0070 BB61     		str	r3, [r7, #24]
 218:Drivers/STM32F7xx_HAL_Driver/Src/stm32f7xx_hal_gpio.c ****         temp |= ((uint32_t)(GPIO_Init->Alternate) << (((uint32_t)position & (uint32_t)0x07) * 4));
 109              		.loc 1 218 0
 110 0072 3B68     		ldr	r3, [r7]
 111 0074 1A69     		ldr	r2, [r3, #16]
 112 0076 FB69     		ldr	r3, [r7, #28]
 113 0078 03F00703 		and	r3, r3, #7
 114 007c 9B00     		lsls	r3, r3, #2
 115 007e 02FA03F3 		lsl	r3, r2, r3
 116 0082 BA69     		ldr	r2, [r7, #24]
 117 0084 1343     		orrs	r3, r3, r2
 118 0086 BB61     		str	r3, [r7, #24]
 219:Drivers/STM32F7xx_HAL_Driver/Src/stm32f7xx_hal_gpio.c ****         GPIOx->AFR[position >> 3] = temp;
 119              		.loc 1 219 0
 120 0088 FB69     		ldr	r3, [r7, #28]
 121 008a DA08     		lsrs	r2, r3, #3
 122 008c 7B68     		ldr	r3, [r7, #4]
 123 008e 0832     		adds	r2, r2, #8
 124 0090 B969     		ldr	r1, [r7, #24]
ARM GAS  /tmp/ccB7WBLo.s 			page 7


 125 0092 43F82210 		str	r1, [r3, r2, lsl #2]
 126              	.L5:
 220:Drivers/STM32F7xx_HAL_Driver/Src/stm32f7xx_hal_gpio.c ****       }
 221:Drivers/STM32F7xx_HAL_Driver/Src/stm32f7xx_hal_gpio.c **** 
 222:Drivers/STM32F7xx_HAL_Driver/Src/stm32f7xx_hal_gpio.c ****       /* Configure IO Direction mode (Input, Output, Alternate or Analog) */
 223:Drivers/STM32F7xx_HAL_Driver/Src/stm32f7xx_hal_gpio.c ****       temp = GPIOx->MODER;
 127              		.loc 1 223 0
 128 0096 7B68     		ldr	r3, [r7, #4]
 129 0098 1B68     		ldr	r3, [r3]
 130 009a BB61     		str	r3, [r7, #24]
 224:Drivers/STM32F7xx_HAL_Driver/Src/stm32f7xx_hal_gpio.c ****       temp &= ~(GPIO_MODER_MODER0 << (position * 2));
 131              		.loc 1 224 0
 132 009c FB69     		ldr	r3, [r7, #28]
 133 009e 5B00     		lsls	r3, r3, #1
 134 00a0 0322     		movs	r2, #3
 135 00a2 02FA03F3 		lsl	r3, r2, r3
 136 00a6 DB43     		mvns	r3, r3
 137 00a8 BA69     		ldr	r2, [r7, #24]
 138 00aa 1340     		ands	r3, r3, r2
 139 00ac BB61     		str	r3, [r7, #24]
 225:Drivers/STM32F7xx_HAL_Driver/Src/stm32f7xx_hal_gpio.c ****       temp |= ((GPIO_Init->Mode & GPIO_MODE) << (position * 2));
 140              		.loc 1 225 0
 141 00ae 3B68     		ldr	r3, [r7]
 142 00b0 5B68     		ldr	r3, [r3, #4]
 143 00b2 03F00302 		and	r2, r3, #3
 144 00b6 FB69     		ldr	r3, [r7, #28]
 145 00b8 5B00     		lsls	r3, r3, #1
 146 00ba 02FA03F3 		lsl	r3, r2, r3
 147 00be BA69     		ldr	r2, [r7, #24]
 148 00c0 1343     		orrs	r3, r3, r2
 149 00c2 BB61     		str	r3, [r7, #24]
 226:Drivers/STM32F7xx_HAL_Driver/Src/stm32f7xx_hal_gpio.c ****       GPIOx->MODER = temp;
 150              		.loc 1 226 0
 151 00c4 7B68     		ldr	r3, [r7, #4]
 152 00c6 BA69     		ldr	r2, [r7, #24]
 153 00c8 1A60     		str	r2, [r3]
 227:Drivers/STM32F7xx_HAL_Driver/Src/stm32f7xx_hal_gpio.c **** 
 228:Drivers/STM32F7xx_HAL_Driver/Src/stm32f7xx_hal_gpio.c ****       /* In case of Output or Alternate function mode selection */
 229:Drivers/STM32F7xx_HAL_Driver/Src/stm32f7xx_hal_gpio.c ****       if((GPIO_Init->Mode == GPIO_MODE_OUTPUT_PP) || (GPIO_Init->Mode == GPIO_MODE_AF_PP) ||
 154              		.loc 1 229 0
 155 00ca 3B68     		ldr	r3, [r7]
 156 00cc 5B68     		ldr	r3, [r3, #4]
 157 00ce 012B     		cmp	r3, #1
 158 00d0 0BD0     		beq	.L6
 159              		.loc 1 229 0 is_stmt 0 discriminator 1
 160 00d2 3B68     		ldr	r3, [r7]
 161 00d4 5B68     		ldr	r3, [r3, #4]
 162 00d6 022B     		cmp	r3, #2
 163 00d8 07D0     		beq	.L6
 230:Drivers/STM32F7xx_HAL_Driver/Src/stm32f7xx_hal_gpio.c ****          (GPIO_Init->Mode == GPIO_MODE_OUTPUT_OD) || (GPIO_Init->Mode == GPIO_MODE_AF_OD))
 164              		.loc 1 230 0 is_stmt 1 discriminator 2
 165 00da 3B68     		ldr	r3, [r7]
 166 00dc 5B68     		ldr	r3, [r3, #4]
 229:Drivers/STM32F7xx_HAL_Driver/Src/stm32f7xx_hal_gpio.c ****          (GPIO_Init->Mode == GPIO_MODE_OUTPUT_OD) || (GPIO_Init->Mode == GPIO_MODE_AF_OD))
 167              		.loc 1 229 0 discriminator 2
 168 00de 112B     		cmp	r3, #17
 169 00e0 03D0     		beq	.L6
ARM GAS  /tmp/ccB7WBLo.s 			page 8


 170              		.loc 1 230 0
 171 00e2 3B68     		ldr	r3, [r7]
 172 00e4 5B68     		ldr	r3, [r3, #4]
 173 00e6 122B     		cmp	r3, #18
 174 00e8 30D1     		bne	.L7
 175              	.L6:
 231:Drivers/STM32F7xx_HAL_Driver/Src/stm32f7xx_hal_gpio.c ****       {
 232:Drivers/STM32F7xx_HAL_Driver/Src/stm32f7xx_hal_gpio.c ****         /* Check the Speed parameter */
 233:Drivers/STM32F7xx_HAL_Driver/Src/stm32f7xx_hal_gpio.c ****         assert_param(IS_GPIO_SPEED(GPIO_Init->Speed));
 234:Drivers/STM32F7xx_HAL_Driver/Src/stm32f7xx_hal_gpio.c ****         /* Configure the IO Speed */
 235:Drivers/STM32F7xx_HAL_Driver/Src/stm32f7xx_hal_gpio.c ****         temp = GPIOx->OSPEEDR; 
 176              		.loc 1 235 0
 177 00ea 7B68     		ldr	r3, [r7, #4]
 178 00ec 9B68     		ldr	r3, [r3, #8]
 179 00ee BB61     		str	r3, [r7, #24]
 236:Drivers/STM32F7xx_HAL_Driver/Src/stm32f7xx_hal_gpio.c ****         temp &= ~(GPIO_OSPEEDER_OSPEEDR0 << (position * 2));
 180              		.loc 1 236 0
 181 00f0 FB69     		ldr	r3, [r7, #28]
 182 00f2 5B00     		lsls	r3, r3, #1
 183 00f4 0322     		movs	r2, #3
 184 00f6 02FA03F3 		lsl	r3, r2, r3
 185 00fa DB43     		mvns	r3, r3
 186 00fc BA69     		ldr	r2, [r7, #24]
 187 00fe 1340     		ands	r3, r3, r2
 188 0100 BB61     		str	r3, [r7, #24]
 237:Drivers/STM32F7xx_HAL_Driver/Src/stm32f7xx_hal_gpio.c ****         temp |= (GPIO_Init->Speed << (position * 2));
 189              		.loc 1 237 0
 190 0102 3B68     		ldr	r3, [r7]
 191 0104 DA68     		ldr	r2, [r3, #12]
 192 0106 FB69     		ldr	r3, [r7, #28]
 193 0108 5B00     		lsls	r3, r3, #1
 194 010a 02FA03F3 		lsl	r3, r2, r3
 195 010e BA69     		ldr	r2, [r7, #24]
 196 0110 1343     		orrs	r3, r3, r2
 197 0112 BB61     		str	r3, [r7, #24]
 238:Drivers/STM32F7xx_HAL_Driver/Src/stm32f7xx_hal_gpio.c ****         GPIOx->OSPEEDR = temp;
 198              		.loc 1 238 0
 199 0114 7B68     		ldr	r3, [r7, #4]
 200 0116 BA69     		ldr	r2, [r7, #24]
 201 0118 9A60     		str	r2, [r3, #8]
 239:Drivers/STM32F7xx_HAL_Driver/Src/stm32f7xx_hal_gpio.c **** 
 240:Drivers/STM32F7xx_HAL_Driver/Src/stm32f7xx_hal_gpio.c ****         /* Configure the IO Output Type */
 241:Drivers/STM32F7xx_HAL_Driver/Src/stm32f7xx_hal_gpio.c ****         temp = GPIOx->OTYPER;
 202              		.loc 1 241 0
 203 011a 7B68     		ldr	r3, [r7, #4]
 204 011c 5B68     		ldr	r3, [r3, #4]
 205 011e BB61     		str	r3, [r7, #24]
 242:Drivers/STM32F7xx_HAL_Driver/Src/stm32f7xx_hal_gpio.c ****         temp &= ~(GPIO_OTYPER_OT_0 << position) ;
 206              		.loc 1 242 0
 207 0120 0122     		movs	r2, #1
 208 0122 FB69     		ldr	r3, [r7, #28]
 209 0124 02FA03F3 		lsl	r3, r2, r3
 210 0128 DB43     		mvns	r3, r3
 211 012a BA69     		ldr	r2, [r7, #24]
 212 012c 1340     		ands	r3, r3, r2
 213 012e BB61     		str	r3, [r7, #24]
 243:Drivers/STM32F7xx_HAL_Driver/Src/stm32f7xx_hal_gpio.c ****         temp |= (((GPIO_Init->Mode & GPIO_OUTPUT_TYPE) >> 4) << position);
ARM GAS  /tmp/ccB7WBLo.s 			page 9


 214              		.loc 1 243 0
 215 0130 3B68     		ldr	r3, [r7]
 216 0132 5B68     		ldr	r3, [r3, #4]
 217 0134 1B09     		lsrs	r3, r3, #4
 218 0136 03F00102 		and	r2, r3, #1
 219 013a FB69     		ldr	r3, [r7, #28]
 220 013c 02FA03F3 		lsl	r3, r2, r3
 221 0140 BA69     		ldr	r2, [r7, #24]
 222 0142 1343     		orrs	r3, r3, r2
 223 0144 BB61     		str	r3, [r7, #24]
 244:Drivers/STM32F7xx_HAL_Driver/Src/stm32f7xx_hal_gpio.c ****         GPIOx->OTYPER = temp;
 224              		.loc 1 244 0
 225 0146 7B68     		ldr	r3, [r7, #4]
 226 0148 BA69     		ldr	r2, [r7, #24]
 227 014a 5A60     		str	r2, [r3, #4]
 228              	.L7:
 245:Drivers/STM32F7xx_HAL_Driver/Src/stm32f7xx_hal_gpio.c ****       }
 246:Drivers/STM32F7xx_HAL_Driver/Src/stm32f7xx_hal_gpio.c **** 
 247:Drivers/STM32F7xx_HAL_Driver/Src/stm32f7xx_hal_gpio.c ****       /* Activate the Pull-up or Pull down resistor for the current IO */
 248:Drivers/STM32F7xx_HAL_Driver/Src/stm32f7xx_hal_gpio.c ****       temp = GPIOx->PUPDR;
 229              		.loc 1 248 0
 230 014c 7B68     		ldr	r3, [r7, #4]
 231 014e DB68     		ldr	r3, [r3, #12]
 232 0150 BB61     		str	r3, [r7, #24]
 249:Drivers/STM32F7xx_HAL_Driver/Src/stm32f7xx_hal_gpio.c ****       temp &= ~(GPIO_PUPDR_PUPDR0 << (position * 2));
 233              		.loc 1 249 0
 234 0152 FB69     		ldr	r3, [r7, #28]
 235 0154 5B00     		lsls	r3, r3, #1
 236 0156 0322     		movs	r2, #3
 237 0158 02FA03F3 		lsl	r3, r2, r3
 238 015c DB43     		mvns	r3, r3
 239 015e BA69     		ldr	r2, [r7, #24]
 240 0160 1340     		ands	r3, r3, r2
 241 0162 BB61     		str	r3, [r7, #24]
 250:Drivers/STM32F7xx_HAL_Driver/Src/stm32f7xx_hal_gpio.c ****       temp |= ((GPIO_Init->Pull) << (position * 2));
 242              		.loc 1 250 0
 243 0164 3B68     		ldr	r3, [r7]
 244 0166 9A68     		ldr	r2, [r3, #8]
 245 0168 FB69     		ldr	r3, [r7, #28]
 246 016a 5B00     		lsls	r3, r3, #1
 247 016c 02FA03F3 		lsl	r3, r2, r3
 248 0170 BA69     		ldr	r2, [r7, #24]
 249 0172 1343     		orrs	r3, r3, r2
 250 0174 BB61     		str	r3, [r7, #24]
 251:Drivers/STM32F7xx_HAL_Driver/Src/stm32f7xx_hal_gpio.c ****       GPIOx->PUPDR = temp;
 251              		.loc 1 251 0
 252 0176 7B68     		ldr	r3, [r7, #4]
 253 0178 BA69     		ldr	r2, [r7, #24]
 254 017a DA60     		str	r2, [r3, #12]
 252:Drivers/STM32F7xx_HAL_Driver/Src/stm32f7xx_hal_gpio.c **** 
 253:Drivers/STM32F7xx_HAL_Driver/Src/stm32f7xx_hal_gpio.c ****       /*--------------------- EXTI Mode Configuration ------------------------*/
 254:Drivers/STM32F7xx_HAL_Driver/Src/stm32f7xx_hal_gpio.c ****       /* Configure the External Interrupt or event for the current IO */
 255:Drivers/STM32F7xx_HAL_Driver/Src/stm32f7xx_hal_gpio.c ****       if((GPIO_Init->Mode & EXTI_MODE) == EXTI_MODE)
 255              		.loc 1 255 0
 256 017c 3B68     		ldr	r3, [r7]
 257 017e 5B68     		ldr	r3, [r3, #4]
 258 0180 03F08053 		and	r3, r3, #268435456
ARM GAS  /tmp/ccB7WBLo.s 			page 10


 259 0184 002B     		cmp	r3, #0
 260 0186 00F0BE80 		beq	.L3
 261              	.LBB2:
 256:Drivers/STM32F7xx_HAL_Driver/Src/stm32f7xx_hal_gpio.c ****       {
 257:Drivers/STM32F7xx_HAL_Driver/Src/stm32f7xx_hal_gpio.c ****         /* Enable SYSCFG Clock */
 258:Drivers/STM32F7xx_HAL_Driver/Src/stm32f7xx_hal_gpio.c ****         __HAL_RCC_SYSCFG_CLK_ENABLE();
 262              		.loc 1 258 0
 263 018a 654B     		ldr	r3, .L33
 264 018c 5B6C     		ldr	r3, [r3, #68]
 265 018e 644A     		ldr	r2, .L33
 266 0190 43F48043 		orr	r3, r3, #16384
 267 0194 5364     		str	r3, [r2, #68]
 268 0196 624B     		ldr	r3, .L33
 269 0198 5B6C     		ldr	r3, [r3, #68]
 270 019a 03F48043 		and	r3, r3, #16384
 271 019e FB60     		str	r3, [r7, #12]
 272 01a0 FB68     		ldr	r3, [r7, #12]
 273              	.LBE2:
 259:Drivers/STM32F7xx_HAL_Driver/Src/stm32f7xx_hal_gpio.c **** 
 260:Drivers/STM32F7xx_HAL_Driver/Src/stm32f7xx_hal_gpio.c ****         temp = SYSCFG->EXTICR[position >> 2];
 274              		.loc 1 260 0
 275 01a2 604A     		ldr	r2, .L33+4
 276 01a4 FB69     		ldr	r3, [r7, #28]
 277 01a6 9B08     		lsrs	r3, r3, #2
 278 01a8 0233     		adds	r3, r3, #2
 279 01aa 52F82330 		ldr	r3, [r2, r3, lsl #2]
 280 01ae BB61     		str	r3, [r7, #24]
 261:Drivers/STM32F7xx_HAL_Driver/Src/stm32f7xx_hal_gpio.c ****         temp &= ~(((uint32_t)0x0F) << (4 * (position & 0x03)));
 281              		.loc 1 261 0
 282 01b0 FB69     		ldr	r3, [r7, #28]
 283 01b2 03F00303 		and	r3, r3, #3
 284 01b6 9B00     		lsls	r3, r3, #2
 285 01b8 0F22     		movs	r2, #15
 286 01ba 02FA03F3 		lsl	r3, r2, r3
 287 01be DB43     		mvns	r3, r3
 288 01c0 BA69     		ldr	r2, [r7, #24]
 289 01c2 1340     		ands	r3, r3, r2
 290 01c4 BB61     		str	r3, [r7, #24]
 262:Drivers/STM32F7xx_HAL_Driver/Src/stm32f7xx_hal_gpio.c ****         temp |= ((uint32_t)(GPIO_GET_INDEX(GPIOx)) << (4 * (position & 0x03)));
 291              		.loc 1 262 0
 292 01c6 7B68     		ldr	r3, [r7, #4]
 293 01c8 574A     		ldr	r2, .L33+8
 294 01ca 9342     		cmp	r3, r2
 295 01cc 37D0     		beq	.L8
 296              		.loc 1 262 0 is_stmt 0 discriminator 1
 297 01ce 7B68     		ldr	r3, [r7, #4]
 298 01d0 564A     		ldr	r2, .L33+12
 299 01d2 9342     		cmp	r3, r2
 300 01d4 31D0     		beq	.L9
 301              		.loc 1 262 0 discriminator 3
 302 01d6 7B68     		ldr	r3, [r7, #4]
 303 01d8 554A     		ldr	r2, .L33+16
 304 01da 9342     		cmp	r3, r2
 305 01dc 2BD0     		beq	.L10
 306              		.loc 1 262 0 discriminator 5
 307 01de 7B68     		ldr	r3, [r7, #4]
 308 01e0 544A     		ldr	r2, .L33+20
ARM GAS  /tmp/ccB7WBLo.s 			page 11


 309 01e2 9342     		cmp	r3, r2
 310 01e4 25D0     		beq	.L11
 311              		.loc 1 262 0 discriminator 7
 312 01e6 7B68     		ldr	r3, [r7, #4]
 313 01e8 534A     		ldr	r2, .L33+24
 314 01ea 9342     		cmp	r3, r2
 315 01ec 1FD0     		beq	.L12
 316              		.loc 1 262 0 discriminator 9
 317 01ee 7B68     		ldr	r3, [r7, #4]
 318 01f0 524A     		ldr	r2, .L33+28
 319 01f2 9342     		cmp	r3, r2
 320 01f4 19D0     		beq	.L13
 321              		.loc 1 262 0 discriminator 11
 322 01f6 7B68     		ldr	r3, [r7, #4]
 323 01f8 514A     		ldr	r2, .L33+32
 324 01fa 9342     		cmp	r3, r2
 325 01fc 13D0     		beq	.L14
 326              		.loc 1 262 0 discriminator 13
 327 01fe 7B68     		ldr	r3, [r7, #4]
 328 0200 504A     		ldr	r2, .L33+36
 329 0202 9342     		cmp	r3, r2
 330 0204 0DD0     		beq	.L15
 331              		.loc 1 262 0 discriminator 15
 332 0206 7B68     		ldr	r3, [r7, #4]
 333 0208 4F4A     		ldr	r2, .L33+40
 334 020a 9342     		cmp	r3, r2
 335 020c 07D0     		beq	.L16
 336              		.loc 1 262 0 discriminator 17
 337 020e 7B68     		ldr	r3, [r7, #4]
 338 0210 4E4A     		ldr	r2, .L33+44
 339 0212 9342     		cmp	r3, r2
 340 0214 01D1     		bne	.L17
 341              		.loc 1 262 0 discriminator 19
 342 0216 0923     		movs	r3, #9
 343 0218 12E0     		b	.L27
 344              	.L17:
 345              		.loc 1 262 0 discriminator 20
 346 021a 0A23     		movs	r3, #10
 347 021c 10E0     		b	.L27
 348              	.L16:
 349              		.loc 1 262 0 discriminator 18
 350 021e 0823     		movs	r3, #8
 351 0220 0EE0     		b	.L27
 352              	.L15:
 353              		.loc 1 262 0 discriminator 16
 354 0222 0723     		movs	r3, #7
 355 0224 0CE0     		b	.L27
 356              	.L14:
 357              		.loc 1 262 0 discriminator 14
 358 0226 0623     		movs	r3, #6
 359 0228 0AE0     		b	.L27
 360              	.L13:
 361              		.loc 1 262 0 discriminator 12
 362 022a 0523     		movs	r3, #5
 363 022c 08E0     		b	.L27
 364              	.L12:
 365              		.loc 1 262 0 discriminator 10
ARM GAS  /tmp/ccB7WBLo.s 			page 12


 366 022e 0423     		movs	r3, #4
 367 0230 06E0     		b	.L27
 368              	.L11:
 369              		.loc 1 262 0 discriminator 8
 370 0232 0323     		movs	r3, #3
 371 0234 04E0     		b	.L27
 372              	.L10:
 373              		.loc 1 262 0 discriminator 6
 374 0236 0223     		movs	r3, #2
 375 0238 02E0     		b	.L27
 376              	.L9:
 377              		.loc 1 262 0 discriminator 4
 378 023a 0123     		movs	r3, #1
 379 023c 00E0     		b	.L27
 380              	.L8:
 381              		.loc 1 262 0 discriminator 2
 382 023e 0023     		movs	r3, #0
 383              	.L27:
 384              		.loc 1 262 0 discriminator 40
 385 0240 FA69     		ldr	r2, [r7, #28]
 386 0242 02F00302 		and	r2, r2, #3
 387 0246 9200     		lsls	r2, r2, #2
 388 0248 9340     		lsls	r3, r3, r2
 389 024a BA69     		ldr	r2, [r7, #24]
 390 024c 1343     		orrs	r3, r3, r2
 391 024e BB61     		str	r3, [r7, #24]
 263:Drivers/STM32F7xx_HAL_Driver/Src/stm32f7xx_hal_gpio.c ****         SYSCFG->EXTICR[position >> 2] = temp;
 392              		.loc 1 263 0 is_stmt 1 discriminator 40
 393 0250 3449     		ldr	r1, .L33+4
 394 0252 FB69     		ldr	r3, [r7, #28]
 395 0254 9B08     		lsrs	r3, r3, #2
 396 0256 0233     		adds	r3, r3, #2
 397 0258 BA69     		ldr	r2, [r7, #24]
 398 025a 41F82320 		str	r2, [r1, r3, lsl #2]
 264:Drivers/STM32F7xx_HAL_Driver/Src/stm32f7xx_hal_gpio.c **** 
 265:Drivers/STM32F7xx_HAL_Driver/Src/stm32f7xx_hal_gpio.c ****         /* Clear EXTI line configuration */
 266:Drivers/STM32F7xx_HAL_Driver/Src/stm32f7xx_hal_gpio.c ****         temp = EXTI->IMR;
 399              		.loc 1 266 0 discriminator 40
 400 025e 3C4B     		ldr	r3, .L33+48
 401 0260 1B68     		ldr	r3, [r3]
 402 0262 BB61     		str	r3, [r7, #24]
 267:Drivers/STM32F7xx_HAL_Driver/Src/stm32f7xx_hal_gpio.c ****         temp &= ~((uint32_t)iocurrent);
 403              		.loc 1 267 0 discriminator 40
 404 0264 3B69     		ldr	r3, [r7, #16]
 405 0266 DB43     		mvns	r3, r3
 406 0268 BA69     		ldr	r2, [r7, #24]
 407 026a 1340     		ands	r3, r3, r2
 408 026c BB61     		str	r3, [r7, #24]
 268:Drivers/STM32F7xx_HAL_Driver/Src/stm32f7xx_hal_gpio.c ****         if((GPIO_Init->Mode & GPIO_MODE_IT) == GPIO_MODE_IT)
 409              		.loc 1 268 0 discriminator 40
 410 026e 3B68     		ldr	r3, [r7]
 411 0270 5B68     		ldr	r3, [r3, #4]
 412 0272 03F48033 		and	r3, r3, #65536
 413 0276 002B     		cmp	r3, #0
 414 0278 03D0     		beq	.L28
 269:Drivers/STM32F7xx_HAL_Driver/Src/stm32f7xx_hal_gpio.c ****         {
 270:Drivers/STM32F7xx_HAL_Driver/Src/stm32f7xx_hal_gpio.c ****           temp |= iocurrent;
ARM GAS  /tmp/ccB7WBLo.s 			page 13


 415              		.loc 1 270 0
 416 027a BA69     		ldr	r2, [r7, #24]
 417 027c 3B69     		ldr	r3, [r7, #16]
 418 027e 1343     		orrs	r3, r3, r2
 419 0280 BB61     		str	r3, [r7, #24]
 420              	.L28:
 271:Drivers/STM32F7xx_HAL_Driver/Src/stm32f7xx_hal_gpio.c ****         }
 272:Drivers/STM32F7xx_HAL_Driver/Src/stm32f7xx_hal_gpio.c ****         EXTI->IMR = temp;
 421              		.loc 1 272 0
 422 0282 334A     		ldr	r2, .L33+48
 423 0284 BB69     		ldr	r3, [r7, #24]
 424 0286 1360     		str	r3, [r2]
 273:Drivers/STM32F7xx_HAL_Driver/Src/stm32f7xx_hal_gpio.c **** 
 274:Drivers/STM32F7xx_HAL_Driver/Src/stm32f7xx_hal_gpio.c ****         temp = EXTI->EMR;
 425              		.loc 1 274 0
 426 0288 314B     		ldr	r3, .L33+48
 427 028a 5B68     		ldr	r3, [r3, #4]
 428 028c BB61     		str	r3, [r7, #24]
 275:Drivers/STM32F7xx_HAL_Driver/Src/stm32f7xx_hal_gpio.c ****         temp &= ~((uint32_t)iocurrent);
 429              		.loc 1 275 0
 430 028e 3B69     		ldr	r3, [r7, #16]
 431 0290 DB43     		mvns	r3, r3
 432 0292 BA69     		ldr	r2, [r7, #24]
 433 0294 1340     		ands	r3, r3, r2
 434 0296 BB61     		str	r3, [r7, #24]
 276:Drivers/STM32F7xx_HAL_Driver/Src/stm32f7xx_hal_gpio.c ****         if((GPIO_Init->Mode & GPIO_MODE_EVT) == GPIO_MODE_EVT)
 435              		.loc 1 276 0
 436 0298 3B68     		ldr	r3, [r7]
 437 029a 5B68     		ldr	r3, [r3, #4]
 438 029c 03F40033 		and	r3, r3, #131072
 439 02a0 002B     		cmp	r3, #0
 440 02a2 03D0     		beq	.L29
 277:Drivers/STM32F7xx_HAL_Driver/Src/stm32f7xx_hal_gpio.c ****         {
 278:Drivers/STM32F7xx_HAL_Driver/Src/stm32f7xx_hal_gpio.c ****           temp |= iocurrent;
 441              		.loc 1 278 0
 442 02a4 BA69     		ldr	r2, [r7, #24]
 443 02a6 3B69     		ldr	r3, [r7, #16]
 444 02a8 1343     		orrs	r3, r3, r2
 445 02aa BB61     		str	r3, [r7, #24]
 446              	.L29:
 279:Drivers/STM32F7xx_HAL_Driver/Src/stm32f7xx_hal_gpio.c ****         }
 280:Drivers/STM32F7xx_HAL_Driver/Src/stm32f7xx_hal_gpio.c ****         EXTI->EMR = temp;
 447              		.loc 1 280 0
 448 02ac 284A     		ldr	r2, .L33+48
 449 02ae BB69     		ldr	r3, [r7, #24]
 450 02b0 5360     		str	r3, [r2, #4]
 281:Drivers/STM32F7xx_HAL_Driver/Src/stm32f7xx_hal_gpio.c **** 
 282:Drivers/STM32F7xx_HAL_Driver/Src/stm32f7xx_hal_gpio.c ****         /* Clear Rising Falling edge configuration */
 283:Drivers/STM32F7xx_HAL_Driver/Src/stm32f7xx_hal_gpio.c ****         temp = EXTI->RTSR;
 451              		.loc 1 283 0
 452 02b2 274B     		ldr	r3, .L33+48
 453 02b4 9B68     		ldr	r3, [r3, #8]
 454 02b6 BB61     		str	r3, [r7, #24]
 284:Drivers/STM32F7xx_HAL_Driver/Src/stm32f7xx_hal_gpio.c ****         temp &= ~((uint32_t)iocurrent);
 455              		.loc 1 284 0
 456 02b8 3B69     		ldr	r3, [r7, #16]
 457 02ba DB43     		mvns	r3, r3
ARM GAS  /tmp/ccB7WBLo.s 			page 14


 458 02bc BA69     		ldr	r2, [r7, #24]
 459 02be 1340     		ands	r3, r3, r2
 460 02c0 BB61     		str	r3, [r7, #24]
 285:Drivers/STM32F7xx_HAL_Driver/Src/stm32f7xx_hal_gpio.c ****         if((GPIO_Init->Mode & RISING_EDGE) == RISING_EDGE)
 461              		.loc 1 285 0
 462 02c2 3B68     		ldr	r3, [r7]
 463 02c4 5B68     		ldr	r3, [r3, #4]
 464 02c6 03F48013 		and	r3, r3, #1048576
 465 02ca 002B     		cmp	r3, #0
 466 02cc 03D0     		beq	.L30
 286:Drivers/STM32F7xx_HAL_Driver/Src/stm32f7xx_hal_gpio.c ****         {
 287:Drivers/STM32F7xx_HAL_Driver/Src/stm32f7xx_hal_gpio.c ****           temp |= iocurrent;
 467              		.loc 1 287 0
 468 02ce BA69     		ldr	r2, [r7, #24]
 469 02d0 3B69     		ldr	r3, [r7, #16]
 470 02d2 1343     		orrs	r3, r3, r2
 471 02d4 BB61     		str	r3, [r7, #24]
 472              	.L30:
 288:Drivers/STM32F7xx_HAL_Driver/Src/stm32f7xx_hal_gpio.c ****         }
 289:Drivers/STM32F7xx_HAL_Driver/Src/stm32f7xx_hal_gpio.c ****         EXTI->RTSR = temp;
 473              		.loc 1 289 0
 474 02d6 1E4A     		ldr	r2, .L33+48
 475 02d8 BB69     		ldr	r3, [r7, #24]
 476 02da 9360     		str	r3, [r2, #8]
 290:Drivers/STM32F7xx_HAL_Driver/Src/stm32f7xx_hal_gpio.c **** 
 291:Drivers/STM32F7xx_HAL_Driver/Src/stm32f7xx_hal_gpio.c ****         temp = EXTI->FTSR;
 477              		.loc 1 291 0
 478 02dc 1C4B     		ldr	r3, .L33+48
 479 02de DB68     		ldr	r3, [r3, #12]
 480 02e0 BB61     		str	r3, [r7, #24]
 292:Drivers/STM32F7xx_HAL_Driver/Src/stm32f7xx_hal_gpio.c ****         temp &= ~((uint32_t)iocurrent);
 481              		.loc 1 292 0
 482 02e2 3B69     		ldr	r3, [r7, #16]
 483 02e4 DB43     		mvns	r3, r3
 484 02e6 BA69     		ldr	r2, [r7, #24]
 485 02e8 1340     		ands	r3, r3, r2
 486 02ea BB61     		str	r3, [r7, #24]
 293:Drivers/STM32F7xx_HAL_Driver/Src/stm32f7xx_hal_gpio.c ****         if((GPIO_Init->Mode & FALLING_EDGE) == FALLING_EDGE)
 487              		.loc 1 293 0
 488 02ec 3B68     		ldr	r3, [r7]
 489 02ee 5B68     		ldr	r3, [r3, #4]
 490 02f0 03F40013 		and	r3, r3, #2097152
 491 02f4 002B     		cmp	r3, #0
 492 02f6 03D0     		beq	.L31
 294:Drivers/STM32F7xx_HAL_Driver/Src/stm32f7xx_hal_gpio.c ****         {
 295:Drivers/STM32F7xx_HAL_Driver/Src/stm32f7xx_hal_gpio.c ****           temp |= iocurrent;
 493              		.loc 1 295 0
 494 02f8 BA69     		ldr	r2, [r7, #24]
 495 02fa 3B69     		ldr	r3, [r7, #16]
 496 02fc 1343     		orrs	r3, r3, r2
 497 02fe BB61     		str	r3, [r7, #24]
 498              	.L31:
 296:Drivers/STM32F7xx_HAL_Driver/Src/stm32f7xx_hal_gpio.c ****         }
 297:Drivers/STM32F7xx_HAL_Driver/Src/stm32f7xx_hal_gpio.c ****         EXTI->FTSR = temp;
 499              		.loc 1 297 0
 500 0300 134A     		ldr	r2, .L33+48
 501 0302 BB69     		ldr	r3, [r7, #24]
ARM GAS  /tmp/ccB7WBLo.s 			page 15


 502 0304 D360     		str	r3, [r2, #12]
 503              	.L3:
 199:Drivers/STM32F7xx_HAL_Driver/Src/stm32f7xx_hal_gpio.c ****   {
 504              		.loc 1 199 0 discriminator 2
 505 0306 FB69     		ldr	r3, [r7, #28]
 506 0308 0133     		adds	r3, r3, #1
 507 030a FB61     		str	r3, [r7, #28]
 508              	.L2:
 199:Drivers/STM32F7xx_HAL_Driver/Src/stm32f7xx_hal_gpio.c ****   {
 509              		.loc 1 199 0 is_stmt 0 discriminator 1
 510 030c FB69     		ldr	r3, [r7, #28]
 511 030e 0F2B     		cmp	r3, #15
 512 0310 7FF686AE 		bls	.L32
 298:Drivers/STM32F7xx_HAL_Driver/Src/stm32f7xx_hal_gpio.c ****       }
 299:Drivers/STM32F7xx_HAL_Driver/Src/stm32f7xx_hal_gpio.c ****     }
 300:Drivers/STM32F7xx_HAL_Driver/Src/stm32f7xx_hal_gpio.c ****   }
 301:Drivers/STM32F7xx_HAL_Driver/Src/stm32f7xx_hal_gpio.c **** }
 513              		.loc 1 301 0 is_stmt 1
 514 0314 00BF     		nop
 515 0316 2437     		adds	r7, r7, #36
 516              	.LCFI3:
 517              		.cfi_def_cfa_offset 4
 518 0318 BD46     		mov	sp, r7
 519              	.LCFI4:
 520              		.cfi_def_cfa_register 13
 521              		@ sp needed
 522 031a 5DF8047B 		ldr	r7, [sp], #4
 523              	.LCFI5:
 524              		.cfi_restore 7
 525              		.cfi_def_cfa_offset 0
 526 031e 7047     		bx	lr
 527              	.L34:
 528              		.align	2
 529              	.L33:
 530 0320 00380240 		.word	1073887232
 531 0324 00380140 		.word	1073821696
 532 0328 00000240 		.word	1073872896
 533 032c 00040240 		.word	1073873920
 534 0330 00080240 		.word	1073874944
 535 0334 000C0240 		.word	1073875968
 536 0338 00100240 		.word	1073876992
 537 033c 00140240 		.word	1073878016
 538 0340 00180240 		.word	1073879040
 539 0344 001C0240 		.word	1073880064
 540 0348 00200240 		.word	1073881088
 541 034c 00240240 		.word	1073882112
 542 0350 003C0140 		.word	1073822720
 543              		.cfi_endproc
 544              	.LFE138:
 546              		.section	.text.HAL_GPIO_DeInit,"ax",%progbits
 547              		.align	1
 548              		.global	HAL_GPIO_DeInit
 549              		.syntax unified
 550              		.thumb
 551              		.thumb_func
 552              		.fpu fpv4-sp-d16
 554              	HAL_GPIO_DeInit:
ARM GAS  /tmp/ccB7WBLo.s 			page 16


 555              	.LFB139:
 302:Drivers/STM32F7xx_HAL_Driver/Src/stm32f7xx_hal_gpio.c **** 
 303:Drivers/STM32F7xx_HAL_Driver/Src/stm32f7xx_hal_gpio.c **** /**
 304:Drivers/STM32F7xx_HAL_Driver/Src/stm32f7xx_hal_gpio.c ****   * @brief  De-initializes the GPIOx peripheral registers to their default reset values.
 305:Drivers/STM32F7xx_HAL_Driver/Src/stm32f7xx_hal_gpio.c ****   * @param  GPIOx where x can be (A..K) to select the GPIO peripheral.
 306:Drivers/STM32F7xx_HAL_Driver/Src/stm32f7xx_hal_gpio.c ****   * @param  GPIO_Pin specifies the port bit to be written.
 307:Drivers/STM32F7xx_HAL_Driver/Src/stm32f7xx_hal_gpio.c ****   *          This parameter can be one of GPIO_PIN_x where x can be (0..15).
 308:Drivers/STM32F7xx_HAL_Driver/Src/stm32f7xx_hal_gpio.c ****   * @retval None
 309:Drivers/STM32F7xx_HAL_Driver/Src/stm32f7xx_hal_gpio.c ****   */
 310:Drivers/STM32F7xx_HAL_Driver/Src/stm32f7xx_hal_gpio.c **** void HAL_GPIO_DeInit(GPIO_TypeDef  *GPIOx, uint32_t GPIO_Pin)
 311:Drivers/STM32F7xx_HAL_Driver/Src/stm32f7xx_hal_gpio.c **** {
 556              		.loc 1 311 0
 557              		.cfi_startproc
 558              		@ args = 0, pretend = 0, frame = 24
 559              		@ frame_needed = 1, uses_anonymous_args = 0
 560              		@ link register save eliminated.
 561 0000 80B4     		push	{r7}
 562              	.LCFI6:
 563              		.cfi_def_cfa_offset 4
 564              		.cfi_offset 7, -4
 565 0002 87B0     		sub	sp, sp, #28
 566              	.LCFI7:
 567              		.cfi_def_cfa_offset 32
 568 0004 00AF     		add	r7, sp, #0
 569              	.LCFI8:
 570              		.cfi_def_cfa_register 7
 571 0006 7860     		str	r0, [r7, #4]
 572 0008 3960     		str	r1, [r7]
 312:Drivers/STM32F7xx_HAL_Driver/Src/stm32f7xx_hal_gpio.c ****   uint32_t position;
 313:Drivers/STM32F7xx_HAL_Driver/Src/stm32f7xx_hal_gpio.c ****   uint32_t ioposition = 0x00;
 573              		.loc 1 313 0
 574 000a 0023     		movs	r3, #0
 575 000c 3B61     		str	r3, [r7, #16]
 314:Drivers/STM32F7xx_HAL_Driver/Src/stm32f7xx_hal_gpio.c ****   uint32_t iocurrent = 0x00;
 576              		.loc 1 314 0
 577 000e 0023     		movs	r3, #0
 578 0010 FB60     		str	r3, [r7, #12]
 315:Drivers/STM32F7xx_HAL_Driver/Src/stm32f7xx_hal_gpio.c ****   uint32_t tmp = 0x00;
 579              		.loc 1 315 0
 580 0012 0023     		movs	r3, #0
 581 0014 BB60     		str	r3, [r7, #8]
 316:Drivers/STM32F7xx_HAL_Driver/Src/stm32f7xx_hal_gpio.c **** 
 317:Drivers/STM32F7xx_HAL_Driver/Src/stm32f7xx_hal_gpio.c ****   /* Check the parameters */
 318:Drivers/STM32F7xx_HAL_Driver/Src/stm32f7xx_hal_gpio.c ****   assert_param(IS_GPIO_ALL_INSTANCE(GPIOx));
 319:Drivers/STM32F7xx_HAL_Driver/Src/stm32f7xx_hal_gpio.c ****   
 320:Drivers/STM32F7xx_HAL_Driver/Src/stm32f7xx_hal_gpio.c ****   /* Configure the port pins */
 321:Drivers/STM32F7xx_HAL_Driver/Src/stm32f7xx_hal_gpio.c ****   for(position = 0; position < GPIO_NUMBER; position++)
 582              		.loc 1 321 0
 583 0016 0023     		movs	r3, #0
 584 0018 7B61     		str	r3, [r7, #20]
 585 001a D9E0     		b	.L36
 586              	.L58:
 322:Drivers/STM32F7xx_HAL_Driver/Src/stm32f7xx_hal_gpio.c ****   {
 323:Drivers/STM32F7xx_HAL_Driver/Src/stm32f7xx_hal_gpio.c ****     /* Get the IO position */
 324:Drivers/STM32F7xx_HAL_Driver/Src/stm32f7xx_hal_gpio.c ****     ioposition = ((uint32_t)0x01) << position;
 587              		.loc 1 324 0
 588 001c 0122     		movs	r2, #1
ARM GAS  /tmp/ccB7WBLo.s 			page 17


 589 001e 7B69     		ldr	r3, [r7, #20]
 590 0020 02FA03F3 		lsl	r3, r2, r3
 591 0024 3B61     		str	r3, [r7, #16]
 325:Drivers/STM32F7xx_HAL_Driver/Src/stm32f7xx_hal_gpio.c ****     /* Get the current IO position */
 326:Drivers/STM32F7xx_HAL_Driver/Src/stm32f7xx_hal_gpio.c ****     iocurrent = (GPIO_Pin) & ioposition;
 592              		.loc 1 326 0
 593 0026 3A68     		ldr	r2, [r7]
 594 0028 3B69     		ldr	r3, [r7, #16]
 595 002a 1340     		ands	r3, r3, r2
 596 002c FB60     		str	r3, [r7, #12]
 327:Drivers/STM32F7xx_HAL_Driver/Src/stm32f7xx_hal_gpio.c **** 
 328:Drivers/STM32F7xx_HAL_Driver/Src/stm32f7xx_hal_gpio.c ****     if(iocurrent == ioposition)
 597              		.loc 1 328 0
 598 002e FA68     		ldr	r2, [r7, #12]
 599 0030 3B69     		ldr	r3, [r7, #16]
 600 0032 9A42     		cmp	r2, r3
 601 0034 40F0C980 		bne	.L37
 329:Drivers/STM32F7xx_HAL_Driver/Src/stm32f7xx_hal_gpio.c ****     {
 330:Drivers/STM32F7xx_HAL_Driver/Src/stm32f7xx_hal_gpio.c ****       /*------------------------- GPIO Mode Configuration --------------------*/
 331:Drivers/STM32F7xx_HAL_Driver/Src/stm32f7xx_hal_gpio.c ****       /* Configure IO Direction in Input Floating Mode */
 332:Drivers/STM32F7xx_HAL_Driver/Src/stm32f7xx_hal_gpio.c ****       GPIOx->MODER &= ~(GPIO_MODER_MODER0 << (position * 2));
 602              		.loc 1 332 0
 603 0038 7B68     		ldr	r3, [r7, #4]
 604 003a 1A68     		ldr	r2, [r3]
 605 003c 7B69     		ldr	r3, [r7, #20]
 606 003e 5B00     		lsls	r3, r3, #1
 607 0040 0321     		movs	r1, #3
 608 0042 01FA03F3 		lsl	r3, r1, r3
 609 0046 DB43     		mvns	r3, r3
 610 0048 1A40     		ands	r2, r2, r3
 611 004a 7B68     		ldr	r3, [r7, #4]
 612 004c 1A60     		str	r2, [r3]
 333:Drivers/STM32F7xx_HAL_Driver/Src/stm32f7xx_hal_gpio.c **** 
 334:Drivers/STM32F7xx_HAL_Driver/Src/stm32f7xx_hal_gpio.c ****       /* Configure the default Alternate Function in current IO */
 335:Drivers/STM32F7xx_HAL_Driver/Src/stm32f7xx_hal_gpio.c ****       GPIOx->AFR[position >> 3] &= ~((uint32_t)0xF << ((uint32_t)(position & (uint32_t)0x07) * 4)) 
 613              		.loc 1 335 0
 614 004e 7B69     		ldr	r3, [r7, #20]
 615 0050 DA08     		lsrs	r2, r3, #3
 616 0052 7B68     		ldr	r3, [r7, #4]
 617 0054 0832     		adds	r2, r2, #8
 618 0056 53F82210 		ldr	r1, [r3, r2, lsl #2]
 619 005a 7B69     		ldr	r3, [r7, #20]
 620 005c 03F00703 		and	r3, r3, #7
 621 0060 9B00     		lsls	r3, r3, #2
 622 0062 0F22     		movs	r2, #15
 623 0064 02FA03F3 		lsl	r3, r2, r3
 624 0068 DB43     		mvns	r3, r3
 625 006a 7A69     		ldr	r2, [r7, #20]
 626 006c D208     		lsrs	r2, r2, #3
 627 006e 1940     		ands	r1, r1, r3
 628 0070 7B68     		ldr	r3, [r7, #4]
 629 0072 0832     		adds	r2, r2, #8
 630 0074 43F82210 		str	r1, [r3, r2, lsl #2]
 336:Drivers/STM32F7xx_HAL_Driver/Src/stm32f7xx_hal_gpio.c **** 
 337:Drivers/STM32F7xx_HAL_Driver/Src/stm32f7xx_hal_gpio.c ****       /* Configure the default value for IO Speed */
 338:Drivers/STM32F7xx_HAL_Driver/Src/stm32f7xx_hal_gpio.c ****       GPIOx->OSPEEDR &= ~(GPIO_OSPEEDER_OSPEEDR0 << (position * 2));
 631              		.loc 1 338 0
ARM GAS  /tmp/ccB7WBLo.s 			page 18


 632 0078 7B68     		ldr	r3, [r7, #4]
 633 007a 9A68     		ldr	r2, [r3, #8]
 634 007c 7B69     		ldr	r3, [r7, #20]
 635 007e 5B00     		lsls	r3, r3, #1
 636 0080 0321     		movs	r1, #3
 637 0082 01FA03F3 		lsl	r3, r1, r3
 638 0086 DB43     		mvns	r3, r3
 639 0088 1A40     		ands	r2, r2, r3
 640 008a 7B68     		ldr	r3, [r7, #4]
 641 008c 9A60     		str	r2, [r3, #8]
 339:Drivers/STM32F7xx_HAL_Driver/Src/stm32f7xx_hal_gpio.c **** 
 340:Drivers/STM32F7xx_HAL_Driver/Src/stm32f7xx_hal_gpio.c ****       /* Configure the default value IO Output Type */
 341:Drivers/STM32F7xx_HAL_Driver/Src/stm32f7xx_hal_gpio.c ****       GPIOx->OTYPER  &= ~(GPIO_OTYPER_OT_0 << position) ;
 642              		.loc 1 341 0
 643 008e 7B68     		ldr	r3, [r7, #4]
 644 0090 5A68     		ldr	r2, [r3, #4]
 645 0092 0121     		movs	r1, #1
 646 0094 7B69     		ldr	r3, [r7, #20]
 647 0096 01FA03F3 		lsl	r3, r1, r3
 648 009a DB43     		mvns	r3, r3
 649 009c 1A40     		ands	r2, r2, r3
 650 009e 7B68     		ldr	r3, [r7, #4]
 651 00a0 5A60     		str	r2, [r3, #4]
 342:Drivers/STM32F7xx_HAL_Driver/Src/stm32f7xx_hal_gpio.c **** 
 343:Drivers/STM32F7xx_HAL_Driver/Src/stm32f7xx_hal_gpio.c ****       /* Deactivate the Pull-up and Pull-down resistor for the current IO */
 344:Drivers/STM32F7xx_HAL_Driver/Src/stm32f7xx_hal_gpio.c ****       GPIOx->PUPDR &= ~(GPIO_PUPDR_PUPDR0 << (position * 2));
 652              		.loc 1 344 0
 653 00a2 7B68     		ldr	r3, [r7, #4]
 654 00a4 DA68     		ldr	r2, [r3, #12]
 655 00a6 7B69     		ldr	r3, [r7, #20]
 656 00a8 5B00     		lsls	r3, r3, #1
 657 00aa 0321     		movs	r1, #3
 658 00ac 01FA03F3 		lsl	r3, r1, r3
 659 00b0 DB43     		mvns	r3, r3
 660 00b2 1A40     		ands	r2, r2, r3
 661 00b4 7B68     		ldr	r3, [r7, #4]
 662 00b6 DA60     		str	r2, [r3, #12]
 345:Drivers/STM32F7xx_HAL_Driver/Src/stm32f7xx_hal_gpio.c **** 
 346:Drivers/STM32F7xx_HAL_Driver/Src/stm32f7xx_hal_gpio.c ****       /*------------------------- EXTI Mode Configuration --------------------*/
 347:Drivers/STM32F7xx_HAL_Driver/Src/stm32f7xx_hal_gpio.c ****       tmp = SYSCFG->EXTICR[position >> 2];
 663              		.loc 1 347 0
 664 00b8 4A4A     		ldr	r2, .L59
 665 00ba 7B69     		ldr	r3, [r7, #20]
 666 00bc 9B08     		lsrs	r3, r3, #2
 667 00be 0233     		adds	r3, r3, #2
 668 00c0 52F82330 		ldr	r3, [r2, r3, lsl #2]
 669 00c4 BB60     		str	r3, [r7, #8]
 348:Drivers/STM32F7xx_HAL_Driver/Src/stm32f7xx_hal_gpio.c ****       tmp &= (((uint32_t)0x0F) << (4 * (position & 0x03)));
 670              		.loc 1 348 0
 671 00c6 7B69     		ldr	r3, [r7, #20]
 672 00c8 03F00303 		and	r3, r3, #3
 673 00cc 9B00     		lsls	r3, r3, #2
 674 00ce 0F22     		movs	r2, #15
 675 00d0 02FA03F3 		lsl	r3, r2, r3
 676 00d4 BA68     		ldr	r2, [r7, #8]
 677 00d6 1340     		ands	r3, r3, r2
 678 00d8 BB60     		str	r3, [r7, #8]
ARM GAS  /tmp/ccB7WBLo.s 			page 19


 349:Drivers/STM32F7xx_HAL_Driver/Src/stm32f7xx_hal_gpio.c ****       if(tmp == ((uint32_t)(GPIO_GET_INDEX(GPIOx)) << (4 * (position & 0x03))))
 679              		.loc 1 349 0
 680 00da 7B68     		ldr	r3, [r7, #4]
 681 00dc 424A     		ldr	r2, .L59+4
 682 00de 9342     		cmp	r3, r2
 683 00e0 37D0     		beq	.L38
 684              		.loc 1 349 0 is_stmt 0 discriminator 1
 685 00e2 7B68     		ldr	r3, [r7, #4]
 686 00e4 414A     		ldr	r2, .L59+8
 687 00e6 9342     		cmp	r3, r2
 688 00e8 31D0     		beq	.L39
 689              		.loc 1 349 0 discriminator 3
 690 00ea 7B68     		ldr	r3, [r7, #4]
 691 00ec 404A     		ldr	r2, .L59+12
 692 00ee 9342     		cmp	r3, r2
 693 00f0 2BD0     		beq	.L40
 694              		.loc 1 349 0 discriminator 5
 695 00f2 7B68     		ldr	r3, [r7, #4]
 696 00f4 3F4A     		ldr	r2, .L59+16
 697 00f6 9342     		cmp	r3, r2
 698 00f8 25D0     		beq	.L41
 699              		.loc 1 349 0 discriminator 7
 700 00fa 7B68     		ldr	r3, [r7, #4]
 701 00fc 3E4A     		ldr	r2, .L59+20
 702 00fe 9342     		cmp	r3, r2
 703 0100 1FD0     		beq	.L42
 704              		.loc 1 349 0 discriminator 9
 705 0102 7B68     		ldr	r3, [r7, #4]
 706 0104 3D4A     		ldr	r2, .L59+24
 707 0106 9342     		cmp	r3, r2
 708 0108 19D0     		beq	.L43
 709              		.loc 1 349 0 discriminator 11
 710 010a 7B68     		ldr	r3, [r7, #4]
 711 010c 3C4A     		ldr	r2, .L59+28
 712 010e 9342     		cmp	r3, r2
 713 0110 13D0     		beq	.L44
 714              		.loc 1 349 0 discriminator 13
 715 0112 7B68     		ldr	r3, [r7, #4]
 716 0114 3B4A     		ldr	r2, .L59+32
 717 0116 9342     		cmp	r3, r2
 718 0118 0DD0     		beq	.L45
 719              		.loc 1 349 0 discriminator 15
 720 011a 7B68     		ldr	r3, [r7, #4]
 721 011c 3A4A     		ldr	r2, .L59+36
 722 011e 9342     		cmp	r3, r2
 723 0120 07D0     		beq	.L46
 724              		.loc 1 349 0 discriminator 17
 725 0122 7B68     		ldr	r3, [r7, #4]
 726 0124 394A     		ldr	r2, .L59+40
 727 0126 9342     		cmp	r3, r2
 728 0128 01D1     		bne	.L47
 729              		.loc 1 349 0 discriminator 19
 730 012a 0923     		movs	r3, #9
 731 012c 12E0     		b	.L57
 732              	.L47:
 733              		.loc 1 349 0 discriminator 20
 734 012e 0A23     		movs	r3, #10
ARM GAS  /tmp/ccB7WBLo.s 			page 20


 735 0130 10E0     		b	.L57
 736              	.L46:
 737              		.loc 1 349 0 discriminator 18
 738 0132 0823     		movs	r3, #8
 739 0134 0EE0     		b	.L57
 740              	.L45:
 741              		.loc 1 349 0 discriminator 16
 742 0136 0723     		movs	r3, #7
 743 0138 0CE0     		b	.L57
 744              	.L44:
 745              		.loc 1 349 0 discriminator 14
 746 013a 0623     		movs	r3, #6
 747 013c 0AE0     		b	.L57
 748              	.L43:
 749              		.loc 1 349 0 discriminator 12
 750 013e 0523     		movs	r3, #5
 751 0140 08E0     		b	.L57
 752              	.L42:
 753              		.loc 1 349 0 discriminator 10
 754 0142 0423     		movs	r3, #4
 755 0144 06E0     		b	.L57
 756              	.L41:
 757              		.loc 1 349 0 discriminator 8
 758 0146 0323     		movs	r3, #3
 759 0148 04E0     		b	.L57
 760              	.L40:
 761              		.loc 1 349 0 discriminator 6
 762 014a 0223     		movs	r3, #2
 763 014c 02E0     		b	.L57
 764              	.L39:
 765              		.loc 1 349 0 discriminator 4
 766 014e 0123     		movs	r3, #1
 767 0150 00E0     		b	.L57
 768              	.L38:
 769              		.loc 1 349 0 discriminator 2
 770 0152 0023     		movs	r3, #0
 771              	.L57:
 772              		.loc 1 349 0 discriminator 40
 773 0154 7A69     		ldr	r2, [r7, #20]
 774 0156 02F00302 		and	r2, r2, #3
 775 015a 9200     		lsls	r2, r2, #2
 776 015c 9340     		lsls	r3, r3, r2
 777 015e BA68     		ldr	r2, [r7, #8]
 778 0160 9A42     		cmp	r2, r3
 779 0162 32D1     		bne	.L37
 350:Drivers/STM32F7xx_HAL_Driver/Src/stm32f7xx_hal_gpio.c ****       {
 351:Drivers/STM32F7xx_HAL_Driver/Src/stm32f7xx_hal_gpio.c ****         /* Configure the External Interrupt or event for the current IO */
 352:Drivers/STM32F7xx_HAL_Driver/Src/stm32f7xx_hal_gpio.c ****         tmp = ((uint32_t)0x0F) << (4 * (position & 0x03));
 780              		.loc 1 352 0 is_stmt 1
 781 0164 7B69     		ldr	r3, [r7, #20]
 782 0166 03F00303 		and	r3, r3, #3
 783 016a 9B00     		lsls	r3, r3, #2
 784 016c 0F22     		movs	r2, #15
 785 016e 02FA03F3 		lsl	r3, r2, r3
 786 0172 BB60     		str	r3, [r7, #8]
 353:Drivers/STM32F7xx_HAL_Driver/Src/stm32f7xx_hal_gpio.c ****         SYSCFG->EXTICR[position >> 2] &= ~tmp;
 787              		.loc 1 353 0
ARM GAS  /tmp/ccB7WBLo.s 			page 21


 788 0174 1B4A     		ldr	r2, .L59
 789 0176 7B69     		ldr	r3, [r7, #20]
 790 0178 9B08     		lsrs	r3, r3, #2
 791 017a 0233     		adds	r3, r3, #2
 792 017c 52F82310 		ldr	r1, [r2, r3, lsl #2]
 793 0180 BB68     		ldr	r3, [r7, #8]
 794 0182 DA43     		mvns	r2, r3
 795 0184 1748     		ldr	r0, .L59
 796 0186 7B69     		ldr	r3, [r7, #20]
 797 0188 9B08     		lsrs	r3, r3, #2
 798 018a 0A40     		ands	r2, r2, r1
 799 018c 0233     		adds	r3, r3, #2
 800 018e 40F82320 		str	r2, [r0, r3, lsl #2]
 354:Drivers/STM32F7xx_HAL_Driver/Src/stm32f7xx_hal_gpio.c **** 
 355:Drivers/STM32F7xx_HAL_Driver/Src/stm32f7xx_hal_gpio.c ****         /* Clear EXTI line configuration */
 356:Drivers/STM32F7xx_HAL_Driver/Src/stm32f7xx_hal_gpio.c ****         EXTI->IMR &= ~((uint32_t)iocurrent);
 801              		.loc 1 356 0
 802 0192 1F4B     		ldr	r3, .L59+44
 803 0194 1A68     		ldr	r2, [r3]
 804 0196 FB68     		ldr	r3, [r7, #12]
 805 0198 DB43     		mvns	r3, r3
 806 019a 1D49     		ldr	r1, .L59+44
 807 019c 1340     		ands	r3, r3, r2
 808 019e 0B60     		str	r3, [r1]
 357:Drivers/STM32F7xx_HAL_Driver/Src/stm32f7xx_hal_gpio.c ****         EXTI->EMR &= ~((uint32_t)iocurrent);
 809              		.loc 1 357 0
 810 01a0 1B4B     		ldr	r3, .L59+44
 811 01a2 5A68     		ldr	r2, [r3, #4]
 812 01a4 FB68     		ldr	r3, [r7, #12]
 813 01a6 DB43     		mvns	r3, r3
 814 01a8 1949     		ldr	r1, .L59+44
 815 01aa 1340     		ands	r3, r3, r2
 816 01ac 4B60     		str	r3, [r1, #4]
 358:Drivers/STM32F7xx_HAL_Driver/Src/stm32f7xx_hal_gpio.c **** 
 359:Drivers/STM32F7xx_HAL_Driver/Src/stm32f7xx_hal_gpio.c ****         /* Clear Rising Falling edge configuration */
 360:Drivers/STM32F7xx_HAL_Driver/Src/stm32f7xx_hal_gpio.c ****         EXTI->RTSR &= ~((uint32_t)iocurrent);
 817              		.loc 1 360 0
 818 01ae 184B     		ldr	r3, .L59+44
 819 01b0 9A68     		ldr	r2, [r3, #8]
 820 01b2 FB68     		ldr	r3, [r7, #12]
 821 01b4 DB43     		mvns	r3, r3
 822 01b6 1649     		ldr	r1, .L59+44
 823 01b8 1340     		ands	r3, r3, r2
 824 01ba 8B60     		str	r3, [r1, #8]
 361:Drivers/STM32F7xx_HAL_Driver/Src/stm32f7xx_hal_gpio.c ****         EXTI->FTSR &= ~((uint32_t)iocurrent);
 825              		.loc 1 361 0
 826 01bc 144B     		ldr	r3, .L59+44
 827 01be DA68     		ldr	r2, [r3, #12]
 828 01c0 FB68     		ldr	r3, [r7, #12]
 829 01c2 DB43     		mvns	r3, r3
 830 01c4 1249     		ldr	r1, .L59+44
 831 01c6 1340     		ands	r3, r3, r2
 832 01c8 CB60     		str	r3, [r1, #12]
 833              	.L37:
 321:Drivers/STM32F7xx_HAL_Driver/Src/stm32f7xx_hal_gpio.c ****   {
 834              		.loc 1 321 0 discriminator 2
 835 01ca 7B69     		ldr	r3, [r7, #20]
ARM GAS  /tmp/ccB7WBLo.s 			page 22


 836 01cc 0133     		adds	r3, r3, #1
 837 01ce 7B61     		str	r3, [r7, #20]
 838              	.L36:
 321:Drivers/STM32F7xx_HAL_Driver/Src/stm32f7xx_hal_gpio.c ****   {
 839              		.loc 1 321 0 is_stmt 0 discriminator 1
 840 01d0 7B69     		ldr	r3, [r7, #20]
 841 01d2 0F2B     		cmp	r3, #15
 842 01d4 7FF622AF 		bls	.L58
 362:Drivers/STM32F7xx_HAL_Driver/Src/stm32f7xx_hal_gpio.c **** 	  }
 363:Drivers/STM32F7xx_HAL_Driver/Src/stm32f7xx_hal_gpio.c ****     }
 364:Drivers/STM32F7xx_HAL_Driver/Src/stm32f7xx_hal_gpio.c ****   }
 365:Drivers/STM32F7xx_HAL_Driver/Src/stm32f7xx_hal_gpio.c **** }
 843              		.loc 1 365 0 is_stmt 1
 844 01d8 00BF     		nop
 845 01da 1C37     		adds	r7, r7, #28
 846              	.LCFI9:
 847              		.cfi_def_cfa_offset 4
 848 01dc BD46     		mov	sp, r7
 849              	.LCFI10:
 850              		.cfi_def_cfa_register 13
 851              		@ sp needed
 852 01de 5DF8047B 		ldr	r7, [sp], #4
 853              	.LCFI11:
 854              		.cfi_restore 7
 855              		.cfi_def_cfa_offset 0
 856 01e2 7047     		bx	lr
 857              	.L60:
 858              		.align	2
 859              	.L59:
 860 01e4 00380140 		.word	1073821696
 861 01e8 00000240 		.word	1073872896
 862 01ec 00040240 		.word	1073873920
 863 01f0 00080240 		.word	1073874944
 864 01f4 000C0240 		.word	1073875968
 865 01f8 00100240 		.word	1073876992
 866 01fc 00140240 		.word	1073878016
 867 0200 00180240 		.word	1073879040
 868 0204 001C0240 		.word	1073880064
 869 0208 00200240 		.word	1073881088
 870 020c 00240240 		.word	1073882112
 871 0210 003C0140 		.word	1073822720
 872              		.cfi_endproc
 873              	.LFE139:
 875              		.section	.text.HAL_GPIO_ReadPin,"ax",%progbits
 876              		.align	1
 877              		.global	HAL_GPIO_ReadPin
 878              		.syntax unified
 879              		.thumb
 880              		.thumb_func
 881              		.fpu fpv4-sp-d16
 883              	HAL_GPIO_ReadPin:
 884              	.LFB140:
 366:Drivers/STM32F7xx_HAL_Driver/Src/stm32f7xx_hal_gpio.c **** 
 367:Drivers/STM32F7xx_HAL_Driver/Src/stm32f7xx_hal_gpio.c **** /**
 368:Drivers/STM32F7xx_HAL_Driver/Src/stm32f7xx_hal_gpio.c ****   * @}
 369:Drivers/STM32F7xx_HAL_Driver/Src/stm32f7xx_hal_gpio.c ****   */
 370:Drivers/STM32F7xx_HAL_Driver/Src/stm32f7xx_hal_gpio.c **** 
ARM GAS  /tmp/ccB7WBLo.s 			page 23


 371:Drivers/STM32F7xx_HAL_Driver/Src/stm32f7xx_hal_gpio.c **** /** @defgroup GPIO_Exported_Functions_Group2 IO operation functions 
 372:Drivers/STM32F7xx_HAL_Driver/Src/stm32f7xx_hal_gpio.c ****  *  @brief   GPIO Read and Write
 373:Drivers/STM32F7xx_HAL_Driver/Src/stm32f7xx_hal_gpio.c ****  *
 374:Drivers/STM32F7xx_HAL_Driver/Src/stm32f7xx_hal_gpio.c **** @verbatim
 375:Drivers/STM32F7xx_HAL_Driver/Src/stm32f7xx_hal_gpio.c ****  ===============================================================================
 376:Drivers/STM32F7xx_HAL_Driver/Src/stm32f7xx_hal_gpio.c ****                        ##### IO operation functions #####
 377:Drivers/STM32F7xx_HAL_Driver/Src/stm32f7xx_hal_gpio.c ****  ===============================================================================
 378:Drivers/STM32F7xx_HAL_Driver/Src/stm32f7xx_hal_gpio.c **** 
 379:Drivers/STM32F7xx_HAL_Driver/Src/stm32f7xx_hal_gpio.c **** @endverbatim
 380:Drivers/STM32F7xx_HAL_Driver/Src/stm32f7xx_hal_gpio.c ****   * @{
 381:Drivers/STM32F7xx_HAL_Driver/Src/stm32f7xx_hal_gpio.c ****   */
 382:Drivers/STM32F7xx_HAL_Driver/Src/stm32f7xx_hal_gpio.c **** 
 383:Drivers/STM32F7xx_HAL_Driver/Src/stm32f7xx_hal_gpio.c **** /**
 384:Drivers/STM32F7xx_HAL_Driver/Src/stm32f7xx_hal_gpio.c ****   * @brief  Reads the specified input port pin.
 385:Drivers/STM32F7xx_HAL_Driver/Src/stm32f7xx_hal_gpio.c ****   * @param  GPIOx where x can be (A..K) to select the GPIO peripheral.
 386:Drivers/STM32F7xx_HAL_Driver/Src/stm32f7xx_hal_gpio.c ****   * @param  GPIO_Pin specifies the port bit to read.
 387:Drivers/STM32F7xx_HAL_Driver/Src/stm32f7xx_hal_gpio.c ****   *         This parameter can be GPIO_PIN_x where x can be (0..15).
 388:Drivers/STM32F7xx_HAL_Driver/Src/stm32f7xx_hal_gpio.c ****   * @retval The input port pin value.
 389:Drivers/STM32F7xx_HAL_Driver/Src/stm32f7xx_hal_gpio.c ****   */
 390:Drivers/STM32F7xx_HAL_Driver/Src/stm32f7xx_hal_gpio.c **** GPIO_PinState HAL_GPIO_ReadPin(GPIO_TypeDef* GPIOx, uint16_t GPIO_Pin)
 391:Drivers/STM32F7xx_HAL_Driver/Src/stm32f7xx_hal_gpio.c **** {
 885              		.loc 1 391 0
 886              		.cfi_startproc
 887              		@ args = 0, pretend = 0, frame = 16
 888              		@ frame_needed = 1, uses_anonymous_args = 0
 889              		@ link register save eliminated.
 890 0000 80B4     		push	{r7}
 891              	.LCFI12:
 892              		.cfi_def_cfa_offset 4
 893              		.cfi_offset 7, -4
 894 0002 85B0     		sub	sp, sp, #20
 895              	.LCFI13:
 896              		.cfi_def_cfa_offset 24
 897 0004 00AF     		add	r7, sp, #0
 898              	.LCFI14:
 899              		.cfi_def_cfa_register 7
 900 0006 7860     		str	r0, [r7, #4]
 901 0008 0B46     		mov	r3, r1
 902 000a 7B80     		strh	r3, [r7, #2]	@ movhi
 392:Drivers/STM32F7xx_HAL_Driver/Src/stm32f7xx_hal_gpio.c ****   GPIO_PinState bitstatus;
 393:Drivers/STM32F7xx_HAL_Driver/Src/stm32f7xx_hal_gpio.c **** 
 394:Drivers/STM32F7xx_HAL_Driver/Src/stm32f7xx_hal_gpio.c ****   /* Check the parameters */
 395:Drivers/STM32F7xx_HAL_Driver/Src/stm32f7xx_hal_gpio.c ****   assert_param(IS_GPIO_PIN(GPIO_Pin));
 396:Drivers/STM32F7xx_HAL_Driver/Src/stm32f7xx_hal_gpio.c **** 
 397:Drivers/STM32F7xx_HAL_Driver/Src/stm32f7xx_hal_gpio.c ****   if((GPIOx->IDR & GPIO_Pin) != (uint32_t)GPIO_PIN_RESET)
 903              		.loc 1 397 0
 904 000c 7B68     		ldr	r3, [r7, #4]
 905 000e 1A69     		ldr	r2, [r3, #16]
 906 0010 7B88     		ldrh	r3, [r7, #2]
 907 0012 1340     		ands	r3, r3, r2
 908 0014 002B     		cmp	r3, #0
 909 0016 02D0     		beq	.L62
 398:Drivers/STM32F7xx_HAL_Driver/Src/stm32f7xx_hal_gpio.c ****   {
 399:Drivers/STM32F7xx_HAL_Driver/Src/stm32f7xx_hal_gpio.c ****     bitstatus = GPIO_PIN_SET;
 910              		.loc 1 399 0
 911 0018 0123     		movs	r3, #1
 912 001a FB73     		strb	r3, [r7, #15]
ARM GAS  /tmp/ccB7WBLo.s 			page 24


 913 001c 01E0     		b	.L63
 914              	.L62:
 400:Drivers/STM32F7xx_HAL_Driver/Src/stm32f7xx_hal_gpio.c ****   }
 401:Drivers/STM32F7xx_HAL_Driver/Src/stm32f7xx_hal_gpio.c ****   else
 402:Drivers/STM32F7xx_HAL_Driver/Src/stm32f7xx_hal_gpio.c ****   {
 403:Drivers/STM32F7xx_HAL_Driver/Src/stm32f7xx_hal_gpio.c ****     bitstatus = GPIO_PIN_RESET;
 915              		.loc 1 403 0
 916 001e 0023     		movs	r3, #0
 917 0020 FB73     		strb	r3, [r7, #15]
 918              	.L63:
 404:Drivers/STM32F7xx_HAL_Driver/Src/stm32f7xx_hal_gpio.c ****   }
 405:Drivers/STM32F7xx_HAL_Driver/Src/stm32f7xx_hal_gpio.c ****   return bitstatus;
 919              		.loc 1 405 0
 920 0022 FB7B     		ldrb	r3, [r7, #15]	@ zero_extendqisi2
 406:Drivers/STM32F7xx_HAL_Driver/Src/stm32f7xx_hal_gpio.c **** }
 921              		.loc 1 406 0
 922 0024 1846     		mov	r0, r3
 923 0026 1437     		adds	r7, r7, #20
 924              	.LCFI15:
 925              		.cfi_def_cfa_offset 4
 926 0028 BD46     		mov	sp, r7
 927              	.LCFI16:
 928              		.cfi_def_cfa_register 13
 929              		@ sp needed
 930 002a 5DF8047B 		ldr	r7, [sp], #4
 931              	.LCFI17:
 932              		.cfi_restore 7
 933              		.cfi_def_cfa_offset 0
 934 002e 7047     		bx	lr
 935              		.cfi_endproc
 936              	.LFE140:
 938              		.section	.text.HAL_GPIO_WritePin,"ax",%progbits
 939              		.align	1
 940              		.global	HAL_GPIO_WritePin
 941              		.syntax unified
 942              		.thumb
 943              		.thumb_func
 944              		.fpu fpv4-sp-d16
 946              	HAL_GPIO_WritePin:
 947              	.LFB141:
 407:Drivers/STM32F7xx_HAL_Driver/Src/stm32f7xx_hal_gpio.c **** 
 408:Drivers/STM32F7xx_HAL_Driver/Src/stm32f7xx_hal_gpio.c **** /**
 409:Drivers/STM32F7xx_HAL_Driver/Src/stm32f7xx_hal_gpio.c ****   * @brief  Sets or clears the selected data port bit.
 410:Drivers/STM32F7xx_HAL_Driver/Src/stm32f7xx_hal_gpio.c ****   *
 411:Drivers/STM32F7xx_HAL_Driver/Src/stm32f7xx_hal_gpio.c ****   * @note   This function uses GPIOx_BSRR register to allow atomic read/modify
 412:Drivers/STM32F7xx_HAL_Driver/Src/stm32f7xx_hal_gpio.c ****   *         accesses. In this way, there is no risk of an IRQ occurring between
 413:Drivers/STM32F7xx_HAL_Driver/Src/stm32f7xx_hal_gpio.c ****   *         the read and the modify access.
 414:Drivers/STM32F7xx_HAL_Driver/Src/stm32f7xx_hal_gpio.c ****   *
 415:Drivers/STM32F7xx_HAL_Driver/Src/stm32f7xx_hal_gpio.c ****   * @param  GPIOx where x can be (A..K) to select the GPIO peripheral.
 416:Drivers/STM32F7xx_HAL_Driver/Src/stm32f7xx_hal_gpio.c ****   * @param  GPIO_Pin specifies the port bit to be written.
 417:Drivers/STM32F7xx_HAL_Driver/Src/stm32f7xx_hal_gpio.c ****   *          This parameter can be one of GPIO_PIN_x where x can be (0..15).
 418:Drivers/STM32F7xx_HAL_Driver/Src/stm32f7xx_hal_gpio.c ****   * @param  PinState specifies the value to be written to the selected bit.
 419:Drivers/STM32F7xx_HAL_Driver/Src/stm32f7xx_hal_gpio.c ****   *          This parameter can be one of the GPIO_PinState enum values:
 420:Drivers/STM32F7xx_HAL_Driver/Src/stm32f7xx_hal_gpio.c ****   *            @arg GPIO_PIN_RESET: to clear the port pin
 421:Drivers/STM32F7xx_HAL_Driver/Src/stm32f7xx_hal_gpio.c ****   *            @arg GPIO_PIN_SET: to set the port pin
 422:Drivers/STM32F7xx_HAL_Driver/Src/stm32f7xx_hal_gpio.c ****   * @retval None
 423:Drivers/STM32F7xx_HAL_Driver/Src/stm32f7xx_hal_gpio.c ****   */
ARM GAS  /tmp/ccB7WBLo.s 			page 25


 424:Drivers/STM32F7xx_HAL_Driver/Src/stm32f7xx_hal_gpio.c **** void HAL_GPIO_WritePin(GPIO_TypeDef* GPIOx, uint16_t GPIO_Pin, GPIO_PinState PinState)
 425:Drivers/STM32F7xx_HAL_Driver/Src/stm32f7xx_hal_gpio.c **** {
 948              		.loc 1 425 0
 949              		.cfi_startproc
 950              		@ args = 0, pretend = 0, frame = 8
 951              		@ frame_needed = 1, uses_anonymous_args = 0
 952              		@ link register save eliminated.
 953 0000 80B4     		push	{r7}
 954              	.LCFI18:
 955              		.cfi_def_cfa_offset 4
 956              		.cfi_offset 7, -4
 957 0002 83B0     		sub	sp, sp, #12
 958              	.LCFI19:
 959              		.cfi_def_cfa_offset 16
 960 0004 00AF     		add	r7, sp, #0
 961              	.LCFI20:
 962              		.cfi_def_cfa_register 7
 963 0006 7860     		str	r0, [r7, #4]
 964 0008 0B46     		mov	r3, r1
 965 000a 7B80     		strh	r3, [r7, #2]	@ movhi
 966 000c 1346     		mov	r3, r2
 967 000e 7B70     		strb	r3, [r7, #1]
 426:Drivers/STM32F7xx_HAL_Driver/Src/stm32f7xx_hal_gpio.c ****   /* Check the parameters */
 427:Drivers/STM32F7xx_HAL_Driver/Src/stm32f7xx_hal_gpio.c ****   assert_param(IS_GPIO_PIN(GPIO_Pin));
 428:Drivers/STM32F7xx_HAL_Driver/Src/stm32f7xx_hal_gpio.c ****   assert_param(IS_GPIO_PIN_ACTION(PinState));
 429:Drivers/STM32F7xx_HAL_Driver/Src/stm32f7xx_hal_gpio.c **** 
 430:Drivers/STM32F7xx_HAL_Driver/Src/stm32f7xx_hal_gpio.c ****   if(PinState != GPIO_PIN_RESET)
 968              		.loc 1 430 0
 969 0010 7B78     		ldrb	r3, [r7, #1]	@ zero_extendqisi2
 970 0012 002B     		cmp	r3, #0
 971 0014 03D0     		beq	.L66
 431:Drivers/STM32F7xx_HAL_Driver/Src/stm32f7xx_hal_gpio.c ****   {
 432:Drivers/STM32F7xx_HAL_Driver/Src/stm32f7xx_hal_gpio.c ****     GPIOx->BSRR = GPIO_Pin;
 972              		.loc 1 432 0
 973 0016 7A88     		ldrh	r2, [r7, #2]
 974 0018 7B68     		ldr	r3, [r7, #4]
 975 001a 9A61     		str	r2, [r3, #24]
 433:Drivers/STM32F7xx_HAL_Driver/Src/stm32f7xx_hal_gpio.c ****   }
 434:Drivers/STM32F7xx_HAL_Driver/Src/stm32f7xx_hal_gpio.c ****   else
 435:Drivers/STM32F7xx_HAL_Driver/Src/stm32f7xx_hal_gpio.c ****   {
 436:Drivers/STM32F7xx_HAL_Driver/Src/stm32f7xx_hal_gpio.c ****     GPIOx->BSRR = (uint32_t)GPIO_Pin << 16;
 437:Drivers/STM32F7xx_HAL_Driver/Src/stm32f7xx_hal_gpio.c ****   }
 438:Drivers/STM32F7xx_HAL_Driver/Src/stm32f7xx_hal_gpio.c **** }
 976              		.loc 1 438 0
 977 001c 03E0     		b	.L68
 978              	.L66:
 436:Drivers/STM32F7xx_HAL_Driver/Src/stm32f7xx_hal_gpio.c ****   }
 979              		.loc 1 436 0
 980 001e 7B88     		ldrh	r3, [r7, #2]
 981 0020 1A04     		lsls	r2, r3, #16
 982 0022 7B68     		ldr	r3, [r7, #4]
 983 0024 9A61     		str	r2, [r3, #24]
 984              	.L68:
 985              		.loc 1 438 0
 986 0026 00BF     		nop
 987 0028 0C37     		adds	r7, r7, #12
 988              	.LCFI21:
ARM GAS  /tmp/ccB7WBLo.s 			page 26


 989              		.cfi_def_cfa_offset 4
 990 002a BD46     		mov	sp, r7
 991              	.LCFI22:
 992              		.cfi_def_cfa_register 13
 993              		@ sp needed
 994 002c 5DF8047B 		ldr	r7, [sp], #4
 995              	.LCFI23:
 996              		.cfi_restore 7
 997              		.cfi_def_cfa_offset 0
 998 0030 7047     		bx	lr
 999              		.cfi_endproc
 1000              	.LFE141:
 1002              		.section	.text.HAL_GPIO_TogglePin,"ax",%progbits
 1003              		.align	1
 1004              		.global	HAL_GPIO_TogglePin
 1005              		.syntax unified
 1006              		.thumb
 1007              		.thumb_func
 1008              		.fpu fpv4-sp-d16
 1010              	HAL_GPIO_TogglePin:
 1011              	.LFB142:
 439:Drivers/STM32F7xx_HAL_Driver/Src/stm32f7xx_hal_gpio.c **** 
 440:Drivers/STM32F7xx_HAL_Driver/Src/stm32f7xx_hal_gpio.c **** /**
 441:Drivers/STM32F7xx_HAL_Driver/Src/stm32f7xx_hal_gpio.c ****   * @brief  Toggles the specified GPIO pins.
 442:Drivers/STM32F7xx_HAL_Driver/Src/stm32f7xx_hal_gpio.c ****   * @param  GPIOx Where x can be (A..I) to select the GPIO peripheral.
 443:Drivers/STM32F7xx_HAL_Driver/Src/stm32f7xx_hal_gpio.c ****   * @param  GPIO_Pin Specifies the pins to be toggled.
 444:Drivers/STM32F7xx_HAL_Driver/Src/stm32f7xx_hal_gpio.c ****   * @retval None
 445:Drivers/STM32F7xx_HAL_Driver/Src/stm32f7xx_hal_gpio.c ****   */
 446:Drivers/STM32F7xx_HAL_Driver/Src/stm32f7xx_hal_gpio.c **** void HAL_GPIO_TogglePin(GPIO_TypeDef* GPIOx, uint16_t GPIO_Pin)
 447:Drivers/STM32F7xx_HAL_Driver/Src/stm32f7xx_hal_gpio.c **** {
 1012              		.loc 1 447 0
 1013              		.cfi_startproc
 1014              		@ args = 0, pretend = 0, frame = 8
 1015              		@ frame_needed = 1, uses_anonymous_args = 0
 1016              		@ link register save eliminated.
 1017 0000 80B4     		push	{r7}
 1018              	.LCFI24:
 1019              		.cfi_def_cfa_offset 4
 1020              		.cfi_offset 7, -4
 1021 0002 83B0     		sub	sp, sp, #12
 1022              	.LCFI25:
 1023              		.cfi_def_cfa_offset 16
 1024 0004 00AF     		add	r7, sp, #0
 1025              	.LCFI26:
 1026              		.cfi_def_cfa_register 7
 1027 0006 7860     		str	r0, [r7, #4]
 1028 0008 0B46     		mov	r3, r1
 1029 000a 7B80     		strh	r3, [r7, #2]	@ movhi
 448:Drivers/STM32F7xx_HAL_Driver/Src/stm32f7xx_hal_gpio.c ****   /* Check the parameters */
 449:Drivers/STM32F7xx_HAL_Driver/Src/stm32f7xx_hal_gpio.c ****   assert_param(IS_GPIO_PIN(GPIO_Pin));
 450:Drivers/STM32F7xx_HAL_Driver/Src/stm32f7xx_hal_gpio.c **** 
 451:Drivers/STM32F7xx_HAL_Driver/Src/stm32f7xx_hal_gpio.c ****   GPIOx->ODR ^= GPIO_Pin;
 1030              		.loc 1 451 0
 1031 000c 7B68     		ldr	r3, [r7, #4]
 1032 000e 5A69     		ldr	r2, [r3, #20]
 1033 0010 7B88     		ldrh	r3, [r7, #2]
 1034 0012 5A40     		eors	r2, r2, r3
ARM GAS  /tmp/ccB7WBLo.s 			page 27


 1035 0014 7B68     		ldr	r3, [r7, #4]
 1036 0016 5A61     		str	r2, [r3, #20]
 452:Drivers/STM32F7xx_HAL_Driver/Src/stm32f7xx_hal_gpio.c **** }
 1037              		.loc 1 452 0
 1038 0018 00BF     		nop
 1039 001a 0C37     		adds	r7, r7, #12
 1040              	.LCFI27:
 1041              		.cfi_def_cfa_offset 4
 1042 001c BD46     		mov	sp, r7
 1043              	.LCFI28:
 1044              		.cfi_def_cfa_register 13
 1045              		@ sp needed
 1046 001e 5DF8047B 		ldr	r7, [sp], #4
 1047              	.LCFI29:
 1048              		.cfi_restore 7
 1049              		.cfi_def_cfa_offset 0
 1050 0022 7047     		bx	lr
 1051              		.cfi_endproc
 1052              	.LFE142:
 1054              		.section	.text.HAL_GPIO_LockPin,"ax",%progbits
 1055              		.align	1
 1056              		.global	HAL_GPIO_LockPin
 1057              		.syntax unified
 1058              		.thumb
 1059              		.thumb_func
 1060              		.fpu fpv4-sp-d16
 1062              	HAL_GPIO_LockPin:
 1063              	.LFB143:
 453:Drivers/STM32F7xx_HAL_Driver/Src/stm32f7xx_hal_gpio.c **** 
 454:Drivers/STM32F7xx_HAL_Driver/Src/stm32f7xx_hal_gpio.c **** /**
 455:Drivers/STM32F7xx_HAL_Driver/Src/stm32f7xx_hal_gpio.c ****   * @brief  Locks GPIO Pins configuration registers.
 456:Drivers/STM32F7xx_HAL_Driver/Src/stm32f7xx_hal_gpio.c ****   * @note   The locked registers are GPIOx_MODER, GPIOx_OTYPER, GPIOx_OSPEEDR,
 457:Drivers/STM32F7xx_HAL_Driver/Src/stm32f7xx_hal_gpio.c ****   *         GPIOx_PUPDR, GPIOx_AFRL and GPIOx_AFRH.
 458:Drivers/STM32F7xx_HAL_Driver/Src/stm32f7xx_hal_gpio.c ****   * @note   The configuration of the locked GPIO pins can no longer be modified
 459:Drivers/STM32F7xx_HAL_Driver/Src/stm32f7xx_hal_gpio.c ****   *         until the next reset.
 460:Drivers/STM32F7xx_HAL_Driver/Src/stm32f7xx_hal_gpio.c ****   * @param  GPIOx where x can be (A..F) to select the GPIO peripheral for STM32F7 family
 461:Drivers/STM32F7xx_HAL_Driver/Src/stm32f7xx_hal_gpio.c ****   * @param  GPIO_Pin specifies the port bit to be locked.
 462:Drivers/STM32F7xx_HAL_Driver/Src/stm32f7xx_hal_gpio.c ****   *         This parameter can be any combination of GPIO_PIN_x where x can be (0..15).
 463:Drivers/STM32F7xx_HAL_Driver/Src/stm32f7xx_hal_gpio.c ****   * @retval None
 464:Drivers/STM32F7xx_HAL_Driver/Src/stm32f7xx_hal_gpio.c ****   */
 465:Drivers/STM32F7xx_HAL_Driver/Src/stm32f7xx_hal_gpio.c **** HAL_StatusTypeDef HAL_GPIO_LockPin(GPIO_TypeDef* GPIOx, uint16_t GPIO_Pin)
 466:Drivers/STM32F7xx_HAL_Driver/Src/stm32f7xx_hal_gpio.c **** {
 1064              		.loc 1 466 0
 1065              		.cfi_startproc
 1066              		@ args = 0, pretend = 0, frame = 16
 1067              		@ frame_needed = 1, uses_anonymous_args = 0
 1068              		@ link register save eliminated.
 1069 0000 80B4     		push	{r7}
 1070              	.LCFI30:
 1071              		.cfi_def_cfa_offset 4
 1072              		.cfi_offset 7, -4
 1073 0002 85B0     		sub	sp, sp, #20
 1074              	.LCFI31:
 1075              		.cfi_def_cfa_offset 24
 1076 0004 00AF     		add	r7, sp, #0
 1077              	.LCFI32:
 1078              		.cfi_def_cfa_register 7
ARM GAS  /tmp/ccB7WBLo.s 			page 28


 1079 0006 7860     		str	r0, [r7, #4]
 1080 0008 0B46     		mov	r3, r1
 1081 000a 7B80     		strh	r3, [r7, #2]	@ movhi
 467:Drivers/STM32F7xx_HAL_Driver/Src/stm32f7xx_hal_gpio.c ****   __IO uint32_t tmp = GPIO_LCKR_LCKK;
 1082              		.loc 1 467 0
 1083 000c 4FF48033 		mov	r3, #65536
 1084 0010 FB60     		str	r3, [r7, #12]
 468:Drivers/STM32F7xx_HAL_Driver/Src/stm32f7xx_hal_gpio.c **** 
 469:Drivers/STM32F7xx_HAL_Driver/Src/stm32f7xx_hal_gpio.c ****   /* Check the parameters */
 470:Drivers/STM32F7xx_HAL_Driver/Src/stm32f7xx_hal_gpio.c ****   assert_param(IS_GPIO_PIN(GPIO_Pin));
 471:Drivers/STM32F7xx_HAL_Driver/Src/stm32f7xx_hal_gpio.c **** 
 472:Drivers/STM32F7xx_HAL_Driver/Src/stm32f7xx_hal_gpio.c ****   /* Apply lock key write sequence */
 473:Drivers/STM32F7xx_HAL_Driver/Src/stm32f7xx_hal_gpio.c ****   tmp |= GPIO_Pin;
 1085              		.loc 1 473 0
 1086 0012 7A88     		ldrh	r2, [r7, #2]
 1087 0014 FB68     		ldr	r3, [r7, #12]
 1088 0016 1343     		orrs	r3, r3, r2
 1089 0018 FB60     		str	r3, [r7, #12]
 474:Drivers/STM32F7xx_HAL_Driver/Src/stm32f7xx_hal_gpio.c ****   /* Set LCKx bit(s): LCKK='1' + LCK[15-0] */
 475:Drivers/STM32F7xx_HAL_Driver/Src/stm32f7xx_hal_gpio.c ****   GPIOx->LCKR = tmp;
 1090              		.loc 1 475 0
 1091 001a FA68     		ldr	r2, [r7, #12]
 1092 001c 7B68     		ldr	r3, [r7, #4]
 1093 001e DA61     		str	r2, [r3, #28]
 476:Drivers/STM32F7xx_HAL_Driver/Src/stm32f7xx_hal_gpio.c ****   /* Reset LCKx bit(s): LCKK='0' + LCK[15-0] */
 477:Drivers/STM32F7xx_HAL_Driver/Src/stm32f7xx_hal_gpio.c ****   GPIOx->LCKR = GPIO_Pin;
 1094              		.loc 1 477 0
 1095 0020 7A88     		ldrh	r2, [r7, #2]
 1096 0022 7B68     		ldr	r3, [r7, #4]
 1097 0024 DA61     		str	r2, [r3, #28]
 478:Drivers/STM32F7xx_HAL_Driver/Src/stm32f7xx_hal_gpio.c ****   /* Set LCKx bit(s): LCKK='1' + LCK[15-0] */
 479:Drivers/STM32F7xx_HAL_Driver/Src/stm32f7xx_hal_gpio.c ****   GPIOx->LCKR = tmp;
 1098              		.loc 1 479 0
 1099 0026 FA68     		ldr	r2, [r7, #12]
 1100 0028 7B68     		ldr	r3, [r7, #4]
 1101 002a DA61     		str	r2, [r3, #28]
 480:Drivers/STM32F7xx_HAL_Driver/Src/stm32f7xx_hal_gpio.c ****   /* Read LCKK bit*/
 481:Drivers/STM32F7xx_HAL_Driver/Src/stm32f7xx_hal_gpio.c ****   tmp = GPIOx->LCKR;
 1102              		.loc 1 481 0
 1103 002c 7B68     		ldr	r3, [r7, #4]
 1104 002e DB69     		ldr	r3, [r3, #28]
 1105 0030 FB60     		str	r3, [r7, #12]
 482:Drivers/STM32F7xx_HAL_Driver/Src/stm32f7xx_hal_gpio.c **** 
 483:Drivers/STM32F7xx_HAL_Driver/Src/stm32f7xx_hal_gpio.c ****  if((GPIOx->LCKR & GPIO_LCKR_LCKK) != RESET)
 1106              		.loc 1 483 0
 1107 0032 7B68     		ldr	r3, [r7, #4]
 1108 0034 DB69     		ldr	r3, [r3, #28]
 1109 0036 03F48033 		and	r3, r3, #65536
 1110 003a 002B     		cmp	r3, #0
 1111 003c 01D0     		beq	.L71
 484:Drivers/STM32F7xx_HAL_Driver/Src/stm32f7xx_hal_gpio.c ****   {
 485:Drivers/STM32F7xx_HAL_Driver/Src/stm32f7xx_hal_gpio.c ****     return HAL_OK;
 1112              		.loc 1 485 0
 1113 003e 0023     		movs	r3, #0
 1114 0040 00E0     		b	.L72
 1115              	.L71:
 486:Drivers/STM32F7xx_HAL_Driver/Src/stm32f7xx_hal_gpio.c ****   }
ARM GAS  /tmp/ccB7WBLo.s 			page 29


 487:Drivers/STM32F7xx_HAL_Driver/Src/stm32f7xx_hal_gpio.c ****   else
 488:Drivers/STM32F7xx_HAL_Driver/Src/stm32f7xx_hal_gpio.c ****   {
 489:Drivers/STM32F7xx_HAL_Driver/Src/stm32f7xx_hal_gpio.c ****     return HAL_ERROR;
 1116              		.loc 1 489 0
 1117 0042 0123     		movs	r3, #1
 1118              	.L72:
 490:Drivers/STM32F7xx_HAL_Driver/Src/stm32f7xx_hal_gpio.c ****   }
 491:Drivers/STM32F7xx_HAL_Driver/Src/stm32f7xx_hal_gpio.c **** }
 1119              		.loc 1 491 0
 1120 0044 1846     		mov	r0, r3
 1121 0046 1437     		adds	r7, r7, #20
 1122              	.LCFI33:
 1123              		.cfi_def_cfa_offset 4
 1124 0048 BD46     		mov	sp, r7
 1125              	.LCFI34:
 1126              		.cfi_def_cfa_register 13
 1127              		@ sp needed
 1128 004a 5DF8047B 		ldr	r7, [sp], #4
 1129              	.LCFI35:
 1130              		.cfi_restore 7
 1131              		.cfi_def_cfa_offset 0
 1132 004e 7047     		bx	lr
 1133              		.cfi_endproc
 1134              	.LFE143:
 1136              		.section	.text.HAL_GPIO_EXTI_IRQHandler,"ax",%progbits
 1137              		.align	1
 1138              		.global	HAL_GPIO_EXTI_IRQHandler
 1139              		.syntax unified
 1140              		.thumb
 1141              		.thumb_func
 1142              		.fpu fpv4-sp-d16
 1144              	HAL_GPIO_EXTI_IRQHandler:
 1145              	.LFB144:
 492:Drivers/STM32F7xx_HAL_Driver/Src/stm32f7xx_hal_gpio.c **** 
 493:Drivers/STM32F7xx_HAL_Driver/Src/stm32f7xx_hal_gpio.c **** /**
 494:Drivers/STM32F7xx_HAL_Driver/Src/stm32f7xx_hal_gpio.c ****   * @brief  This function handles EXTI interrupt request.
 495:Drivers/STM32F7xx_HAL_Driver/Src/stm32f7xx_hal_gpio.c ****   * @param  GPIO_Pin Specifies the pins connected EXTI line
 496:Drivers/STM32F7xx_HAL_Driver/Src/stm32f7xx_hal_gpio.c ****   * @retval None
 497:Drivers/STM32F7xx_HAL_Driver/Src/stm32f7xx_hal_gpio.c ****   */
 498:Drivers/STM32F7xx_HAL_Driver/Src/stm32f7xx_hal_gpio.c **** void HAL_GPIO_EXTI_IRQHandler(uint16_t GPIO_Pin)
 499:Drivers/STM32F7xx_HAL_Driver/Src/stm32f7xx_hal_gpio.c **** {
 1146              		.loc 1 499 0
 1147              		.cfi_startproc
 1148              		@ args = 0, pretend = 0, frame = 8
 1149              		@ frame_needed = 1, uses_anonymous_args = 0
 1150 0000 80B5     		push	{r7, lr}
 1151              	.LCFI36:
 1152              		.cfi_def_cfa_offset 8
 1153              		.cfi_offset 7, -8
 1154              		.cfi_offset 14, -4
 1155 0002 82B0     		sub	sp, sp, #8
 1156              	.LCFI37:
 1157              		.cfi_def_cfa_offset 16
 1158 0004 00AF     		add	r7, sp, #0
 1159              	.LCFI38:
 1160              		.cfi_def_cfa_register 7
 1161 0006 0346     		mov	r3, r0
ARM GAS  /tmp/ccB7WBLo.s 			page 30


 1162 0008 FB80     		strh	r3, [r7, #6]	@ movhi
 500:Drivers/STM32F7xx_HAL_Driver/Src/stm32f7xx_hal_gpio.c ****   /* EXTI line interrupt detected */
 501:Drivers/STM32F7xx_HAL_Driver/Src/stm32f7xx_hal_gpio.c ****   if(__HAL_GPIO_EXTI_GET_IT(GPIO_Pin) != RESET)
 1163              		.loc 1 501 0
 1164 000a 084B     		ldr	r3, .L76
 1165 000c 5A69     		ldr	r2, [r3, #20]
 1166 000e FB88     		ldrh	r3, [r7, #6]
 1167 0010 1340     		ands	r3, r3, r2
 1168 0012 002B     		cmp	r3, #0
 1169 0014 06D0     		beq	.L75
 502:Drivers/STM32F7xx_HAL_Driver/Src/stm32f7xx_hal_gpio.c ****   {
 503:Drivers/STM32F7xx_HAL_Driver/Src/stm32f7xx_hal_gpio.c ****     __HAL_GPIO_EXTI_CLEAR_IT(GPIO_Pin);
 1170              		.loc 1 503 0
 1171 0016 054A     		ldr	r2, .L76
 1172 0018 FB88     		ldrh	r3, [r7, #6]
 1173 001a 5361     		str	r3, [r2, #20]
 504:Drivers/STM32F7xx_HAL_Driver/Src/stm32f7xx_hal_gpio.c ****     HAL_GPIO_EXTI_Callback(GPIO_Pin);
 1174              		.loc 1 504 0
 1175 001c FB88     		ldrh	r3, [r7, #6]
 1176 001e 1846     		mov	r0, r3
 1177 0020 FFF7FEFF 		bl	HAL_GPIO_EXTI_Callback
 1178              	.L75:
 505:Drivers/STM32F7xx_HAL_Driver/Src/stm32f7xx_hal_gpio.c ****   }
 506:Drivers/STM32F7xx_HAL_Driver/Src/stm32f7xx_hal_gpio.c **** }
 1179              		.loc 1 506 0
 1180 0024 00BF     		nop
 1181 0026 0837     		adds	r7, r7, #8
 1182              	.LCFI39:
 1183              		.cfi_def_cfa_offset 8
 1184 0028 BD46     		mov	sp, r7
 1185              	.LCFI40:
 1186              		.cfi_def_cfa_register 13
 1187              		@ sp needed
 1188 002a 80BD     		pop	{r7, pc}
 1189              	.L77:
 1190              		.align	2
 1191              	.L76:
 1192 002c 003C0140 		.word	1073822720
 1193              		.cfi_endproc
 1194              	.LFE144:
 1196              		.section	.text.HAL_GPIO_EXTI_Callback,"ax",%progbits
 1197              		.align	1
 1198              		.weak	HAL_GPIO_EXTI_Callback
 1199              		.syntax unified
 1200              		.thumb
 1201              		.thumb_func
 1202              		.fpu fpv4-sp-d16
 1204              	HAL_GPIO_EXTI_Callback:
 1205              	.LFB145:
 507:Drivers/STM32F7xx_HAL_Driver/Src/stm32f7xx_hal_gpio.c **** 
 508:Drivers/STM32F7xx_HAL_Driver/Src/stm32f7xx_hal_gpio.c **** /**
 509:Drivers/STM32F7xx_HAL_Driver/Src/stm32f7xx_hal_gpio.c ****   * @brief  EXTI line detection callbacks.
 510:Drivers/STM32F7xx_HAL_Driver/Src/stm32f7xx_hal_gpio.c ****   * @param  GPIO_Pin Specifies the pins connected EXTI line
 511:Drivers/STM32F7xx_HAL_Driver/Src/stm32f7xx_hal_gpio.c ****   * @retval None
 512:Drivers/STM32F7xx_HAL_Driver/Src/stm32f7xx_hal_gpio.c ****   */
 513:Drivers/STM32F7xx_HAL_Driver/Src/stm32f7xx_hal_gpio.c **** __weak void HAL_GPIO_EXTI_Callback(uint16_t GPIO_Pin)
 514:Drivers/STM32F7xx_HAL_Driver/Src/stm32f7xx_hal_gpio.c **** {
ARM GAS  /tmp/ccB7WBLo.s 			page 31


 1206              		.loc 1 514 0
 1207              		.cfi_startproc
 1208              		@ args = 0, pretend = 0, frame = 8
 1209              		@ frame_needed = 1, uses_anonymous_args = 0
 1210              		@ link register save eliminated.
 1211 0000 80B4     		push	{r7}
 1212              	.LCFI41:
 1213              		.cfi_def_cfa_offset 4
 1214              		.cfi_offset 7, -4
 1215 0002 83B0     		sub	sp, sp, #12
 1216              	.LCFI42:
 1217              		.cfi_def_cfa_offset 16
 1218 0004 00AF     		add	r7, sp, #0
 1219              	.LCFI43:
 1220              		.cfi_def_cfa_register 7
 1221 0006 0346     		mov	r3, r0
 1222 0008 FB80     		strh	r3, [r7, #6]	@ movhi
 515:Drivers/STM32F7xx_HAL_Driver/Src/stm32f7xx_hal_gpio.c ****   /* Prevent unused argument(s) compilation warning */
 516:Drivers/STM32F7xx_HAL_Driver/Src/stm32f7xx_hal_gpio.c ****   UNUSED(GPIO_Pin);
 517:Drivers/STM32F7xx_HAL_Driver/Src/stm32f7xx_hal_gpio.c ****   
 518:Drivers/STM32F7xx_HAL_Driver/Src/stm32f7xx_hal_gpio.c ****   /* NOTE: This function Should not be modified, when the callback is needed,
 519:Drivers/STM32F7xx_HAL_Driver/Src/stm32f7xx_hal_gpio.c ****            the HAL_GPIO_EXTI_Callback could be implemented in the user file
 520:Drivers/STM32F7xx_HAL_Driver/Src/stm32f7xx_hal_gpio.c ****    */
 521:Drivers/STM32F7xx_HAL_Driver/Src/stm32f7xx_hal_gpio.c **** }
 1223              		.loc 1 521 0
 1224 000a 00BF     		nop
 1225 000c 0C37     		adds	r7, r7, #12
 1226              	.LCFI44:
 1227              		.cfi_def_cfa_offset 4
 1228 000e BD46     		mov	sp, r7
 1229              	.LCFI45:
 1230              		.cfi_def_cfa_register 13
 1231              		@ sp needed
 1232 0010 5DF8047B 		ldr	r7, [sp], #4
 1233              	.LCFI46:
 1234              		.cfi_restore 7
 1235              		.cfi_def_cfa_offset 0
 1236 0014 7047     		bx	lr
 1237              		.cfi_endproc
 1238              	.LFE145:
 1240              		.text
 1241              	.Letext0:
 1242              		.file 2 "/usr/include/newlib/machine/_default_types.h"
 1243              		.file 3 "/usr/include/newlib/sys/lock.h"
 1244              		.file 4 "/usr/include/newlib/sys/_types.h"
 1245              		.file 5 "/usr/lib/gcc/arm-none-eabi/7.3.1/include/stddef.h"
 1246              		.file 6 "/usr/include/newlib/sys/reent.h"
 1247              		.file 7 "/usr/include/newlib/sys/_stdint.h"
 1248              		.file 8 "Inc/main.h"
 1249              		.file 9 "Drivers/CMSIS/Include/core_cm7.h"
 1250              		.file 10 "Drivers/CMSIS/Device/ST/STM32F7xx/Include/system_stm32f7xx.h"
 1251              		.file 11 "Drivers/CMSIS/Device/ST/STM32F7xx/Include/stm32f746xx.h"
 1252              		.file 12 "Drivers/CMSIS/Device/ST/STM32F7xx/Include/stm32f7xx.h"
 1253              		.file 13 "Drivers/STM32F7xx_HAL_Driver/Inc/stm32f7xx_hal_def.h"
 1254              		.file 14 "Drivers/STM32F7xx_HAL_Driver/Inc/stm32f7xx_hal_gpio.h"
ARM GAS  /tmp/ccB7WBLo.s 			page 32

