ARM GAS  /tmp/cc8f1EWx.s 			page 1


   1              		.cpu cortex-m7
   2              		.eabi_attribute 27, 1
   3              		.eabi_attribute 28, 1
   4              		.eabi_attribute 20, 1
   5              		.eabi_attribute 21, 1
   6              		.eabi_attribute 23, 3
   7              		.eabi_attribute 24, 1
   8              		.eabi_attribute 25, 1
   9              		.eabi_attribute 26, 1
  10              		.eabi_attribute 30, 2
  11              		.eabi_attribute 34, 1
  12              		.eabi_attribute 18, 4
  13              		.file	"stm32f7xx_hal_flash.c"
  14              		.text
  15              	.Ltext0:
  16              		.cfi_sections	.debug_frame
  17              		.section	.text.HAL_FLASH_Program,"ax",%progbits
  18              		.align	1
  19              		.p2align 2,,3
  20              		.global	HAL_FLASH_Program
  21              		.syntax unified
  22              		.thumb
  23              		.thumb_func
  24              		.fpu fpv4-sp-d16
  26              	HAL_FLASH_Program:
  27              	.LFB138:
  28              		.file 1 "Drivers/STM32F7xx_HAL_Driver/Src/stm32f7xx_hal_flash.c"
   1:Drivers/STM32F7xx_HAL_Driver/Src/stm32f7xx_hal_flash.c **** /**
   2:Drivers/STM32F7xx_HAL_Driver/Src/stm32f7xx_hal_flash.c ****   ******************************************************************************
   3:Drivers/STM32F7xx_HAL_Driver/Src/stm32f7xx_hal_flash.c ****   * @file    stm32f7xx_hal_flash.c
   4:Drivers/STM32F7xx_HAL_Driver/Src/stm32f7xx_hal_flash.c ****   * @author  MCD Application Team
   5:Drivers/STM32F7xx_HAL_Driver/Src/stm32f7xx_hal_flash.c ****   * @brief   FLASH HAL module driver.
   6:Drivers/STM32F7xx_HAL_Driver/Src/stm32f7xx_hal_flash.c ****   *          This file provides firmware functions to manage the following 
   7:Drivers/STM32F7xx_HAL_Driver/Src/stm32f7xx_hal_flash.c ****   *          functionalities of the internal FLASH memory:
   8:Drivers/STM32F7xx_HAL_Driver/Src/stm32f7xx_hal_flash.c ****   *           + Program operations functions
   9:Drivers/STM32F7xx_HAL_Driver/Src/stm32f7xx_hal_flash.c ****   *           + Memory Control functions 
  10:Drivers/STM32F7xx_HAL_Driver/Src/stm32f7xx_hal_flash.c ****   *           + Peripheral Errors functions
  11:Drivers/STM32F7xx_HAL_Driver/Src/stm32f7xx_hal_flash.c ****   *         
  12:Drivers/STM32F7xx_HAL_Driver/Src/stm32f7xx_hal_flash.c ****   @verbatim
  13:Drivers/STM32F7xx_HAL_Driver/Src/stm32f7xx_hal_flash.c ****   ==============================================================================
  14:Drivers/STM32F7xx_HAL_Driver/Src/stm32f7xx_hal_flash.c ****                         ##### FLASH peripheral features #####
  15:Drivers/STM32F7xx_HAL_Driver/Src/stm32f7xx_hal_flash.c ****   ==============================================================================
  16:Drivers/STM32F7xx_HAL_Driver/Src/stm32f7xx_hal_flash.c ****            
  17:Drivers/STM32F7xx_HAL_Driver/Src/stm32f7xx_hal_flash.c ****   [..] The Flash memory interface manages CPU AHB I-Code and D-Code accesses 
  18:Drivers/STM32F7xx_HAL_Driver/Src/stm32f7xx_hal_flash.c ****        to the Flash memory. It implements the erase and program Flash memory operations 
  19:Drivers/STM32F7xx_HAL_Driver/Src/stm32f7xx_hal_flash.c ****        and the read and write protection mechanisms.
  20:Drivers/STM32F7xx_HAL_Driver/Src/stm32f7xx_hal_flash.c ****       
  21:Drivers/STM32F7xx_HAL_Driver/Src/stm32f7xx_hal_flash.c ****   [..] The Flash memory interface accelerates code execution with a system of instruction
  22:Drivers/STM32F7xx_HAL_Driver/Src/stm32f7xx_hal_flash.c ****        prefetch and cache lines. 
  23:Drivers/STM32F7xx_HAL_Driver/Src/stm32f7xx_hal_flash.c **** 
  24:Drivers/STM32F7xx_HAL_Driver/Src/stm32f7xx_hal_flash.c ****   [..] The FLASH main features are:
  25:Drivers/STM32F7xx_HAL_Driver/Src/stm32f7xx_hal_flash.c ****       (+) Flash memory read operations
  26:Drivers/STM32F7xx_HAL_Driver/Src/stm32f7xx_hal_flash.c ****       (+) Flash memory program/erase operations
  27:Drivers/STM32F7xx_HAL_Driver/Src/stm32f7xx_hal_flash.c ****       (+) Read / write protections
  28:Drivers/STM32F7xx_HAL_Driver/Src/stm32f7xx_hal_flash.c ****       (+) Prefetch on I-Code
  29:Drivers/STM32F7xx_HAL_Driver/Src/stm32f7xx_hal_flash.c ****       (+) 64 cache lines of 128 bits on I-Code
  30:Drivers/STM32F7xx_HAL_Driver/Src/stm32f7xx_hal_flash.c ****       (+) 8 cache lines of 128 bits on D-Code
ARM GAS  /tmp/cc8f1EWx.s 			page 2


  31:Drivers/STM32F7xx_HAL_Driver/Src/stm32f7xx_hal_flash.c ****       
  32:Drivers/STM32F7xx_HAL_Driver/Src/stm32f7xx_hal_flash.c ****                      ##### How to use this driver #####
  33:Drivers/STM32F7xx_HAL_Driver/Src/stm32f7xx_hal_flash.c ****   ==============================================================================
  34:Drivers/STM32F7xx_HAL_Driver/Src/stm32f7xx_hal_flash.c ****     [..]                             
  35:Drivers/STM32F7xx_HAL_Driver/Src/stm32f7xx_hal_flash.c ****       This driver provides functions and macros to configure and program the FLASH 
  36:Drivers/STM32F7xx_HAL_Driver/Src/stm32f7xx_hal_flash.c ****       memory of all STM32F7xx devices.
  37:Drivers/STM32F7xx_HAL_Driver/Src/stm32f7xx_hal_flash.c ****     
  38:Drivers/STM32F7xx_HAL_Driver/Src/stm32f7xx_hal_flash.c ****       (#) FLASH Memory IO Programming functions: 
  39:Drivers/STM32F7xx_HAL_Driver/Src/stm32f7xx_hal_flash.c ****            (++) Lock and Unlock the FLASH interface using HAL_FLASH_Unlock() and 
  40:Drivers/STM32F7xx_HAL_Driver/Src/stm32f7xx_hal_flash.c ****                 HAL_FLASH_Lock() functions
  41:Drivers/STM32F7xx_HAL_Driver/Src/stm32f7xx_hal_flash.c ****            (++) Program functions: byte, half word, word and double word
  42:Drivers/STM32F7xx_HAL_Driver/Src/stm32f7xx_hal_flash.c ****            (++) There Two modes of programming :
  43:Drivers/STM32F7xx_HAL_Driver/Src/stm32f7xx_hal_flash.c ****             (+++) Polling mode using HAL_FLASH_Program() function
  44:Drivers/STM32F7xx_HAL_Driver/Src/stm32f7xx_hal_flash.c ****             (+++) Interrupt mode using HAL_FLASH_Program_IT() function
  45:Drivers/STM32F7xx_HAL_Driver/Src/stm32f7xx_hal_flash.c ****     
  46:Drivers/STM32F7xx_HAL_Driver/Src/stm32f7xx_hal_flash.c ****       (#) Interrupts and flags management functions : 
  47:Drivers/STM32F7xx_HAL_Driver/Src/stm32f7xx_hal_flash.c ****            (++) Handle FLASH interrupts by calling HAL_FLASH_IRQHandler()
  48:Drivers/STM32F7xx_HAL_Driver/Src/stm32f7xx_hal_flash.c ****            (++) Wait for last FLASH operation according to its status
  49:Drivers/STM32F7xx_HAL_Driver/Src/stm32f7xx_hal_flash.c ****            (++) Get error flag status by calling HAL_SetErrorCode()          
  50:Drivers/STM32F7xx_HAL_Driver/Src/stm32f7xx_hal_flash.c ****     [..] 
  51:Drivers/STM32F7xx_HAL_Driver/Src/stm32f7xx_hal_flash.c ****       In addition to these functions, this driver includes a set of macros allowing
  52:Drivers/STM32F7xx_HAL_Driver/Src/stm32f7xx_hal_flash.c ****       to handle the following operations:
  53:Drivers/STM32F7xx_HAL_Driver/Src/stm32f7xx_hal_flash.c ****        (+) Set the latency
  54:Drivers/STM32F7xx_HAL_Driver/Src/stm32f7xx_hal_flash.c ****        (+) Enable/Disable the prefetch buffer
  55:Drivers/STM32F7xx_HAL_Driver/Src/stm32f7xx_hal_flash.c ****        (+) Enable/Disable the Instruction cache and the Data cache
  56:Drivers/STM32F7xx_HAL_Driver/Src/stm32f7xx_hal_flash.c ****        (+) Reset the Instruction cache and the Data cache
  57:Drivers/STM32F7xx_HAL_Driver/Src/stm32f7xx_hal_flash.c ****        (+) Enable/Disable the FLASH interrupts
  58:Drivers/STM32F7xx_HAL_Driver/Src/stm32f7xx_hal_flash.c ****        (+) Monitor the FLASH flags status
  59:Drivers/STM32F7xx_HAL_Driver/Src/stm32f7xx_hal_flash.c ****     [..]	   
  60:Drivers/STM32F7xx_HAL_Driver/Src/stm32f7xx_hal_flash.c **** 	(@) For any Flash memory program operation (erase or program), the CPU clock frequency
  61:Drivers/STM32F7xx_HAL_Driver/Src/stm32f7xx_hal_flash.c ****         (HCLK) must be at least 1MHz. 
  62:Drivers/STM32F7xx_HAL_Driver/Src/stm32f7xx_hal_flash.c **** 	(@) The contents of the Flash memory are not guaranteed if a device reset occurs during 
  63:Drivers/STM32F7xx_HAL_Driver/Src/stm32f7xx_hal_flash.c **** 	    a Flash memory operation.
  64:Drivers/STM32F7xx_HAL_Driver/Src/stm32f7xx_hal_flash.c ****     (@) Any attempt to read the Flash memory while it is being written or erased, causes the 
  65:Drivers/STM32F7xx_HAL_Driver/Src/stm32f7xx_hal_flash.c **** 	    bus to stall. Read operations are processed correctly once the program operation has 
  66:Drivers/STM32F7xx_HAL_Driver/Src/stm32f7xx_hal_flash.c **** 		completed. This means that code or data fetches cannot be performed while a write/erase 
  67:Drivers/STM32F7xx_HAL_Driver/Src/stm32f7xx_hal_flash.c **** 		operation is ongoing.
  68:Drivers/STM32F7xx_HAL_Driver/Src/stm32f7xx_hal_flash.c ****           
  69:Drivers/STM32F7xx_HAL_Driver/Src/stm32f7xx_hal_flash.c ****   @endverbatim
  70:Drivers/STM32F7xx_HAL_Driver/Src/stm32f7xx_hal_flash.c ****   ******************************************************************************
  71:Drivers/STM32F7xx_HAL_Driver/Src/stm32f7xx_hal_flash.c ****   * @attention
  72:Drivers/STM32F7xx_HAL_Driver/Src/stm32f7xx_hal_flash.c ****   *
  73:Drivers/STM32F7xx_HAL_Driver/Src/stm32f7xx_hal_flash.c ****   * <h2><center>&copy; COPYRIGHT(c) 2017 STMicroelectronics</center></h2>
  74:Drivers/STM32F7xx_HAL_Driver/Src/stm32f7xx_hal_flash.c ****   *
  75:Drivers/STM32F7xx_HAL_Driver/Src/stm32f7xx_hal_flash.c ****   * Redistribution and use in source and binary forms, with or without modification,
  76:Drivers/STM32F7xx_HAL_Driver/Src/stm32f7xx_hal_flash.c ****   * are permitted provided that the following conditions are met:
  77:Drivers/STM32F7xx_HAL_Driver/Src/stm32f7xx_hal_flash.c ****   *   1. Redistributions of source code must retain the above copyright notice,
  78:Drivers/STM32F7xx_HAL_Driver/Src/stm32f7xx_hal_flash.c ****   *      this list of conditions and the following disclaimer.
  79:Drivers/STM32F7xx_HAL_Driver/Src/stm32f7xx_hal_flash.c ****   *   2. Redistributions in binary form must reproduce the above copyright notice,
  80:Drivers/STM32F7xx_HAL_Driver/Src/stm32f7xx_hal_flash.c ****   *      this list of conditions and the following disclaimer in the documentation
  81:Drivers/STM32F7xx_HAL_Driver/Src/stm32f7xx_hal_flash.c ****   *      and/or other materials provided with the distribution.
  82:Drivers/STM32F7xx_HAL_Driver/Src/stm32f7xx_hal_flash.c ****   *   3. Neither the name of STMicroelectronics nor the names of its contributors
  83:Drivers/STM32F7xx_HAL_Driver/Src/stm32f7xx_hal_flash.c ****   *      may be used to endorse or promote products derived from this software
  84:Drivers/STM32F7xx_HAL_Driver/Src/stm32f7xx_hal_flash.c ****   *      without specific prior written permission.
  85:Drivers/STM32F7xx_HAL_Driver/Src/stm32f7xx_hal_flash.c ****   *
  86:Drivers/STM32F7xx_HAL_Driver/Src/stm32f7xx_hal_flash.c ****   * THIS SOFTWARE IS PROVIDED BY THE COPYRIGHT HOLDERS AND CONTRIBUTORS "AS IS"
  87:Drivers/STM32F7xx_HAL_Driver/Src/stm32f7xx_hal_flash.c ****   * AND ANY EXPRESS OR IMPLIED WARRANTIES, INCLUDING, BUT NOT LIMITED TO, THE
ARM GAS  /tmp/cc8f1EWx.s 			page 3


  88:Drivers/STM32F7xx_HAL_Driver/Src/stm32f7xx_hal_flash.c ****   * IMPLIED WARRANTIES OF MERCHANTABILITY AND FITNESS FOR A PARTICULAR PURPOSE ARE
  89:Drivers/STM32F7xx_HAL_Driver/Src/stm32f7xx_hal_flash.c ****   * DISCLAIMED. IN NO EVENT SHALL THE COPYRIGHT HOLDER OR CONTRIBUTORS BE LIABLE
  90:Drivers/STM32F7xx_HAL_Driver/Src/stm32f7xx_hal_flash.c ****   * FOR ANY DIRECT, INDIRECT, INCIDENTAL, SPECIAL, EXEMPLARY, OR CONSEQUENTIAL
  91:Drivers/STM32F7xx_HAL_Driver/Src/stm32f7xx_hal_flash.c ****   * DAMAGES (INCLUDING, BUT NOT LIMITED TO, PROCUREMENT OF SUBSTITUTE GOODS OR
  92:Drivers/STM32F7xx_HAL_Driver/Src/stm32f7xx_hal_flash.c ****   * SERVICES; LOSS OF USE, DATA, OR PROFITS; OR BUSINESS INTERRUPTION) HOWEVER
  93:Drivers/STM32F7xx_HAL_Driver/Src/stm32f7xx_hal_flash.c ****   * CAUSED AND ON ANY THEORY OF LIABILITY, WHETHER IN CONTRACT, STRICT LIABILITY,
  94:Drivers/STM32F7xx_HAL_Driver/Src/stm32f7xx_hal_flash.c ****   * OR TORT (INCLUDING NEGLIGENCE OR OTHERWISE) ARISING IN ANY WAY OUT OF THE USE
  95:Drivers/STM32F7xx_HAL_Driver/Src/stm32f7xx_hal_flash.c ****   * OF THIS SOFTWARE, EVEN IF ADVISED OF THE POSSIBILITY OF SUCH DAMAGE.
  96:Drivers/STM32F7xx_HAL_Driver/Src/stm32f7xx_hal_flash.c ****   *
  97:Drivers/STM32F7xx_HAL_Driver/Src/stm32f7xx_hal_flash.c ****   ******************************************************************************
  98:Drivers/STM32F7xx_HAL_Driver/Src/stm32f7xx_hal_flash.c ****   */ 
  99:Drivers/STM32F7xx_HAL_Driver/Src/stm32f7xx_hal_flash.c **** 
 100:Drivers/STM32F7xx_HAL_Driver/Src/stm32f7xx_hal_flash.c **** /* Includes ------------------------------------------------------------------*/
 101:Drivers/STM32F7xx_HAL_Driver/Src/stm32f7xx_hal_flash.c **** #include "stm32f7xx_hal.h"
 102:Drivers/STM32F7xx_HAL_Driver/Src/stm32f7xx_hal_flash.c **** 
 103:Drivers/STM32F7xx_HAL_Driver/Src/stm32f7xx_hal_flash.c **** /** @addtogroup STM32F7xx_HAL_Driver
 104:Drivers/STM32F7xx_HAL_Driver/Src/stm32f7xx_hal_flash.c ****   * @{
 105:Drivers/STM32F7xx_HAL_Driver/Src/stm32f7xx_hal_flash.c ****   */
 106:Drivers/STM32F7xx_HAL_Driver/Src/stm32f7xx_hal_flash.c **** 
 107:Drivers/STM32F7xx_HAL_Driver/Src/stm32f7xx_hal_flash.c **** /** @defgroup FLASH FLASH
 108:Drivers/STM32F7xx_HAL_Driver/Src/stm32f7xx_hal_flash.c ****   * @brief FLASH HAL module driver
 109:Drivers/STM32F7xx_HAL_Driver/Src/stm32f7xx_hal_flash.c ****   * @{
 110:Drivers/STM32F7xx_HAL_Driver/Src/stm32f7xx_hal_flash.c ****   */
 111:Drivers/STM32F7xx_HAL_Driver/Src/stm32f7xx_hal_flash.c **** 
 112:Drivers/STM32F7xx_HAL_Driver/Src/stm32f7xx_hal_flash.c **** #ifdef HAL_FLASH_MODULE_ENABLED
 113:Drivers/STM32F7xx_HAL_Driver/Src/stm32f7xx_hal_flash.c **** 
 114:Drivers/STM32F7xx_HAL_Driver/Src/stm32f7xx_hal_flash.c **** /* Private typedef -----------------------------------------------------------*/
 115:Drivers/STM32F7xx_HAL_Driver/Src/stm32f7xx_hal_flash.c **** /* Private define ------------------------------------------------------------*/
 116:Drivers/STM32F7xx_HAL_Driver/Src/stm32f7xx_hal_flash.c **** /** @addtogroup FLASH_Private_Constants
 117:Drivers/STM32F7xx_HAL_Driver/Src/stm32f7xx_hal_flash.c ****   * @{
 118:Drivers/STM32F7xx_HAL_Driver/Src/stm32f7xx_hal_flash.c ****   */
 119:Drivers/STM32F7xx_HAL_Driver/Src/stm32f7xx_hal_flash.c **** #define SECTOR_MASK               ((uint32_t)0xFFFFFF07U)
 120:Drivers/STM32F7xx_HAL_Driver/Src/stm32f7xx_hal_flash.c **** #define FLASH_TIMEOUT_VALUE       ((uint32_t)50000U)/* 50 s */
 121:Drivers/STM32F7xx_HAL_Driver/Src/stm32f7xx_hal_flash.c **** /**
 122:Drivers/STM32F7xx_HAL_Driver/Src/stm32f7xx_hal_flash.c ****   * @}
 123:Drivers/STM32F7xx_HAL_Driver/Src/stm32f7xx_hal_flash.c ****   */         
 124:Drivers/STM32F7xx_HAL_Driver/Src/stm32f7xx_hal_flash.c **** /* Private macro -------------------------------------------------------------*/
 125:Drivers/STM32F7xx_HAL_Driver/Src/stm32f7xx_hal_flash.c **** /* Private variables ---------------------------------------------------------*/
 126:Drivers/STM32F7xx_HAL_Driver/Src/stm32f7xx_hal_flash.c **** /** @addtogroup FLASH_Private_Variables
 127:Drivers/STM32F7xx_HAL_Driver/Src/stm32f7xx_hal_flash.c ****   * @{
 128:Drivers/STM32F7xx_HAL_Driver/Src/stm32f7xx_hal_flash.c ****   */
 129:Drivers/STM32F7xx_HAL_Driver/Src/stm32f7xx_hal_flash.c **** /* Variable used for Erase sectors under interruption */
 130:Drivers/STM32F7xx_HAL_Driver/Src/stm32f7xx_hal_flash.c **** FLASH_ProcessTypeDef pFlash;
 131:Drivers/STM32F7xx_HAL_Driver/Src/stm32f7xx_hal_flash.c **** /**
 132:Drivers/STM32F7xx_HAL_Driver/Src/stm32f7xx_hal_flash.c ****   * @}
 133:Drivers/STM32F7xx_HAL_Driver/Src/stm32f7xx_hal_flash.c ****   */
 134:Drivers/STM32F7xx_HAL_Driver/Src/stm32f7xx_hal_flash.c **** 
 135:Drivers/STM32F7xx_HAL_Driver/Src/stm32f7xx_hal_flash.c **** /* Private function prototypes -----------------------------------------------*/
 136:Drivers/STM32F7xx_HAL_Driver/Src/stm32f7xx_hal_flash.c **** /** @addtogroup FLASH_Private_Functions
 137:Drivers/STM32F7xx_HAL_Driver/Src/stm32f7xx_hal_flash.c ****   * @{
 138:Drivers/STM32F7xx_HAL_Driver/Src/stm32f7xx_hal_flash.c ****   */
 139:Drivers/STM32F7xx_HAL_Driver/Src/stm32f7xx_hal_flash.c **** /* Program operations */
 140:Drivers/STM32F7xx_HAL_Driver/Src/stm32f7xx_hal_flash.c **** static void   FLASH_Program_DoubleWord(uint32_t Address, uint64_t Data);
 141:Drivers/STM32F7xx_HAL_Driver/Src/stm32f7xx_hal_flash.c **** static void   FLASH_Program_Word(uint32_t Address, uint32_t Data);
 142:Drivers/STM32F7xx_HAL_Driver/Src/stm32f7xx_hal_flash.c **** static void   FLASH_Program_HalfWord(uint32_t Address, uint16_t Data);
 143:Drivers/STM32F7xx_HAL_Driver/Src/stm32f7xx_hal_flash.c **** static void   FLASH_Program_Byte(uint32_t Address, uint8_t Data);
 144:Drivers/STM32F7xx_HAL_Driver/Src/stm32f7xx_hal_flash.c **** static void   FLASH_SetErrorCode(void);
ARM GAS  /tmp/cc8f1EWx.s 			page 4


 145:Drivers/STM32F7xx_HAL_Driver/Src/stm32f7xx_hal_flash.c **** 
 146:Drivers/STM32F7xx_HAL_Driver/Src/stm32f7xx_hal_flash.c **** HAL_StatusTypeDef FLASH_WaitForLastOperation(uint32_t Timeout);
 147:Drivers/STM32F7xx_HAL_Driver/Src/stm32f7xx_hal_flash.c **** /**
 148:Drivers/STM32F7xx_HAL_Driver/Src/stm32f7xx_hal_flash.c ****   * @}
 149:Drivers/STM32F7xx_HAL_Driver/Src/stm32f7xx_hal_flash.c ****   */
 150:Drivers/STM32F7xx_HAL_Driver/Src/stm32f7xx_hal_flash.c **** 
 151:Drivers/STM32F7xx_HAL_Driver/Src/stm32f7xx_hal_flash.c **** /* Exported functions --------------------------------------------------------*/
 152:Drivers/STM32F7xx_HAL_Driver/Src/stm32f7xx_hal_flash.c **** /** @defgroup FLASH_Exported_Functions FLASH Exported Functions
 153:Drivers/STM32F7xx_HAL_Driver/Src/stm32f7xx_hal_flash.c ****   * @{
 154:Drivers/STM32F7xx_HAL_Driver/Src/stm32f7xx_hal_flash.c ****   */
 155:Drivers/STM32F7xx_HAL_Driver/Src/stm32f7xx_hal_flash.c ****   
 156:Drivers/STM32F7xx_HAL_Driver/Src/stm32f7xx_hal_flash.c **** /** @defgroup FLASH_Exported_Functions_Group1 Programming operation functions 
 157:Drivers/STM32F7xx_HAL_Driver/Src/stm32f7xx_hal_flash.c ****  *  @brief   Programming operation functions 
 158:Drivers/STM32F7xx_HAL_Driver/Src/stm32f7xx_hal_flash.c ****  *
 159:Drivers/STM32F7xx_HAL_Driver/Src/stm32f7xx_hal_flash.c **** @verbatim   
 160:Drivers/STM32F7xx_HAL_Driver/Src/stm32f7xx_hal_flash.c ****  ===============================================================================
 161:Drivers/STM32F7xx_HAL_Driver/Src/stm32f7xx_hal_flash.c ****                   ##### Programming operation functions #####
 162:Drivers/STM32F7xx_HAL_Driver/Src/stm32f7xx_hal_flash.c ****  ===============================================================================  
 163:Drivers/STM32F7xx_HAL_Driver/Src/stm32f7xx_hal_flash.c ****     [..]
 164:Drivers/STM32F7xx_HAL_Driver/Src/stm32f7xx_hal_flash.c ****     This subsection provides a set of functions allowing to manage the FLASH 
 165:Drivers/STM32F7xx_HAL_Driver/Src/stm32f7xx_hal_flash.c ****     program operations.
 166:Drivers/STM32F7xx_HAL_Driver/Src/stm32f7xx_hal_flash.c **** 
 167:Drivers/STM32F7xx_HAL_Driver/Src/stm32f7xx_hal_flash.c **** @endverbatim
 168:Drivers/STM32F7xx_HAL_Driver/Src/stm32f7xx_hal_flash.c ****   * @{
 169:Drivers/STM32F7xx_HAL_Driver/Src/stm32f7xx_hal_flash.c ****   */
 170:Drivers/STM32F7xx_HAL_Driver/Src/stm32f7xx_hal_flash.c **** 
 171:Drivers/STM32F7xx_HAL_Driver/Src/stm32f7xx_hal_flash.c **** /**
 172:Drivers/STM32F7xx_HAL_Driver/Src/stm32f7xx_hal_flash.c ****   * @brief  Program byte, halfword, word or double word at a specified address
 173:Drivers/STM32F7xx_HAL_Driver/Src/stm32f7xx_hal_flash.c ****   * @param  TypeProgram  Indicate the way to program at a specified address.
 174:Drivers/STM32F7xx_HAL_Driver/Src/stm32f7xx_hal_flash.c ****   *                           This parameter can be a value of @ref FLASH_Type_Program
 175:Drivers/STM32F7xx_HAL_Driver/Src/stm32f7xx_hal_flash.c ****   * @param  Address  specifies the address to be programmed.
 176:Drivers/STM32F7xx_HAL_Driver/Src/stm32f7xx_hal_flash.c ****   * @param  Data specifies the data to be programmed
 177:Drivers/STM32F7xx_HAL_Driver/Src/stm32f7xx_hal_flash.c ****   * 
 178:Drivers/STM32F7xx_HAL_Driver/Src/stm32f7xx_hal_flash.c ****   * @retval HAL_StatusTypeDef HAL Status
 179:Drivers/STM32F7xx_HAL_Driver/Src/stm32f7xx_hal_flash.c ****   */
 180:Drivers/STM32F7xx_HAL_Driver/Src/stm32f7xx_hal_flash.c **** HAL_StatusTypeDef HAL_FLASH_Program(uint32_t TypeProgram, uint32_t Address, uint64_t Data)
 181:Drivers/STM32F7xx_HAL_Driver/Src/stm32f7xx_hal_flash.c **** {
  29              		.loc 1 181 0
  30              		.cfi_startproc
  31              		@ args = 0, pretend = 0, frame = 0
  32              		@ frame_needed = 0, uses_anonymous_args = 0
  33              	.LVL0:
  34 0000 2DE9F84F 		push	{r3, r4, r5, r6, r7, r8, r9, r10, fp, lr}
  35              	.LCFI0:
  36              		.cfi_def_cfa_offset 40
  37              		.cfi_offset 3, -40
  38              		.cfi_offset 4, -36
  39              		.cfi_offset 5, -32
  40              		.cfi_offset 6, -28
  41              		.cfi_offset 7, -24
  42              		.cfi_offset 8, -20
  43              		.cfi_offset 9, -16
  44              		.cfi_offset 10, -12
  45              		.cfi_offset 11, -8
  46              		.cfi_offset 14, -4
 182:Drivers/STM32F7xx_HAL_Driver/Src/stm32f7xx_hal_flash.c ****   HAL_StatusTypeDef status = HAL_ERROR;
 183:Drivers/STM32F7xx_HAL_Driver/Src/stm32f7xx_hal_flash.c ****   
ARM GAS  /tmp/cc8f1EWx.s 			page 5


 184:Drivers/STM32F7xx_HAL_Driver/Src/stm32f7xx_hal_flash.c ****   /* Process Locked */
 185:Drivers/STM32F7xx_HAL_Driver/Src/stm32f7xx_hal_flash.c ****   __HAL_LOCK(&pFlash);
  47              		.loc 1 185 0
  48 0004 7D4F     		ldr	r7, .L69
  49 0006 3C7D     		ldrb	r4, [r7, #20]	@ zero_extendqisi2
  50 0008 012C     		cmp	r4, #1
  51 000a 5BD0     		beq	.L28
  52 000c 9B46     		mov	fp, r3
  53 000e 9146     		mov	r9, r2
  54              	.LBB70:
  55              	.LBB71:
 186:Drivers/STM32F7xx_HAL_Driver/Src/stm32f7xx_hal_flash.c **** 
 187:Drivers/STM32F7xx_HAL_Driver/Src/stm32f7xx_hal_flash.c ****   /* Check the parameters */
 188:Drivers/STM32F7xx_HAL_Driver/Src/stm32f7xx_hal_flash.c ****   assert_param(IS_FLASH_TYPEPROGRAM(TypeProgram));
 189:Drivers/STM32F7xx_HAL_Driver/Src/stm32f7xx_hal_flash.c **** 
 190:Drivers/STM32F7xx_HAL_Driver/Src/stm32f7xx_hal_flash.c ****   /* Wait for last operation to be completed */
 191:Drivers/STM32F7xx_HAL_Driver/Src/stm32f7xx_hal_flash.c ****   status = FLASH_WaitForLastOperation((uint32_t)FLASH_TIMEOUT_VALUE);
 192:Drivers/STM32F7xx_HAL_Driver/Src/stm32f7xx_hal_flash.c ****   
 193:Drivers/STM32F7xx_HAL_Driver/Src/stm32f7xx_hal_flash.c ****   if(status == HAL_OK)
 194:Drivers/STM32F7xx_HAL_Driver/Src/stm32f7xx_hal_flash.c ****   {
 195:Drivers/STM32F7xx_HAL_Driver/Src/stm32f7xx_hal_flash.c ****     switch(TypeProgram)
 196:Drivers/STM32F7xx_HAL_Driver/Src/stm32f7xx_hal_flash.c ****     {
 197:Drivers/STM32F7xx_HAL_Driver/Src/stm32f7xx_hal_flash.c ****       case FLASH_TYPEPROGRAM_BYTE :
 198:Drivers/STM32F7xx_HAL_Driver/Src/stm32f7xx_hal_flash.c ****       {
 199:Drivers/STM32F7xx_HAL_Driver/Src/stm32f7xx_hal_flash.c ****         /*Program byte (8-bit) at a specified address.*/
 200:Drivers/STM32F7xx_HAL_Driver/Src/stm32f7xx_hal_flash.c ****         FLASH_Program_Byte(Address, (uint8_t) Data);
 201:Drivers/STM32F7xx_HAL_Driver/Src/stm32f7xx_hal_flash.c ****         break;
 202:Drivers/STM32F7xx_HAL_Driver/Src/stm32f7xx_hal_flash.c ****       }
 203:Drivers/STM32F7xx_HAL_Driver/Src/stm32f7xx_hal_flash.c ****       
 204:Drivers/STM32F7xx_HAL_Driver/Src/stm32f7xx_hal_flash.c ****       case FLASH_TYPEPROGRAM_HALFWORD :
 205:Drivers/STM32F7xx_HAL_Driver/Src/stm32f7xx_hal_flash.c ****       {
 206:Drivers/STM32F7xx_HAL_Driver/Src/stm32f7xx_hal_flash.c ****         /*Program halfword (16-bit) at a specified address.*/
 207:Drivers/STM32F7xx_HAL_Driver/Src/stm32f7xx_hal_flash.c ****         FLASH_Program_HalfWord(Address, (uint16_t) Data);
 208:Drivers/STM32F7xx_HAL_Driver/Src/stm32f7xx_hal_flash.c ****         break;
 209:Drivers/STM32F7xx_HAL_Driver/Src/stm32f7xx_hal_flash.c ****       }
 210:Drivers/STM32F7xx_HAL_Driver/Src/stm32f7xx_hal_flash.c ****       
 211:Drivers/STM32F7xx_HAL_Driver/Src/stm32f7xx_hal_flash.c ****       case FLASH_TYPEPROGRAM_WORD :
 212:Drivers/STM32F7xx_HAL_Driver/Src/stm32f7xx_hal_flash.c ****       {
 213:Drivers/STM32F7xx_HAL_Driver/Src/stm32f7xx_hal_flash.c ****         /*Program word (32-bit) at a specified address.*/
 214:Drivers/STM32F7xx_HAL_Driver/Src/stm32f7xx_hal_flash.c ****         FLASH_Program_Word(Address, (uint32_t) Data);
 215:Drivers/STM32F7xx_HAL_Driver/Src/stm32f7xx_hal_flash.c ****         break;
 216:Drivers/STM32F7xx_HAL_Driver/Src/stm32f7xx_hal_flash.c ****       }
 217:Drivers/STM32F7xx_HAL_Driver/Src/stm32f7xx_hal_flash.c ****       
 218:Drivers/STM32F7xx_HAL_Driver/Src/stm32f7xx_hal_flash.c ****       case FLASH_TYPEPROGRAM_DOUBLEWORD :
 219:Drivers/STM32F7xx_HAL_Driver/Src/stm32f7xx_hal_flash.c ****       {
 220:Drivers/STM32F7xx_HAL_Driver/Src/stm32f7xx_hal_flash.c ****         /*Program double word (64-bit) at a specified address.*/
 221:Drivers/STM32F7xx_HAL_Driver/Src/stm32f7xx_hal_flash.c ****         FLASH_Program_DoubleWord(Address, Data);
 222:Drivers/STM32F7xx_HAL_Driver/Src/stm32f7xx_hal_flash.c ****         break;
 223:Drivers/STM32F7xx_HAL_Driver/Src/stm32f7xx_hal_flash.c ****       }
 224:Drivers/STM32F7xx_HAL_Driver/Src/stm32f7xx_hal_flash.c ****       default :
 225:Drivers/STM32F7xx_HAL_Driver/Src/stm32f7xx_hal_flash.c ****         break;
 226:Drivers/STM32F7xx_HAL_Driver/Src/stm32f7xx_hal_flash.c ****     }
 227:Drivers/STM32F7xx_HAL_Driver/Src/stm32f7xx_hal_flash.c ****     /* Wait for last operation to be completed */
 228:Drivers/STM32F7xx_HAL_Driver/Src/stm32f7xx_hal_flash.c ****     status = FLASH_WaitForLastOperation((uint32_t)FLASH_TIMEOUT_VALUE);
 229:Drivers/STM32F7xx_HAL_Driver/Src/stm32f7xx_hal_flash.c ****     
 230:Drivers/STM32F7xx_HAL_Driver/Src/stm32f7xx_hal_flash.c ****     /* If the program operation is completed, disable the PG Bit */
 231:Drivers/STM32F7xx_HAL_Driver/Src/stm32f7xx_hal_flash.c ****     FLASH->CR &= (~FLASH_CR_PG);
ARM GAS  /tmp/cc8f1EWx.s 			page 6


 232:Drivers/STM32F7xx_HAL_Driver/Src/stm32f7xx_hal_flash.c ****   }
 233:Drivers/STM32F7xx_HAL_Driver/Src/stm32f7xx_hal_flash.c **** 
 234:Drivers/STM32F7xx_HAL_Driver/Src/stm32f7xx_hal_flash.c ****   /* Process Unlocked */
 235:Drivers/STM32F7xx_HAL_Driver/Src/stm32f7xx_hal_flash.c ****   __HAL_UNLOCK(&pFlash);
 236:Drivers/STM32F7xx_HAL_Driver/Src/stm32f7xx_hal_flash.c **** 
 237:Drivers/STM32F7xx_HAL_Driver/Src/stm32f7xx_hal_flash.c ****   return status;
 238:Drivers/STM32F7xx_HAL_Driver/Src/stm32f7xx_hal_flash.c **** }
 239:Drivers/STM32F7xx_HAL_Driver/Src/stm32f7xx_hal_flash.c **** 
 240:Drivers/STM32F7xx_HAL_Driver/Src/stm32f7xx_hal_flash.c **** /**
 241:Drivers/STM32F7xx_HAL_Driver/Src/stm32f7xx_hal_flash.c ****   * @brief   Program byte, halfword, word or double word at a specified address  with interrupt ena
 242:Drivers/STM32F7xx_HAL_Driver/Src/stm32f7xx_hal_flash.c ****   * @param  TypeProgram  Indicate the way to program at a specified address.
 243:Drivers/STM32F7xx_HAL_Driver/Src/stm32f7xx_hal_flash.c ****   *                           This parameter can be a value of @ref FLASH_Type_Program
 244:Drivers/STM32F7xx_HAL_Driver/Src/stm32f7xx_hal_flash.c ****   * @param  Address  specifies the address to be programmed.
 245:Drivers/STM32F7xx_HAL_Driver/Src/stm32f7xx_hal_flash.c ****   * @param  Data specifies the data to be programmed
 246:Drivers/STM32F7xx_HAL_Driver/Src/stm32f7xx_hal_flash.c ****   * 
 247:Drivers/STM32F7xx_HAL_Driver/Src/stm32f7xx_hal_flash.c ****   * @retval HAL Status
 248:Drivers/STM32F7xx_HAL_Driver/Src/stm32f7xx_hal_flash.c ****   */
 249:Drivers/STM32F7xx_HAL_Driver/Src/stm32f7xx_hal_flash.c **** HAL_StatusTypeDef HAL_FLASH_Program_IT(uint32_t TypeProgram, uint32_t Address, uint64_t Data)
 250:Drivers/STM32F7xx_HAL_Driver/Src/stm32f7xx_hal_flash.c **** {
 251:Drivers/STM32F7xx_HAL_Driver/Src/stm32f7xx_hal_flash.c ****   HAL_StatusTypeDef status = HAL_OK;
 252:Drivers/STM32F7xx_HAL_Driver/Src/stm32f7xx_hal_flash.c ****   
 253:Drivers/STM32F7xx_HAL_Driver/Src/stm32f7xx_hal_flash.c ****   /* Process Locked */
 254:Drivers/STM32F7xx_HAL_Driver/Src/stm32f7xx_hal_flash.c ****   __HAL_LOCK(&pFlash);
 255:Drivers/STM32F7xx_HAL_Driver/Src/stm32f7xx_hal_flash.c **** 
 256:Drivers/STM32F7xx_HAL_Driver/Src/stm32f7xx_hal_flash.c ****   /* Check the parameters */
 257:Drivers/STM32F7xx_HAL_Driver/Src/stm32f7xx_hal_flash.c ****   assert_param(IS_FLASH_TYPEPROGRAM(TypeProgram));
 258:Drivers/STM32F7xx_HAL_Driver/Src/stm32f7xx_hal_flash.c **** 
 259:Drivers/STM32F7xx_HAL_Driver/Src/stm32f7xx_hal_flash.c ****   /* Enable End of FLASH Operation interrupt */
 260:Drivers/STM32F7xx_HAL_Driver/Src/stm32f7xx_hal_flash.c ****   __HAL_FLASH_ENABLE_IT(FLASH_IT_EOP);
 261:Drivers/STM32F7xx_HAL_Driver/Src/stm32f7xx_hal_flash.c ****   
 262:Drivers/STM32F7xx_HAL_Driver/Src/stm32f7xx_hal_flash.c ****   /* Enable Error source interrupt */
 263:Drivers/STM32F7xx_HAL_Driver/Src/stm32f7xx_hal_flash.c ****   __HAL_FLASH_ENABLE_IT(FLASH_IT_ERR);
 264:Drivers/STM32F7xx_HAL_Driver/Src/stm32f7xx_hal_flash.c ****   
 265:Drivers/STM32F7xx_HAL_Driver/Src/stm32f7xx_hal_flash.c ****   /* Clear pending flags (if any) */  
 266:Drivers/STM32F7xx_HAL_Driver/Src/stm32f7xx_hal_flash.c ****   __HAL_FLASH_CLEAR_FLAG(FLASH_FLAG_EOP    | FLASH_FLAG_OPERR | FLASH_FLAG_WRPERR |\
 267:Drivers/STM32F7xx_HAL_Driver/Src/stm32f7xx_hal_flash.c ****                          FLASH_FLAG_PGAERR | FLASH_FLAG_PGPERR| FLASH_FLAG_ERSERR);  
 268:Drivers/STM32F7xx_HAL_Driver/Src/stm32f7xx_hal_flash.c **** 
 269:Drivers/STM32F7xx_HAL_Driver/Src/stm32f7xx_hal_flash.c ****   pFlash.ProcedureOnGoing = FLASH_PROC_PROGRAM;
 270:Drivers/STM32F7xx_HAL_Driver/Src/stm32f7xx_hal_flash.c ****   pFlash.Address = Address;
 271:Drivers/STM32F7xx_HAL_Driver/Src/stm32f7xx_hal_flash.c ****   
 272:Drivers/STM32F7xx_HAL_Driver/Src/stm32f7xx_hal_flash.c ****   switch(TypeProgram)
 273:Drivers/STM32F7xx_HAL_Driver/Src/stm32f7xx_hal_flash.c ****   {
 274:Drivers/STM32F7xx_HAL_Driver/Src/stm32f7xx_hal_flash.c ****     case FLASH_TYPEPROGRAM_BYTE :
 275:Drivers/STM32F7xx_HAL_Driver/Src/stm32f7xx_hal_flash.c ****     {
 276:Drivers/STM32F7xx_HAL_Driver/Src/stm32f7xx_hal_flash.c ****       /*Program byte (8-bit) at a specified address.*/
 277:Drivers/STM32F7xx_HAL_Driver/Src/stm32f7xx_hal_flash.c ****       FLASH_Program_Byte(Address, (uint8_t) Data);
 278:Drivers/STM32F7xx_HAL_Driver/Src/stm32f7xx_hal_flash.c ****       break;
 279:Drivers/STM32F7xx_HAL_Driver/Src/stm32f7xx_hal_flash.c ****     }
 280:Drivers/STM32F7xx_HAL_Driver/Src/stm32f7xx_hal_flash.c ****     
 281:Drivers/STM32F7xx_HAL_Driver/Src/stm32f7xx_hal_flash.c ****     case FLASH_TYPEPROGRAM_HALFWORD :
 282:Drivers/STM32F7xx_HAL_Driver/Src/stm32f7xx_hal_flash.c ****     {
 283:Drivers/STM32F7xx_HAL_Driver/Src/stm32f7xx_hal_flash.c ****       /*Program halfword (16-bit) at a specified address.*/
 284:Drivers/STM32F7xx_HAL_Driver/Src/stm32f7xx_hal_flash.c ****       FLASH_Program_HalfWord(Address, (uint16_t) Data);
 285:Drivers/STM32F7xx_HAL_Driver/Src/stm32f7xx_hal_flash.c ****       break;
 286:Drivers/STM32F7xx_HAL_Driver/Src/stm32f7xx_hal_flash.c ****     }
 287:Drivers/STM32F7xx_HAL_Driver/Src/stm32f7xx_hal_flash.c ****     
 288:Drivers/STM32F7xx_HAL_Driver/Src/stm32f7xx_hal_flash.c ****     case FLASH_TYPEPROGRAM_WORD :
ARM GAS  /tmp/cc8f1EWx.s 			page 7


 289:Drivers/STM32F7xx_HAL_Driver/Src/stm32f7xx_hal_flash.c ****     {
 290:Drivers/STM32F7xx_HAL_Driver/Src/stm32f7xx_hal_flash.c ****       /*Program word (32-bit) at a specified address.*/
 291:Drivers/STM32F7xx_HAL_Driver/Src/stm32f7xx_hal_flash.c ****       FLASH_Program_Word(Address, (uint32_t) Data);
 292:Drivers/STM32F7xx_HAL_Driver/Src/stm32f7xx_hal_flash.c ****       break;
 293:Drivers/STM32F7xx_HAL_Driver/Src/stm32f7xx_hal_flash.c ****     }
 294:Drivers/STM32F7xx_HAL_Driver/Src/stm32f7xx_hal_flash.c ****     
 295:Drivers/STM32F7xx_HAL_Driver/Src/stm32f7xx_hal_flash.c ****     case FLASH_TYPEPROGRAM_DOUBLEWORD :
 296:Drivers/STM32F7xx_HAL_Driver/Src/stm32f7xx_hal_flash.c ****     {
 297:Drivers/STM32F7xx_HAL_Driver/Src/stm32f7xx_hal_flash.c ****       /*Program double word (64-bit) at a specified address.*/
 298:Drivers/STM32F7xx_HAL_Driver/Src/stm32f7xx_hal_flash.c ****       FLASH_Program_DoubleWord(Address, Data);
 299:Drivers/STM32F7xx_HAL_Driver/Src/stm32f7xx_hal_flash.c ****       break;
 300:Drivers/STM32F7xx_HAL_Driver/Src/stm32f7xx_hal_flash.c ****     }
 301:Drivers/STM32F7xx_HAL_Driver/Src/stm32f7xx_hal_flash.c ****     default :
 302:Drivers/STM32F7xx_HAL_Driver/Src/stm32f7xx_hal_flash.c ****       break;
 303:Drivers/STM32F7xx_HAL_Driver/Src/stm32f7xx_hal_flash.c ****   }
 304:Drivers/STM32F7xx_HAL_Driver/Src/stm32f7xx_hal_flash.c ****   return status;
 305:Drivers/STM32F7xx_HAL_Driver/Src/stm32f7xx_hal_flash.c **** }
 306:Drivers/STM32F7xx_HAL_Driver/Src/stm32f7xx_hal_flash.c **** 
 307:Drivers/STM32F7xx_HAL_Driver/Src/stm32f7xx_hal_flash.c **** /**
 308:Drivers/STM32F7xx_HAL_Driver/Src/stm32f7xx_hal_flash.c ****   * @brief This function handles FLASH interrupt request.
 309:Drivers/STM32F7xx_HAL_Driver/Src/stm32f7xx_hal_flash.c ****   * @retval None
 310:Drivers/STM32F7xx_HAL_Driver/Src/stm32f7xx_hal_flash.c ****   */
 311:Drivers/STM32F7xx_HAL_Driver/Src/stm32f7xx_hal_flash.c **** void HAL_FLASH_IRQHandler(void)
 312:Drivers/STM32F7xx_HAL_Driver/Src/stm32f7xx_hal_flash.c **** {
 313:Drivers/STM32F7xx_HAL_Driver/Src/stm32f7xx_hal_flash.c ****   uint32_t temp = 0;
 314:Drivers/STM32F7xx_HAL_Driver/Src/stm32f7xx_hal_flash.c ****   
 315:Drivers/STM32F7xx_HAL_Driver/Src/stm32f7xx_hal_flash.c ****   /* If the program operation is completed, disable the PG Bit */
 316:Drivers/STM32F7xx_HAL_Driver/Src/stm32f7xx_hal_flash.c ****   FLASH->CR &= (~FLASH_CR_PG);
 317:Drivers/STM32F7xx_HAL_Driver/Src/stm32f7xx_hal_flash.c **** 
 318:Drivers/STM32F7xx_HAL_Driver/Src/stm32f7xx_hal_flash.c ****   /* If the erase operation is completed, disable the SER Bit */
 319:Drivers/STM32F7xx_HAL_Driver/Src/stm32f7xx_hal_flash.c ****   FLASH->CR &= (~FLASH_CR_SER);
 320:Drivers/STM32F7xx_HAL_Driver/Src/stm32f7xx_hal_flash.c ****   FLASH->CR &= SECTOR_MASK; 
 321:Drivers/STM32F7xx_HAL_Driver/Src/stm32f7xx_hal_flash.c **** 
 322:Drivers/STM32F7xx_HAL_Driver/Src/stm32f7xx_hal_flash.c ****   /* if the erase operation is completed, disable the MER Bit */
 323:Drivers/STM32F7xx_HAL_Driver/Src/stm32f7xx_hal_flash.c ****   FLASH->CR &= (~FLASH_MER_BIT);
 324:Drivers/STM32F7xx_HAL_Driver/Src/stm32f7xx_hal_flash.c **** 
 325:Drivers/STM32F7xx_HAL_Driver/Src/stm32f7xx_hal_flash.c ****   /* Check FLASH End of Operation flag  */
 326:Drivers/STM32F7xx_HAL_Driver/Src/stm32f7xx_hal_flash.c ****   if(__HAL_FLASH_GET_FLAG(FLASH_FLAG_EOP) != RESET)
 327:Drivers/STM32F7xx_HAL_Driver/Src/stm32f7xx_hal_flash.c ****   {
 328:Drivers/STM32F7xx_HAL_Driver/Src/stm32f7xx_hal_flash.c ****     /* Clear FLASH End of Operation pending bit */
 329:Drivers/STM32F7xx_HAL_Driver/Src/stm32f7xx_hal_flash.c ****     __HAL_FLASH_CLEAR_FLAG(FLASH_FLAG_EOP);
 330:Drivers/STM32F7xx_HAL_Driver/Src/stm32f7xx_hal_flash.c ****     
 331:Drivers/STM32F7xx_HAL_Driver/Src/stm32f7xx_hal_flash.c ****     switch (pFlash.ProcedureOnGoing)
 332:Drivers/STM32F7xx_HAL_Driver/Src/stm32f7xx_hal_flash.c ****     {
 333:Drivers/STM32F7xx_HAL_Driver/Src/stm32f7xx_hal_flash.c ****       case FLASH_PROC_SECTERASE :
 334:Drivers/STM32F7xx_HAL_Driver/Src/stm32f7xx_hal_flash.c ****       {
 335:Drivers/STM32F7xx_HAL_Driver/Src/stm32f7xx_hal_flash.c ****         /* Nb of sector to erased can be decreased */
 336:Drivers/STM32F7xx_HAL_Driver/Src/stm32f7xx_hal_flash.c ****         pFlash.NbSectorsToErase--;
 337:Drivers/STM32F7xx_HAL_Driver/Src/stm32f7xx_hal_flash.c **** 
 338:Drivers/STM32F7xx_HAL_Driver/Src/stm32f7xx_hal_flash.c ****         /* Check if there are still sectors to erase */
 339:Drivers/STM32F7xx_HAL_Driver/Src/stm32f7xx_hal_flash.c ****         if(pFlash.NbSectorsToErase != 0)
 340:Drivers/STM32F7xx_HAL_Driver/Src/stm32f7xx_hal_flash.c ****         {
 341:Drivers/STM32F7xx_HAL_Driver/Src/stm32f7xx_hal_flash.c ****           temp = pFlash.Sector;
 342:Drivers/STM32F7xx_HAL_Driver/Src/stm32f7xx_hal_flash.c ****           /* Indicate user which sector has been erased */
 343:Drivers/STM32F7xx_HAL_Driver/Src/stm32f7xx_hal_flash.c ****           HAL_FLASH_EndOfOperationCallback(temp);
 344:Drivers/STM32F7xx_HAL_Driver/Src/stm32f7xx_hal_flash.c **** 
 345:Drivers/STM32F7xx_HAL_Driver/Src/stm32f7xx_hal_flash.c ****           /* Increment sector number */
ARM GAS  /tmp/cc8f1EWx.s 			page 8


 346:Drivers/STM32F7xx_HAL_Driver/Src/stm32f7xx_hal_flash.c ****           temp = ++pFlash.Sector;
 347:Drivers/STM32F7xx_HAL_Driver/Src/stm32f7xx_hal_flash.c ****           FLASH_Erase_Sector(temp, pFlash.VoltageForErase);
 348:Drivers/STM32F7xx_HAL_Driver/Src/stm32f7xx_hal_flash.c ****         }
 349:Drivers/STM32F7xx_HAL_Driver/Src/stm32f7xx_hal_flash.c ****         else
 350:Drivers/STM32F7xx_HAL_Driver/Src/stm32f7xx_hal_flash.c ****         {
 351:Drivers/STM32F7xx_HAL_Driver/Src/stm32f7xx_hal_flash.c ****           /* No more sectors to Erase, user callback can be called.*/
 352:Drivers/STM32F7xx_HAL_Driver/Src/stm32f7xx_hal_flash.c ****           /* Reset Sector and stop Erase sectors procedure */
 353:Drivers/STM32F7xx_HAL_Driver/Src/stm32f7xx_hal_flash.c ****           pFlash.Sector = temp = 0xFFFFFFFFU;
 354:Drivers/STM32F7xx_HAL_Driver/Src/stm32f7xx_hal_flash.c ****           /* FLASH EOP interrupt user callback */
 355:Drivers/STM32F7xx_HAL_Driver/Src/stm32f7xx_hal_flash.c ****           HAL_FLASH_EndOfOperationCallback(temp);
 356:Drivers/STM32F7xx_HAL_Driver/Src/stm32f7xx_hal_flash.c ****           /* Sector Erase procedure is completed */
 357:Drivers/STM32F7xx_HAL_Driver/Src/stm32f7xx_hal_flash.c ****           pFlash.ProcedureOnGoing = FLASH_PROC_NONE;
 358:Drivers/STM32F7xx_HAL_Driver/Src/stm32f7xx_hal_flash.c ****         }
 359:Drivers/STM32F7xx_HAL_Driver/Src/stm32f7xx_hal_flash.c ****         break;
 360:Drivers/STM32F7xx_HAL_Driver/Src/stm32f7xx_hal_flash.c ****       }
 361:Drivers/STM32F7xx_HAL_Driver/Src/stm32f7xx_hal_flash.c ****     
 362:Drivers/STM32F7xx_HAL_Driver/Src/stm32f7xx_hal_flash.c ****       case FLASH_PROC_MASSERASE :
 363:Drivers/STM32F7xx_HAL_Driver/Src/stm32f7xx_hal_flash.c ****       {
 364:Drivers/STM32F7xx_HAL_Driver/Src/stm32f7xx_hal_flash.c ****         /* MassErase ended. Return the selected bank : in this product we don't have Banks */
 365:Drivers/STM32F7xx_HAL_Driver/Src/stm32f7xx_hal_flash.c ****         /* FLASH EOP interrupt user callback */
 366:Drivers/STM32F7xx_HAL_Driver/Src/stm32f7xx_hal_flash.c ****         HAL_FLASH_EndOfOperationCallback(0);
 367:Drivers/STM32F7xx_HAL_Driver/Src/stm32f7xx_hal_flash.c ****         /* MAss Erase procedure is completed */
 368:Drivers/STM32F7xx_HAL_Driver/Src/stm32f7xx_hal_flash.c ****         pFlash.ProcedureOnGoing = FLASH_PROC_NONE;
 369:Drivers/STM32F7xx_HAL_Driver/Src/stm32f7xx_hal_flash.c ****         break;
 370:Drivers/STM32F7xx_HAL_Driver/Src/stm32f7xx_hal_flash.c ****       }
 371:Drivers/STM32F7xx_HAL_Driver/Src/stm32f7xx_hal_flash.c **** 
 372:Drivers/STM32F7xx_HAL_Driver/Src/stm32f7xx_hal_flash.c ****       case FLASH_PROC_PROGRAM :
 373:Drivers/STM32F7xx_HAL_Driver/Src/stm32f7xx_hal_flash.c ****       {
 374:Drivers/STM32F7xx_HAL_Driver/Src/stm32f7xx_hal_flash.c ****         /*Program ended. Return the selected address*/
 375:Drivers/STM32F7xx_HAL_Driver/Src/stm32f7xx_hal_flash.c ****         /* FLASH EOP interrupt user callback */
 376:Drivers/STM32F7xx_HAL_Driver/Src/stm32f7xx_hal_flash.c ****         HAL_FLASH_EndOfOperationCallback(pFlash.Address);
 377:Drivers/STM32F7xx_HAL_Driver/Src/stm32f7xx_hal_flash.c ****         /* Programming procedure is completed */
 378:Drivers/STM32F7xx_HAL_Driver/Src/stm32f7xx_hal_flash.c ****         pFlash.ProcedureOnGoing = FLASH_PROC_NONE;
 379:Drivers/STM32F7xx_HAL_Driver/Src/stm32f7xx_hal_flash.c ****         break;
 380:Drivers/STM32F7xx_HAL_Driver/Src/stm32f7xx_hal_flash.c ****       }
 381:Drivers/STM32F7xx_HAL_Driver/Src/stm32f7xx_hal_flash.c ****       default :
 382:Drivers/STM32F7xx_HAL_Driver/Src/stm32f7xx_hal_flash.c ****         break;
 383:Drivers/STM32F7xx_HAL_Driver/Src/stm32f7xx_hal_flash.c ****     }
 384:Drivers/STM32F7xx_HAL_Driver/Src/stm32f7xx_hal_flash.c ****   }
 385:Drivers/STM32F7xx_HAL_Driver/Src/stm32f7xx_hal_flash.c ****   
 386:Drivers/STM32F7xx_HAL_Driver/Src/stm32f7xx_hal_flash.c ****   /* Check FLASH operation error flags */
 387:Drivers/STM32F7xx_HAL_Driver/Src/stm32f7xx_hal_flash.c ****   if(__HAL_FLASH_GET_FLAG(FLASH_FLAG_ALL_ERRORS) != RESET)
 388:Drivers/STM32F7xx_HAL_Driver/Src/stm32f7xx_hal_flash.c ****   {
 389:Drivers/STM32F7xx_HAL_Driver/Src/stm32f7xx_hal_flash.c ****     switch (pFlash.ProcedureOnGoing)
 390:Drivers/STM32F7xx_HAL_Driver/Src/stm32f7xx_hal_flash.c ****     {
 391:Drivers/STM32F7xx_HAL_Driver/Src/stm32f7xx_hal_flash.c ****       case FLASH_PROC_SECTERASE :
 392:Drivers/STM32F7xx_HAL_Driver/Src/stm32f7xx_hal_flash.c ****       {
 393:Drivers/STM32F7xx_HAL_Driver/Src/stm32f7xx_hal_flash.c ****         /* return the faulty sector */
 394:Drivers/STM32F7xx_HAL_Driver/Src/stm32f7xx_hal_flash.c ****         temp = pFlash.Sector;
 395:Drivers/STM32F7xx_HAL_Driver/Src/stm32f7xx_hal_flash.c ****         pFlash.Sector = 0xFFFFFFFFU;
 396:Drivers/STM32F7xx_HAL_Driver/Src/stm32f7xx_hal_flash.c ****         break;
 397:Drivers/STM32F7xx_HAL_Driver/Src/stm32f7xx_hal_flash.c ****       }
 398:Drivers/STM32F7xx_HAL_Driver/Src/stm32f7xx_hal_flash.c ****       case FLASH_PROC_MASSERASE :
 399:Drivers/STM32F7xx_HAL_Driver/Src/stm32f7xx_hal_flash.c ****       {
 400:Drivers/STM32F7xx_HAL_Driver/Src/stm32f7xx_hal_flash.c ****         /* No return in case of Mass Erase */
 401:Drivers/STM32F7xx_HAL_Driver/Src/stm32f7xx_hal_flash.c ****         temp = 0;
 402:Drivers/STM32F7xx_HAL_Driver/Src/stm32f7xx_hal_flash.c ****         break;
ARM GAS  /tmp/cc8f1EWx.s 			page 9


 403:Drivers/STM32F7xx_HAL_Driver/Src/stm32f7xx_hal_flash.c ****       }
 404:Drivers/STM32F7xx_HAL_Driver/Src/stm32f7xx_hal_flash.c ****       case FLASH_PROC_PROGRAM :
 405:Drivers/STM32F7xx_HAL_Driver/Src/stm32f7xx_hal_flash.c ****       {
 406:Drivers/STM32F7xx_HAL_Driver/Src/stm32f7xx_hal_flash.c ****         /*return the faulty address*/
 407:Drivers/STM32F7xx_HAL_Driver/Src/stm32f7xx_hal_flash.c ****         temp = pFlash.Address;
 408:Drivers/STM32F7xx_HAL_Driver/Src/stm32f7xx_hal_flash.c ****         break;
 409:Drivers/STM32F7xx_HAL_Driver/Src/stm32f7xx_hal_flash.c ****       }
 410:Drivers/STM32F7xx_HAL_Driver/Src/stm32f7xx_hal_flash.c ****     default :
 411:Drivers/STM32F7xx_HAL_Driver/Src/stm32f7xx_hal_flash.c ****       break;
 412:Drivers/STM32F7xx_HAL_Driver/Src/stm32f7xx_hal_flash.c ****     }
 413:Drivers/STM32F7xx_HAL_Driver/Src/stm32f7xx_hal_flash.c ****     /*Save the Error code*/
 414:Drivers/STM32F7xx_HAL_Driver/Src/stm32f7xx_hal_flash.c ****     FLASH_SetErrorCode();
 415:Drivers/STM32F7xx_HAL_Driver/Src/stm32f7xx_hal_flash.c **** 
 416:Drivers/STM32F7xx_HAL_Driver/Src/stm32f7xx_hal_flash.c ****     /* FLASH error interrupt user callback */
 417:Drivers/STM32F7xx_HAL_Driver/Src/stm32f7xx_hal_flash.c ****     HAL_FLASH_OperationErrorCallback(temp);
 418:Drivers/STM32F7xx_HAL_Driver/Src/stm32f7xx_hal_flash.c **** 
 419:Drivers/STM32F7xx_HAL_Driver/Src/stm32f7xx_hal_flash.c ****     /*Stop the procedure ongoing */
 420:Drivers/STM32F7xx_HAL_Driver/Src/stm32f7xx_hal_flash.c ****     pFlash.ProcedureOnGoing = FLASH_PROC_NONE;
 421:Drivers/STM32F7xx_HAL_Driver/Src/stm32f7xx_hal_flash.c ****   }
 422:Drivers/STM32F7xx_HAL_Driver/Src/stm32f7xx_hal_flash.c ****   
 423:Drivers/STM32F7xx_HAL_Driver/Src/stm32f7xx_hal_flash.c ****   if(pFlash.ProcedureOnGoing == FLASH_PROC_NONE)
 424:Drivers/STM32F7xx_HAL_Driver/Src/stm32f7xx_hal_flash.c ****   {
 425:Drivers/STM32F7xx_HAL_Driver/Src/stm32f7xx_hal_flash.c ****     /* Disable End of FLASH Operation interrupt */
 426:Drivers/STM32F7xx_HAL_Driver/Src/stm32f7xx_hal_flash.c ****     __HAL_FLASH_DISABLE_IT(FLASH_IT_EOP);
 427:Drivers/STM32F7xx_HAL_Driver/Src/stm32f7xx_hal_flash.c **** 
 428:Drivers/STM32F7xx_HAL_Driver/Src/stm32f7xx_hal_flash.c ****     /* Disable Error source interrupt */
 429:Drivers/STM32F7xx_HAL_Driver/Src/stm32f7xx_hal_flash.c ****     __HAL_FLASH_DISABLE_IT(FLASH_IT_ERR);
 430:Drivers/STM32F7xx_HAL_Driver/Src/stm32f7xx_hal_flash.c **** 
 431:Drivers/STM32F7xx_HAL_Driver/Src/stm32f7xx_hal_flash.c ****     /* Process Unlocked */
 432:Drivers/STM32F7xx_HAL_Driver/Src/stm32f7xx_hal_flash.c ****     __HAL_UNLOCK(&pFlash);
 433:Drivers/STM32F7xx_HAL_Driver/Src/stm32f7xx_hal_flash.c ****   }
 434:Drivers/STM32F7xx_HAL_Driver/Src/stm32f7xx_hal_flash.c ****   
 435:Drivers/STM32F7xx_HAL_Driver/Src/stm32f7xx_hal_flash.c **** }
 436:Drivers/STM32F7xx_HAL_Driver/Src/stm32f7xx_hal_flash.c **** 
 437:Drivers/STM32F7xx_HAL_Driver/Src/stm32f7xx_hal_flash.c **** /**
 438:Drivers/STM32F7xx_HAL_Driver/Src/stm32f7xx_hal_flash.c ****   * @brief  FLASH end of operation interrupt callback
 439:Drivers/STM32F7xx_HAL_Driver/Src/stm32f7xx_hal_flash.c ****   * @param  ReturnValue The value saved in this parameter depends on the ongoing procedure
 440:Drivers/STM32F7xx_HAL_Driver/Src/stm32f7xx_hal_flash.c ****   *                 - Sectors Erase: Sector which has been erased (if 0xFFFFFFFF, it means that 
 441:Drivers/STM32F7xx_HAL_Driver/Src/stm32f7xx_hal_flash.c ****   *                                  all the selected sectors have been erased)
 442:Drivers/STM32F7xx_HAL_Driver/Src/stm32f7xx_hal_flash.c ****   *                 - Program      : Address which was selected for data program
 443:Drivers/STM32F7xx_HAL_Driver/Src/stm32f7xx_hal_flash.c ****   *                 - Mass Erase   : No return value expected
 444:Drivers/STM32F7xx_HAL_Driver/Src/stm32f7xx_hal_flash.c ****   * @retval None
 445:Drivers/STM32F7xx_HAL_Driver/Src/stm32f7xx_hal_flash.c ****   */
 446:Drivers/STM32F7xx_HAL_Driver/Src/stm32f7xx_hal_flash.c **** __weak void HAL_FLASH_EndOfOperationCallback(uint32_t ReturnValue)
 447:Drivers/STM32F7xx_HAL_Driver/Src/stm32f7xx_hal_flash.c **** {
 448:Drivers/STM32F7xx_HAL_Driver/Src/stm32f7xx_hal_flash.c ****   /* Prevent unused argument(s) compilation warning */
 449:Drivers/STM32F7xx_HAL_Driver/Src/stm32f7xx_hal_flash.c ****   UNUSED(ReturnValue);
 450:Drivers/STM32F7xx_HAL_Driver/Src/stm32f7xx_hal_flash.c ****   /* NOTE : This function Should not be modified, when the callback is needed,
 451:Drivers/STM32F7xx_HAL_Driver/Src/stm32f7xx_hal_flash.c ****   the HAL_FLASH_EndOfOperationCallback could be implemented in the user file
 452:Drivers/STM32F7xx_HAL_Driver/Src/stm32f7xx_hal_flash.c ****   */ 
 453:Drivers/STM32F7xx_HAL_Driver/Src/stm32f7xx_hal_flash.c **** }
 454:Drivers/STM32F7xx_HAL_Driver/Src/stm32f7xx_hal_flash.c **** 
 455:Drivers/STM32F7xx_HAL_Driver/Src/stm32f7xx_hal_flash.c **** /**
 456:Drivers/STM32F7xx_HAL_Driver/Src/stm32f7xx_hal_flash.c ****   * @brief  FLASH operation error interrupt callback
 457:Drivers/STM32F7xx_HAL_Driver/Src/stm32f7xx_hal_flash.c ****   * @param  ReturnValue The value saved in this parameter depends on the ongoing procedure
 458:Drivers/STM32F7xx_HAL_Driver/Src/stm32f7xx_hal_flash.c ****   *                 - Sectors Erase: Sector which has been erased (if 0xFFFFFFFF, it means that 
 459:Drivers/STM32F7xx_HAL_Driver/Src/stm32f7xx_hal_flash.c ****   *                                  all the selected sectors have been erased)
ARM GAS  /tmp/cc8f1EWx.s 			page 10


 460:Drivers/STM32F7xx_HAL_Driver/Src/stm32f7xx_hal_flash.c ****   *                 - Program      : Address which was selected for data program
 461:Drivers/STM32F7xx_HAL_Driver/Src/stm32f7xx_hal_flash.c ****   *                 - Mass Erase   : No return value expected
 462:Drivers/STM32F7xx_HAL_Driver/Src/stm32f7xx_hal_flash.c ****   * @retval None
 463:Drivers/STM32F7xx_HAL_Driver/Src/stm32f7xx_hal_flash.c ****   */
 464:Drivers/STM32F7xx_HAL_Driver/Src/stm32f7xx_hal_flash.c **** __weak void HAL_FLASH_OperationErrorCallback(uint32_t ReturnValue)
 465:Drivers/STM32F7xx_HAL_Driver/Src/stm32f7xx_hal_flash.c **** {
 466:Drivers/STM32F7xx_HAL_Driver/Src/stm32f7xx_hal_flash.c ****   /* Prevent unused argument(s) compilation warning */
 467:Drivers/STM32F7xx_HAL_Driver/Src/stm32f7xx_hal_flash.c ****   UNUSED(ReturnValue);
 468:Drivers/STM32F7xx_HAL_Driver/Src/stm32f7xx_hal_flash.c ****   /* NOTE : This function Should not be modified, when the callback is needed,
 469:Drivers/STM32F7xx_HAL_Driver/Src/stm32f7xx_hal_flash.c ****   the HAL_FLASH_OperationErrorCallback could be implemented in the user file
 470:Drivers/STM32F7xx_HAL_Driver/Src/stm32f7xx_hal_flash.c ****    */ 
 471:Drivers/STM32F7xx_HAL_Driver/Src/stm32f7xx_hal_flash.c **** }
 472:Drivers/STM32F7xx_HAL_Driver/Src/stm32f7xx_hal_flash.c **** 
 473:Drivers/STM32F7xx_HAL_Driver/Src/stm32f7xx_hal_flash.c **** /**
 474:Drivers/STM32F7xx_HAL_Driver/Src/stm32f7xx_hal_flash.c ****   * @}
 475:Drivers/STM32F7xx_HAL_Driver/Src/stm32f7xx_hal_flash.c ****   */
 476:Drivers/STM32F7xx_HAL_Driver/Src/stm32f7xx_hal_flash.c **** 
 477:Drivers/STM32F7xx_HAL_Driver/Src/stm32f7xx_hal_flash.c **** /** @defgroup FLASH_Exported_Functions_Group2 Peripheral Control functions 
 478:Drivers/STM32F7xx_HAL_Driver/Src/stm32f7xx_hal_flash.c ****  *  @brief   management functions 
 479:Drivers/STM32F7xx_HAL_Driver/Src/stm32f7xx_hal_flash.c ****  *
 480:Drivers/STM32F7xx_HAL_Driver/Src/stm32f7xx_hal_flash.c **** @verbatim   
 481:Drivers/STM32F7xx_HAL_Driver/Src/stm32f7xx_hal_flash.c ****  ===============================================================================
 482:Drivers/STM32F7xx_HAL_Driver/Src/stm32f7xx_hal_flash.c ****                       ##### Peripheral Control functions #####
 483:Drivers/STM32F7xx_HAL_Driver/Src/stm32f7xx_hal_flash.c ****  ===============================================================================  
 484:Drivers/STM32F7xx_HAL_Driver/Src/stm32f7xx_hal_flash.c ****     [..]
 485:Drivers/STM32F7xx_HAL_Driver/Src/stm32f7xx_hal_flash.c ****     This subsection provides a set of functions allowing to control the FLASH 
 486:Drivers/STM32F7xx_HAL_Driver/Src/stm32f7xx_hal_flash.c ****     memory operations.
 487:Drivers/STM32F7xx_HAL_Driver/Src/stm32f7xx_hal_flash.c **** 
 488:Drivers/STM32F7xx_HAL_Driver/Src/stm32f7xx_hal_flash.c **** @endverbatim
 489:Drivers/STM32F7xx_HAL_Driver/Src/stm32f7xx_hal_flash.c ****   * @{
 490:Drivers/STM32F7xx_HAL_Driver/Src/stm32f7xx_hal_flash.c ****   */
 491:Drivers/STM32F7xx_HAL_Driver/Src/stm32f7xx_hal_flash.c **** 
 492:Drivers/STM32F7xx_HAL_Driver/Src/stm32f7xx_hal_flash.c **** /**
 493:Drivers/STM32F7xx_HAL_Driver/Src/stm32f7xx_hal_flash.c ****   * @brief  Unlock the FLASH control register access
 494:Drivers/STM32F7xx_HAL_Driver/Src/stm32f7xx_hal_flash.c ****   * @retval HAL Status
 495:Drivers/STM32F7xx_HAL_Driver/Src/stm32f7xx_hal_flash.c ****   */
 496:Drivers/STM32F7xx_HAL_Driver/Src/stm32f7xx_hal_flash.c **** HAL_StatusTypeDef HAL_FLASH_Unlock(void)
 497:Drivers/STM32F7xx_HAL_Driver/Src/stm32f7xx_hal_flash.c **** {
 498:Drivers/STM32F7xx_HAL_Driver/Src/stm32f7xx_hal_flash.c ****   HAL_StatusTypeDef status = HAL_OK;
 499:Drivers/STM32F7xx_HAL_Driver/Src/stm32f7xx_hal_flash.c **** 
 500:Drivers/STM32F7xx_HAL_Driver/Src/stm32f7xx_hal_flash.c ****   if(READ_BIT(FLASH->CR, FLASH_CR_LOCK) != RESET)
 501:Drivers/STM32F7xx_HAL_Driver/Src/stm32f7xx_hal_flash.c ****   {
 502:Drivers/STM32F7xx_HAL_Driver/Src/stm32f7xx_hal_flash.c ****     /* Authorize the FLASH Registers access */
 503:Drivers/STM32F7xx_HAL_Driver/Src/stm32f7xx_hal_flash.c ****     WRITE_REG(FLASH->KEYR, FLASH_KEY1);
 504:Drivers/STM32F7xx_HAL_Driver/Src/stm32f7xx_hal_flash.c ****     WRITE_REG(FLASH->KEYR, FLASH_KEY2);
 505:Drivers/STM32F7xx_HAL_Driver/Src/stm32f7xx_hal_flash.c **** 
 506:Drivers/STM32F7xx_HAL_Driver/Src/stm32f7xx_hal_flash.c ****     /* Verify Flash is unlocked */
 507:Drivers/STM32F7xx_HAL_Driver/Src/stm32f7xx_hal_flash.c ****     if(READ_BIT(FLASH->CR, FLASH_CR_LOCK) != RESET)
 508:Drivers/STM32F7xx_HAL_Driver/Src/stm32f7xx_hal_flash.c ****     {
 509:Drivers/STM32F7xx_HAL_Driver/Src/stm32f7xx_hal_flash.c ****       status = HAL_ERROR;
 510:Drivers/STM32F7xx_HAL_Driver/Src/stm32f7xx_hal_flash.c ****     }
 511:Drivers/STM32F7xx_HAL_Driver/Src/stm32f7xx_hal_flash.c ****   }
 512:Drivers/STM32F7xx_HAL_Driver/Src/stm32f7xx_hal_flash.c **** 
 513:Drivers/STM32F7xx_HAL_Driver/Src/stm32f7xx_hal_flash.c ****   return status;
 514:Drivers/STM32F7xx_HAL_Driver/Src/stm32f7xx_hal_flash.c **** }
 515:Drivers/STM32F7xx_HAL_Driver/Src/stm32f7xx_hal_flash.c **** 
 516:Drivers/STM32F7xx_HAL_Driver/Src/stm32f7xx_hal_flash.c **** /**
ARM GAS  /tmp/cc8f1EWx.s 			page 11


 517:Drivers/STM32F7xx_HAL_Driver/Src/stm32f7xx_hal_flash.c ****   * @brief  Locks the FLASH control register access
 518:Drivers/STM32F7xx_HAL_Driver/Src/stm32f7xx_hal_flash.c ****   * @retval HAL Status
 519:Drivers/STM32F7xx_HAL_Driver/Src/stm32f7xx_hal_flash.c ****   */
 520:Drivers/STM32F7xx_HAL_Driver/Src/stm32f7xx_hal_flash.c **** HAL_StatusTypeDef HAL_FLASH_Lock(void)
 521:Drivers/STM32F7xx_HAL_Driver/Src/stm32f7xx_hal_flash.c **** {
 522:Drivers/STM32F7xx_HAL_Driver/Src/stm32f7xx_hal_flash.c ****   /* Set the LOCK Bit to lock the FLASH Registers access */
 523:Drivers/STM32F7xx_HAL_Driver/Src/stm32f7xx_hal_flash.c ****   FLASH->CR |= FLASH_CR_LOCK;
 524:Drivers/STM32F7xx_HAL_Driver/Src/stm32f7xx_hal_flash.c ****   
 525:Drivers/STM32F7xx_HAL_Driver/Src/stm32f7xx_hal_flash.c ****   return HAL_OK;  
 526:Drivers/STM32F7xx_HAL_Driver/Src/stm32f7xx_hal_flash.c **** }
 527:Drivers/STM32F7xx_HAL_Driver/Src/stm32f7xx_hal_flash.c **** 
 528:Drivers/STM32F7xx_HAL_Driver/Src/stm32f7xx_hal_flash.c **** /**
 529:Drivers/STM32F7xx_HAL_Driver/Src/stm32f7xx_hal_flash.c ****   * @brief  Unlock the FLASH Option Control Registers access.
 530:Drivers/STM32F7xx_HAL_Driver/Src/stm32f7xx_hal_flash.c ****   * @retval HAL Status
 531:Drivers/STM32F7xx_HAL_Driver/Src/stm32f7xx_hal_flash.c ****   */
 532:Drivers/STM32F7xx_HAL_Driver/Src/stm32f7xx_hal_flash.c **** HAL_StatusTypeDef HAL_FLASH_OB_Unlock(void)
 533:Drivers/STM32F7xx_HAL_Driver/Src/stm32f7xx_hal_flash.c **** {
 534:Drivers/STM32F7xx_HAL_Driver/Src/stm32f7xx_hal_flash.c ****   if((FLASH->OPTCR & FLASH_OPTCR_OPTLOCK) != RESET)
 535:Drivers/STM32F7xx_HAL_Driver/Src/stm32f7xx_hal_flash.c ****   {
 536:Drivers/STM32F7xx_HAL_Driver/Src/stm32f7xx_hal_flash.c ****     /* Authorizes the Option Byte register programming */
 537:Drivers/STM32F7xx_HAL_Driver/Src/stm32f7xx_hal_flash.c ****     FLASH->OPTKEYR = FLASH_OPT_KEY1;
 538:Drivers/STM32F7xx_HAL_Driver/Src/stm32f7xx_hal_flash.c ****     FLASH->OPTKEYR = FLASH_OPT_KEY2;
 539:Drivers/STM32F7xx_HAL_Driver/Src/stm32f7xx_hal_flash.c ****   }
 540:Drivers/STM32F7xx_HAL_Driver/Src/stm32f7xx_hal_flash.c ****   else
 541:Drivers/STM32F7xx_HAL_Driver/Src/stm32f7xx_hal_flash.c ****   {
 542:Drivers/STM32F7xx_HAL_Driver/Src/stm32f7xx_hal_flash.c ****     return HAL_ERROR;
 543:Drivers/STM32F7xx_HAL_Driver/Src/stm32f7xx_hal_flash.c ****   }  
 544:Drivers/STM32F7xx_HAL_Driver/Src/stm32f7xx_hal_flash.c ****   
 545:Drivers/STM32F7xx_HAL_Driver/Src/stm32f7xx_hal_flash.c ****   return HAL_OK;  
 546:Drivers/STM32F7xx_HAL_Driver/Src/stm32f7xx_hal_flash.c **** }
 547:Drivers/STM32F7xx_HAL_Driver/Src/stm32f7xx_hal_flash.c **** 
 548:Drivers/STM32F7xx_HAL_Driver/Src/stm32f7xx_hal_flash.c **** /**
 549:Drivers/STM32F7xx_HAL_Driver/Src/stm32f7xx_hal_flash.c ****   * @brief  Lock the FLASH Option Control Registers access.
 550:Drivers/STM32F7xx_HAL_Driver/Src/stm32f7xx_hal_flash.c ****   * @retval HAL Status 
 551:Drivers/STM32F7xx_HAL_Driver/Src/stm32f7xx_hal_flash.c ****   */
 552:Drivers/STM32F7xx_HAL_Driver/Src/stm32f7xx_hal_flash.c **** HAL_StatusTypeDef HAL_FLASH_OB_Lock(void)
 553:Drivers/STM32F7xx_HAL_Driver/Src/stm32f7xx_hal_flash.c **** {
 554:Drivers/STM32F7xx_HAL_Driver/Src/stm32f7xx_hal_flash.c ****   /* Set the OPTLOCK Bit to lock the FLASH Option Byte Registers access */
 555:Drivers/STM32F7xx_HAL_Driver/Src/stm32f7xx_hal_flash.c ****   FLASH->OPTCR |= FLASH_OPTCR_OPTLOCK;
 556:Drivers/STM32F7xx_HAL_Driver/Src/stm32f7xx_hal_flash.c ****   
 557:Drivers/STM32F7xx_HAL_Driver/Src/stm32f7xx_hal_flash.c ****   return HAL_OK;  
 558:Drivers/STM32F7xx_HAL_Driver/Src/stm32f7xx_hal_flash.c **** }
 559:Drivers/STM32F7xx_HAL_Driver/Src/stm32f7xx_hal_flash.c **** 
 560:Drivers/STM32F7xx_HAL_Driver/Src/stm32f7xx_hal_flash.c **** /**
 561:Drivers/STM32F7xx_HAL_Driver/Src/stm32f7xx_hal_flash.c ****   * @brief  Launch the option byte loading.
 562:Drivers/STM32F7xx_HAL_Driver/Src/stm32f7xx_hal_flash.c ****   * @retval HAL Status
 563:Drivers/STM32F7xx_HAL_Driver/Src/stm32f7xx_hal_flash.c ****   */
 564:Drivers/STM32F7xx_HAL_Driver/Src/stm32f7xx_hal_flash.c **** HAL_StatusTypeDef HAL_FLASH_OB_Launch(void)
 565:Drivers/STM32F7xx_HAL_Driver/Src/stm32f7xx_hal_flash.c **** {
 566:Drivers/STM32F7xx_HAL_Driver/Src/stm32f7xx_hal_flash.c ****   /* Set the OPTSTRT bit in OPTCR register */
 567:Drivers/STM32F7xx_HAL_Driver/Src/stm32f7xx_hal_flash.c ****   FLASH->OPTCR |= FLASH_OPTCR_OPTSTRT;
 568:Drivers/STM32F7xx_HAL_Driver/Src/stm32f7xx_hal_flash.c **** 
 569:Drivers/STM32F7xx_HAL_Driver/Src/stm32f7xx_hal_flash.c ****   /* Wait for last operation to be completed */
 570:Drivers/STM32F7xx_HAL_Driver/Src/stm32f7xx_hal_flash.c ****   return(FLASH_WaitForLastOperation((uint32_t)FLASH_TIMEOUT_VALUE)); 
 571:Drivers/STM32F7xx_HAL_Driver/Src/stm32f7xx_hal_flash.c **** }
 572:Drivers/STM32F7xx_HAL_Driver/Src/stm32f7xx_hal_flash.c **** 
 573:Drivers/STM32F7xx_HAL_Driver/Src/stm32f7xx_hal_flash.c **** /**
ARM GAS  /tmp/cc8f1EWx.s 			page 12


 574:Drivers/STM32F7xx_HAL_Driver/Src/stm32f7xx_hal_flash.c ****   * @}
 575:Drivers/STM32F7xx_HAL_Driver/Src/stm32f7xx_hal_flash.c ****   */
 576:Drivers/STM32F7xx_HAL_Driver/Src/stm32f7xx_hal_flash.c **** 
 577:Drivers/STM32F7xx_HAL_Driver/Src/stm32f7xx_hal_flash.c **** /** @defgroup FLASH_Exported_Functions_Group3 Peripheral State and Errors functions 
 578:Drivers/STM32F7xx_HAL_Driver/Src/stm32f7xx_hal_flash.c ****  *  @brief   Peripheral Errors functions 
 579:Drivers/STM32F7xx_HAL_Driver/Src/stm32f7xx_hal_flash.c ****  *
 580:Drivers/STM32F7xx_HAL_Driver/Src/stm32f7xx_hal_flash.c **** @verbatim   
 581:Drivers/STM32F7xx_HAL_Driver/Src/stm32f7xx_hal_flash.c ****  ===============================================================================
 582:Drivers/STM32F7xx_HAL_Driver/Src/stm32f7xx_hal_flash.c ****                 ##### Peripheral Errors functions #####
 583:Drivers/STM32F7xx_HAL_Driver/Src/stm32f7xx_hal_flash.c ****  ===============================================================================  
 584:Drivers/STM32F7xx_HAL_Driver/Src/stm32f7xx_hal_flash.c ****     [..]
 585:Drivers/STM32F7xx_HAL_Driver/Src/stm32f7xx_hal_flash.c ****     This subsection permits to get in run-time Errors of the FLASH peripheral.
 586:Drivers/STM32F7xx_HAL_Driver/Src/stm32f7xx_hal_flash.c **** 
 587:Drivers/STM32F7xx_HAL_Driver/Src/stm32f7xx_hal_flash.c **** @endverbatim
 588:Drivers/STM32F7xx_HAL_Driver/Src/stm32f7xx_hal_flash.c ****   * @{
 589:Drivers/STM32F7xx_HAL_Driver/Src/stm32f7xx_hal_flash.c ****   */
 590:Drivers/STM32F7xx_HAL_Driver/Src/stm32f7xx_hal_flash.c **** 
 591:Drivers/STM32F7xx_HAL_Driver/Src/stm32f7xx_hal_flash.c **** /**
 592:Drivers/STM32F7xx_HAL_Driver/Src/stm32f7xx_hal_flash.c ****   * @brief  Get the specific FLASH error flag.
 593:Drivers/STM32F7xx_HAL_Driver/Src/stm32f7xx_hal_flash.c ****   * @retval FLASH_ErrorCode: The returned value can be:
 594:Drivers/STM32F7xx_HAL_Driver/Src/stm32f7xx_hal_flash.c ****   *            @arg FLASH_ERROR_ERS: FLASH Erasing Sequence error flag 
 595:Drivers/STM32F7xx_HAL_Driver/Src/stm32f7xx_hal_flash.c ****   *            @arg FLASH_ERROR_PGP: FLASH Programming Parallelism error flag  
 596:Drivers/STM32F7xx_HAL_Driver/Src/stm32f7xx_hal_flash.c ****   *            @arg FLASH_ERROR_PGA: FLASH Programming Alignment error flag
 597:Drivers/STM32F7xx_HAL_Driver/Src/stm32f7xx_hal_flash.c ****   *            @arg FLASH_ERROR_WRP: FLASH Write protected error flag
 598:Drivers/STM32F7xx_HAL_Driver/Src/stm32f7xx_hal_flash.c ****   *            @arg FLASH_ERROR_OPERATION: FLASH operation Error flag 
 599:Drivers/STM32F7xx_HAL_Driver/Src/stm32f7xx_hal_flash.c ****   */
 600:Drivers/STM32F7xx_HAL_Driver/Src/stm32f7xx_hal_flash.c **** uint32_t HAL_FLASH_GetError(void)
 601:Drivers/STM32F7xx_HAL_Driver/Src/stm32f7xx_hal_flash.c **** { 
 602:Drivers/STM32F7xx_HAL_Driver/Src/stm32f7xx_hal_flash.c ****    return pFlash.ErrorCode;
 603:Drivers/STM32F7xx_HAL_Driver/Src/stm32f7xx_hal_flash.c **** }  
 604:Drivers/STM32F7xx_HAL_Driver/Src/stm32f7xx_hal_flash.c ****   
 605:Drivers/STM32F7xx_HAL_Driver/Src/stm32f7xx_hal_flash.c **** /**
 606:Drivers/STM32F7xx_HAL_Driver/Src/stm32f7xx_hal_flash.c ****   * @}
 607:Drivers/STM32F7xx_HAL_Driver/Src/stm32f7xx_hal_flash.c ****   */    
 608:Drivers/STM32F7xx_HAL_Driver/Src/stm32f7xx_hal_flash.c **** 
 609:Drivers/STM32F7xx_HAL_Driver/Src/stm32f7xx_hal_flash.c **** /**
 610:Drivers/STM32F7xx_HAL_Driver/Src/stm32f7xx_hal_flash.c ****   * @brief  Wait for a FLASH operation to complete.
 611:Drivers/STM32F7xx_HAL_Driver/Src/stm32f7xx_hal_flash.c ****   * @param  Timeout maximum flash operationtimeout
 612:Drivers/STM32F7xx_HAL_Driver/Src/stm32f7xx_hal_flash.c ****   * @retval HAL Status
 613:Drivers/STM32F7xx_HAL_Driver/Src/stm32f7xx_hal_flash.c ****   */
 614:Drivers/STM32F7xx_HAL_Driver/Src/stm32f7xx_hal_flash.c **** HAL_StatusTypeDef FLASH_WaitForLastOperation(uint32_t Timeout)
 615:Drivers/STM32F7xx_HAL_Driver/Src/stm32f7xx_hal_flash.c **** { 
 616:Drivers/STM32F7xx_HAL_Driver/Src/stm32f7xx_hal_flash.c ****   uint32_t tickstart = 0;
 617:Drivers/STM32F7xx_HAL_Driver/Src/stm32f7xx_hal_flash.c ****   
 618:Drivers/STM32F7xx_HAL_Driver/Src/stm32f7xx_hal_flash.c ****   /* Clear Error Code */
 619:Drivers/STM32F7xx_HAL_Driver/Src/stm32f7xx_hal_flash.c ****   pFlash.ErrorCode = HAL_FLASH_ERROR_NONE;
  56              		.loc 1 619 0 discriminator 2
  57 0010 0023     		movs	r3, #0
  58              	.LBE71:
  59              	.LBE70:
 185:Drivers/STM32F7xx_HAL_Driver/Src/stm32f7xx_hal_flash.c **** 
  60              		.loc 1 185 0 discriminator 2
  61 0012 0122     		movs	r2, #1
  62              	.LVL1:
  63 0014 8A46     		mov	r10, r1
  64 0016 8046     		mov	r8, r0
  65 0018 3A75     		strb	r2, [r7, #20]
ARM GAS  /tmp/cc8f1EWx.s 			page 13


  66              	.LVL2:
  67              	.LBB83:
  68              	.LBB80:
 620:Drivers/STM32F7xx_HAL_Driver/Src/stm32f7xx_hal_flash.c ****   
 621:Drivers/STM32F7xx_HAL_Driver/Src/stm32f7xx_hal_flash.c ****   /* Wait for the FLASH operation to complete by polling on BUSY flag to be reset.
 622:Drivers/STM32F7xx_HAL_Driver/Src/stm32f7xx_hal_flash.c ****      Even if the FLASH operation fails, the BUSY flag will be reset and an error
 623:Drivers/STM32F7xx_HAL_Driver/Src/stm32f7xx_hal_flash.c ****      flag will be set */
 624:Drivers/STM32F7xx_HAL_Driver/Src/stm32f7xx_hal_flash.c ****   /* Get tick */
 625:Drivers/STM32F7xx_HAL_Driver/Src/stm32f7xx_hal_flash.c ****   tickstart = HAL_GetTick();
 626:Drivers/STM32F7xx_HAL_Driver/Src/stm32f7xx_hal_flash.c **** 
 627:Drivers/STM32F7xx_HAL_Driver/Src/stm32f7xx_hal_flash.c ****   while(__HAL_FLASH_GET_FLAG(FLASH_FLAG_BSY) != RESET) 
 628:Drivers/STM32F7xx_HAL_Driver/Src/stm32f7xx_hal_flash.c ****   { 
 629:Drivers/STM32F7xx_HAL_Driver/Src/stm32f7xx_hal_flash.c ****     if(Timeout != HAL_MAX_DELAY)
 630:Drivers/STM32F7xx_HAL_Driver/Src/stm32f7xx_hal_flash.c ****     {
 631:Drivers/STM32F7xx_HAL_Driver/Src/stm32f7xx_hal_flash.c ****       if((Timeout == 0)||((HAL_GetTick() - tickstart ) > Timeout))
  69              		.loc 1 631 0 discriminator 2
  70 001a 4CF25036 		movw	r6, #50000
 619:Drivers/STM32F7xx_HAL_Driver/Src/stm32f7xx_hal_flash.c ****   
  71              		.loc 1 619 0 discriminator 2
  72 001e BB61     		str	r3, [r7, #24]
 625:Drivers/STM32F7xx_HAL_Driver/Src/stm32f7xx_hal_flash.c **** 
  73              		.loc 1 625 0 discriminator 2
  74 0020 FFF7FEFF 		bl	HAL_GetTick
  75              	.LVL3:
 627:Drivers/STM32F7xx_HAL_Driver/Src/stm32f7xx_hal_flash.c ****   { 
  76              		.loc 1 627 0 discriminator 2
  77 0024 764C     		ldr	r4, .L69+4
 625:Drivers/STM32F7xx_HAL_Driver/Src/stm32f7xx_hal_flash.c **** 
  78              		.loc 1 625 0 discriminator 2
  79 0026 0546     		mov	r5, r0
  80              	.LVL4:
  81 0028 04E0     		b	.L3
  82              	.LVL5:
  83              	.L5:
  84              		.loc 1 631 0
  85 002a FFF7FEFF 		bl	HAL_GetTick
  86              	.LVL6:
  87 002e 401B     		subs	r0, r0, r5
  88 0030 B042     		cmp	r0, r6
  89 0032 4AD8     		bhi	.L29
  90              	.L3:
 627:Drivers/STM32F7xx_HAL_Driver/Src/stm32f7xx_hal_flash.c ****   { 
  91              		.loc 1 627 0
  92 0034 E368     		ldr	r3, [r4, #12]
  93 0036 DB03     		lsls	r3, r3, #15
  94 0038 F7D4     		bmi	.L5
 632:Drivers/STM32F7xx_HAL_Driver/Src/stm32f7xx_hal_flash.c ****       {
 633:Drivers/STM32F7xx_HAL_Driver/Src/stm32f7xx_hal_flash.c ****         return HAL_TIMEOUT;
 634:Drivers/STM32F7xx_HAL_Driver/Src/stm32f7xx_hal_flash.c ****       }
 635:Drivers/STM32F7xx_HAL_Driver/Src/stm32f7xx_hal_flash.c ****     } 
 636:Drivers/STM32F7xx_HAL_Driver/Src/stm32f7xx_hal_flash.c ****   }
 637:Drivers/STM32F7xx_HAL_Driver/Src/stm32f7xx_hal_flash.c ****   
 638:Drivers/STM32F7xx_HAL_Driver/Src/stm32f7xx_hal_flash.c ****   if(__HAL_FLASH_GET_FLAG(FLASH_FLAG_ALL_ERRORS) != RESET)
  95              		.loc 1 638 0
  96 003a E368     		ldr	r3, [r4, #12]
  97 003c 13F0F20F 		tst	r3, #242
  98              	.LBB72:
ARM GAS  /tmp/cc8f1EWx.s 			page 14


  99              	.LBB73:
 639:Drivers/STM32F7xx_HAL_Driver/Src/stm32f7xx_hal_flash.c ****   {
 640:Drivers/STM32F7xx_HAL_Driver/Src/stm32f7xx_hal_flash.c ****     /*Save the error code*/
 641:Drivers/STM32F7xx_HAL_Driver/Src/stm32f7xx_hal_flash.c ****     FLASH_SetErrorCode();
 642:Drivers/STM32F7xx_HAL_Driver/Src/stm32f7xx_hal_flash.c ****     return HAL_ERROR;
 643:Drivers/STM32F7xx_HAL_Driver/Src/stm32f7xx_hal_flash.c ****   }
 644:Drivers/STM32F7xx_HAL_Driver/Src/stm32f7xx_hal_flash.c ****   
 645:Drivers/STM32F7xx_HAL_Driver/Src/stm32f7xx_hal_flash.c ****   /* Check FLASH End of Operation flag  */
 646:Drivers/STM32F7xx_HAL_Driver/Src/stm32f7xx_hal_flash.c ****   if (__HAL_FLASH_GET_FLAG(FLASH_FLAG_EOP) != RESET)
 647:Drivers/STM32F7xx_HAL_Driver/Src/stm32f7xx_hal_flash.c ****   {
 648:Drivers/STM32F7xx_HAL_Driver/Src/stm32f7xx_hal_flash.c ****     /* Clear FLASH End of Operation pending bit */
 649:Drivers/STM32F7xx_HAL_Driver/Src/stm32f7xx_hal_flash.c ****     __HAL_FLASH_CLEAR_FLAG(FLASH_FLAG_EOP);
 650:Drivers/STM32F7xx_HAL_Driver/Src/stm32f7xx_hal_flash.c ****   }
 651:Drivers/STM32F7xx_HAL_Driver/Src/stm32f7xx_hal_flash.c **** 
 652:Drivers/STM32F7xx_HAL_Driver/Src/stm32f7xx_hal_flash.c ****   /* If there is an error flag set */
 653:Drivers/STM32F7xx_HAL_Driver/Src/stm32f7xx_hal_flash.c ****   return HAL_OK;
 654:Drivers/STM32F7xx_HAL_Driver/Src/stm32f7xx_hal_flash.c ****   
 655:Drivers/STM32F7xx_HAL_Driver/Src/stm32f7xx_hal_flash.c **** }  
 656:Drivers/STM32F7xx_HAL_Driver/Src/stm32f7xx_hal_flash.c **** 
 657:Drivers/STM32F7xx_HAL_Driver/Src/stm32f7xx_hal_flash.c **** /**
 658:Drivers/STM32F7xx_HAL_Driver/Src/stm32f7xx_hal_flash.c ****   * @brief  Program a double word (64-bit) at a specified address.
 659:Drivers/STM32F7xx_HAL_Driver/Src/stm32f7xx_hal_flash.c ****   * @note   This function must be used when the device voltage range is from
 660:Drivers/STM32F7xx_HAL_Driver/Src/stm32f7xx_hal_flash.c ****   *         2.7V to 3.6V and an External Vpp is present.
 661:Drivers/STM32F7xx_HAL_Driver/Src/stm32f7xx_hal_flash.c ****   *
 662:Drivers/STM32F7xx_HAL_Driver/Src/stm32f7xx_hal_flash.c ****   * @note   If an erase and a program operations are requested simultaneously,    
 663:Drivers/STM32F7xx_HAL_Driver/Src/stm32f7xx_hal_flash.c ****   *         the erase operation is performed before the program one.
 664:Drivers/STM32F7xx_HAL_Driver/Src/stm32f7xx_hal_flash.c ****   *  
 665:Drivers/STM32F7xx_HAL_Driver/Src/stm32f7xx_hal_flash.c ****   * @param  Address specifies the address to be programmed.
 666:Drivers/STM32F7xx_HAL_Driver/Src/stm32f7xx_hal_flash.c ****   * @param  Data specifies the data to be programmed.
 667:Drivers/STM32F7xx_HAL_Driver/Src/stm32f7xx_hal_flash.c ****   * @retval None
 668:Drivers/STM32F7xx_HAL_Driver/Src/stm32f7xx_hal_flash.c ****   */
 669:Drivers/STM32F7xx_HAL_Driver/Src/stm32f7xx_hal_flash.c **** static void FLASH_Program_DoubleWord(uint32_t Address, uint64_t Data)
 670:Drivers/STM32F7xx_HAL_Driver/Src/stm32f7xx_hal_flash.c **** {
 671:Drivers/STM32F7xx_HAL_Driver/Src/stm32f7xx_hal_flash.c ****   /* Check the parameters */
 672:Drivers/STM32F7xx_HAL_Driver/Src/stm32f7xx_hal_flash.c ****   assert_param(IS_FLASH_ADDRESS(Address));
 673:Drivers/STM32F7xx_HAL_Driver/Src/stm32f7xx_hal_flash.c ****   
 674:Drivers/STM32F7xx_HAL_Driver/Src/stm32f7xx_hal_flash.c ****   /* If the previous operation is completed, proceed to program the new data */
 675:Drivers/STM32F7xx_HAL_Driver/Src/stm32f7xx_hal_flash.c ****   FLASH->CR &= CR_PSIZE_MASK;
 676:Drivers/STM32F7xx_HAL_Driver/Src/stm32f7xx_hal_flash.c ****   FLASH->CR |= FLASH_PSIZE_DOUBLE_WORD;
 677:Drivers/STM32F7xx_HAL_Driver/Src/stm32f7xx_hal_flash.c ****   FLASH->CR |= FLASH_CR_PG;
 678:Drivers/STM32F7xx_HAL_Driver/Src/stm32f7xx_hal_flash.c **** 
 679:Drivers/STM32F7xx_HAL_Driver/Src/stm32f7xx_hal_flash.c ****   /* Program the double-word */
 680:Drivers/STM32F7xx_HAL_Driver/Src/stm32f7xx_hal_flash.c ****   *(__IO uint32_t*)Address = (uint32_t)Data;
 681:Drivers/STM32F7xx_HAL_Driver/Src/stm32f7xx_hal_flash.c ****   *(__IO uint32_t*)(Address+4) = (uint32_t)(Data >> 32);
 682:Drivers/STM32F7xx_HAL_Driver/Src/stm32f7xx_hal_flash.c **** 
 683:Drivers/STM32F7xx_HAL_Driver/Src/stm32f7xx_hal_flash.c ****   /* Data synchronous Barrier (DSB) Just after the write operation
 684:Drivers/STM32F7xx_HAL_Driver/Src/stm32f7xx_hal_flash.c ****      This will force the CPU to respect the sequence of instruction (no optimization).*/
 685:Drivers/STM32F7xx_HAL_Driver/Src/stm32f7xx_hal_flash.c ****   __DSB();
 686:Drivers/STM32F7xx_HAL_Driver/Src/stm32f7xx_hal_flash.c **** }
 687:Drivers/STM32F7xx_HAL_Driver/Src/stm32f7xx_hal_flash.c **** 
 688:Drivers/STM32F7xx_HAL_Driver/Src/stm32f7xx_hal_flash.c **** 
 689:Drivers/STM32F7xx_HAL_Driver/Src/stm32f7xx_hal_flash.c **** /**
 690:Drivers/STM32F7xx_HAL_Driver/Src/stm32f7xx_hal_flash.c ****   * @brief  Program word (32-bit) at a specified address.
 691:Drivers/STM32F7xx_HAL_Driver/Src/stm32f7xx_hal_flash.c ****   * @note   This function must be used when the device voltage range is from
 692:Drivers/STM32F7xx_HAL_Driver/Src/stm32f7xx_hal_flash.c ****   *         2.7V to 3.6V.
 693:Drivers/STM32F7xx_HAL_Driver/Src/stm32f7xx_hal_flash.c ****   *
 694:Drivers/STM32F7xx_HAL_Driver/Src/stm32f7xx_hal_flash.c ****   * @note   If an erase and a program operations are requested simultaneously,    
ARM GAS  /tmp/cc8f1EWx.s 			page 15


 695:Drivers/STM32F7xx_HAL_Driver/Src/stm32f7xx_hal_flash.c ****   *         the erase operation is performed before the program one.
 696:Drivers/STM32F7xx_HAL_Driver/Src/stm32f7xx_hal_flash.c ****   *  
 697:Drivers/STM32F7xx_HAL_Driver/Src/stm32f7xx_hal_flash.c ****   * @param  Address specifies the address to be programmed.
 698:Drivers/STM32F7xx_HAL_Driver/Src/stm32f7xx_hal_flash.c ****   * @param  Data specifies the data to be programmed.
 699:Drivers/STM32F7xx_HAL_Driver/Src/stm32f7xx_hal_flash.c ****   * @retval None
 700:Drivers/STM32F7xx_HAL_Driver/Src/stm32f7xx_hal_flash.c ****   */
 701:Drivers/STM32F7xx_HAL_Driver/Src/stm32f7xx_hal_flash.c **** static void FLASH_Program_Word(uint32_t Address, uint32_t Data)
 702:Drivers/STM32F7xx_HAL_Driver/Src/stm32f7xx_hal_flash.c **** {
 703:Drivers/STM32F7xx_HAL_Driver/Src/stm32f7xx_hal_flash.c ****   /* Check the parameters */
 704:Drivers/STM32F7xx_HAL_Driver/Src/stm32f7xx_hal_flash.c ****   assert_param(IS_FLASH_ADDRESS(Address));
 705:Drivers/STM32F7xx_HAL_Driver/Src/stm32f7xx_hal_flash.c ****   
 706:Drivers/STM32F7xx_HAL_Driver/Src/stm32f7xx_hal_flash.c ****   /* If the previous operation is completed, proceed to program the new data */
 707:Drivers/STM32F7xx_HAL_Driver/Src/stm32f7xx_hal_flash.c ****   FLASH->CR &= CR_PSIZE_MASK;
 708:Drivers/STM32F7xx_HAL_Driver/Src/stm32f7xx_hal_flash.c ****   FLASH->CR |= FLASH_PSIZE_WORD;
 709:Drivers/STM32F7xx_HAL_Driver/Src/stm32f7xx_hal_flash.c ****   FLASH->CR |= FLASH_CR_PG;
 710:Drivers/STM32F7xx_HAL_Driver/Src/stm32f7xx_hal_flash.c **** 
 711:Drivers/STM32F7xx_HAL_Driver/Src/stm32f7xx_hal_flash.c ****   *(__IO uint32_t*)Address = Data;
 712:Drivers/STM32F7xx_HAL_Driver/Src/stm32f7xx_hal_flash.c ****   
 713:Drivers/STM32F7xx_HAL_Driver/Src/stm32f7xx_hal_flash.c ****   /* Data synchronous Barrier (DSB) Just after the write operation
 714:Drivers/STM32F7xx_HAL_Driver/Src/stm32f7xx_hal_flash.c ****      This will force the CPU to respect the sequence of instruction (no optimization).*/
 715:Drivers/STM32F7xx_HAL_Driver/Src/stm32f7xx_hal_flash.c ****   __DSB();
 716:Drivers/STM32F7xx_HAL_Driver/Src/stm32f7xx_hal_flash.c **** }
 717:Drivers/STM32F7xx_HAL_Driver/Src/stm32f7xx_hal_flash.c **** 
 718:Drivers/STM32F7xx_HAL_Driver/Src/stm32f7xx_hal_flash.c **** /**
 719:Drivers/STM32F7xx_HAL_Driver/Src/stm32f7xx_hal_flash.c ****   * @brief  Program a half-word (16-bit) at a specified address.
 720:Drivers/STM32F7xx_HAL_Driver/Src/stm32f7xx_hal_flash.c ****   * @note   This function must be used when the device voltage range is from
 721:Drivers/STM32F7xx_HAL_Driver/Src/stm32f7xx_hal_flash.c ****   *         2.7V to 3.6V.
 722:Drivers/STM32F7xx_HAL_Driver/Src/stm32f7xx_hal_flash.c ****   *
 723:Drivers/STM32F7xx_HAL_Driver/Src/stm32f7xx_hal_flash.c ****   * @note   If an erase and a program operations are requested simultaneously,    
 724:Drivers/STM32F7xx_HAL_Driver/Src/stm32f7xx_hal_flash.c ****   *         the erase operation is performed before the program one.
 725:Drivers/STM32F7xx_HAL_Driver/Src/stm32f7xx_hal_flash.c ****   *  
 726:Drivers/STM32F7xx_HAL_Driver/Src/stm32f7xx_hal_flash.c ****   * @param  Address specifies the address to be programmed.
 727:Drivers/STM32F7xx_HAL_Driver/Src/stm32f7xx_hal_flash.c ****   * @param  Data specifies the data to be programmed.
 728:Drivers/STM32F7xx_HAL_Driver/Src/stm32f7xx_hal_flash.c ****   * @retval None
 729:Drivers/STM32F7xx_HAL_Driver/Src/stm32f7xx_hal_flash.c ****   */
 730:Drivers/STM32F7xx_HAL_Driver/Src/stm32f7xx_hal_flash.c **** static void FLASH_Program_HalfWord(uint32_t Address, uint16_t Data)
 731:Drivers/STM32F7xx_HAL_Driver/Src/stm32f7xx_hal_flash.c **** {
 732:Drivers/STM32F7xx_HAL_Driver/Src/stm32f7xx_hal_flash.c ****   /* Check the parameters */
 733:Drivers/STM32F7xx_HAL_Driver/Src/stm32f7xx_hal_flash.c ****   assert_param(IS_FLASH_ADDRESS(Address));
 734:Drivers/STM32F7xx_HAL_Driver/Src/stm32f7xx_hal_flash.c ****   
 735:Drivers/STM32F7xx_HAL_Driver/Src/stm32f7xx_hal_flash.c ****   /* If the previous operation is completed, proceed to program the new data */
 736:Drivers/STM32F7xx_HAL_Driver/Src/stm32f7xx_hal_flash.c ****   FLASH->CR &= CR_PSIZE_MASK;
 737:Drivers/STM32F7xx_HAL_Driver/Src/stm32f7xx_hal_flash.c ****   FLASH->CR |= FLASH_PSIZE_HALF_WORD;
 738:Drivers/STM32F7xx_HAL_Driver/Src/stm32f7xx_hal_flash.c ****   FLASH->CR |= FLASH_CR_PG;
 739:Drivers/STM32F7xx_HAL_Driver/Src/stm32f7xx_hal_flash.c **** 
 740:Drivers/STM32F7xx_HAL_Driver/Src/stm32f7xx_hal_flash.c ****   *(__IO uint16_t*)Address = Data;
 741:Drivers/STM32F7xx_HAL_Driver/Src/stm32f7xx_hal_flash.c **** 
 742:Drivers/STM32F7xx_HAL_Driver/Src/stm32f7xx_hal_flash.c ****   /* Data synchronous Barrier (DSB) Just after the write operation
 743:Drivers/STM32F7xx_HAL_Driver/Src/stm32f7xx_hal_flash.c ****      This will force the CPU to respect the sequence of instruction (no optimization).*/
 744:Drivers/STM32F7xx_HAL_Driver/Src/stm32f7xx_hal_flash.c ****   __DSB();
 745:Drivers/STM32F7xx_HAL_Driver/Src/stm32f7xx_hal_flash.c ****   
 746:Drivers/STM32F7xx_HAL_Driver/Src/stm32f7xx_hal_flash.c **** }
 747:Drivers/STM32F7xx_HAL_Driver/Src/stm32f7xx_hal_flash.c **** 
 748:Drivers/STM32F7xx_HAL_Driver/Src/stm32f7xx_hal_flash.c **** /**
 749:Drivers/STM32F7xx_HAL_Driver/Src/stm32f7xx_hal_flash.c ****   * @brief  Program byte (8-bit) at a specified address.
 750:Drivers/STM32F7xx_HAL_Driver/Src/stm32f7xx_hal_flash.c ****   * @note   This function must be used when the device voltage range is from
 751:Drivers/STM32F7xx_HAL_Driver/Src/stm32f7xx_hal_flash.c ****   *         2.7V to 3.6V.
ARM GAS  /tmp/cc8f1EWx.s 			page 16


 752:Drivers/STM32F7xx_HAL_Driver/Src/stm32f7xx_hal_flash.c ****   *
 753:Drivers/STM32F7xx_HAL_Driver/Src/stm32f7xx_hal_flash.c ****   * @note   If an erase and a program operations are requested simultaneously,    
 754:Drivers/STM32F7xx_HAL_Driver/Src/stm32f7xx_hal_flash.c ****   *         the erase operation is performed before the program one.
 755:Drivers/STM32F7xx_HAL_Driver/Src/stm32f7xx_hal_flash.c ****   *  
 756:Drivers/STM32F7xx_HAL_Driver/Src/stm32f7xx_hal_flash.c ****   * @param  Address specifies the address to be programmed.
 757:Drivers/STM32F7xx_HAL_Driver/Src/stm32f7xx_hal_flash.c ****   * @param  Data specifies the data to be programmed.
 758:Drivers/STM32F7xx_HAL_Driver/Src/stm32f7xx_hal_flash.c ****   * @retval None
 759:Drivers/STM32F7xx_HAL_Driver/Src/stm32f7xx_hal_flash.c ****   */
 760:Drivers/STM32F7xx_HAL_Driver/Src/stm32f7xx_hal_flash.c **** static void FLASH_Program_Byte(uint32_t Address, uint8_t Data)
 761:Drivers/STM32F7xx_HAL_Driver/Src/stm32f7xx_hal_flash.c **** {
 762:Drivers/STM32F7xx_HAL_Driver/Src/stm32f7xx_hal_flash.c ****   /* Check the parameters */
 763:Drivers/STM32F7xx_HAL_Driver/Src/stm32f7xx_hal_flash.c ****   assert_param(IS_FLASH_ADDRESS(Address));
 764:Drivers/STM32F7xx_HAL_Driver/Src/stm32f7xx_hal_flash.c ****   
 765:Drivers/STM32F7xx_HAL_Driver/Src/stm32f7xx_hal_flash.c ****   /* If the previous operation is completed, proceed to program the new data */
 766:Drivers/STM32F7xx_HAL_Driver/Src/stm32f7xx_hal_flash.c ****   FLASH->CR &= CR_PSIZE_MASK;
 767:Drivers/STM32F7xx_HAL_Driver/Src/stm32f7xx_hal_flash.c ****   FLASH->CR |= FLASH_PSIZE_BYTE;
 768:Drivers/STM32F7xx_HAL_Driver/Src/stm32f7xx_hal_flash.c ****   FLASH->CR |= FLASH_CR_PG;
 769:Drivers/STM32F7xx_HAL_Driver/Src/stm32f7xx_hal_flash.c **** 
 770:Drivers/STM32F7xx_HAL_Driver/Src/stm32f7xx_hal_flash.c ****   *(__IO uint8_t*)Address = Data;
 771:Drivers/STM32F7xx_HAL_Driver/Src/stm32f7xx_hal_flash.c **** 
 772:Drivers/STM32F7xx_HAL_Driver/Src/stm32f7xx_hal_flash.c ****   /* Data synchronous Barrier (DSB) Just after the write operation
 773:Drivers/STM32F7xx_HAL_Driver/Src/stm32f7xx_hal_flash.c ****      This will force the CPU to respect the sequence of instruction (no optimization).*/
 774:Drivers/STM32F7xx_HAL_Driver/Src/stm32f7xx_hal_flash.c ****   __DSB();
 775:Drivers/STM32F7xx_HAL_Driver/Src/stm32f7xx_hal_flash.c **** }
 776:Drivers/STM32F7xx_HAL_Driver/Src/stm32f7xx_hal_flash.c **** 
 777:Drivers/STM32F7xx_HAL_Driver/Src/stm32f7xx_hal_flash.c **** /**
 778:Drivers/STM32F7xx_HAL_Driver/Src/stm32f7xx_hal_flash.c ****   * @brief  Set the specific FLASH error flag.
 779:Drivers/STM32F7xx_HAL_Driver/Src/stm32f7xx_hal_flash.c ****   * @retval None
 780:Drivers/STM32F7xx_HAL_Driver/Src/stm32f7xx_hal_flash.c ****   */
 781:Drivers/STM32F7xx_HAL_Driver/Src/stm32f7xx_hal_flash.c **** static void FLASH_SetErrorCode(void)
 782:Drivers/STM32F7xx_HAL_Driver/Src/stm32f7xx_hal_flash.c **** {
 783:Drivers/STM32F7xx_HAL_Driver/Src/stm32f7xx_hal_flash.c ****   if(__HAL_FLASH_GET_FLAG(FLASH_FLAG_OPERR) != RESET)
 100              		.loc 1 783 0
 101 0040 E368     		ldr	r3, [r4, #12]
 102              	.LBE73:
 103              	.LBE72:
 638:Drivers/STM32F7xx_HAL_Driver/Src/stm32f7xx_hal_flash.c ****   {
 104              		.loc 1 638 0
 105 0042 40F0AE80 		bne	.L67
 106              	.LVL7:
 107              	.LBB76:
 108              	.LBB77:
 646:Drivers/STM32F7xx_HAL_Driver/Src/stm32f7xx_hal_flash.c ****   {
 109              		.loc 1 646 0
 110 0046 DA07     		lsls	r2, r3, #31
 111 0048 01D5     		bpl	.L12
 649:Drivers/STM32F7xx_HAL_Driver/Src/stm32f7xx_hal_flash.c ****   }
 112              		.loc 1 649 0
 113 004a 0123     		movs	r3, #1
 114 004c E360     		str	r3, [r4, #12]
 115              	.LVL8:
 116              	.L12:
 117              	.LBE77:
 118              	.LBE76:
 119              	.LBE80:
 120              	.LBE83:
 195:Drivers/STM32F7xx_HAL_Driver/Src/stm32f7xx_hal_flash.c ****     {
ARM GAS  /tmp/cc8f1EWx.s 			page 17


 121              		.loc 1 195 0
 122 004e B8F1030F 		cmp	r8, #3
 123 0052 14D8     		bhi	.L13
 124 0054 DFE808F0 		tbb	[pc, r8]
 125              	.L15:
 126 0058 02       		.byte	(.L14-.L15)/2
 127 0059 52       		.byte	(.L16-.L15)/2
 128 005a 66       		.byte	(.L17-.L15)/2
 129 005b 3E       		.byte	(.L18-.L15)/2
 130              		.p2align 1
 131              	.L14:
 132              	.LBB84:
 133              	.LBB85:
 766:Drivers/STM32F7xx_HAL_Driver/Src/stm32f7xx_hal_flash.c ****   FLASH->CR |= FLASH_PSIZE_BYTE;
 134              		.loc 1 766 0
 135 005c 684B     		ldr	r3, .L69+4
 136              	.LBE85:
 137              	.LBE84:
 200:Drivers/STM32F7xx_HAL_Driver/Src/stm32f7xx_hal_flash.c ****         break;
 138              		.loc 1 200 0
 139 005e 5FFA89F9 		uxtb	r9, r9
 140              	.LVL9:
 141              	.LBB89:
 142              	.LBB88:
 766:Drivers/STM32F7xx_HAL_Driver/Src/stm32f7xx_hal_flash.c ****   FLASH->CR |= FLASH_PSIZE_BYTE;
 143              		.loc 1 766 0
 144 0062 1A69     		ldr	r2, [r3, #16]
 145 0064 22F44072 		bic	r2, r2, #768
 146 0068 1A61     		str	r2, [r3, #16]
 767:Drivers/STM32F7xx_HAL_Driver/Src/stm32f7xx_hal_flash.c ****   FLASH->CR |= FLASH_CR_PG;
 147              		.loc 1 767 0
 148 006a 1A69     		ldr	r2, [r3, #16]
 149 006c 1A61     		str	r2, [r3, #16]
 768:Drivers/STM32F7xx_HAL_Driver/Src/stm32f7xx_hal_flash.c **** 
 150              		.loc 1 768 0
 151 006e 1A69     		ldr	r2, [r3, #16]
 152 0070 42F00102 		orr	r2, r2, #1
 153 0074 1A61     		str	r2, [r3, #16]
 770:Drivers/STM32F7xx_HAL_Driver/Src/stm32f7xx_hal_flash.c **** 
 154              		.loc 1 770 0
 155 0076 8AF80090 		strb	r9, [r10]
 156              	.LBB86:
 157              	.LBB87:
 158              		.file 2 "Drivers/CMSIS/Include/cmsis_gcc.h"
   1:Drivers/CMSIS/Include/cmsis_gcc.h **** /**************************************************************************//**
   2:Drivers/CMSIS/Include/cmsis_gcc.h ****  * @file     cmsis_gcc.h
   3:Drivers/CMSIS/Include/cmsis_gcc.h ****  * @brief    CMSIS Cortex-M Core Function/Instruction Header File
   4:Drivers/CMSIS/Include/cmsis_gcc.h ****  * @version  V4.30
   5:Drivers/CMSIS/Include/cmsis_gcc.h ****  * @date     20. October 2015
   6:Drivers/CMSIS/Include/cmsis_gcc.h ****  ******************************************************************************/
   7:Drivers/CMSIS/Include/cmsis_gcc.h **** /* Copyright (c) 2009 - 2015 ARM LIMITED
   8:Drivers/CMSIS/Include/cmsis_gcc.h **** 
   9:Drivers/CMSIS/Include/cmsis_gcc.h ****    All rights reserved.
  10:Drivers/CMSIS/Include/cmsis_gcc.h ****    Redistribution and use in source and binary forms, with or without
  11:Drivers/CMSIS/Include/cmsis_gcc.h ****    modification, are permitted provided that the following conditions are met:
  12:Drivers/CMSIS/Include/cmsis_gcc.h ****    - Redistributions of source code must retain the above copyright
  13:Drivers/CMSIS/Include/cmsis_gcc.h ****      notice, this list of conditions and the following disclaimer.
ARM GAS  /tmp/cc8f1EWx.s 			page 18


  14:Drivers/CMSIS/Include/cmsis_gcc.h ****    - Redistributions in binary form must reproduce the above copyright
  15:Drivers/CMSIS/Include/cmsis_gcc.h ****      notice, this list of conditions and the following disclaimer in the
  16:Drivers/CMSIS/Include/cmsis_gcc.h ****      documentation and/or other materials provided with the distribution.
  17:Drivers/CMSIS/Include/cmsis_gcc.h ****    - Neither the name of ARM nor the names of its contributors may be used
  18:Drivers/CMSIS/Include/cmsis_gcc.h ****      to endorse or promote products derived from this software without
  19:Drivers/CMSIS/Include/cmsis_gcc.h ****      specific prior written permission.
  20:Drivers/CMSIS/Include/cmsis_gcc.h ****    *
  21:Drivers/CMSIS/Include/cmsis_gcc.h ****    THIS SOFTWARE IS PROVIDED BY THE COPYRIGHT HOLDERS AND CONTRIBUTORS "AS IS"
  22:Drivers/CMSIS/Include/cmsis_gcc.h ****    AND ANY EXPRESS OR IMPLIED WARRANTIES, INCLUDING, BUT NOT LIMITED TO, THE
  23:Drivers/CMSIS/Include/cmsis_gcc.h ****    IMPLIED WARRANTIES OF MERCHANTABILITY AND FITNESS FOR A PARTICULAR PURPOSE
  24:Drivers/CMSIS/Include/cmsis_gcc.h ****    ARE DISCLAIMED. IN NO EVENT SHALL COPYRIGHT HOLDERS AND CONTRIBUTORS BE
  25:Drivers/CMSIS/Include/cmsis_gcc.h ****    LIABLE FOR ANY DIRECT, INDIRECT, INCIDENTAL, SPECIAL, EXEMPLARY, OR
  26:Drivers/CMSIS/Include/cmsis_gcc.h ****    CONSEQUENTIAL DAMAGES (INCLUDING, BUT NOT LIMITED TO, PROCUREMENT OF
  27:Drivers/CMSIS/Include/cmsis_gcc.h ****    SUBSTITUTE GOODS OR SERVICES; LOSS OF USE, DATA, OR PROFITS; OR BUSINESS
  28:Drivers/CMSIS/Include/cmsis_gcc.h ****    INTERRUPTION) HOWEVER CAUSED AND ON ANY THEORY OF LIABILITY, WHETHER IN
  29:Drivers/CMSIS/Include/cmsis_gcc.h ****    CONTRACT, STRICT LIABILITY, OR TORT (INCLUDING NEGLIGENCE OR OTHERWISE)
  30:Drivers/CMSIS/Include/cmsis_gcc.h ****    ARISING IN ANY WAY OUT OF THE USE OF THIS SOFTWARE, EVEN IF ADVISED OF THE
  31:Drivers/CMSIS/Include/cmsis_gcc.h ****    POSSIBILITY OF SUCH DAMAGE.
  32:Drivers/CMSIS/Include/cmsis_gcc.h ****    ---------------------------------------------------------------------------*/
  33:Drivers/CMSIS/Include/cmsis_gcc.h **** 
  34:Drivers/CMSIS/Include/cmsis_gcc.h **** 
  35:Drivers/CMSIS/Include/cmsis_gcc.h **** #ifndef __CMSIS_GCC_H
  36:Drivers/CMSIS/Include/cmsis_gcc.h **** #define __CMSIS_GCC_H
  37:Drivers/CMSIS/Include/cmsis_gcc.h **** 
  38:Drivers/CMSIS/Include/cmsis_gcc.h **** /* ignore some GCC warnings */
  39:Drivers/CMSIS/Include/cmsis_gcc.h **** #if defined ( __GNUC__ )
  40:Drivers/CMSIS/Include/cmsis_gcc.h **** #pragma GCC diagnostic push
  41:Drivers/CMSIS/Include/cmsis_gcc.h **** #pragma GCC diagnostic ignored "-Wsign-conversion"
  42:Drivers/CMSIS/Include/cmsis_gcc.h **** #pragma GCC diagnostic ignored "-Wconversion"
  43:Drivers/CMSIS/Include/cmsis_gcc.h **** #pragma GCC diagnostic ignored "-Wunused-parameter"
  44:Drivers/CMSIS/Include/cmsis_gcc.h **** #endif
  45:Drivers/CMSIS/Include/cmsis_gcc.h **** 
  46:Drivers/CMSIS/Include/cmsis_gcc.h **** 
  47:Drivers/CMSIS/Include/cmsis_gcc.h **** /* ###########################  Core Function Access  ########################### */
  48:Drivers/CMSIS/Include/cmsis_gcc.h **** /** \ingroup  CMSIS_Core_FunctionInterface
  49:Drivers/CMSIS/Include/cmsis_gcc.h ****     \defgroup CMSIS_Core_RegAccFunctions CMSIS Core Register Access Functions
  50:Drivers/CMSIS/Include/cmsis_gcc.h ****   @{
  51:Drivers/CMSIS/Include/cmsis_gcc.h ****  */
  52:Drivers/CMSIS/Include/cmsis_gcc.h **** 
  53:Drivers/CMSIS/Include/cmsis_gcc.h **** /**
  54:Drivers/CMSIS/Include/cmsis_gcc.h ****   \brief   Enable IRQ Interrupts
  55:Drivers/CMSIS/Include/cmsis_gcc.h ****   \details Enables IRQ interrupts by clearing the I-bit in the CPSR.
  56:Drivers/CMSIS/Include/cmsis_gcc.h ****            Can only be executed in Privileged modes.
  57:Drivers/CMSIS/Include/cmsis_gcc.h ****  */
  58:Drivers/CMSIS/Include/cmsis_gcc.h **** __attribute__( ( always_inline ) ) __STATIC_INLINE void __enable_irq(void)
  59:Drivers/CMSIS/Include/cmsis_gcc.h **** {
  60:Drivers/CMSIS/Include/cmsis_gcc.h ****   __ASM volatile ("cpsie i" : : : "memory");
  61:Drivers/CMSIS/Include/cmsis_gcc.h **** }
  62:Drivers/CMSIS/Include/cmsis_gcc.h **** 
  63:Drivers/CMSIS/Include/cmsis_gcc.h **** 
  64:Drivers/CMSIS/Include/cmsis_gcc.h **** /**
  65:Drivers/CMSIS/Include/cmsis_gcc.h ****   \brief   Disable IRQ Interrupts
  66:Drivers/CMSIS/Include/cmsis_gcc.h ****   \details Disables IRQ interrupts by setting the I-bit in the CPSR.
  67:Drivers/CMSIS/Include/cmsis_gcc.h ****   Can only be executed in Privileged modes.
  68:Drivers/CMSIS/Include/cmsis_gcc.h ****  */
  69:Drivers/CMSIS/Include/cmsis_gcc.h **** __attribute__( ( always_inline ) ) __STATIC_INLINE void __disable_irq(void)
  70:Drivers/CMSIS/Include/cmsis_gcc.h **** {
ARM GAS  /tmp/cc8f1EWx.s 			page 19


  71:Drivers/CMSIS/Include/cmsis_gcc.h ****   __ASM volatile ("cpsid i" : : : "memory");
  72:Drivers/CMSIS/Include/cmsis_gcc.h **** }
  73:Drivers/CMSIS/Include/cmsis_gcc.h **** 
  74:Drivers/CMSIS/Include/cmsis_gcc.h **** 
  75:Drivers/CMSIS/Include/cmsis_gcc.h **** /**
  76:Drivers/CMSIS/Include/cmsis_gcc.h ****   \brief   Get Control Register
  77:Drivers/CMSIS/Include/cmsis_gcc.h ****   \details Returns the content of the Control Register.
  78:Drivers/CMSIS/Include/cmsis_gcc.h ****   \return               Control Register value
  79:Drivers/CMSIS/Include/cmsis_gcc.h ****  */
  80:Drivers/CMSIS/Include/cmsis_gcc.h **** __attribute__( ( always_inline ) ) __STATIC_INLINE uint32_t __get_CONTROL(void)
  81:Drivers/CMSIS/Include/cmsis_gcc.h **** {
  82:Drivers/CMSIS/Include/cmsis_gcc.h ****   uint32_t result;
  83:Drivers/CMSIS/Include/cmsis_gcc.h **** 
  84:Drivers/CMSIS/Include/cmsis_gcc.h ****   __ASM volatile ("MRS %0, control" : "=r" (result) );
  85:Drivers/CMSIS/Include/cmsis_gcc.h ****   return(result);
  86:Drivers/CMSIS/Include/cmsis_gcc.h **** }
  87:Drivers/CMSIS/Include/cmsis_gcc.h **** 
  88:Drivers/CMSIS/Include/cmsis_gcc.h **** 
  89:Drivers/CMSIS/Include/cmsis_gcc.h **** /**
  90:Drivers/CMSIS/Include/cmsis_gcc.h ****   \brief   Set Control Register
  91:Drivers/CMSIS/Include/cmsis_gcc.h ****   \details Writes the given value to the Control Register.
  92:Drivers/CMSIS/Include/cmsis_gcc.h ****   \param [in]    control  Control Register value to set
  93:Drivers/CMSIS/Include/cmsis_gcc.h ****  */
  94:Drivers/CMSIS/Include/cmsis_gcc.h **** __attribute__( ( always_inline ) ) __STATIC_INLINE void __set_CONTROL(uint32_t control)
  95:Drivers/CMSIS/Include/cmsis_gcc.h **** {
  96:Drivers/CMSIS/Include/cmsis_gcc.h ****   __ASM volatile ("MSR control, %0" : : "r" (control) : "memory");
  97:Drivers/CMSIS/Include/cmsis_gcc.h **** }
  98:Drivers/CMSIS/Include/cmsis_gcc.h **** 
  99:Drivers/CMSIS/Include/cmsis_gcc.h **** 
 100:Drivers/CMSIS/Include/cmsis_gcc.h **** /**
 101:Drivers/CMSIS/Include/cmsis_gcc.h ****   \brief   Get IPSR Register
 102:Drivers/CMSIS/Include/cmsis_gcc.h ****   \details Returns the content of the IPSR Register.
 103:Drivers/CMSIS/Include/cmsis_gcc.h ****   \return               IPSR Register value
 104:Drivers/CMSIS/Include/cmsis_gcc.h ****  */
 105:Drivers/CMSIS/Include/cmsis_gcc.h **** __attribute__( ( always_inline ) ) __STATIC_INLINE uint32_t __get_IPSR(void)
 106:Drivers/CMSIS/Include/cmsis_gcc.h **** {
 107:Drivers/CMSIS/Include/cmsis_gcc.h ****   uint32_t result;
 108:Drivers/CMSIS/Include/cmsis_gcc.h **** 
 109:Drivers/CMSIS/Include/cmsis_gcc.h ****   __ASM volatile ("MRS %0, ipsr" : "=r" (result) );
 110:Drivers/CMSIS/Include/cmsis_gcc.h ****   return(result);
 111:Drivers/CMSIS/Include/cmsis_gcc.h **** }
 112:Drivers/CMSIS/Include/cmsis_gcc.h **** 
 113:Drivers/CMSIS/Include/cmsis_gcc.h **** 
 114:Drivers/CMSIS/Include/cmsis_gcc.h **** /**
 115:Drivers/CMSIS/Include/cmsis_gcc.h ****   \brief   Get APSR Register
 116:Drivers/CMSIS/Include/cmsis_gcc.h ****   \details Returns the content of the APSR Register.
 117:Drivers/CMSIS/Include/cmsis_gcc.h ****   \return               APSR Register value
 118:Drivers/CMSIS/Include/cmsis_gcc.h ****  */
 119:Drivers/CMSIS/Include/cmsis_gcc.h **** __attribute__( ( always_inline ) ) __STATIC_INLINE uint32_t __get_APSR(void)
 120:Drivers/CMSIS/Include/cmsis_gcc.h **** {
 121:Drivers/CMSIS/Include/cmsis_gcc.h ****   uint32_t result;
 122:Drivers/CMSIS/Include/cmsis_gcc.h **** 
 123:Drivers/CMSIS/Include/cmsis_gcc.h ****   __ASM volatile ("MRS %0, apsr" : "=r" (result) );
 124:Drivers/CMSIS/Include/cmsis_gcc.h ****   return(result);
 125:Drivers/CMSIS/Include/cmsis_gcc.h **** }
 126:Drivers/CMSIS/Include/cmsis_gcc.h **** 
 127:Drivers/CMSIS/Include/cmsis_gcc.h **** 
ARM GAS  /tmp/cc8f1EWx.s 			page 20


 128:Drivers/CMSIS/Include/cmsis_gcc.h **** /**
 129:Drivers/CMSIS/Include/cmsis_gcc.h ****   \brief   Get xPSR Register
 130:Drivers/CMSIS/Include/cmsis_gcc.h ****   \details Returns the content of the xPSR Register.
 131:Drivers/CMSIS/Include/cmsis_gcc.h **** 
 132:Drivers/CMSIS/Include/cmsis_gcc.h ****     \return               xPSR Register value
 133:Drivers/CMSIS/Include/cmsis_gcc.h ****  */
 134:Drivers/CMSIS/Include/cmsis_gcc.h **** __attribute__( ( always_inline ) ) __STATIC_INLINE uint32_t __get_xPSR(void)
 135:Drivers/CMSIS/Include/cmsis_gcc.h **** {
 136:Drivers/CMSIS/Include/cmsis_gcc.h ****   uint32_t result;
 137:Drivers/CMSIS/Include/cmsis_gcc.h **** 
 138:Drivers/CMSIS/Include/cmsis_gcc.h ****   __ASM volatile ("MRS %0, xpsr" : "=r" (result) );
 139:Drivers/CMSIS/Include/cmsis_gcc.h ****   return(result);
 140:Drivers/CMSIS/Include/cmsis_gcc.h **** }
 141:Drivers/CMSIS/Include/cmsis_gcc.h **** 
 142:Drivers/CMSIS/Include/cmsis_gcc.h **** 
 143:Drivers/CMSIS/Include/cmsis_gcc.h **** /**
 144:Drivers/CMSIS/Include/cmsis_gcc.h ****   \brief   Get Process Stack Pointer
 145:Drivers/CMSIS/Include/cmsis_gcc.h ****   \details Returns the current value of the Process Stack Pointer (PSP).
 146:Drivers/CMSIS/Include/cmsis_gcc.h ****   \return               PSP Register value
 147:Drivers/CMSIS/Include/cmsis_gcc.h ****  */
 148:Drivers/CMSIS/Include/cmsis_gcc.h **** __attribute__( ( always_inline ) ) __STATIC_INLINE uint32_t __get_PSP(void)
 149:Drivers/CMSIS/Include/cmsis_gcc.h **** {
 150:Drivers/CMSIS/Include/cmsis_gcc.h ****   register uint32_t result;
 151:Drivers/CMSIS/Include/cmsis_gcc.h **** 
 152:Drivers/CMSIS/Include/cmsis_gcc.h ****   __ASM volatile ("MRS %0, psp\n"  : "=r" (result) );
 153:Drivers/CMSIS/Include/cmsis_gcc.h ****   return(result);
 154:Drivers/CMSIS/Include/cmsis_gcc.h **** }
 155:Drivers/CMSIS/Include/cmsis_gcc.h **** 
 156:Drivers/CMSIS/Include/cmsis_gcc.h **** 
 157:Drivers/CMSIS/Include/cmsis_gcc.h **** /**
 158:Drivers/CMSIS/Include/cmsis_gcc.h ****   \brief   Set Process Stack Pointer
 159:Drivers/CMSIS/Include/cmsis_gcc.h ****   \details Assigns the given value to the Process Stack Pointer (PSP).
 160:Drivers/CMSIS/Include/cmsis_gcc.h ****   \param [in]    topOfProcStack  Process Stack Pointer value to set
 161:Drivers/CMSIS/Include/cmsis_gcc.h ****  */
 162:Drivers/CMSIS/Include/cmsis_gcc.h **** __attribute__( ( always_inline ) ) __STATIC_INLINE void __set_PSP(uint32_t topOfProcStack)
 163:Drivers/CMSIS/Include/cmsis_gcc.h **** {
 164:Drivers/CMSIS/Include/cmsis_gcc.h ****   __ASM volatile ("MSR psp, %0\n" : : "r" (topOfProcStack) : "sp");
 165:Drivers/CMSIS/Include/cmsis_gcc.h **** }
 166:Drivers/CMSIS/Include/cmsis_gcc.h **** 
 167:Drivers/CMSIS/Include/cmsis_gcc.h **** 
 168:Drivers/CMSIS/Include/cmsis_gcc.h **** /**
 169:Drivers/CMSIS/Include/cmsis_gcc.h ****   \brief   Get Main Stack Pointer
 170:Drivers/CMSIS/Include/cmsis_gcc.h ****   \details Returns the current value of the Main Stack Pointer (MSP).
 171:Drivers/CMSIS/Include/cmsis_gcc.h ****   \return               MSP Register value
 172:Drivers/CMSIS/Include/cmsis_gcc.h ****  */
 173:Drivers/CMSIS/Include/cmsis_gcc.h **** __attribute__( ( always_inline ) ) __STATIC_INLINE uint32_t __get_MSP(void)
 174:Drivers/CMSIS/Include/cmsis_gcc.h **** {
 175:Drivers/CMSIS/Include/cmsis_gcc.h ****   register uint32_t result;
 176:Drivers/CMSIS/Include/cmsis_gcc.h **** 
 177:Drivers/CMSIS/Include/cmsis_gcc.h ****   __ASM volatile ("MRS %0, msp\n" : "=r" (result) );
 178:Drivers/CMSIS/Include/cmsis_gcc.h ****   return(result);
 179:Drivers/CMSIS/Include/cmsis_gcc.h **** }
 180:Drivers/CMSIS/Include/cmsis_gcc.h **** 
 181:Drivers/CMSIS/Include/cmsis_gcc.h **** 
 182:Drivers/CMSIS/Include/cmsis_gcc.h **** /**
 183:Drivers/CMSIS/Include/cmsis_gcc.h ****   \brief   Set Main Stack Pointer
 184:Drivers/CMSIS/Include/cmsis_gcc.h ****   \details Assigns the given value to the Main Stack Pointer (MSP).
ARM GAS  /tmp/cc8f1EWx.s 			page 21


 185:Drivers/CMSIS/Include/cmsis_gcc.h **** 
 186:Drivers/CMSIS/Include/cmsis_gcc.h ****     \param [in]    topOfMainStack  Main Stack Pointer value to set
 187:Drivers/CMSIS/Include/cmsis_gcc.h ****  */
 188:Drivers/CMSIS/Include/cmsis_gcc.h **** __attribute__( ( always_inline ) ) __STATIC_INLINE void __set_MSP(uint32_t topOfMainStack)
 189:Drivers/CMSIS/Include/cmsis_gcc.h **** {
 190:Drivers/CMSIS/Include/cmsis_gcc.h ****   __ASM volatile ("MSR msp, %0\n" : : "r" (topOfMainStack) : "sp");
 191:Drivers/CMSIS/Include/cmsis_gcc.h **** }
 192:Drivers/CMSIS/Include/cmsis_gcc.h **** 
 193:Drivers/CMSIS/Include/cmsis_gcc.h **** 
 194:Drivers/CMSIS/Include/cmsis_gcc.h **** /**
 195:Drivers/CMSIS/Include/cmsis_gcc.h ****   \brief   Get Priority Mask
 196:Drivers/CMSIS/Include/cmsis_gcc.h ****   \details Returns the current state of the priority mask bit from the Priority Mask Register.
 197:Drivers/CMSIS/Include/cmsis_gcc.h ****   \return               Priority Mask value
 198:Drivers/CMSIS/Include/cmsis_gcc.h ****  */
 199:Drivers/CMSIS/Include/cmsis_gcc.h **** __attribute__( ( always_inline ) ) __STATIC_INLINE uint32_t __get_PRIMASK(void)
 200:Drivers/CMSIS/Include/cmsis_gcc.h **** {
 201:Drivers/CMSIS/Include/cmsis_gcc.h ****   uint32_t result;
 202:Drivers/CMSIS/Include/cmsis_gcc.h **** 
 203:Drivers/CMSIS/Include/cmsis_gcc.h ****   __ASM volatile ("MRS %0, primask" : "=r" (result) );
 204:Drivers/CMSIS/Include/cmsis_gcc.h ****   return(result);
 205:Drivers/CMSIS/Include/cmsis_gcc.h **** }
 206:Drivers/CMSIS/Include/cmsis_gcc.h **** 
 207:Drivers/CMSIS/Include/cmsis_gcc.h **** 
 208:Drivers/CMSIS/Include/cmsis_gcc.h **** /**
 209:Drivers/CMSIS/Include/cmsis_gcc.h ****   \brief   Set Priority Mask
 210:Drivers/CMSIS/Include/cmsis_gcc.h ****   \details Assigns the given value to the Priority Mask Register.
 211:Drivers/CMSIS/Include/cmsis_gcc.h ****   \param [in]    priMask  Priority Mask
 212:Drivers/CMSIS/Include/cmsis_gcc.h ****  */
 213:Drivers/CMSIS/Include/cmsis_gcc.h **** __attribute__( ( always_inline ) ) __STATIC_INLINE void __set_PRIMASK(uint32_t priMask)
 214:Drivers/CMSIS/Include/cmsis_gcc.h **** {
 215:Drivers/CMSIS/Include/cmsis_gcc.h ****   __ASM volatile ("MSR primask, %0" : : "r" (priMask) : "memory");
 216:Drivers/CMSIS/Include/cmsis_gcc.h **** }
 217:Drivers/CMSIS/Include/cmsis_gcc.h **** 
 218:Drivers/CMSIS/Include/cmsis_gcc.h **** 
 219:Drivers/CMSIS/Include/cmsis_gcc.h **** #if       (__CORTEX_M >= 0x03U)
 220:Drivers/CMSIS/Include/cmsis_gcc.h **** 
 221:Drivers/CMSIS/Include/cmsis_gcc.h **** /**
 222:Drivers/CMSIS/Include/cmsis_gcc.h ****   \brief   Enable FIQ
 223:Drivers/CMSIS/Include/cmsis_gcc.h ****   \details Enables FIQ interrupts by clearing the F-bit in the CPSR.
 224:Drivers/CMSIS/Include/cmsis_gcc.h ****            Can only be executed in Privileged modes.
 225:Drivers/CMSIS/Include/cmsis_gcc.h ****  */
 226:Drivers/CMSIS/Include/cmsis_gcc.h **** __attribute__( ( always_inline ) ) __STATIC_INLINE void __enable_fault_irq(void)
 227:Drivers/CMSIS/Include/cmsis_gcc.h **** {
 228:Drivers/CMSIS/Include/cmsis_gcc.h ****   __ASM volatile ("cpsie f" : : : "memory");
 229:Drivers/CMSIS/Include/cmsis_gcc.h **** }
 230:Drivers/CMSIS/Include/cmsis_gcc.h **** 
 231:Drivers/CMSIS/Include/cmsis_gcc.h **** 
 232:Drivers/CMSIS/Include/cmsis_gcc.h **** /**
 233:Drivers/CMSIS/Include/cmsis_gcc.h ****   \brief   Disable FIQ
 234:Drivers/CMSIS/Include/cmsis_gcc.h ****   \details Disables FIQ interrupts by setting the F-bit in the CPSR.
 235:Drivers/CMSIS/Include/cmsis_gcc.h ****            Can only be executed in Privileged modes.
 236:Drivers/CMSIS/Include/cmsis_gcc.h ****  */
 237:Drivers/CMSIS/Include/cmsis_gcc.h **** __attribute__( ( always_inline ) ) __STATIC_INLINE void __disable_fault_irq(void)
 238:Drivers/CMSIS/Include/cmsis_gcc.h **** {
 239:Drivers/CMSIS/Include/cmsis_gcc.h ****   __ASM volatile ("cpsid f" : : : "memory");
 240:Drivers/CMSIS/Include/cmsis_gcc.h **** }
 241:Drivers/CMSIS/Include/cmsis_gcc.h **** 
ARM GAS  /tmp/cc8f1EWx.s 			page 22


 242:Drivers/CMSIS/Include/cmsis_gcc.h **** 
 243:Drivers/CMSIS/Include/cmsis_gcc.h **** /**
 244:Drivers/CMSIS/Include/cmsis_gcc.h ****   \brief   Get Base Priority
 245:Drivers/CMSIS/Include/cmsis_gcc.h ****   \details Returns the current value of the Base Priority register.
 246:Drivers/CMSIS/Include/cmsis_gcc.h ****   \return               Base Priority register value
 247:Drivers/CMSIS/Include/cmsis_gcc.h ****  */
 248:Drivers/CMSIS/Include/cmsis_gcc.h **** __attribute__( ( always_inline ) ) __STATIC_INLINE uint32_t __get_BASEPRI(void)
 249:Drivers/CMSIS/Include/cmsis_gcc.h **** {
 250:Drivers/CMSIS/Include/cmsis_gcc.h ****   uint32_t result;
 251:Drivers/CMSIS/Include/cmsis_gcc.h **** 
 252:Drivers/CMSIS/Include/cmsis_gcc.h ****   __ASM volatile ("MRS %0, basepri" : "=r" (result) );
 253:Drivers/CMSIS/Include/cmsis_gcc.h ****   return(result);
 254:Drivers/CMSIS/Include/cmsis_gcc.h **** }
 255:Drivers/CMSIS/Include/cmsis_gcc.h **** 
 256:Drivers/CMSIS/Include/cmsis_gcc.h **** 
 257:Drivers/CMSIS/Include/cmsis_gcc.h **** /**
 258:Drivers/CMSIS/Include/cmsis_gcc.h ****   \brief   Set Base Priority
 259:Drivers/CMSIS/Include/cmsis_gcc.h ****   \details Assigns the given value to the Base Priority register.
 260:Drivers/CMSIS/Include/cmsis_gcc.h ****   \param [in]    basePri  Base Priority value to set
 261:Drivers/CMSIS/Include/cmsis_gcc.h ****  */
 262:Drivers/CMSIS/Include/cmsis_gcc.h **** __attribute__( ( always_inline ) ) __STATIC_INLINE void __set_BASEPRI(uint32_t value)
 263:Drivers/CMSIS/Include/cmsis_gcc.h **** {
 264:Drivers/CMSIS/Include/cmsis_gcc.h ****   __ASM volatile ("MSR basepri, %0" : : "r" (value) : "memory");
 265:Drivers/CMSIS/Include/cmsis_gcc.h **** }
 266:Drivers/CMSIS/Include/cmsis_gcc.h **** 
 267:Drivers/CMSIS/Include/cmsis_gcc.h **** 
 268:Drivers/CMSIS/Include/cmsis_gcc.h **** /**
 269:Drivers/CMSIS/Include/cmsis_gcc.h ****   \brief   Set Base Priority with condition
 270:Drivers/CMSIS/Include/cmsis_gcc.h ****   \details Assigns the given value to the Base Priority register only if BASEPRI masking is disable
 271:Drivers/CMSIS/Include/cmsis_gcc.h ****            or the new value increases the BASEPRI priority level.
 272:Drivers/CMSIS/Include/cmsis_gcc.h ****   \param [in]    basePri  Base Priority value to set
 273:Drivers/CMSIS/Include/cmsis_gcc.h ****  */
 274:Drivers/CMSIS/Include/cmsis_gcc.h **** __attribute__( ( always_inline ) ) __STATIC_INLINE void __set_BASEPRI_MAX(uint32_t value)
 275:Drivers/CMSIS/Include/cmsis_gcc.h **** {
 276:Drivers/CMSIS/Include/cmsis_gcc.h ****   __ASM volatile ("MSR basepri_max, %0" : : "r" (value) : "memory");
 277:Drivers/CMSIS/Include/cmsis_gcc.h **** }
 278:Drivers/CMSIS/Include/cmsis_gcc.h **** 
 279:Drivers/CMSIS/Include/cmsis_gcc.h **** 
 280:Drivers/CMSIS/Include/cmsis_gcc.h **** /**
 281:Drivers/CMSIS/Include/cmsis_gcc.h ****   \brief   Get Fault Mask
 282:Drivers/CMSIS/Include/cmsis_gcc.h ****   \details Returns the current value of the Fault Mask register.
 283:Drivers/CMSIS/Include/cmsis_gcc.h ****   \return               Fault Mask register value
 284:Drivers/CMSIS/Include/cmsis_gcc.h ****  */
 285:Drivers/CMSIS/Include/cmsis_gcc.h **** __attribute__( ( always_inline ) ) __STATIC_INLINE uint32_t __get_FAULTMASK(void)
 286:Drivers/CMSIS/Include/cmsis_gcc.h **** {
 287:Drivers/CMSIS/Include/cmsis_gcc.h ****   uint32_t result;
 288:Drivers/CMSIS/Include/cmsis_gcc.h **** 
 289:Drivers/CMSIS/Include/cmsis_gcc.h ****   __ASM volatile ("MRS %0, faultmask" : "=r" (result) );
 290:Drivers/CMSIS/Include/cmsis_gcc.h ****   return(result);
 291:Drivers/CMSIS/Include/cmsis_gcc.h **** }
 292:Drivers/CMSIS/Include/cmsis_gcc.h **** 
 293:Drivers/CMSIS/Include/cmsis_gcc.h **** 
 294:Drivers/CMSIS/Include/cmsis_gcc.h **** /**
 295:Drivers/CMSIS/Include/cmsis_gcc.h ****   \brief   Set Fault Mask
 296:Drivers/CMSIS/Include/cmsis_gcc.h ****   \details Assigns the given value to the Fault Mask register.
 297:Drivers/CMSIS/Include/cmsis_gcc.h ****   \param [in]    faultMask  Fault Mask value to set
 298:Drivers/CMSIS/Include/cmsis_gcc.h ****  */
ARM GAS  /tmp/cc8f1EWx.s 			page 23


 299:Drivers/CMSIS/Include/cmsis_gcc.h **** __attribute__( ( always_inline ) ) __STATIC_INLINE void __set_FAULTMASK(uint32_t faultMask)
 300:Drivers/CMSIS/Include/cmsis_gcc.h **** {
 301:Drivers/CMSIS/Include/cmsis_gcc.h ****   __ASM volatile ("MSR faultmask, %0" : : "r" (faultMask) : "memory");
 302:Drivers/CMSIS/Include/cmsis_gcc.h **** }
 303:Drivers/CMSIS/Include/cmsis_gcc.h **** 
 304:Drivers/CMSIS/Include/cmsis_gcc.h **** #endif /* (__CORTEX_M >= 0x03U) */
 305:Drivers/CMSIS/Include/cmsis_gcc.h **** 
 306:Drivers/CMSIS/Include/cmsis_gcc.h **** 
 307:Drivers/CMSIS/Include/cmsis_gcc.h **** #if       (__CORTEX_M == 0x04U) || (__CORTEX_M == 0x07U)
 308:Drivers/CMSIS/Include/cmsis_gcc.h **** 
 309:Drivers/CMSIS/Include/cmsis_gcc.h **** /**
 310:Drivers/CMSIS/Include/cmsis_gcc.h ****   \brief   Get FPSCR
 311:Drivers/CMSIS/Include/cmsis_gcc.h ****   \details Returns the current value of the Floating Point Status/Control register.
 312:Drivers/CMSIS/Include/cmsis_gcc.h ****   \return               Floating Point Status/Control register value
 313:Drivers/CMSIS/Include/cmsis_gcc.h ****  */
 314:Drivers/CMSIS/Include/cmsis_gcc.h **** __attribute__( ( always_inline ) ) __STATIC_INLINE uint32_t __get_FPSCR(void)
 315:Drivers/CMSIS/Include/cmsis_gcc.h **** {
 316:Drivers/CMSIS/Include/cmsis_gcc.h **** #if (__FPU_PRESENT == 1U) && (__FPU_USED == 1U)
 317:Drivers/CMSIS/Include/cmsis_gcc.h ****   uint32_t result;
 318:Drivers/CMSIS/Include/cmsis_gcc.h **** 
 319:Drivers/CMSIS/Include/cmsis_gcc.h ****   /* Empty asm statement works as a scheduling barrier */
 320:Drivers/CMSIS/Include/cmsis_gcc.h ****   __ASM volatile ("");
 321:Drivers/CMSIS/Include/cmsis_gcc.h ****   __ASM volatile ("VMRS %0, fpscr" : "=r" (result) );
 322:Drivers/CMSIS/Include/cmsis_gcc.h ****   __ASM volatile ("");
 323:Drivers/CMSIS/Include/cmsis_gcc.h ****   return(result);
 324:Drivers/CMSIS/Include/cmsis_gcc.h **** #else
 325:Drivers/CMSIS/Include/cmsis_gcc.h ****    return(0);
 326:Drivers/CMSIS/Include/cmsis_gcc.h **** #endif
 327:Drivers/CMSIS/Include/cmsis_gcc.h **** }
 328:Drivers/CMSIS/Include/cmsis_gcc.h **** 
 329:Drivers/CMSIS/Include/cmsis_gcc.h **** 
 330:Drivers/CMSIS/Include/cmsis_gcc.h **** /**
 331:Drivers/CMSIS/Include/cmsis_gcc.h ****   \brief   Set FPSCR
 332:Drivers/CMSIS/Include/cmsis_gcc.h ****   \details Assigns the given value to the Floating Point Status/Control register.
 333:Drivers/CMSIS/Include/cmsis_gcc.h ****   \param [in]    fpscr  Floating Point Status/Control value to set
 334:Drivers/CMSIS/Include/cmsis_gcc.h ****  */
 335:Drivers/CMSIS/Include/cmsis_gcc.h **** __attribute__( ( always_inline ) ) __STATIC_INLINE void __set_FPSCR(uint32_t fpscr)
 336:Drivers/CMSIS/Include/cmsis_gcc.h **** {
 337:Drivers/CMSIS/Include/cmsis_gcc.h **** #if (__FPU_PRESENT == 1U) && (__FPU_USED == 1U)
 338:Drivers/CMSIS/Include/cmsis_gcc.h ****   /* Empty asm statement works as a scheduling barrier */
 339:Drivers/CMSIS/Include/cmsis_gcc.h ****   __ASM volatile ("");
 340:Drivers/CMSIS/Include/cmsis_gcc.h ****   __ASM volatile ("VMSR fpscr, %0" : : "r" (fpscr) : "vfpcc");
 341:Drivers/CMSIS/Include/cmsis_gcc.h ****   __ASM volatile ("");
 342:Drivers/CMSIS/Include/cmsis_gcc.h **** #endif
 343:Drivers/CMSIS/Include/cmsis_gcc.h **** }
 344:Drivers/CMSIS/Include/cmsis_gcc.h **** 
 345:Drivers/CMSIS/Include/cmsis_gcc.h **** #endif /* (__CORTEX_M == 0x04U) || (__CORTEX_M == 0x07U) */
 346:Drivers/CMSIS/Include/cmsis_gcc.h **** 
 347:Drivers/CMSIS/Include/cmsis_gcc.h **** 
 348:Drivers/CMSIS/Include/cmsis_gcc.h **** 
 349:Drivers/CMSIS/Include/cmsis_gcc.h **** /*@} end of CMSIS_Core_RegAccFunctions */
 350:Drivers/CMSIS/Include/cmsis_gcc.h **** 
 351:Drivers/CMSIS/Include/cmsis_gcc.h **** 
 352:Drivers/CMSIS/Include/cmsis_gcc.h **** /* ##########################  Core Instruction Access  ######################### */
 353:Drivers/CMSIS/Include/cmsis_gcc.h **** /** \defgroup CMSIS_Core_InstructionInterface CMSIS Core Instruction Interface
 354:Drivers/CMSIS/Include/cmsis_gcc.h ****   Access to dedicated instructions
 355:Drivers/CMSIS/Include/cmsis_gcc.h ****   @{
ARM GAS  /tmp/cc8f1EWx.s 			page 24


 356:Drivers/CMSIS/Include/cmsis_gcc.h **** */
 357:Drivers/CMSIS/Include/cmsis_gcc.h **** 
 358:Drivers/CMSIS/Include/cmsis_gcc.h **** /* Define macros for porting to both thumb1 and thumb2.
 359:Drivers/CMSIS/Include/cmsis_gcc.h ****  * For thumb1, use low register (r0-r7), specified by constraint "l"
 360:Drivers/CMSIS/Include/cmsis_gcc.h ****  * Otherwise, use general registers, specified by constraint "r" */
 361:Drivers/CMSIS/Include/cmsis_gcc.h **** #if defined (__thumb__) && !defined (__thumb2__)
 362:Drivers/CMSIS/Include/cmsis_gcc.h **** #define __CMSIS_GCC_OUT_REG(r) "=l" (r)
 363:Drivers/CMSIS/Include/cmsis_gcc.h **** #define __CMSIS_GCC_USE_REG(r) "l" (r)
 364:Drivers/CMSIS/Include/cmsis_gcc.h **** #else
 365:Drivers/CMSIS/Include/cmsis_gcc.h **** #define __CMSIS_GCC_OUT_REG(r) "=r" (r)
 366:Drivers/CMSIS/Include/cmsis_gcc.h **** #define __CMSIS_GCC_USE_REG(r) "r" (r)
 367:Drivers/CMSIS/Include/cmsis_gcc.h **** #endif
 368:Drivers/CMSIS/Include/cmsis_gcc.h **** 
 369:Drivers/CMSIS/Include/cmsis_gcc.h **** /**
 370:Drivers/CMSIS/Include/cmsis_gcc.h ****   \brief   No Operation
 371:Drivers/CMSIS/Include/cmsis_gcc.h ****   \details No Operation does nothing. This instruction can be used for code alignment purposes.
 372:Drivers/CMSIS/Include/cmsis_gcc.h ****  */
 373:Drivers/CMSIS/Include/cmsis_gcc.h **** __attribute__((always_inline)) __STATIC_INLINE void __NOP(void)
 374:Drivers/CMSIS/Include/cmsis_gcc.h **** {
 375:Drivers/CMSIS/Include/cmsis_gcc.h ****   __ASM volatile ("nop");
 376:Drivers/CMSIS/Include/cmsis_gcc.h **** }
 377:Drivers/CMSIS/Include/cmsis_gcc.h **** 
 378:Drivers/CMSIS/Include/cmsis_gcc.h **** 
 379:Drivers/CMSIS/Include/cmsis_gcc.h **** /**
 380:Drivers/CMSIS/Include/cmsis_gcc.h ****   \brief   Wait For Interrupt
 381:Drivers/CMSIS/Include/cmsis_gcc.h ****   \details Wait For Interrupt is a hint instruction that suspends execution until one of a number o
 382:Drivers/CMSIS/Include/cmsis_gcc.h ****  */
 383:Drivers/CMSIS/Include/cmsis_gcc.h **** __attribute__((always_inline)) __STATIC_INLINE void __WFI(void)
 384:Drivers/CMSIS/Include/cmsis_gcc.h **** {
 385:Drivers/CMSIS/Include/cmsis_gcc.h ****   __ASM volatile ("wfi");
 386:Drivers/CMSIS/Include/cmsis_gcc.h **** }
 387:Drivers/CMSIS/Include/cmsis_gcc.h **** 
 388:Drivers/CMSIS/Include/cmsis_gcc.h **** 
 389:Drivers/CMSIS/Include/cmsis_gcc.h **** /**
 390:Drivers/CMSIS/Include/cmsis_gcc.h ****   \brief   Wait For Event
 391:Drivers/CMSIS/Include/cmsis_gcc.h ****   \details Wait For Event is a hint instruction that permits the processor to enter
 392:Drivers/CMSIS/Include/cmsis_gcc.h ****     a low-power state until one of a number of events occurs.
 393:Drivers/CMSIS/Include/cmsis_gcc.h ****  */
 394:Drivers/CMSIS/Include/cmsis_gcc.h **** __attribute__((always_inline)) __STATIC_INLINE void __WFE(void)
 395:Drivers/CMSIS/Include/cmsis_gcc.h **** {
 396:Drivers/CMSIS/Include/cmsis_gcc.h ****   __ASM volatile ("wfe");
 397:Drivers/CMSIS/Include/cmsis_gcc.h **** }
 398:Drivers/CMSIS/Include/cmsis_gcc.h **** 
 399:Drivers/CMSIS/Include/cmsis_gcc.h **** 
 400:Drivers/CMSIS/Include/cmsis_gcc.h **** /**
 401:Drivers/CMSIS/Include/cmsis_gcc.h ****   \brief   Send Event
 402:Drivers/CMSIS/Include/cmsis_gcc.h ****   \details Send Event is a hint instruction. It causes an event to be signaled to the CPU.
 403:Drivers/CMSIS/Include/cmsis_gcc.h ****  */
 404:Drivers/CMSIS/Include/cmsis_gcc.h **** __attribute__((always_inline)) __STATIC_INLINE void __SEV(void)
 405:Drivers/CMSIS/Include/cmsis_gcc.h **** {
 406:Drivers/CMSIS/Include/cmsis_gcc.h ****   __ASM volatile ("sev");
 407:Drivers/CMSIS/Include/cmsis_gcc.h **** }
 408:Drivers/CMSIS/Include/cmsis_gcc.h **** 
 409:Drivers/CMSIS/Include/cmsis_gcc.h **** 
 410:Drivers/CMSIS/Include/cmsis_gcc.h **** /**
 411:Drivers/CMSIS/Include/cmsis_gcc.h ****   \brief   Instruction Synchronization Barrier
 412:Drivers/CMSIS/Include/cmsis_gcc.h ****   \details Instruction Synchronization Barrier flushes the pipeline in the processor,
ARM GAS  /tmp/cc8f1EWx.s 			page 25


 413:Drivers/CMSIS/Include/cmsis_gcc.h ****            so that all instructions following the ISB are fetched from cache or memory,
 414:Drivers/CMSIS/Include/cmsis_gcc.h ****            after the instruction has been completed.
 415:Drivers/CMSIS/Include/cmsis_gcc.h ****  */
 416:Drivers/CMSIS/Include/cmsis_gcc.h **** __attribute__((always_inline)) __STATIC_INLINE void __ISB(void)
 417:Drivers/CMSIS/Include/cmsis_gcc.h **** {
 418:Drivers/CMSIS/Include/cmsis_gcc.h ****   __ASM volatile ("isb 0xF":::"memory");
 419:Drivers/CMSIS/Include/cmsis_gcc.h **** }
 420:Drivers/CMSIS/Include/cmsis_gcc.h **** 
 421:Drivers/CMSIS/Include/cmsis_gcc.h **** 
 422:Drivers/CMSIS/Include/cmsis_gcc.h **** /**
 423:Drivers/CMSIS/Include/cmsis_gcc.h ****   \brief   Data Synchronization Barrier
 424:Drivers/CMSIS/Include/cmsis_gcc.h ****   \details Acts as a special kind of Data Memory Barrier.
 425:Drivers/CMSIS/Include/cmsis_gcc.h ****            It completes when all explicit memory accesses before this instruction complete.
 426:Drivers/CMSIS/Include/cmsis_gcc.h ****  */
 427:Drivers/CMSIS/Include/cmsis_gcc.h **** __attribute__((always_inline)) __STATIC_INLINE void __DSB(void)
 428:Drivers/CMSIS/Include/cmsis_gcc.h **** {
 429:Drivers/CMSIS/Include/cmsis_gcc.h ****   __ASM volatile ("dsb 0xF":::"memory");
 159              		.loc 2 429 0
 160              		.syntax unified
 161              	@ 429 "Drivers/CMSIS/Include/cmsis_gcc.h" 1
 162 007a BFF34F8F 		dsb 0xF
 163              	@ 0 "" 2
 164              	.LVL10:
 165              		.thumb
 166              		.syntax unified
 167              	.L13:
 168              	.LBE87:
 169              	.LBE86:
 170              	.LBE88:
 171              	.LBE89:
 172              	.LBB90:
 173              	.LBB91:
 619:Drivers/STM32F7xx_HAL_Driver/Src/stm32f7xx_hal_flash.c ****   
 174              		.loc 1 619 0
 175 007e 0023     		movs	r3, #0
 627:Drivers/STM32F7xx_HAL_Driver/Src/stm32f7xx_hal_flash.c ****   { 
 176              		.loc 1 627 0
 177 0080 5F4C     		ldr	r4, .L69+4
 631:Drivers/STM32F7xx_HAL_Driver/Src/stm32f7xx_hal_flash.c ****       {
 178              		.loc 1 631 0
 179 0082 4CF25036 		movw	r6, #50000
 619:Drivers/STM32F7xx_HAL_Driver/Src/stm32f7xx_hal_flash.c ****   
 180              		.loc 1 619 0
 181 0086 BB61     		str	r3, [r7, #24]
 625:Drivers/STM32F7xx_HAL_Driver/Src/stm32f7xx_hal_flash.c **** 
 182              		.loc 1 625 0
 183 0088 FFF7FEFF 		bl	HAL_GetTick
 184              	.LVL11:
 185 008c 0546     		mov	r5, r0
 186              	.LVL12:
 187 008e 05E0     		b	.L19
 188              	.LVL13:
 189              	.L21:
 631:Drivers/STM32F7xx_HAL_Driver/Src/stm32f7xx_hal_flash.c ****       {
 190              		.loc 1 631 0
 191 0090 FFF7FEFF 		bl	HAL_GetTick
 192              	.LVL14:
ARM GAS  /tmp/cc8f1EWx.s 			page 26


 193 0094 401B     		subs	r0, r0, r5
 194 0096 B042     		cmp	r0, r6
 195 0098 00F28180 		bhi	.L30
 196              	.L19:
 627:Drivers/STM32F7xx_HAL_Driver/Src/stm32f7xx_hal_flash.c ****   { 
 197              		.loc 1 627 0
 198 009c E368     		ldr	r3, [r4, #12]
 199 009e DB03     		lsls	r3, r3, #15
 200 00a0 F6D4     		bmi	.L21
 638:Drivers/STM32F7xx_HAL_Driver/Src/stm32f7xx_hal_flash.c ****   {
 201              		.loc 1 638 0
 202 00a2 E068     		ldr	r0, [r4, #12]
 203              	.LBB92:
 204              	.LBB93:
 205              		.loc 1 783 0
 206 00a4 E368     		ldr	r3, [r4, #12]
 207              	.LBE93:
 208              	.LBE92:
 638:Drivers/STM32F7xx_HAL_Driver/Src/stm32f7xx_hal_flash.c ****   {
 209              		.loc 1 638 0
 210 00a6 10F0F200 		ands	r0, r0, #242
 211 00aa 4DD1     		bne	.L68
 212              	.LVL15:
 213              	.LBB96:
 214              	.LBB97:
 646:Drivers/STM32F7xx_HAL_Driver/Src/stm32f7xx_hal_flash.c ****   {
 215              		.loc 1 646 0
 216 00ac 13F00103 		ands	r3, r3, #1
 217 00b0 00F0A280 		beq	.L31
 649:Drivers/STM32F7xx_HAL_Driver/Src/stm32f7xx_hal_flash.c ****   }
 218              		.loc 1 649 0
 219 00b4 0123     		movs	r3, #1
 220 00b6 E360     		str	r3, [r4, #12]
 221              	.LVL16:
 222              	.L20:
 223              	.LBE97:
 224              	.LBE96:
 225              	.LBE91:
 226              	.LBE90:
 231:Drivers/STM32F7xx_HAL_Driver/Src/stm32f7xx_hal_flash.c ****   }
 227              		.loc 1 231 0
 228 00b8 514A     		ldr	r2, .L69+4
 229 00ba 1369     		ldr	r3, [r2, #16]
 230 00bc 23F00103 		bic	r3, r3, #1
 231 00c0 1361     		str	r3, [r2, #16]
 232 00c2 03E0     		b	.L4
 233              	.LVL17:
 234              	.L28:
 185:Drivers/STM32F7xx_HAL_Driver/Src/stm32f7xx_hal_flash.c **** 
 235              		.loc 1 185 0
 236 00c4 0220     		movs	r0, #2
 237              	.LVL18:
 238:Drivers/STM32F7xx_HAL_Driver/Src/stm32f7xx_hal_flash.c **** 
 238              		.loc 1 238 0
 239 00c6 BDE8F88F 		pop	{r3, r4, r5, r6, r7, r8, r9, r10, fp, pc}
 240              	.LVL19:
 241              	.L29:
ARM GAS  /tmp/cc8f1EWx.s 			page 27


 242              	.LBB104:
 243              	.LBB81:
 631:Drivers/STM32F7xx_HAL_Driver/Src/stm32f7xx_hal_flash.c ****       {
 244              		.loc 1 631 0
 245 00ca 0320     		movs	r0, #3
 246              	.LVL20:
 247              	.L4:
 248              	.LBE81:
 249              	.LBE104:
 235:Drivers/STM32F7xx_HAL_Driver/Src/stm32f7xx_hal_flash.c **** 
 250              		.loc 1 235 0
 251 00cc 0023     		movs	r3, #0
 252 00ce 3B75     		strb	r3, [r7, #20]
 238:Drivers/STM32F7xx_HAL_Driver/Src/stm32f7xx_hal_flash.c **** 
 253              		.loc 1 238 0
 254 00d0 BDE8F88F 		pop	{r3, r4, r5, r6, r7, r8, r9, r10, fp, pc}
 255              	.LVL21:
 256              	.L18:
 257              	.LBB105:
 258              	.LBB106:
 675:Drivers/STM32F7xx_HAL_Driver/Src/stm32f7xx_hal_flash.c ****   FLASH->CR |= FLASH_PSIZE_DOUBLE_WORD;
 259              		.loc 1 675 0
 260 00d4 4A4B     		ldr	r3, .L69+4
 261 00d6 1A69     		ldr	r2, [r3, #16]
 262 00d8 22F44072 		bic	r2, r2, #768
 263 00dc 1A61     		str	r2, [r3, #16]
 676:Drivers/STM32F7xx_HAL_Driver/Src/stm32f7xx_hal_flash.c ****   FLASH->CR |= FLASH_CR_PG;
 264              		.loc 1 676 0
 265 00de 1A69     		ldr	r2, [r3, #16]
 266 00e0 42F44072 		orr	r2, r2, #768
 267 00e4 1A61     		str	r2, [r3, #16]
 677:Drivers/STM32F7xx_HAL_Driver/Src/stm32f7xx_hal_flash.c **** 
 268              		.loc 1 677 0
 269 00e6 1A69     		ldr	r2, [r3, #16]
 270 00e8 42F00102 		orr	r2, r2, #1
 271 00ec 1A61     		str	r2, [r3, #16]
 680:Drivers/STM32F7xx_HAL_Driver/Src/stm32f7xx_hal_flash.c ****   *(__IO uint32_t*)(Address+4) = (uint32_t)(Data >> 32);
 272              		.loc 1 680 0
 273 00ee CAF80090 		str	r9, [r10]
 681:Drivers/STM32F7xx_HAL_Driver/Src/stm32f7xx_hal_flash.c **** 
 274              		.loc 1 681 0
 275 00f2 CAF804B0 		str	fp, [r10, #4]
 276              	.LBB107:
 277              	.LBB108:
 278              		.loc 2 429 0
 279              		.syntax unified
 280              	@ 429 "Drivers/CMSIS/Include/cmsis_gcc.h" 1
 281 00f6 BFF34F8F 		dsb 0xF
 282              	@ 0 "" 2
 283              		.thumb
 284              		.syntax unified
 285 00fa C0E7     		b	.L13
 286              	.LVL22:
 287              	.L16:
 288              	.LBE108:
 289              	.LBE107:
 290              	.LBE106:
ARM GAS  /tmp/cc8f1EWx.s 			page 28


 291              	.LBE105:
 292              	.LBB109:
 293              	.LBB110:
 736:Drivers/STM32F7xx_HAL_Driver/Src/stm32f7xx_hal_flash.c ****   FLASH->CR |= FLASH_PSIZE_HALF_WORD;
 294              		.loc 1 736 0
 295 00fc 404B     		ldr	r3, .L69+4
 296              	.LBE110:
 297              	.LBE109:
 207:Drivers/STM32F7xx_HAL_Driver/Src/stm32f7xx_hal_flash.c ****         break;
 298              		.loc 1 207 0
 299 00fe 1FFA89F9 		uxth	r9, r9
 300              	.LVL23:
 301              	.LBB114:
 302              	.LBB113:
 736:Drivers/STM32F7xx_HAL_Driver/Src/stm32f7xx_hal_flash.c ****   FLASH->CR |= FLASH_PSIZE_HALF_WORD;
 303              		.loc 1 736 0
 304 0102 1A69     		ldr	r2, [r3, #16]
 305 0104 22F44072 		bic	r2, r2, #768
 306 0108 1A61     		str	r2, [r3, #16]
 737:Drivers/STM32F7xx_HAL_Driver/Src/stm32f7xx_hal_flash.c ****   FLASH->CR |= FLASH_CR_PG;
 307              		.loc 1 737 0
 308 010a 1A69     		ldr	r2, [r3, #16]
 309 010c 42F48072 		orr	r2, r2, #256
 310 0110 1A61     		str	r2, [r3, #16]
 738:Drivers/STM32F7xx_HAL_Driver/Src/stm32f7xx_hal_flash.c **** 
 311              		.loc 1 738 0
 312 0112 1A69     		ldr	r2, [r3, #16]
 313 0114 42F00102 		orr	r2, r2, #1
 314 0118 1A61     		str	r2, [r3, #16]
 740:Drivers/STM32F7xx_HAL_Driver/Src/stm32f7xx_hal_flash.c **** 
 315              		.loc 1 740 0
 316 011a AAF80090 		strh	r9, [r10]	@ movhi
 317              	.LBB111:
 318              	.LBB112:
 319              		.loc 2 429 0
 320              		.syntax unified
 321              	@ 429 "Drivers/CMSIS/Include/cmsis_gcc.h" 1
 322 011e BFF34F8F 		dsb 0xF
 323              	@ 0 "" 2
 324              		.thumb
 325              		.syntax unified
 326 0122 ACE7     		b	.L13
 327              	.LVL24:
 328              	.L17:
 329              	.LBE112:
 330              	.LBE111:
 331              	.LBE113:
 332              	.LBE114:
 333              	.LBB115:
 334              	.LBB116:
 707:Drivers/STM32F7xx_HAL_Driver/Src/stm32f7xx_hal_flash.c ****   FLASH->CR |= FLASH_PSIZE_WORD;
 335              		.loc 1 707 0
 336 0124 364B     		ldr	r3, .L69+4
 337 0126 1A69     		ldr	r2, [r3, #16]
 338 0128 22F44072 		bic	r2, r2, #768
 339 012c 1A61     		str	r2, [r3, #16]
 708:Drivers/STM32F7xx_HAL_Driver/Src/stm32f7xx_hal_flash.c ****   FLASH->CR |= FLASH_CR_PG;
ARM GAS  /tmp/cc8f1EWx.s 			page 29


 340              		.loc 1 708 0
 341 012e 1A69     		ldr	r2, [r3, #16]
 342 0130 42F40072 		orr	r2, r2, #512
 343 0134 1A61     		str	r2, [r3, #16]
 709:Drivers/STM32F7xx_HAL_Driver/Src/stm32f7xx_hal_flash.c **** 
 344              		.loc 1 709 0
 345 0136 1A69     		ldr	r2, [r3, #16]
 346 0138 42F00102 		orr	r2, r2, #1
 347 013c 1A61     		str	r2, [r3, #16]
 711:Drivers/STM32F7xx_HAL_Driver/Src/stm32f7xx_hal_flash.c ****   
 348              		.loc 1 711 0
 349 013e CAF80090 		str	r9, [r10]
 350              	.LBB117:
 351              	.LBB118:
 352              		.loc 2 429 0
 353              		.syntax unified
 354              	@ 429 "Drivers/CMSIS/Include/cmsis_gcc.h" 1
 355 0142 BFF34F8F 		dsb 0xF
 356              	@ 0 "" 2
 357              		.thumb
 358              		.syntax unified
 359 0146 9AE7     		b	.L13
 360              	.LVL25:
 361              	.L68:
 362              	.LBE118:
 363              	.LBE117:
 364              	.LBE116:
 365              	.LBE115:
 366              	.LBB119:
 367              	.LBB102:
 368              	.LBB99:
 369              	.LBB94:
 370              		.loc 1 783 0
 371 0148 9C07     		lsls	r4, r3, #30
 372 014a 03D5     		bpl	.L23
 784:Drivers/STM32F7xx_HAL_Driver/Src/stm32f7xx_hal_flash.c ****   {
 785:Drivers/STM32F7xx_HAL_Driver/Src/stm32f7xx_hal_flash.c ****     pFlash.ErrorCode |= HAL_FLASH_ERROR_OPERATION;
 373              		.loc 1 785 0
 374 014c BB69     		ldr	r3, [r7, #24]
 375 014e 43F02003 		orr	r3, r3, #32
 376 0152 BB61     		str	r3, [r7, #24]
 377              	.L23:
 786:Drivers/STM32F7xx_HAL_Driver/Src/stm32f7xx_hal_flash.c ****   }
 787:Drivers/STM32F7xx_HAL_Driver/Src/stm32f7xx_hal_flash.c ****   
 788:Drivers/STM32F7xx_HAL_Driver/Src/stm32f7xx_hal_flash.c ****   if(__HAL_FLASH_GET_FLAG(FLASH_FLAG_WRPERR) != RESET)
 378              		.loc 1 788 0
 379 0154 2A4B     		ldr	r3, .L69+4
 380 0156 DB68     		ldr	r3, [r3, #12]
 381 0158 D806     		lsls	r0, r3, #27
 382 015a 03D5     		bpl	.L24
 789:Drivers/STM32F7xx_HAL_Driver/Src/stm32f7xx_hal_flash.c ****   {
 790:Drivers/STM32F7xx_HAL_Driver/Src/stm32f7xx_hal_flash.c ****    pFlash.ErrorCode |= HAL_FLASH_ERROR_WRP;
 383              		.loc 1 790 0
 384 015c BB69     		ldr	r3, [r7, #24]
 385 015e 43F01003 		orr	r3, r3, #16
 386 0162 BB61     		str	r3, [r7, #24]
 387              	.L24:
ARM GAS  /tmp/cc8f1EWx.s 			page 30


 791:Drivers/STM32F7xx_HAL_Driver/Src/stm32f7xx_hal_flash.c ****   }
 792:Drivers/STM32F7xx_HAL_Driver/Src/stm32f7xx_hal_flash.c ****   
 793:Drivers/STM32F7xx_HAL_Driver/Src/stm32f7xx_hal_flash.c ****   if(__HAL_FLASH_GET_FLAG(FLASH_FLAG_PGAERR) != RESET)
 388              		.loc 1 793 0
 389 0164 264B     		ldr	r3, .L69+4
 390 0166 DB68     		ldr	r3, [r3, #12]
 391 0168 9906     		lsls	r1, r3, #26
 392 016a 03D5     		bpl	.L25
 794:Drivers/STM32F7xx_HAL_Driver/Src/stm32f7xx_hal_flash.c ****   {
 795:Drivers/STM32F7xx_HAL_Driver/Src/stm32f7xx_hal_flash.c ****    pFlash.ErrorCode |= HAL_FLASH_ERROR_PGA;
 393              		.loc 1 795 0
 394 016c BB69     		ldr	r3, [r7, #24]
 395 016e 43F00803 		orr	r3, r3, #8
 396 0172 BB61     		str	r3, [r7, #24]
 397              	.L25:
 796:Drivers/STM32F7xx_HAL_Driver/Src/stm32f7xx_hal_flash.c ****   }
 797:Drivers/STM32F7xx_HAL_Driver/Src/stm32f7xx_hal_flash.c ****   
 798:Drivers/STM32F7xx_HAL_Driver/Src/stm32f7xx_hal_flash.c ****   if(__HAL_FLASH_GET_FLAG(FLASH_FLAG_PGPERR) != RESET)
 398              		.loc 1 798 0
 399 0174 224B     		ldr	r3, .L69+4
 400 0176 DB68     		ldr	r3, [r3, #12]
 401 0178 5A06     		lsls	r2, r3, #25
 402 017a 03D5     		bpl	.L26
 799:Drivers/STM32F7xx_HAL_Driver/Src/stm32f7xx_hal_flash.c ****   {
 800:Drivers/STM32F7xx_HAL_Driver/Src/stm32f7xx_hal_flash.c ****     pFlash.ErrorCode |= HAL_FLASH_ERROR_PGP;
 403              		.loc 1 800 0
 404 017c BB69     		ldr	r3, [r7, #24]
 405 017e 43F00403 		orr	r3, r3, #4
 406 0182 BB61     		str	r3, [r7, #24]
 407              	.L26:
 801:Drivers/STM32F7xx_HAL_Driver/Src/stm32f7xx_hal_flash.c ****   }
 802:Drivers/STM32F7xx_HAL_Driver/Src/stm32f7xx_hal_flash.c ****   
 803:Drivers/STM32F7xx_HAL_Driver/Src/stm32f7xx_hal_flash.c ****   if(__HAL_FLASH_GET_FLAG(FLASH_FLAG_ERSERR) != RESET)
 408              		.loc 1 803 0
 409 0184 1E4B     		ldr	r3, .L69+4
 410 0186 DB68     		ldr	r3, [r3, #12]
 411 0188 1B06     		lsls	r3, r3, #24
 412 018a 03D5     		bpl	.L27
 804:Drivers/STM32F7xx_HAL_Driver/Src/stm32f7xx_hal_flash.c ****   {
 805:Drivers/STM32F7xx_HAL_Driver/Src/stm32f7xx_hal_flash.c ****     pFlash.ErrorCode |= HAL_FLASH_ERROR_ERS;
 413              		.loc 1 805 0
 414 018c BB69     		ldr	r3, [r7, #24]
 415 018e 43F00203 		orr	r3, r3, #2
 416 0192 BB61     		str	r3, [r7, #24]
 417              	.L27:
 806:Drivers/STM32F7xx_HAL_Driver/Src/stm32f7xx_hal_flash.c ****   }
 807:Drivers/STM32F7xx_HAL_Driver/Src/stm32f7xx_hal_flash.c ****   
 808:Drivers/STM32F7xx_HAL_Driver/Src/stm32f7xx_hal_flash.c **** #if defined (FLASH_OPTCR2_PCROP)
 809:Drivers/STM32F7xx_HAL_Driver/Src/stm32f7xx_hal_flash.c ****   if(__HAL_FLASH_GET_FLAG(FLASH_FLAG_RDERR) != RESET)
 810:Drivers/STM32F7xx_HAL_Driver/Src/stm32f7xx_hal_flash.c ****   { 
 811:Drivers/STM32F7xx_HAL_Driver/Src/stm32f7xx_hal_flash.c ****    pFlash.ErrorCode |= HAL_FLASH_ERROR_RD;
 812:Drivers/STM32F7xx_HAL_Driver/Src/stm32f7xx_hal_flash.c ****   }  
 813:Drivers/STM32F7xx_HAL_Driver/Src/stm32f7xx_hal_flash.c **** #endif /* FLASH_OPTCR2_PCROP */
 814:Drivers/STM32F7xx_HAL_Driver/Src/stm32f7xx_hal_flash.c ****   
 815:Drivers/STM32F7xx_HAL_Driver/Src/stm32f7xx_hal_flash.c ****   /* Clear error programming flags */
 816:Drivers/STM32F7xx_HAL_Driver/Src/stm32f7xx_hal_flash.c ****   __HAL_FLASH_CLEAR_FLAG(FLASH_FLAG_ALL_ERRORS);
 418              		.loc 1 816 0
ARM GAS  /tmp/cc8f1EWx.s 			page 31


 419 0194 1A4B     		ldr	r3, .L69+4
 420 0196 F222     		movs	r2, #242
 421              	.LBE94:
 422              	.LBE99:
 642:Drivers/STM32F7xx_HAL_Driver/Src/stm32f7xx_hal_flash.c ****   }
 423              		.loc 1 642 0
 424 0198 0120     		movs	r0, #1
 425              	.LBB100:
 426              	.LBB95:
 427              		.loc 1 816 0
 428 019a DA60     		str	r2, [r3, #12]
 429 019c 8CE7     		b	.L20
 430              	.L30:
 431              	.LBE95:
 432              	.LBE100:
 633:Drivers/STM32F7xx_HAL_Driver/Src/stm32f7xx_hal_flash.c ****       }
 433              		.loc 1 633 0
 434 019e 0320     		movs	r0, #3
 435 01a0 8AE7     		b	.L20
 436              	.LVL26:
 437              	.L67:
 438              	.LBE102:
 439              	.LBE119:
 440              	.LBB120:
 441              	.LBB82:
 442              	.LBB78:
 443              	.LBB74:
 783:Drivers/STM32F7xx_HAL_Driver/Src/stm32f7xx_hal_flash.c ****   {
 444              		.loc 1 783 0
 445 01a2 9E07     		lsls	r6, r3, #30
 446 01a4 03D5     		bpl	.L7
 785:Drivers/STM32F7xx_HAL_Driver/Src/stm32f7xx_hal_flash.c ****   }
 447              		.loc 1 785 0
 448 01a6 BB69     		ldr	r3, [r7, #24]
 449 01a8 43F02003 		orr	r3, r3, #32
 450 01ac BB61     		str	r3, [r7, #24]
 451              	.L7:
 788:Drivers/STM32F7xx_HAL_Driver/Src/stm32f7xx_hal_flash.c ****   {
 452              		.loc 1 788 0
 453 01ae 144B     		ldr	r3, .L69+4
 454 01b0 DB68     		ldr	r3, [r3, #12]
 455 01b2 DD06     		lsls	r5, r3, #27
 456              	.LVL27:
 457 01b4 03D5     		bpl	.L8
 790:Drivers/STM32F7xx_HAL_Driver/Src/stm32f7xx_hal_flash.c ****   }
 458              		.loc 1 790 0
 459 01b6 BB69     		ldr	r3, [r7, #24]
 460 01b8 43F01003 		orr	r3, r3, #16
 461 01bc BB61     		str	r3, [r7, #24]
 462              	.L8:
 793:Drivers/STM32F7xx_HAL_Driver/Src/stm32f7xx_hal_flash.c ****   {
 463              		.loc 1 793 0
 464 01be 104B     		ldr	r3, .L69+4
 465 01c0 DB68     		ldr	r3, [r3, #12]
 466 01c2 9C06     		lsls	r4, r3, #26
 467 01c4 03D5     		bpl	.L9
 795:Drivers/STM32F7xx_HAL_Driver/Src/stm32f7xx_hal_flash.c ****   }
ARM GAS  /tmp/cc8f1EWx.s 			page 32


 468              		.loc 1 795 0
 469 01c6 BB69     		ldr	r3, [r7, #24]
 470 01c8 43F00803 		orr	r3, r3, #8
 471 01cc BB61     		str	r3, [r7, #24]
 472              	.L9:
 798:Drivers/STM32F7xx_HAL_Driver/Src/stm32f7xx_hal_flash.c ****   {
 473              		.loc 1 798 0
 474 01ce 0C4B     		ldr	r3, .L69+4
 475 01d0 DB68     		ldr	r3, [r3, #12]
 476 01d2 5806     		lsls	r0, r3, #25
 477 01d4 03D5     		bpl	.L10
 800:Drivers/STM32F7xx_HAL_Driver/Src/stm32f7xx_hal_flash.c ****   }
 478              		.loc 1 800 0
 479 01d6 BB69     		ldr	r3, [r7, #24]
 480 01d8 43F00403 		orr	r3, r3, #4
 481 01dc BB61     		str	r3, [r7, #24]
 482              	.L10:
 803:Drivers/STM32F7xx_HAL_Driver/Src/stm32f7xx_hal_flash.c ****   {
 483              		.loc 1 803 0
 484 01de 084B     		ldr	r3, .L69+4
 485 01e0 DB68     		ldr	r3, [r3, #12]
 486 01e2 1906     		lsls	r1, r3, #24
 487 01e4 03D5     		bpl	.L11
 805:Drivers/STM32F7xx_HAL_Driver/Src/stm32f7xx_hal_flash.c ****   }
 488              		.loc 1 805 0
 489 01e6 BB69     		ldr	r3, [r7, #24]
 490 01e8 43F00203 		orr	r3, r3, #2
 491 01ec BB61     		str	r3, [r7, #24]
 492              	.L11:
 493              		.loc 1 816 0
 494 01ee 044B     		ldr	r3, .L69+4
 495 01f0 F222     		movs	r2, #242
 496              	.LBE74:
 497              	.LBE78:
 642:Drivers/STM32F7xx_HAL_Driver/Src/stm32f7xx_hal_flash.c ****   }
 498              		.loc 1 642 0
 499 01f2 0120     		movs	r0, #1
 500              	.LBB79:
 501              	.LBB75:
 502              		.loc 1 816 0
 503 01f4 DA60     		str	r2, [r3, #12]
 504              	.LVL28:
 505 01f6 69E7     		b	.L4
 506              	.LVL29:
 507              	.L31:
 508              	.LBE75:
 509              	.LBE79:
 510              	.LBE82:
 511              	.LBE120:
 512              	.LBB121:
 513              	.LBB103:
 514              	.LBB101:
 515              	.LBB98:
 646:Drivers/STM32F7xx_HAL_Driver/Src/stm32f7xx_hal_flash.c ****   {
 516              		.loc 1 646 0
 517 01f8 1846     		mov	r0, r3
 518 01fa 5DE7     		b	.L20
ARM GAS  /tmp/cc8f1EWx.s 			page 33


 519              	.L70:
 520              		.align	2
 521              	.L69:
 522 01fc 00000000 		.word	pFlash
 523 0200 003C0240 		.word	1073888256
 524              	.LBE98:
 525              	.LBE101:
 526              	.LBE103:
 527              	.LBE121:
 528              		.cfi_endproc
 529              	.LFE138:
 531              		.section	.text.HAL_FLASH_Program_IT,"ax",%progbits
 532              		.align	1
 533              		.p2align 2,,3
 534              		.global	HAL_FLASH_Program_IT
 535              		.syntax unified
 536              		.thumb
 537              		.thumb_func
 538              		.fpu fpv4-sp-d16
 540              	HAL_FLASH_Program_IT:
 541              	.LFB139:
 250:Drivers/STM32F7xx_HAL_Driver/Src/stm32f7xx_hal_flash.c ****   HAL_StatusTypeDef status = HAL_OK;
 542              		.loc 1 250 0
 543              		.cfi_startproc
 544              		@ args = 0, pretend = 0, frame = 0
 545              		@ frame_needed = 0, uses_anonymous_args = 0
 546              	.LVL30:
 547 0000 F0B5     		push	{r4, r5, r6, r7, lr}
 548              	.LCFI1:
 549              		.cfi_def_cfa_offset 20
 550              		.cfi_offset 4, -20
 551              		.cfi_offset 5, -16
 552              		.cfi_offset 6, -12
 553              		.cfi_offset 7, -8
 554              		.cfi_offset 14, -4
 254:Drivers/STM32F7xx_HAL_Driver/Src/stm32f7xx_hal_flash.c **** 
 555              		.loc 1 254 0
 556 0002 354D     		ldr	r5, .L81
 557 0004 2C7D     		ldrb	r4, [r5, #20]	@ zero_extendqisi2
 558 0006 012C     		cmp	r4, #1
 559 0008 62D0     		beq	.L78
 260:Drivers/STM32F7xx_HAL_Driver/Src/stm32f7xx_hal_flash.c ****   
 560              		.loc 1 260 0 discriminator 2
 561 000a 344C     		ldr	r4, .L81+4
 266:Drivers/STM32F7xx_HAL_Driver/Src/stm32f7xx_hal_flash.c ****                          FLASH_FLAG_PGAERR | FLASH_FLAG_PGPERR| FLASH_FLAG_ERSERR);  
 562              		.loc 1 266 0 discriminator 2
 563 000c 4FF0F30C 		mov	ip, #243
 269:Drivers/STM32F7xx_HAL_Driver/Src/stm32f7xx_hal_flash.c ****   pFlash.Address = Address;
 564              		.loc 1 269 0 discriminator 2
 565 0010 0327     		movs	r7, #3
 254:Drivers/STM32F7xx_HAL_Driver/Src/stm32f7xx_hal_flash.c **** 
 566              		.loc 1 254 0 discriminator 2
 567 0012 4FF0010E 		mov	lr, #1
 260:Drivers/STM32F7xx_HAL_Driver/Src/stm32f7xx_hal_flash.c ****   
 568              		.loc 1 260 0 discriminator 2
 569 0016 2669     		ldr	r6, [r4, #16]
 570 0018 46F08076 		orr	r6, r6, #16777216
ARM GAS  /tmp/cc8f1EWx.s 			page 34


 571 001c 2661     		str	r6, [r4, #16]
 263:Drivers/STM32F7xx_HAL_Driver/Src/stm32f7xx_hal_flash.c ****   
 572              		.loc 1 263 0 discriminator 2
 573 001e 2669     		ldr	r6, [r4, #16]
 254:Drivers/STM32F7xx_HAL_Driver/Src/stm32f7xx_hal_flash.c **** 
 574              		.loc 1 254 0 discriminator 2
 575 0020 85F814E0 		strb	lr, [r5, #20]
 263:Drivers/STM32F7xx_HAL_Driver/Src/stm32f7xx_hal_flash.c ****   
 576              		.loc 1 263 0 discriminator 2
 577 0024 46F00076 		orr	r6, r6, #33554432
 578 0028 2661     		str	r6, [r4, #16]
 266:Drivers/STM32F7xx_HAL_Driver/Src/stm32f7xx_hal_flash.c ****                          FLASH_FLAG_PGAERR | FLASH_FLAG_PGPERR| FLASH_FLAG_ERSERR);  
 579              		.loc 1 266 0 discriminator 2
 580 002a C4F80CC0 		str	ip, [r4, #12]
 269:Drivers/STM32F7xx_HAL_Driver/Src/stm32f7xx_hal_flash.c ****   pFlash.Address = Address;
 581              		.loc 1 269 0 discriminator 2
 582 002e 2F70     		strb	r7, [r5]
 270:Drivers/STM32F7xx_HAL_Driver/Src/stm32f7xx_hal_flash.c ****   
 583              		.loc 1 270 0 discriminator 2
 584 0030 2961     		str	r1, [r5, #16]
 272:Drivers/STM32F7xx_HAL_Driver/Src/stm32f7xx_hal_flash.c ****   {
 585              		.loc 1 272 0 discriminator 2
 586 0032 B842     		cmp	r0, r7
 587 0034 4ED8     		bhi	.L79
 588 0036 DFE800F0 		tbb	[pc, r0]
 589              	.L74:
 590 003a 15       		.byte	(.L73-.L74)/2
 591 003b 26       		.byte	(.L75-.L74)/2
 592 003c 39       		.byte	(.L76-.L74)/2
 593 003d 02       		.byte	(.L77-.L74)/2
 594              		.p2align 1
 595              	.L77:
 596              	.LVL31:
 597              	.LBB122:
 598              	.LBB123:
 675:Drivers/STM32F7xx_HAL_Driver/Src/stm32f7xx_hal_flash.c ****   FLASH->CR |= FLASH_PSIZE_DOUBLE_WORD;
 599              		.loc 1 675 0
 600 003e 2748     		ldr	r0, .L81+4
 601              	.LVL32:
 602 0040 0469     		ldr	r4, [r0, #16]
 603 0042 24F44074 		bic	r4, r4, #768
 604 0046 0461     		str	r4, [r0, #16]
 676:Drivers/STM32F7xx_HAL_Driver/Src/stm32f7xx_hal_flash.c ****   FLASH->CR |= FLASH_CR_PG;
 605              		.loc 1 676 0
 606 0048 0469     		ldr	r4, [r0, #16]
 607 004a 44F44074 		orr	r4, r4, #768
 608 004e 0461     		str	r4, [r0, #16]
 677:Drivers/STM32F7xx_HAL_Driver/Src/stm32f7xx_hal_flash.c **** 
 609              		.loc 1 677 0
 610 0050 0469     		ldr	r4, [r0, #16]
 611 0052 44F00104 		orr	r4, r4, #1
 612 0056 0461     		str	r4, [r0, #16]
 680:Drivers/STM32F7xx_HAL_Driver/Src/stm32f7xx_hal_flash.c ****   *(__IO uint32_t*)(Address+4) = (uint32_t)(Data >> 32);
 613              		.loc 1 680 0
 614 0058 0A60     		str	r2, [r1]
 681:Drivers/STM32F7xx_HAL_Driver/Src/stm32f7xx_hal_flash.c **** 
 615              		.loc 1 681 0
ARM GAS  /tmp/cc8f1EWx.s 			page 35


 616 005a 4B60     		str	r3, [r1, #4]
 617              	.LBB124:
 618              	.LBB125:
 619              		.loc 2 429 0
 620              		.syntax unified
 621              	@ 429 "Drivers/CMSIS/Include/cmsis_gcc.h" 1
 622 005c BFF34F8F 		dsb 0xF
 623              	@ 0 "" 2
 624              		.thumb
 625              		.syntax unified
 626              	.LBE125:
 627              	.LBE124:
 628              	.LBE123:
 629              	.LBE122:
 304:Drivers/STM32F7xx_HAL_Driver/Src/stm32f7xx_hal_flash.c **** }
 630              		.loc 1 304 0
 631 0060 0020     		movs	r0, #0
 305:Drivers/STM32F7xx_HAL_Driver/Src/stm32f7xx_hal_flash.c **** 
 632              		.loc 1 305 0
 633 0062 F0BD     		pop	{r4, r5, r6, r7, pc}
 634              	.LVL33:
 635              	.L73:
 636              	.LBB126:
 637              	.LBB127:
 766:Drivers/STM32F7xx_HAL_Driver/Src/stm32f7xx_hal_flash.c ****   FLASH->CR |= FLASH_PSIZE_BYTE;
 638              		.loc 1 766 0
 639 0064 1D4B     		ldr	r3, .L81+4
 640              	.LBE127:
 641              	.LBE126:
 277:Drivers/STM32F7xx_HAL_Driver/Src/stm32f7xx_hal_flash.c ****       break;
 642              		.loc 1 277 0
 643 0066 D2B2     		uxtb	r2, r2
 644              	.LVL34:
 645              	.LBB131:
 646              	.LBB130:
 766:Drivers/STM32F7xx_HAL_Driver/Src/stm32f7xx_hal_flash.c ****   FLASH->CR |= FLASH_PSIZE_BYTE;
 647              		.loc 1 766 0
 648 0068 1869     		ldr	r0, [r3, #16]
 649              	.LVL35:
 650 006a 20F44070 		bic	r0, r0, #768
 651 006e 1861     		str	r0, [r3, #16]
 767:Drivers/STM32F7xx_HAL_Driver/Src/stm32f7xx_hal_flash.c ****   FLASH->CR |= FLASH_CR_PG;
 652              		.loc 1 767 0
 653 0070 1869     		ldr	r0, [r3, #16]
 654 0072 1861     		str	r0, [r3, #16]
 768:Drivers/STM32F7xx_HAL_Driver/Src/stm32f7xx_hal_flash.c **** 
 655              		.loc 1 768 0
 656 0074 1869     		ldr	r0, [r3, #16]
 657 0076 40F00100 		orr	r0, r0, #1
 658 007a 1861     		str	r0, [r3, #16]
 770:Drivers/STM32F7xx_HAL_Driver/Src/stm32f7xx_hal_flash.c **** 
 659              		.loc 1 770 0
 660 007c 0A70     		strb	r2, [r1]
 661              	.LBB128:
 662              	.LBB129:
 663              		.loc 2 429 0
 664              		.syntax unified
ARM GAS  /tmp/cc8f1EWx.s 			page 36


 665              	@ 429 "Drivers/CMSIS/Include/cmsis_gcc.h" 1
 666 007e BFF34F8F 		dsb 0xF
 667              	@ 0 "" 2
 668              		.thumb
 669              		.syntax unified
 670              	.LBE129:
 671              	.LBE128:
 672              	.LBE130:
 673              	.LBE131:
 304:Drivers/STM32F7xx_HAL_Driver/Src/stm32f7xx_hal_flash.c **** }
 674              		.loc 1 304 0
 675 0082 0020     		movs	r0, #0
 305:Drivers/STM32F7xx_HAL_Driver/Src/stm32f7xx_hal_flash.c **** 
 676              		.loc 1 305 0
 677 0084 F0BD     		pop	{r4, r5, r6, r7, pc}
 678              	.LVL36:
 679              	.L75:
 680              	.LBB132:
 681              	.LBB133:
 736:Drivers/STM32F7xx_HAL_Driver/Src/stm32f7xx_hal_flash.c ****   FLASH->CR |= FLASH_PSIZE_HALF_WORD;
 682              		.loc 1 736 0
 683 0086 154B     		ldr	r3, .L81+4
 684              	.LBE133:
 685              	.LBE132:
 284:Drivers/STM32F7xx_HAL_Driver/Src/stm32f7xx_hal_flash.c ****       break;
 686              		.loc 1 284 0
 687 0088 92B2     		uxth	r2, r2
 688              	.LVL37:
 689              	.LBB137:
 690              	.LBB136:
 736:Drivers/STM32F7xx_HAL_Driver/Src/stm32f7xx_hal_flash.c ****   FLASH->CR |= FLASH_PSIZE_HALF_WORD;
 691              		.loc 1 736 0
 692 008a 1869     		ldr	r0, [r3, #16]
 693              	.LVL38:
 694 008c 20F44070 		bic	r0, r0, #768
 695 0090 1861     		str	r0, [r3, #16]
 737:Drivers/STM32F7xx_HAL_Driver/Src/stm32f7xx_hal_flash.c ****   FLASH->CR |= FLASH_CR_PG;
 696              		.loc 1 737 0
 697 0092 1869     		ldr	r0, [r3, #16]
 698 0094 40F48070 		orr	r0, r0, #256
 699 0098 1861     		str	r0, [r3, #16]
 738:Drivers/STM32F7xx_HAL_Driver/Src/stm32f7xx_hal_flash.c **** 
 700              		.loc 1 738 0
 701 009a 1869     		ldr	r0, [r3, #16]
 702 009c 40F00100 		orr	r0, r0, #1
 703 00a0 1861     		str	r0, [r3, #16]
 740:Drivers/STM32F7xx_HAL_Driver/Src/stm32f7xx_hal_flash.c **** 
 704              		.loc 1 740 0
 705 00a2 0A80     		strh	r2, [r1]	@ movhi
 706              	.LBB134:
 707              	.LBB135:
 708              		.loc 2 429 0
 709              		.syntax unified
 710              	@ 429 "Drivers/CMSIS/Include/cmsis_gcc.h" 1
 711 00a4 BFF34F8F 		dsb 0xF
 712              	@ 0 "" 2
 713              		.thumb
ARM GAS  /tmp/cc8f1EWx.s 			page 37


 714              		.syntax unified
 715              	.LBE135:
 716              	.LBE134:
 717              	.LBE136:
 718              	.LBE137:
 304:Drivers/STM32F7xx_HAL_Driver/Src/stm32f7xx_hal_flash.c **** }
 719              		.loc 1 304 0
 720 00a8 0020     		movs	r0, #0
 305:Drivers/STM32F7xx_HAL_Driver/Src/stm32f7xx_hal_flash.c **** 
 721              		.loc 1 305 0
 722 00aa F0BD     		pop	{r4, r5, r6, r7, pc}
 723              	.LVL39:
 724              	.L76:
 725              	.LBB138:
 726              	.LBB139:
 707:Drivers/STM32F7xx_HAL_Driver/Src/stm32f7xx_hal_flash.c ****   FLASH->CR |= FLASH_PSIZE_WORD;
 727              		.loc 1 707 0
 728 00ac 0B4B     		ldr	r3, .L81+4
 729 00ae 1869     		ldr	r0, [r3, #16]
 730              	.LVL40:
 731 00b0 20F44070 		bic	r0, r0, #768
 732 00b4 1861     		str	r0, [r3, #16]
 708:Drivers/STM32F7xx_HAL_Driver/Src/stm32f7xx_hal_flash.c ****   FLASH->CR |= FLASH_CR_PG;
 733              		.loc 1 708 0
 734 00b6 1869     		ldr	r0, [r3, #16]
 735 00b8 40F40070 		orr	r0, r0, #512
 736 00bc 1861     		str	r0, [r3, #16]
 709:Drivers/STM32F7xx_HAL_Driver/Src/stm32f7xx_hal_flash.c **** 
 737              		.loc 1 709 0
 738 00be 1869     		ldr	r0, [r3, #16]
 739 00c0 40F00100 		orr	r0, r0, #1
 740 00c4 1861     		str	r0, [r3, #16]
 711:Drivers/STM32F7xx_HAL_Driver/Src/stm32f7xx_hal_flash.c ****   
 741              		.loc 1 711 0
 742 00c6 0A60     		str	r2, [r1]
 743              	.LBB140:
 744              	.LBB141:
 745              		.loc 2 429 0
 746              		.syntax unified
 747              	@ 429 "Drivers/CMSIS/Include/cmsis_gcc.h" 1
 748 00c8 BFF34F8F 		dsb 0xF
 749              	@ 0 "" 2
 750              		.thumb
 751              		.syntax unified
 752              	.LBE141:
 753              	.LBE140:
 754              	.LBE139:
 755              	.LBE138:
 304:Drivers/STM32F7xx_HAL_Driver/Src/stm32f7xx_hal_flash.c **** }
 756              		.loc 1 304 0
 757 00cc 0020     		movs	r0, #0
 305:Drivers/STM32F7xx_HAL_Driver/Src/stm32f7xx_hal_flash.c **** 
 758              		.loc 1 305 0
 759 00ce F0BD     		pop	{r4, r5, r6, r7, pc}
 760              	.LVL41:
 761              	.L78:
 254:Drivers/STM32F7xx_HAL_Driver/Src/stm32f7xx_hal_flash.c **** 
ARM GAS  /tmp/cc8f1EWx.s 			page 38


 762              		.loc 1 254 0
 763 00d0 0220     		movs	r0, #2
 764              	.LVL42:
 305:Drivers/STM32F7xx_HAL_Driver/Src/stm32f7xx_hal_flash.c **** 
 765              		.loc 1 305 0
 766 00d2 F0BD     		pop	{r4, r5, r6, r7, pc}
 767              	.LVL43:
 768              	.L79:
 304:Drivers/STM32F7xx_HAL_Driver/Src/stm32f7xx_hal_flash.c **** }
 769              		.loc 1 304 0
 770 00d4 0020     		movs	r0, #0
 771              	.LVL44:
 305:Drivers/STM32F7xx_HAL_Driver/Src/stm32f7xx_hal_flash.c **** 
 772              		.loc 1 305 0
 773 00d6 F0BD     		pop	{r4, r5, r6, r7, pc}
 774              	.L82:
 775              		.align	2
 776              	.L81:
 777 00d8 00000000 		.word	pFlash
 778 00dc 003C0240 		.word	1073888256
 779              		.cfi_endproc
 780              	.LFE139:
 782              		.section	.text.HAL_FLASH_EndOfOperationCallback,"ax",%progbits
 783              		.align	1
 784              		.p2align 2,,3
 785              		.weak	HAL_FLASH_EndOfOperationCallback
 786              		.syntax unified
 787              		.thumb
 788              		.thumb_func
 789              		.fpu fpv4-sp-d16
 791              	HAL_FLASH_EndOfOperationCallback:
 792              	.LFB141:
 447:Drivers/STM32F7xx_HAL_Driver/Src/stm32f7xx_hal_flash.c ****   /* Prevent unused argument(s) compilation warning */
 793              		.loc 1 447 0
 794              		.cfi_startproc
 795              		@ args = 0, pretend = 0, frame = 0
 796              		@ frame_needed = 0, uses_anonymous_args = 0
 797              		@ link register save eliminated.
 798              	.LVL45:
 453:Drivers/STM32F7xx_HAL_Driver/Src/stm32f7xx_hal_flash.c **** 
 799              		.loc 1 453 0
 800 0000 7047     		bx	lr
 801              		.cfi_endproc
 802              	.LFE141:
 804 0002 00BF     		.section	.text.HAL_FLASH_OperationErrorCallback,"ax",%progbits
 805              		.align	1
 806              		.p2align 2,,3
 807              		.weak	HAL_FLASH_OperationErrorCallback
 808              		.syntax unified
 809              		.thumb
 810              		.thumb_func
 811              		.fpu fpv4-sp-d16
 813              	HAL_FLASH_OperationErrorCallback:
 814              	.LFB157:
 815              		.cfi_startproc
 816              		@ args = 0, pretend = 0, frame = 0
 817              		@ frame_needed = 0, uses_anonymous_args = 0
ARM GAS  /tmp/cc8f1EWx.s 			page 39


 818              		@ link register save eliminated.
 819 0000 7047     		bx	lr
 820              		.cfi_endproc
 821              	.LFE157:
 823 0002 00BF     		.section	.text.HAL_FLASH_IRQHandler,"ax",%progbits
 824              		.align	1
 825              		.p2align 2,,3
 826              		.global	HAL_FLASH_IRQHandler
 827              		.syntax unified
 828              		.thumb
 829              		.thumb_func
 830              		.fpu fpv4-sp-d16
 832              	HAL_FLASH_IRQHandler:
 833              	.LFB140:
 312:Drivers/STM32F7xx_HAL_Driver/Src/stm32f7xx_hal_flash.c ****   uint32_t temp = 0;
 834              		.loc 1 312 0
 835              		.cfi_startproc
 836              		@ args = 0, pretend = 0, frame = 0
 837              		@ frame_needed = 0, uses_anonymous_args = 0
 838              	.LVL46:
 316:Drivers/STM32F7xx_HAL_Driver/Src/stm32f7xx_hal_flash.c **** 
 839              		.loc 1 316 0
 840 0000 504B     		ldr	r3, .L127
 841 0002 1A69     		ldr	r2, [r3, #16]
 842 0004 22F00102 		bic	r2, r2, #1
 312:Drivers/STM32F7xx_HAL_Driver/Src/stm32f7xx_hal_flash.c ****   uint32_t temp = 0;
 843              		.loc 1 312 0
 844 0008 70B5     		push	{r4, r5, r6, lr}
 845              	.LCFI2:
 846              		.cfi_def_cfa_offset 16
 847              		.cfi_offset 4, -16
 848              		.cfi_offset 5, -12
 849              		.cfi_offset 6, -8
 850              		.cfi_offset 14, -4
 316:Drivers/STM32F7xx_HAL_Driver/Src/stm32f7xx_hal_flash.c **** 
 851              		.loc 1 316 0
 852 000a 1A61     		str	r2, [r3, #16]
 319:Drivers/STM32F7xx_HAL_Driver/Src/stm32f7xx_hal_flash.c ****   FLASH->CR &= SECTOR_MASK; 
 853              		.loc 1 319 0
 854 000c 1A69     		ldr	r2, [r3, #16]
 855 000e 22F00202 		bic	r2, r2, #2
 856 0012 1A61     		str	r2, [r3, #16]
 320:Drivers/STM32F7xx_HAL_Driver/Src/stm32f7xx_hal_flash.c **** 
 857              		.loc 1 320 0
 858 0014 1A69     		ldr	r2, [r3, #16]
 859 0016 22F0F802 		bic	r2, r2, #248
 860 001a 1A61     		str	r2, [r3, #16]
 323:Drivers/STM32F7xx_HAL_Driver/Src/stm32f7xx_hal_flash.c **** 
 861              		.loc 1 323 0
 862 001c 1A69     		ldr	r2, [r3, #16]
 863 001e 22F00402 		bic	r2, r2, #4
 864 0022 1A61     		str	r2, [r3, #16]
 326:Drivers/STM32F7xx_HAL_Driver/Src/stm32f7xx_hal_flash.c ****   {
 865              		.loc 1 326 0
 866 0024 DD68     		ldr	r5, [r3, #12]
 867 0026 15F00105 		ands	r5, r5, #1
 868 002a 1FD0     		beq	.L102
ARM GAS  /tmp/cc8f1EWx.s 			page 40


 329:Drivers/STM32F7xx_HAL_Driver/Src/stm32f7xx_hal_flash.c ****     
 869              		.loc 1 329 0
 870 002c 0122     		movs	r2, #1
 331:Drivers/STM32F7xx_HAL_Driver/Src/stm32f7xx_hal_flash.c ****     {
 871              		.loc 1 331 0
 872 002e 464C     		ldr	r4, .L127+4
 329:Drivers/STM32F7xx_HAL_Driver/Src/stm32f7xx_hal_flash.c ****     
 873              		.loc 1 329 0
 874 0030 DA60     		str	r2, [r3, #12]
 331:Drivers/STM32F7xx_HAL_Driver/Src/stm32f7xx_hal_flash.c ****     {
 875              		.loc 1 331 0
 876 0032 2378     		ldrb	r3, [r4]	@ zero_extendqisi2
 877 0034 DBB2     		uxtb	r3, r3
 878 0036 022B     		cmp	r3, #2
 879 0038 57D0     		beq	.L87
 880 003a 032B     		cmp	r3, #3
 881 003c 72D0     		beq	.L88
 882 003e 9342     		cmp	r3, r2
 883 0040 5BD0     		beq	.L124
 387:Drivers/STM32F7xx_HAL_Driver/Src/stm32f7xx_hal_flash.c ****   {
 884              		.loc 1 387 0
 885 0042 404B     		ldr	r3, .L127
 313:Drivers/STM32F7xx_HAL_Driver/Src/stm32f7xx_hal_flash.c ****   
 886              		.loc 1 313 0
 887 0044 0025     		movs	r5, #0
 888              	.LVL47:
 387:Drivers/STM32F7xx_HAL_Driver/Src/stm32f7xx_hal_flash.c ****   {
 889              		.loc 1 387 0
 890 0046 DB68     		ldr	r3, [r3, #12]
 891 0048 13F0F20F 		tst	r3, #242
 892 004c 14D1     		bne	.L125
 893              	.L91:
 423:Drivers/STM32F7xx_HAL_Driver/Src/stm32f7xx_hal_flash.c ****   {
 894              		.loc 1 423 0
 895 004e 2378     		ldrb	r3, [r4]	@ zero_extendqisi2
 896 0050 03F0FF01 		and	r1, r3, #255
 897 0054 4BB9     		cbnz	r3, .L85
 426:Drivers/STM32F7xx_HAL_Driver/Src/stm32f7xx_hal_flash.c **** 
 898              		.loc 1 426 0
 899 0056 3B4B     		ldr	r3, .L127
 900 0058 1A69     		ldr	r2, [r3, #16]
 901 005a 22F08072 		bic	r2, r2, #16777216
 902 005e 1A61     		str	r2, [r3, #16]
 429:Drivers/STM32F7xx_HAL_Driver/Src/stm32f7xx_hal_flash.c **** 
 903              		.loc 1 429 0
 904 0060 1A69     		ldr	r2, [r3, #16]
 905 0062 22F00072 		bic	r2, r2, #33554432
 906 0066 1A61     		str	r2, [r3, #16]
 432:Drivers/STM32F7xx_HAL_Driver/Src/stm32f7xx_hal_flash.c ****   }
 907              		.loc 1 432 0
 908 0068 2175     		strb	r1, [r4, #20]
 909              	.L85:
 435:Drivers/STM32F7xx_HAL_Driver/Src/stm32f7xx_hal_flash.c **** 
 910              		.loc 1 435 0
 911 006a 70BD     		pop	{r4, r5, r6, pc}
 912              	.LVL48:
 913              	.L102:
ARM GAS  /tmp/cc8f1EWx.s 			page 41


 914 006c 364C     		ldr	r4, .L127+4
 915              	.LVL49:
 916              	.L86:
 387:Drivers/STM32F7xx_HAL_Driver/Src/stm32f7xx_hal_flash.c ****   {
 917              		.loc 1 387 0
 918 006e 354B     		ldr	r3, .L127
 919 0070 DB68     		ldr	r3, [r3, #12]
 920 0072 13F0F20F 		tst	r3, #242
 921 0076 EAD0     		beq	.L91
 922              	.L125:
 389:Drivers/STM32F7xx_HAL_Driver/Src/stm32f7xx_hal_flash.c ****     {
 923              		.loc 1 389 0
 924 0078 2378     		ldrb	r3, [r4]	@ zero_extendqisi2
 925 007a DBB2     		uxtb	r3, r3
 926 007c 022B     		cmp	r3, #2
 927 007e 3AD0     		beq	.L93
 928 0080 032B     		cmp	r3, #3
 929 0082 55D0     		beq	.L94
 930 0084 012B     		cmp	r3, #1
 931 0086 48D0     		beq	.L126
 932              	.LVL50:
 933              	.L92:
 934              	.LBB144:
 935              	.LBB145:
 783:Drivers/STM32F7xx_HAL_Driver/Src/stm32f7xx_hal_flash.c ****   {
 936              		.loc 1 783 0
 937 0088 2E4B     		ldr	r3, .L127
 938 008a DB68     		ldr	r3, [r3, #12]
 939 008c 9E07     		lsls	r6, r3, #30
 940 008e 03D5     		bpl	.L96
 785:Drivers/STM32F7xx_HAL_Driver/Src/stm32f7xx_hal_flash.c ****   }
 941              		.loc 1 785 0
 942 0090 A369     		ldr	r3, [r4, #24]
 943 0092 43F02003 		orr	r3, r3, #32
 944 0096 A361     		str	r3, [r4, #24]
 945              	.L96:
 788:Drivers/STM32F7xx_HAL_Driver/Src/stm32f7xx_hal_flash.c ****   {
 946              		.loc 1 788 0
 947 0098 2A4B     		ldr	r3, .L127
 948 009a DB68     		ldr	r3, [r3, #12]
 949 009c D806     		lsls	r0, r3, #27
 950 009e 03D5     		bpl	.L97
 790:Drivers/STM32F7xx_HAL_Driver/Src/stm32f7xx_hal_flash.c ****   }
 951              		.loc 1 790 0
 952 00a0 A369     		ldr	r3, [r4, #24]
 953 00a2 43F01003 		orr	r3, r3, #16
 954 00a6 A361     		str	r3, [r4, #24]
 955              	.L97:
 793:Drivers/STM32F7xx_HAL_Driver/Src/stm32f7xx_hal_flash.c ****   {
 956              		.loc 1 793 0
 957 00a8 264B     		ldr	r3, .L127
 958 00aa DB68     		ldr	r3, [r3, #12]
 959 00ac 9906     		lsls	r1, r3, #26
 960 00ae 03D5     		bpl	.L98
 795:Drivers/STM32F7xx_HAL_Driver/Src/stm32f7xx_hal_flash.c ****   }
 961              		.loc 1 795 0
 962 00b0 A369     		ldr	r3, [r4, #24]
ARM GAS  /tmp/cc8f1EWx.s 			page 42


 963 00b2 43F00803 		orr	r3, r3, #8
 964 00b6 A361     		str	r3, [r4, #24]
 965              	.L98:
 798:Drivers/STM32F7xx_HAL_Driver/Src/stm32f7xx_hal_flash.c ****   {
 966              		.loc 1 798 0
 967 00b8 224B     		ldr	r3, .L127
 968 00ba DB68     		ldr	r3, [r3, #12]
 969 00bc 5A06     		lsls	r2, r3, #25
 970 00be 03D5     		bpl	.L99
 800:Drivers/STM32F7xx_HAL_Driver/Src/stm32f7xx_hal_flash.c ****   }
 971              		.loc 1 800 0
 972 00c0 A369     		ldr	r3, [r4, #24]
 973 00c2 43F00403 		orr	r3, r3, #4
 974 00c6 A361     		str	r3, [r4, #24]
 975              	.L99:
 803:Drivers/STM32F7xx_HAL_Driver/Src/stm32f7xx_hal_flash.c ****   {
 976              		.loc 1 803 0
 977 00c8 1E4B     		ldr	r3, .L127
 978 00ca DB68     		ldr	r3, [r3, #12]
 979 00cc 1B06     		lsls	r3, r3, #24
 980 00ce 03D5     		bpl	.L100
 805:Drivers/STM32F7xx_HAL_Driver/Src/stm32f7xx_hal_flash.c ****   }
 981              		.loc 1 805 0
 982 00d0 A369     		ldr	r3, [r4, #24]
 983 00d2 43F00203 		orr	r3, r3, #2
 984 00d6 A361     		str	r3, [r4, #24]
 985              	.L100:
 986              		.loc 1 816 0
 987 00d8 1A4B     		ldr	r3, .L127
 988 00da F222     		movs	r2, #242
 989              	.LBE145:
 990              	.LBE144:
 417:Drivers/STM32F7xx_HAL_Driver/Src/stm32f7xx_hal_flash.c **** 
 991              		.loc 1 417 0
 992 00dc 2846     		mov	r0, r5
 993              	.LBB147:
 994              	.LBB146:
 995              		.loc 1 816 0
 996 00de DA60     		str	r2, [r3, #12]
 997              	.LBE146:
 998              	.LBE147:
 417:Drivers/STM32F7xx_HAL_Driver/Src/stm32f7xx_hal_flash.c **** 
 999              		.loc 1 417 0
 1000 00e0 FFF7FEFF 		bl	HAL_FLASH_OperationErrorCallback
 1001              	.LVL51:
 420:Drivers/STM32F7xx_HAL_Driver/Src/stm32f7xx_hal_flash.c ****   }
 1002              		.loc 1 420 0
 1003 00e4 0023     		movs	r3, #0
 1004 00e6 2370     		strb	r3, [r4]
 1005 00e8 B1E7     		b	.L91
 1006              	.LVL52:
 1007              	.L87:
 368:Drivers/STM32F7xx_HAL_Driver/Src/stm32f7xx_hal_flash.c ****         break;
 1008              		.loc 1 368 0
 1009 00ea 0025     		movs	r5, #0
 366:Drivers/STM32F7xx_HAL_Driver/Src/stm32f7xx_hal_flash.c ****         /* MAss Erase procedure is completed */
 1010              		.loc 1 366 0
ARM GAS  /tmp/cc8f1EWx.s 			page 43


 1011 00ec 0020     		movs	r0, #0
 1012 00ee FFF7FEFF 		bl	HAL_FLASH_EndOfOperationCallback
 1013              	.LVL53:
 368:Drivers/STM32F7xx_HAL_Driver/Src/stm32f7xx_hal_flash.c ****         break;
 1014              		.loc 1 368 0
 1015 00f2 2570     		strb	r5, [r4]
 369:Drivers/STM32F7xx_HAL_Driver/Src/stm32f7xx_hal_flash.c ****       }
 1016              		.loc 1 369 0
 1017 00f4 BBE7     		b	.L86
 1018              	.LVL54:
 1019              	.L93:
 401:Drivers/STM32F7xx_HAL_Driver/Src/stm32f7xx_hal_flash.c ****         break;
 1020              		.loc 1 401 0
 1021 00f6 0025     		movs	r5, #0
 1022              	.LVL55:
 1023 00f8 C6E7     		b	.L92
 1024              	.LVL56:
 1025              	.L124:
 336:Drivers/STM32F7xx_HAL_Driver/Src/stm32f7xx_hal_flash.c **** 
 1026              		.loc 1 336 0
 1027 00fa 6368     		ldr	r3, [r4, #4]
 1028 00fc 013B     		subs	r3, r3, #1
 1029 00fe 6360     		str	r3, [r4, #4]
 339:Drivers/STM32F7xx_HAL_Driver/Src/stm32f7xx_hal_flash.c ****         {
 1030              		.loc 1 339 0
 1031 0100 6668     		ldr	r6, [r4, #4]
 1032 0102 BEB1     		cbz	r6, .L90
 341:Drivers/STM32F7xx_HAL_Driver/Src/stm32f7xx_hal_flash.c ****           /* Indicate user which sector has been erased */
 1033              		.loc 1 341 0
 1034 0104 E068     		ldr	r0, [r4, #12]
 1035              	.LVL57:
 343:Drivers/STM32F7xx_HAL_Driver/Src/stm32f7xx_hal_flash.c **** 
 1036              		.loc 1 343 0
 1037 0106 FFF7FEFF 		bl	HAL_FLASH_EndOfOperationCallback
 1038              	.LVL58:
 346:Drivers/STM32F7xx_HAL_Driver/Src/stm32f7xx_hal_flash.c ****           FLASH_Erase_Sector(temp, pFlash.VoltageForErase);
 1039              		.loc 1 346 0
 1040 010a E568     		ldr	r5, [r4, #12]
 1041 010c 0135     		adds	r5, r5, #1
 1042 010e E560     		str	r5, [r4, #12]
 1043              	.LVL59:
 347:Drivers/STM32F7xx_HAL_Driver/Src/stm32f7xx_hal_flash.c ****         }
 1044              		.loc 1 347 0
 1045 0110 2846     		mov	r0, r5
 1046 0112 217A     		ldrb	r1, [r4, #8]	@ zero_extendqisi2
 1047 0114 FFF7FEFF 		bl	FLASH_Erase_Sector
 1048              	.LVL60:
 1049 0118 A9E7     		b	.L86
 1050              	.L126:
 395:Drivers/STM32F7xx_HAL_Driver/Src/stm32f7xx_hal_flash.c ****         break;
 1051              		.loc 1 395 0
 1052 011a 4FF0FF33 		mov	r3, #-1
 394:Drivers/STM32F7xx_HAL_Driver/Src/stm32f7xx_hal_flash.c ****         pFlash.Sector = 0xFFFFFFFFU;
 1053              		.loc 1 394 0
 1054 011e E568     		ldr	r5, [r4, #12]
 1055              	.LVL61:
 395:Drivers/STM32F7xx_HAL_Driver/Src/stm32f7xx_hal_flash.c ****         break;
ARM GAS  /tmp/cc8f1EWx.s 			page 44


 1056              		.loc 1 395 0
 1057 0120 E360     		str	r3, [r4, #12]
 396:Drivers/STM32F7xx_HAL_Driver/Src/stm32f7xx_hal_flash.c ****       }
 1058              		.loc 1 396 0
 1059 0122 B1E7     		b	.L92
 1060              	.LVL62:
 1061              	.L88:
 378:Drivers/STM32F7xx_HAL_Driver/Src/stm32f7xx_hal_flash.c ****         break;
 1062              		.loc 1 378 0
 1063 0124 0025     		movs	r5, #0
 376:Drivers/STM32F7xx_HAL_Driver/Src/stm32f7xx_hal_flash.c ****         /* Programming procedure is completed */
 1064              		.loc 1 376 0
 1065 0126 2069     		ldr	r0, [r4, #16]
 1066 0128 FFF7FEFF 		bl	HAL_FLASH_EndOfOperationCallback
 1067              	.LVL63:
 378:Drivers/STM32F7xx_HAL_Driver/Src/stm32f7xx_hal_flash.c ****         break;
 1068              		.loc 1 378 0
 1069 012c 2570     		strb	r5, [r4]
 379:Drivers/STM32F7xx_HAL_Driver/Src/stm32f7xx_hal_flash.c ****       }
 1070              		.loc 1 379 0
 1071 012e 9EE7     		b	.L86
 1072              	.LVL64:
 1073              	.L94:
 407:Drivers/STM32F7xx_HAL_Driver/Src/stm32f7xx_hal_flash.c ****         break;
 1074              		.loc 1 407 0
 1075 0130 2569     		ldr	r5, [r4, #16]
 1076              	.LVL65:
 408:Drivers/STM32F7xx_HAL_Driver/Src/stm32f7xx_hal_flash.c ****       }
 1077              		.loc 1 408 0
 1078 0132 A9E7     		b	.L92
 1079              	.LVL66:
 1080              	.L90:
 353:Drivers/STM32F7xx_HAL_Driver/Src/stm32f7xx_hal_flash.c ****           /* FLASH EOP interrupt user callback */
 1081              		.loc 1 353 0
 1082 0134 4FF0FF30 		mov	r0, #-1
 1083 0138 E060     		str	r0, [r4, #12]
 1084 013a 0546     		mov	r5, r0
 355:Drivers/STM32F7xx_HAL_Driver/Src/stm32f7xx_hal_flash.c ****           /* Sector Erase procedure is completed */
 1085              		.loc 1 355 0
 1086 013c FFF7FEFF 		bl	HAL_FLASH_EndOfOperationCallback
 1087              	.LVL67:
 357:Drivers/STM32F7xx_HAL_Driver/Src/stm32f7xx_hal_flash.c ****         }
 1088              		.loc 1 357 0
 1089 0140 2670     		strb	r6, [r4]
 1090 0142 94E7     		b	.L86
 1091              	.L128:
 1092              		.align	2
 1093              	.L127:
 1094 0144 003C0240 		.word	1073888256
 1095 0148 00000000 		.word	pFlash
 1096              		.cfi_endproc
 1097              	.LFE140:
 1099              		.section	.text.HAL_FLASH_Unlock,"ax",%progbits
 1100              		.align	1
 1101              		.p2align 2,,3
 1102              		.global	HAL_FLASH_Unlock
 1103              		.syntax unified
ARM GAS  /tmp/cc8f1EWx.s 			page 45


 1104              		.thumb
 1105              		.thumb_func
 1106              		.fpu fpv4-sp-d16
 1108              	HAL_FLASH_Unlock:
 1109              	.LFB143:
 497:Drivers/STM32F7xx_HAL_Driver/Src/stm32f7xx_hal_flash.c ****   HAL_StatusTypeDef status = HAL_OK;
 1110              		.loc 1 497 0
 1111              		.cfi_startproc
 1112              		@ args = 0, pretend = 0, frame = 0
 1113              		@ frame_needed = 0, uses_anonymous_args = 0
 1114              		@ link register save eliminated.
 1115              	.LVL68:
 500:Drivers/STM32F7xx_HAL_Driver/Src/stm32f7xx_hal_flash.c ****   {
 1116              		.loc 1 500 0
 1117 0000 064B     		ldr	r3, .L133
 1118 0002 1A69     		ldr	r2, [r3, #16]
 1119 0004 002A     		cmp	r2, #0
 1120 0006 01DB     		blt	.L132
 498:Drivers/STM32F7xx_HAL_Driver/Src/stm32f7xx_hal_flash.c **** 
 1121              		.loc 1 498 0
 1122 0008 0020     		movs	r0, #0
 1123              	.LVL69:
 514:Drivers/STM32F7xx_HAL_Driver/Src/stm32f7xx_hal_flash.c **** 
 1124              		.loc 1 514 0
 1125 000a 7047     		bx	lr
 1126              	.LVL70:
 1127              	.L132:
 503:Drivers/STM32F7xx_HAL_Driver/Src/stm32f7xx_hal_flash.c ****     WRITE_REG(FLASH->KEYR, FLASH_KEY2);
 1128              		.loc 1 503 0
 1129 000c 0449     		ldr	r1, .L133+4
 504:Drivers/STM32F7xx_HAL_Driver/Src/stm32f7xx_hal_flash.c **** 
 1130              		.loc 1 504 0
 1131 000e 054A     		ldr	r2, .L133+8
 503:Drivers/STM32F7xx_HAL_Driver/Src/stm32f7xx_hal_flash.c ****     WRITE_REG(FLASH->KEYR, FLASH_KEY2);
 1132              		.loc 1 503 0
 1133 0010 5960     		str	r1, [r3, #4]
 504:Drivers/STM32F7xx_HAL_Driver/Src/stm32f7xx_hal_flash.c **** 
 1134              		.loc 1 504 0
 1135 0012 5A60     		str	r2, [r3, #4]
 507:Drivers/STM32F7xx_HAL_Driver/Src/stm32f7xx_hal_flash.c ****     {
 1136              		.loc 1 507 0
 1137 0014 1869     		ldr	r0, [r3, #16]
 498:Drivers/STM32F7xx_HAL_Driver/Src/stm32f7xx_hal_flash.c **** 
 1138              		.loc 1 498 0
 1139 0016 C00F     		lsrs	r0, r0, #31
 1140 0018 7047     		bx	lr
 1141              	.L134:
 1142 001a 00BF     		.align	2
 1143              	.L133:
 1144 001c 003C0240 		.word	1073888256
 1145 0020 23016745 		.word	1164378403
 1146 0024 AB89EFCD 		.word	-839939669
 1147              		.cfi_endproc
 1148              	.LFE143:
 1150              		.section	.text.HAL_FLASH_Lock,"ax",%progbits
 1151              		.align	1
 1152              		.p2align 2,,3
ARM GAS  /tmp/cc8f1EWx.s 			page 46


 1153              		.global	HAL_FLASH_Lock
 1154              		.syntax unified
 1155              		.thumb
 1156              		.thumb_func
 1157              		.fpu fpv4-sp-d16
 1159              	HAL_FLASH_Lock:
 1160              	.LFB144:
 521:Drivers/STM32F7xx_HAL_Driver/Src/stm32f7xx_hal_flash.c ****   /* Set the LOCK Bit to lock the FLASH Registers access */
 1161              		.loc 1 521 0
 1162              		.cfi_startproc
 1163              		@ args = 0, pretend = 0, frame = 0
 1164              		@ frame_needed = 0, uses_anonymous_args = 0
 1165              		@ link register save eliminated.
 523:Drivers/STM32F7xx_HAL_Driver/Src/stm32f7xx_hal_flash.c ****   
 1166              		.loc 1 523 0
 1167 0000 034A     		ldr	r2, .L136
 526:Drivers/STM32F7xx_HAL_Driver/Src/stm32f7xx_hal_flash.c **** 
 1168              		.loc 1 526 0
 1169 0002 0020     		movs	r0, #0
 523:Drivers/STM32F7xx_HAL_Driver/Src/stm32f7xx_hal_flash.c ****   
 1170              		.loc 1 523 0
 1171 0004 1369     		ldr	r3, [r2, #16]
 1172 0006 43F00043 		orr	r3, r3, #-2147483648
 1173 000a 1361     		str	r3, [r2, #16]
 526:Drivers/STM32F7xx_HAL_Driver/Src/stm32f7xx_hal_flash.c **** 
 1174              		.loc 1 526 0
 1175 000c 7047     		bx	lr
 1176              	.L137:
 1177 000e 00BF     		.align	2
 1178              	.L136:
 1179 0010 003C0240 		.word	1073888256
 1180              		.cfi_endproc
 1181              	.LFE144:
 1183              		.section	.text.HAL_FLASH_OB_Unlock,"ax",%progbits
 1184              		.align	1
 1185              		.p2align 2,,3
 1186              		.global	HAL_FLASH_OB_Unlock
 1187              		.syntax unified
 1188              		.thumb
 1189              		.thumb_func
 1190              		.fpu fpv4-sp-d16
 1192              	HAL_FLASH_OB_Unlock:
 1193              	.LFB145:
 533:Drivers/STM32F7xx_HAL_Driver/Src/stm32f7xx_hal_flash.c ****   if((FLASH->OPTCR & FLASH_OPTCR_OPTLOCK) != RESET)
 1194              		.loc 1 533 0
 1195              		.cfi_startproc
 1196              		@ args = 0, pretend = 0, frame = 0
 1197              		@ frame_needed = 0, uses_anonymous_args = 0
 1198              		@ link register save eliminated.
 534:Drivers/STM32F7xx_HAL_Driver/Src/stm32f7xx_hal_flash.c ****   {
 1199              		.loc 1 534 0
 1200 0000 054B     		ldr	r3, .L141
 1201 0002 5A69     		ldr	r2, [r3, #20]
 1202 0004 D207     		lsls	r2, r2, #31
 1203 0006 05D5     		bpl	.L140
 537:Drivers/STM32F7xx_HAL_Driver/Src/stm32f7xx_hal_flash.c ****     FLASH->OPTKEYR = FLASH_OPT_KEY2;
 1204              		.loc 1 537 0
ARM GAS  /tmp/cc8f1EWx.s 			page 47


 1205 0008 0449     		ldr	r1, .L141+4
 545:Drivers/STM32F7xx_HAL_Driver/Src/stm32f7xx_hal_flash.c **** }
 1206              		.loc 1 545 0
 1207 000a 0020     		movs	r0, #0
 538:Drivers/STM32F7xx_HAL_Driver/Src/stm32f7xx_hal_flash.c ****   }
 1208              		.loc 1 538 0
 1209 000c 044A     		ldr	r2, .L141+8
 537:Drivers/STM32F7xx_HAL_Driver/Src/stm32f7xx_hal_flash.c ****     FLASH->OPTKEYR = FLASH_OPT_KEY2;
 1210              		.loc 1 537 0
 1211 000e 9960     		str	r1, [r3, #8]
 538:Drivers/STM32F7xx_HAL_Driver/Src/stm32f7xx_hal_flash.c ****   }
 1212              		.loc 1 538 0
 1213 0010 9A60     		str	r2, [r3, #8]
 545:Drivers/STM32F7xx_HAL_Driver/Src/stm32f7xx_hal_flash.c **** }
 1214              		.loc 1 545 0
 1215 0012 7047     		bx	lr
 1216              	.L140:
 542:Drivers/STM32F7xx_HAL_Driver/Src/stm32f7xx_hal_flash.c ****   }  
 1217              		.loc 1 542 0
 1218 0014 0120     		movs	r0, #1
 546:Drivers/STM32F7xx_HAL_Driver/Src/stm32f7xx_hal_flash.c **** 
 1219              		.loc 1 546 0
 1220 0016 7047     		bx	lr
 1221              	.L142:
 1222              		.align	2
 1223              	.L141:
 1224 0018 003C0240 		.word	1073888256
 1225 001c 3B2A1908 		.word	135866939
 1226 0020 7F6E5D4C 		.word	1281191551
 1227              		.cfi_endproc
 1228              	.LFE145:
 1230              		.section	.text.HAL_FLASH_OB_Lock,"ax",%progbits
 1231              		.align	1
 1232              		.p2align 2,,3
 1233              		.global	HAL_FLASH_OB_Lock
 1234              		.syntax unified
 1235              		.thumb
 1236              		.thumb_func
 1237              		.fpu fpv4-sp-d16
 1239              	HAL_FLASH_OB_Lock:
 1240              	.LFB146:
 553:Drivers/STM32F7xx_HAL_Driver/Src/stm32f7xx_hal_flash.c ****   /* Set the OPTLOCK Bit to lock the FLASH Option Byte Registers access */
 1241              		.loc 1 553 0
 1242              		.cfi_startproc
 1243              		@ args = 0, pretend = 0, frame = 0
 1244              		@ frame_needed = 0, uses_anonymous_args = 0
 1245              		@ link register save eliminated.
 555:Drivers/STM32F7xx_HAL_Driver/Src/stm32f7xx_hal_flash.c ****   
 1246              		.loc 1 555 0
 1247 0000 034A     		ldr	r2, .L144
 558:Drivers/STM32F7xx_HAL_Driver/Src/stm32f7xx_hal_flash.c **** 
 1248              		.loc 1 558 0
 1249 0002 0020     		movs	r0, #0
 555:Drivers/STM32F7xx_HAL_Driver/Src/stm32f7xx_hal_flash.c ****   
 1250              		.loc 1 555 0
 1251 0004 5369     		ldr	r3, [r2, #20]
 1252 0006 43F00103 		orr	r3, r3, #1
ARM GAS  /tmp/cc8f1EWx.s 			page 48


 1253 000a 5361     		str	r3, [r2, #20]
 558:Drivers/STM32F7xx_HAL_Driver/Src/stm32f7xx_hal_flash.c **** 
 1254              		.loc 1 558 0
 1255 000c 7047     		bx	lr
 1256              	.L145:
 1257 000e 00BF     		.align	2
 1258              	.L144:
 1259 0010 003C0240 		.word	1073888256
 1260              		.cfi_endproc
 1261              	.LFE146:
 1263              		.section	.text.HAL_FLASH_OB_Launch,"ax",%progbits
 1264              		.align	1
 1265              		.p2align 2,,3
 1266              		.global	HAL_FLASH_OB_Launch
 1267              		.syntax unified
 1268              		.thumb
 1269              		.thumb_func
 1270              		.fpu fpv4-sp-d16
 1272              	HAL_FLASH_OB_Launch:
 1273              	.LFB147:
 565:Drivers/STM32F7xx_HAL_Driver/Src/stm32f7xx_hal_flash.c ****   /* Set the OPTSTRT bit in OPTCR register */
 1274              		.loc 1 565 0
 1275              		.cfi_startproc
 1276              		@ args = 0, pretend = 0, frame = 0
 1277              		@ frame_needed = 0, uses_anonymous_args = 0
 1278 0000 F8B5     		push	{r3, r4, r5, r6, r7, lr}
 1279              	.LCFI3:
 1280              		.cfi_def_cfa_offset 24
 1281              		.cfi_offset 3, -24
 1282              		.cfi_offset 4, -20
 1283              		.cfi_offset 5, -16
 1284              		.cfi_offset 6, -12
 1285              		.cfi_offset 7, -8
 1286              		.cfi_offset 14, -4
 567:Drivers/STM32F7xx_HAL_Driver/Src/stm32f7xx_hal_flash.c **** 
 1287              		.loc 1 567 0
 1288 0002 284B     		ldr	r3, .L175
 1289              	.LBB154:
 1290              	.LBB155:
 619:Drivers/STM32F7xx_HAL_Driver/Src/stm32f7xx_hal_flash.c ****   
 1291              		.loc 1 619 0
 1292 0004 0021     		movs	r1, #0
 1293 0006 284F     		ldr	r7, .L175+4
 631:Drivers/STM32F7xx_HAL_Driver/Src/stm32f7xx_hal_flash.c ****       {
 1294              		.loc 1 631 0
 1295 0008 4CF25036 		movw	r6, #50000
 1296              	.LBE155:
 1297              	.LBE154:
 567:Drivers/STM32F7xx_HAL_Driver/Src/stm32f7xx_hal_flash.c **** 
 1298              		.loc 1 567 0
 1299 000c 5A69     		ldr	r2, [r3, #20]
 1300              	.LBB171:
 1301              	.LBB166:
 627:Drivers/STM32F7xx_HAL_Driver/Src/stm32f7xx_hal_flash.c ****   { 
 1302              		.loc 1 627 0
 1303 000e 1C46     		mov	r4, r3
 1304              	.LBE166:
ARM GAS  /tmp/cc8f1EWx.s 			page 49


 1305              	.LBE171:
 567:Drivers/STM32F7xx_HAL_Driver/Src/stm32f7xx_hal_flash.c **** 
 1306              		.loc 1 567 0
 1307 0010 42F00202 		orr	r2, r2, #2
 1308 0014 5A61     		str	r2, [r3, #20]
 1309              	.LVL71:
 1310              	.LBB172:
 1311              	.LBB167:
 619:Drivers/STM32F7xx_HAL_Driver/Src/stm32f7xx_hal_flash.c ****   
 1312              		.loc 1 619 0
 1313 0016 B961     		str	r1, [r7, #24]
 625:Drivers/STM32F7xx_HAL_Driver/Src/stm32f7xx_hal_flash.c **** 
 1314              		.loc 1 625 0
 1315 0018 FFF7FEFF 		bl	HAL_GetTick
 1316              	.LVL72:
 1317 001c 0546     		mov	r5, r0
 1318              	.LVL73:
 1319 001e 04E0     		b	.L147
 1320              	.LVL74:
 1321              	.L149:
 631:Drivers/STM32F7xx_HAL_Driver/Src/stm32f7xx_hal_flash.c ****       {
 1322              		.loc 1 631 0
 1323 0020 FFF7FEFF 		bl	HAL_GetTick
 1324              	.LVL75:
 1325 0024 401B     		subs	r0, r0, r5
 1326 0026 B042     		cmp	r0, r6
 1327 0028 0DD8     		bhi	.L156
 1328              	.L147:
 627:Drivers/STM32F7xx_HAL_Driver/Src/stm32f7xx_hal_flash.c ****   { 
 1329              		.loc 1 627 0
 1330 002a E368     		ldr	r3, [r4, #12]
 1331 002c DB03     		lsls	r3, r3, #15
 1332 002e F7D4     		bmi	.L149
 638:Drivers/STM32F7xx_HAL_Driver/Src/stm32f7xx_hal_flash.c ****   {
 1333              		.loc 1 638 0
 1334 0030 E068     		ldr	r0, [r4, #12]
 1335              	.LBB156:
 1336              	.LBB157:
 783:Drivers/STM32F7xx_HAL_Driver/Src/stm32f7xx_hal_flash.c ****   {
 1337              		.loc 1 783 0
 1338 0032 E368     		ldr	r3, [r4, #12]
 1339              	.LBE157:
 1340              	.LBE156:
 638:Drivers/STM32F7xx_HAL_Driver/Src/stm32f7xx_hal_flash.c ****   {
 1341              		.loc 1 638 0
 1342 0034 10F0F200 		ands	r0, r0, #242
 1343 0038 09D1     		bne	.L174
 1344              	.LVL76:
 1345              	.LBB160:
 1346              	.LBB161:
 646:Drivers/STM32F7xx_HAL_Driver/Src/stm32f7xx_hal_flash.c ****   {
 1347              		.loc 1 646 0
 1348 003a 13F00103 		ands	r3, r3, #1
 1349 003e 04D0     		beq	.L157
 649:Drivers/STM32F7xx_HAL_Driver/Src/stm32f7xx_hal_flash.c ****   }
 1350              		.loc 1 649 0
 1351 0040 0123     		movs	r3, #1
ARM GAS  /tmp/cc8f1EWx.s 			page 50


 1352 0042 E360     		str	r3, [r4, #12]
 1353              	.LVL77:
 1354              	.LBE161:
 1355              	.LBE160:
 1356              	.LBE167:
 1357              	.LBE172:
 571:Drivers/STM32F7xx_HAL_Driver/Src/stm32f7xx_hal_flash.c **** 
 1358              		.loc 1 571 0
 1359 0044 F8BD     		pop	{r3, r4, r5, r6, r7, pc}
 1360              	.LVL78:
 1361              	.L156:
 1362              	.LBB173:
 1363              	.LBB168:
 633:Drivers/STM32F7xx_HAL_Driver/Src/stm32f7xx_hal_flash.c ****       }
 1364              		.loc 1 633 0
 1365 0046 0320     		movs	r0, #3
 1366              	.LVL79:
 1367              	.LBE168:
 1368              	.LBE173:
 571:Drivers/STM32F7xx_HAL_Driver/Src/stm32f7xx_hal_flash.c **** 
 1369              		.loc 1 571 0
 1370 0048 F8BD     		pop	{r3, r4, r5, r6, r7, pc}
 1371              	.LVL80:
 1372              	.L157:
 1373              	.LBB174:
 1374              	.LBB169:
 1375              	.LBB163:
 1376              	.LBB162:
 646:Drivers/STM32F7xx_HAL_Driver/Src/stm32f7xx_hal_flash.c ****   {
 1377              		.loc 1 646 0
 1378 004a 1846     		mov	r0, r3
 1379              	.LVL81:
 1380              	.LBE162:
 1381              	.LBE163:
 1382              	.LBE169:
 1383              	.LBE174:
 571:Drivers/STM32F7xx_HAL_Driver/Src/stm32f7xx_hal_flash.c **** 
 1384              		.loc 1 571 0
 1385 004c F8BD     		pop	{r3, r4, r5, r6, r7, pc}
 1386              	.LVL82:
 1387              	.L174:
 1388              	.LBB175:
 1389              	.LBB170:
 1390              	.LBB164:
 1391              	.LBB158:
 783:Drivers/STM32F7xx_HAL_Driver/Src/stm32f7xx_hal_flash.c ****   {
 1392              		.loc 1 783 0
 1393 004e 9C07     		lsls	r4, r3, #30
 1394 0050 03D5     		bpl	.L151
 785:Drivers/STM32F7xx_HAL_Driver/Src/stm32f7xx_hal_flash.c ****   }
 1395              		.loc 1 785 0
 1396 0052 BB69     		ldr	r3, [r7, #24]
 1397 0054 43F02003 		orr	r3, r3, #32
 1398 0058 BB61     		str	r3, [r7, #24]
 1399              	.L151:
 788:Drivers/STM32F7xx_HAL_Driver/Src/stm32f7xx_hal_flash.c ****   {
 1400              		.loc 1 788 0
ARM GAS  /tmp/cc8f1EWx.s 			page 51


 1401 005a 124B     		ldr	r3, .L175
 1402 005c DB68     		ldr	r3, [r3, #12]
 1403 005e D806     		lsls	r0, r3, #27
 1404 0060 03D5     		bpl	.L152
 790:Drivers/STM32F7xx_HAL_Driver/Src/stm32f7xx_hal_flash.c ****   }
 1405              		.loc 1 790 0
 1406 0062 BB69     		ldr	r3, [r7, #24]
 1407 0064 43F01003 		orr	r3, r3, #16
 1408 0068 BB61     		str	r3, [r7, #24]
 1409              	.L152:
 793:Drivers/STM32F7xx_HAL_Driver/Src/stm32f7xx_hal_flash.c ****   {
 1410              		.loc 1 793 0
 1411 006a 0E4B     		ldr	r3, .L175
 1412 006c DB68     		ldr	r3, [r3, #12]
 1413 006e 9906     		lsls	r1, r3, #26
 1414 0070 03D5     		bpl	.L153
 795:Drivers/STM32F7xx_HAL_Driver/Src/stm32f7xx_hal_flash.c ****   }
 1415              		.loc 1 795 0
 1416 0072 BB69     		ldr	r3, [r7, #24]
 1417 0074 43F00803 		orr	r3, r3, #8
 1418 0078 BB61     		str	r3, [r7, #24]
 1419              	.L153:
 798:Drivers/STM32F7xx_HAL_Driver/Src/stm32f7xx_hal_flash.c ****   {
 1420              		.loc 1 798 0
 1421 007a 0A4B     		ldr	r3, .L175
 1422 007c DB68     		ldr	r3, [r3, #12]
 1423 007e 5A06     		lsls	r2, r3, #25
 1424 0080 03D5     		bpl	.L154
 800:Drivers/STM32F7xx_HAL_Driver/Src/stm32f7xx_hal_flash.c ****   }
 1425              		.loc 1 800 0
 1426 0082 BB69     		ldr	r3, [r7, #24]
 1427 0084 43F00403 		orr	r3, r3, #4
 1428 0088 BB61     		str	r3, [r7, #24]
 1429              	.L154:
 803:Drivers/STM32F7xx_HAL_Driver/Src/stm32f7xx_hal_flash.c ****   {
 1430              		.loc 1 803 0
 1431 008a 064B     		ldr	r3, .L175
 1432 008c DB68     		ldr	r3, [r3, #12]
 1433 008e 1B06     		lsls	r3, r3, #24
 1434 0090 03D5     		bpl	.L155
 805:Drivers/STM32F7xx_HAL_Driver/Src/stm32f7xx_hal_flash.c ****   }
 1435              		.loc 1 805 0
 1436 0092 BB69     		ldr	r3, [r7, #24]
 1437 0094 43F00203 		orr	r3, r3, #2
 1438 0098 BB61     		str	r3, [r7, #24]
 1439              	.L155:
 1440              		.loc 1 816 0
 1441 009a 024B     		ldr	r3, .L175
 1442 009c F222     		movs	r2, #242
 1443              	.LBE158:
 1444              	.LBE164:
 642:Drivers/STM32F7xx_HAL_Driver/Src/stm32f7xx_hal_flash.c ****   }
 1445              		.loc 1 642 0
 1446 009e 0120     		movs	r0, #1
 1447              	.LBB165:
 1448              	.LBB159:
 1449              		.loc 1 816 0
ARM GAS  /tmp/cc8f1EWx.s 			page 52


 1450 00a0 DA60     		str	r2, [r3, #12]
 1451              	.LVL83:
 1452              	.LBE159:
 1453              	.LBE165:
 1454              	.LBE170:
 1455              	.LBE175:
 571:Drivers/STM32F7xx_HAL_Driver/Src/stm32f7xx_hal_flash.c **** 
 1456              		.loc 1 571 0
 1457 00a2 F8BD     		pop	{r3, r4, r5, r6, r7, pc}
 1458              	.L176:
 1459              		.align	2
 1460              	.L175:
 1461 00a4 003C0240 		.word	1073888256
 1462 00a8 00000000 		.word	pFlash
 1463              		.cfi_endproc
 1464              	.LFE147:
 1466              		.section	.text.HAL_FLASH_GetError,"ax",%progbits
 1467              		.align	1
 1468              		.p2align 2,,3
 1469              		.global	HAL_FLASH_GetError
 1470              		.syntax unified
 1471              		.thumb
 1472              		.thumb_func
 1473              		.fpu fpv4-sp-d16
 1475              	HAL_FLASH_GetError:
 1476              	.LFB148:
 601:Drivers/STM32F7xx_HAL_Driver/Src/stm32f7xx_hal_flash.c ****    return pFlash.ErrorCode;
 1477              		.loc 1 601 0
 1478              		.cfi_startproc
 1479              		@ args = 0, pretend = 0, frame = 0
 1480              		@ frame_needed = 0, uses_anonymous_args = 0
 1481              		@ link register save eliminated.
 602:Drivers/STM32F7xx_HAL_Driver/Src/stm32f7xx_hal_flash.c **** }  
 1482              		.loc 1 602 0
 1483 0000 014B     		ldr	r3, .L178
 1484 0002 9869     		ldr	r0, [r3, #24]
 603:Drivers/STM32F7xx_HAL_Driver/Src/stm32f7xx_hal_flash.c ****   
 1485              		.loc 1 603 0
 1486 0004 7047     		bx	lr
 1487              	.L179:
 1488 0006 00BF     		.align	2
 1489              	.L178:
 1490 0008 00000000 		.word	pFlash
 1491              		.cfi_endproc
 1492              	.LFE148:
 1494              		.section	.text.FLASH_WaitForLastOperation,"ax",%progbits
 1495              		.align	1
 1496              		.p2align 2,,3
 1497              		.global	FLASH_WaitForLastOperation
 1498              		.syntax unified
 1499              		.thumb
 1500              		.thumb_func
 1501              		.fpu fpv4-sp-d16
 1503              	FLASH_WaitForLastOperation:
 1504              	.LFB149:
 615:Drivers/STM32F7xx_HAL_Driver/Src/stm32f7xx_hal_flash.c ****   uint32_t tickstart = 0;
 1505              		.loc 1 615 0
ARM GAS  /tmp/cc8f1EWx.s 			page 53


 1506              		.cfi_startproc
 1507              		@ args = 0, pretend = 0, frame = 0
 1508              		@ frame_needed = 0, uses_anonymous_args = 0
 1509              	.LVL84:
 1510 0000 F8B5     		push	{r3, r4, r5, r6, r7, lr}
 1511              	.LCFI4:
 1512              		.cfi_def_cfa_offset 24
 1513              		.cfi_offset 3, -24
 1514              		.cfi_offset 4, -20
 1515              		.cfi_offset 5, -16
 1516              		.cfi_offset 6, -12
 1517              		.cfi_offset 7, -8
 1518              		.cfi_offset 14, -4
 619:Drivers/STM32F7xx_HAL_Driver/Src/stm32f7xx_hal_flash.c ****   
 1519              		.loc 1 619 0
 1520 0002 0023     		movs	r3, #0
 1521 0004 284D     		ldr	r5, .L214
 615:Drivers/STM32F7xx_HAL_Driver/Src/stm32f7xx_hal_flash.c ****   uint32_t tickstart = 0;
 1522              		.loc 1 615 0
 1523 0006 0446     		mov	r4, r0
 627:Drivers/STM32F7xx_HAL_Driver/Src/stm32f7xx_hal_flash.c ****   { 
 1524              		.loc 1 627 0
 1525 0008 284E     		ldr	r6, .L214+4
 619:Drivers/STM32F7xx_HAL_Driver/Src/stm32f7xx_hal_flash.c ****   
 1526              		.loc 1 619 0
 1527 000a AB61     		str	r3, [r5, #24]
 625:Drivers/STM32F7xx_HAL_Driver/Src/stm32f7xx_hal_flash.c **** 
 1528              		.loc 1 625 0
 1529 000c FFF7FEFF 		bl	HAL_GetTick
 1530              	.LVL85:
 1531 0010 0746     		mov	r7, r0
 1532              	.LVL86:
 1533              	.L181:
 1534 0012 601C     		adds	r0, r4, #1
 1535 0014 0FD1     		bne	.L185
 627:Drivers/STM32F7xx_HAL_Driver/Src/stm32f7xx_hal_flash.c ****   { 
 1536              		.loc 1 627 0
 1537 0016 254A     		ldr	r2, .L214+4
 1538              	.L186:
 1539 0018 D368     		ldr	r3, [r2, #12]
 1540 001a D903     		lsls	r1, r3, #15
 1541 001c FCD4     		bmi	.L186
 1542              	.L187:
 638:Drivers/STM32F7xx_HAL_Driver/Src/stm32f7xx_hal_flash.c ****   {
 1543              		.loc 1 638 0
 1544 001e 234B     		ldr	r3, .L214+4
 1545 0020 D868     		ldr	r0, [r3, #12]
 1546 0022 10F0F200 		ands	r0, r0, #242
 1547 0026 13D1     		bne	.L213
 1548              	.LVL87:
 1549              	.LBB180:
 1550              	.LBB181:
 646:Drivers/STM32F7xx_HAL_Driver/Src/stm32f7xx_hal_flash.c ****   {
 1551              		.loc 1 646 0
 1552 0028 DA68     		ldr	r2, [r3, #12]
 1553 002a 12F00102 		ands	r2, r2, #1
 1554 002e 0DD0     		beq	.L195
ARM GAS  /tmp/cc8f1EWx.s 			page 54


 649:Drivers/STM32F7xx_HAL_Driver/Src/stm32f7xx_hal_flash.c ****   }
 1555              		.loc 1 649 0
 1556 0030 0122     		movs	r2, #1
 1557 0032 DA60     		str	r2, [r3, #12]
 1558              	.LBE181:
 1559              	.LBE180:
 655:Drivers/STM32F7xx_HAL_Driver/Src/stm32f7xx_hal_flash.c **** 
 1560              		.loc 1 655 0
 1561 0034 F8BD     		pop	{r3, r4, r5, r6, r7, pc}
 1562              	.LVL88:
 1563              	.L185:
 627:Drivers/STM32F7xx_HAL_Driver/Src/stm32f7xx_hal_flash.c ****   { 
 1564              		.loc 1 627 0
 1565 0036 F368     		ldr	r3, [r6, #12]
 1566 0038 DB03     		lsls	r3, r3, #15
 1567 003a F0D5     		bpl	.L187
 631:Drivers/STM32F7xx_HAL_Driver/Src/stm32f7xx_hal_flash.c ****       {
 1568              		.loc 1 631 0
 1569 003c 24B1     		cbz	r4, .L184
 631:Drivers/STM32F7xx_HAL_Driver/Src/stm32f7xx_hal_flash.c ****       {
 1570              		.loc 1 631 0 is_stmt 0 discriminator 1
 1571 003e FFF7FEFF 		bl	HAL_GetTick
 1572              	.LVL89:
 1573 0042 C01B     		subs	r0, r0, r7
 1574 0044 A042     		cmp	r0, r4
 1575 0046 E4D9     		bls	.L181
 1576              	.L184:
 633:Drivers/STM32F7xx_HAL_Driver/Src/stm32f7xx_hal_flash.c ****       }
 1577              		.loc 1 633 0 is_stmt 1
 1578 0048 0320     		movs	r0, #3
 655:Drivers/STM32F7xx_HAL_Driver/Src/stm32f7xx_hal_flash.c **** 
 1579              		.loc 1 655 0
 1580 004a F8BD     		pop	{r3, r4, r5, r6, r7, pc}
 1581              	.LVL90:
 1582              	.L195:
 1583              	.LBB183:
 1584              	.LBB182:
 646:Drivers/STM32F7xx_HAL_Driver/Src/stm32f7xx_hal_flash.c ****   {
 1585              		.loc 1 646 0
 1586 004c 1046     		mov	r0, r2
 1587              	.LBE182:
 1588              	.LBE183:
 655:Drivers/STM32F7xx_HAL_Driver/Src/stm32f7xx_hal_flash.c **** 
 1589              		.loc 1 655 0
 1590 004e F8BD     		pop	{r3, r4, r5, r6, r7, pc}
 1591              	.LVL91:
 1592              	.L213:
 1593              	.LBB184:
 1594              	.LBB185:
 783:Drivers/STM32F7xx_HAL_Driver/Src/stm32f7xx_hal_flash.c ****   {
 1595              		.loc 1 783 0
 1596 0050 DB68     		ldr	r3, [r3, #12]
 1597 0052 9C07     		lsls	r4, r3, #30
 1598              	.LVL92:
 1599 0054 03D5     		bpl	.L190
 785:Drivers/STM32F7xx_HAL_Driver/Src/stm32f7xx_hal_flash.c ****   }
 1600              		.loc 1 785 0
ARM GAS  /tmp/cc8f1EWx.s 			page 55


 1601 0056 AB69     		ldr	r3, [r5, #24]
 1602 0058 43F02003 		orr	r3, r3, #32
 1603 005c AB61     		str	r3, [r5, #24]
 1604              	.L190:
 788:Drivers/STM32F7xx_HAL_Driver/Src/stm32f7xx_hal_flash.c ****   {
 1605              		.loc 1 788 0
 1606 005e 134B     		ldr	r3, .L214+4
 1607 0060 DB68     		ldr	r3, [r3, #12]
 1608 0062 D806     		lsls	r0, r3, #27
 1609 0064 03D5     		bpl	.L191
 790:Drivers/STM32F7xx_HAL_Driver/Src/stm32f7xx_hal_flash.c ****   }
 1610              		.loc 1 790 0
 1611 0066 AB69     		ldr	r3, [r5, #24]
 1612 0068 43F01003 		orr	r3, r3, #16
 1613 006c AB61     		str	r3, [r5, #24]
 1614              	.L191:
 793:Drivers/STM32F7xx_HAL_Driver/Src/stm32f7xx_hal_flash.c ****   {
 1615              		.loc 1 793 0
 1616 006e 0F4B     		ldr	r3, .L214+4
 1617 0070 DB68     		ldr	r3, [r3, #12]
 1618 0072 9906     		lsls	r1, r3, #26
 1619 0074 03D5     		bpl	.L192
 795:Drivers/STM32F7xx_HAL_Driver/Src/stm32f7xx_hal_flash.c ****   }
 1620              		.loc 1 795 0
 1621 0076 AB69     		ldr	r3, [r5, #24]
 1622 0078 43F00803 		orr	r3, r3, #8
 1623 007c AB61     		str	r3, [r5, #24]
 1624              	.L192:
 798:Drivers/STM32F7xx_HAL_Driver/Src/stm32f7xx_hal_flash.c ****   {
 1625              		.loc 1 798 0
 1626 007e 0B4B     		ldr	r3, .L214+4
 1627 0080 DB68     		ldr	r3, [r3, #12]
 1628 0082 5A06     		lsls	r2, r3, #25
 1629 0084 03D5     		bpl	.L193
 800:Drivers/STM32F7xx_HAL_Driver/Src/stm32f7xx_hal_flash.c ****   }
 1630              		.loc 1 800 0
 1631 0086 AB69     		ldr	r3, [r5, #24]
 1632 0088 43F00403 		orr	r3, r3, #4
 1633 008c AB61     		str	r3, [r5, #24]
 1634              	.L193:
 803:Drivers/STM32F7xx_HAL_Driver/Src/stm32f7xx_hal_flash.c ****   {
 1635              		.loc 1 803 0
 1636 008e 074B     		ldr	r3, .L214+4
 1637 0090 DB68     		ldr	r3, [r3, #12]
 1638 0092 1B06     		lsls	r3, r3, #24
 1639 0094 03D5     		bpl	.L194
 805:Drivers/STM32F7xx_HAL_Driver/Src/stm32f7xx_hal_flash.c ****   }
 1640              		.loc 1 805 0
 1641 0096 AB69     		ldr	r3, [r5, #24]
 1642 0098 43F00203 		orr	r3, r3, #2
 1643 009c AB61     		str	r3, [r5, #24]
 1644              	.L194:
 1645              		.loc 1 816 0
 1646 009e 034B     		ldr	r3, .L214+4
 1647 00a0 F222     		movs	r2, #242
 1648              	.LBE185:
 1649              	.LBE184:
ARM GAS  /tmp/cc8f1EWx.s 			page 56


 642:Drivers/STM32F7xx_HAL_Driver/Src/stm32f7xx_hal_flash.c ****   }
 1650              		.loc 1 642 0
 1651 00a2 0120     		movs	r0, #1
 1652              	.LBB187:
 1653              	.LBB186:
 1654              		.loc 1 816 0
 1655 00a4 DA60     		str	r2, [r3, #12]
 1656              	.LBE186:
 1657              	.LBE187:
 655:Drivers/STM32F7xx_HAL_Driver/Src/stm32f7xx_hal_flash.c **** 
 1658              		.loc 1 655 0
 1659 00a6 F8BD     		pop	{r3, r4, r5, r6, r7, pc}
 1660              	.LVL93:
 1661              	.L215:
 1662              		.align	2
 1663              	.L214:
 1664 00a8 00000000 		.word	pFlash
 1665 00ac 003C0240 		.word	1073888256
 1666              		.cfi_endproc
 1667              	.LFE149:
 1669              		.comm	pFlash,28,4
 1670              		.comm	UpdateFile,4,4
 1671              		.comm	SpiRxData,4,4
 1672              		.comm	SpiTxData,4,4
 1673              		.text
 1674              	.Letext0:
 1675              		.file 3 "/usr/include/newlib/machine/_default_types.h"
 1676              		.file 4 "/usr/include/newlib/sys/lock.h"
 1677              		.file 5 "/usr/include/newlib/sys/_types.h"
 1678              		.file 6 "/usr/lib/gcc/arm-none-eabi/7.3.1/include/stddef.h"
 1679              		.file 7 "/usr/include/newlib/sys/reent.h"
 1680              		.file 8 "/usr/include/newlib/sys/_stdint.h"
 1681              		.file 9 "Inc/main.h"
 1682              		.file 10 "Drivers/CMSIS/Include/core_cm7.h"
 1683              		.file 11 "Drivers/CMSIS/Device/ST/STM32F7xx/Include/system_stm32f7xx.h"
 1684              		.file 12 "Drivers/CMSIS/Device/ST/STM32F7xx/Include/stm32f746xx.h"
 1685              		.file 13 "Drivers/CMSIS/Device/ST/STM32F7xx/Include/stm32f7xx.h"
 1686              		.file 14 "Drivers/STM32F7xx_HAL_Driver/Inc/stm32f7xx_hal_def.h"
 1687              		.file 15 "Drivers/STM32F7xx_HAL_Driver/Inc/stm32f7xx_hal_flash.h"
 1688              		.file 16 "Drivers/STM32F7xx_HAL_Driver/Inc/stm32f7xx_hal.h"
 1689              		.file 17 "Drivers/STM32F7xx_HAL_Driver/Inc/stm32f7xx_hal_flash_ex.h"
ARM GAS  /tmp/cc8f1EWx.s 			page 57

