ARM GAS  /tmp/ccvy8ygO.s 			page 1


   1              		.cpu cortex-m7
   2              		.eabi_attribute 27, 1
   3              		.eabi_attribute 28, 1
   4              		.eabi_attribute 20, 1
   5              		.eabi_attribute 21, 1
   6              		.eabi_attribute 23, 3
   7              		.eabi_attribute 24, 1
   8              		.eabi_attribute 25, 1
   9              		.eabi_attribute 26, 1
  10              		.eabi_attribute 30, 6
  11              		.eabi_attribute 34, 1
  12              		.eabi_attribute 18, 4
  13              		.file	"stm32f7xx_hal_uart.c"
  14              		.text
  15              	.Ltext0:
  16              		.cfi_sections	.debug_frame
  17              		.comm	SpiTxData,4,4
  18              		.comm	SpiRxData,4,4
  19              		.comm	UpdateFile,4,4
  20              		.section	.text.HAL_UART_Init,"ax",%progbits
  21              		.align	1
  22              		.global	HAL_UART_Init
  23              		.syntax unified
  24              		.thumb
  25              		.thumb_func
  26              		.fpu fpv4-sp-d16
  28              	HAL_UART_Init:
  29              	.LFB138:
  30              		.file 1 "Drivers/STM32F7xx_HAL_Driver/Src/stm32f7xx_hal_uart.c"
   1:Drivers/STM32F7xx_HAL_Driver/Src/stm32f7xx_hal_uart.c **** /**
   2:Drivers/STM32F7xx_HAL_Driver/Src/stm32f7xx_hal_uart.c ****   ******************************************************************************
   3:Drivers/STM32F7xx_HAL_Driver/Src/stm32f7xx_hal_uart.c ****   * @file    stm32f7xx_hal_uart.c
   4:Drivers/STM32F7xx_HAL_Driver/Src/stm32f7xx_hal_uart.c ****   * @author  MCD Application Team
   5:Drivers/STM32F7xx_HAL_Driver/Src/stm32f7xx_hal_uart.c ****   * @brief   UART HAL module driver.
   6:Drivers/STM32F7xx_HAL_Driver/Src/stm32f7xx_hal_uart.c ****   *          This file provides firmware functions to manage the following
   7:Drivers/STM32F7xx_HAL_Driver/Src/stm32f7xx_hal_uart.c ****   *          functionalities of the Universal Asynchronous Receiver Transmitter (UART) peripheral:
   8:Drivers/STM32F7xx_HAL_Driver/Src/stm32f7xx_hal_uart.c ****   *           + Initialization and de-initialization functions
   9:Drivers/STM32F7xx_HAL_Driver/Src/stm32f7xx_hal_uart.c ****   *           + IO operation functions
  10:Drivers/STM32F7xx_HAL_Driver/Src/stm32f7xx_hal_uart.c ****   *           + Peripheral Control functions
  11:Drivers/STM32F7xx_HAL_Driver/Src/stm32f7xx_hal_uart.c ****   *           + Peripheral State and Errors functions
  12:Drivers/STM32F7xx_HAL_Driver/Src/stm32f7xx_hal_uart.c ****   *
  13:Drivers/STM32F7xx_HAL_Driver/Src/stm32f7xx_hal_uart.c ****   @verbatim
  14:Drivers/STM32F7xx_HAL_Driver/Src/stm32f7xx_hal_uart.c ****   ==============================================================================
  15:Drivers/STM32F7xx_HAL_Driver/Src/stm32f7xx_hal_uart.c ****                         ##### How to use this driver #####
  16:Drivers/STM32F7xx_HAL_Driver/Src/stm32f7xx_hal_uart.c ****   ==============================================================================
  17:Drivers/STM32F7xx_HAL_Driver/Src/stm32f7xx_hal_uart.c ****   [..]
  18:Drivers/STM32F7xx_HAL_Driver/Src/stm32f7xx_hal_uart.c ****     The UART HAL driver can be used as follows:
  19:Drivers/STM32F7xx_HAL_Driver/Src/stm32f7xx_hal_uart.c **** 
  20:Drivers/STM32F7xx_HAL_Driver/Src/stm32f7xx_hal_uart.c ****     (#) Declare a UART_HandleTypeDef handle structure.
  21:Drivers/STM32F7xx_HAL_Driver/Src/stm32f7xx_hal_uart.c **** 
  22:Drivers/STM32F7xx_HAL_Driver/Src/stm32f7xx_hal_uart.c ****     (#) Initialize the UART low level resources by implementing the HAL_UART_MspInit() API:
  23:Drivers/STM32F7xx_HAL_Driver/Src/stm32f7xx_hal_uart.c ****         (##) Enable the USARTx interface clock.
  24:Drivers/STM32F7xx_HAL_Driver/Src/stm32f7xx_hal_uart.c ****         (##) UART pins configuration:
  25:Drivers/STM32F7xx_HAL_Driver/Src/stm32f7xx_hal_uart.c ****             (+++) Enable the clock for the UART GPIOs.
  26:Drivers/STM32F7xx_HAL_Driver/Src/stm32f7xx_hal_uart.c ****             (+++) Configure these UART pins as alternate function pull-up.
  27:Drivers/STM32F7xx_HAL_Driver/Src/stm32f7xx_hal_uart.c ****         (##) NVIC configuration if you need to use interrupt process (HAL_UART_Transmit_IT()
  28:Drivers/STM32F7xx_HAL_Driver/Src/stm32f7xx_hal_uart.c ****              and HAL_UART_Receive_IT() APIs):
ARM GAS  /tmp/ccvy8ygO.s 			page 2


  29:Drivers/STM32F7xx_HAL_Driver/Src/stm32f7xx_hal_uart.c ****             (+++) Configure the USARTx interrupt priority.
  30:Drivers/STM32F7xx_HAL_Driver/Src/stm32f7xx_hal_uart.c ****             (+++) Enable the NVIC USART IRQ handle.
  31:Drivers/STM32F7xx_HAL_Driver/Src/stm32f7xx_hal_uart.c ****         (##) DMA Configuration if you need to use DMA process (HAL_UART_Transmit_DMA()
  32:Drivers/STM32F7xx_HAL_Driver/Src/stm32f7xx_hal_uart.c ****              and HAL_UART_Receive_DMA() APIs):
  33:Drivers/STM32F7xx_HAL_Driver/Src/stm32f7xx_hal_uart.c ****             (+++) Declare a DMA handle structure for the Tx/Rx stream.
  34:Drivers/STM32F7xx_HAL_Driver/Src/stm32f7xx_hal_uart.c ****             (+++) Enable the DMAx interface clock.
  35:Drivers/STM32F7xx_HAL_Driver/Src/stm32f7xx_hal_uart.c ****             (+++) Configure the declared DMA handle structure with the required
  36:Drivers/STM32F7xx_HAL_Driver/Src/stm32f7xx_hal_uart.c ****                   Tx/Rx parameters.
  37:Drivers/STM32F7xx_HAL_Driver/Src/stm32f7xx_hal_uart.c ****             (+++) Configure the DMA Tx/Rx Stream.
  38:Drivers/STM32F7xx_HAL_Driver/Src/stm32f7xx_hal_uart.c ****             (+++) Associate the initialized DMA handle to the UART DMA Tx/Rx handle.
  39:Drivers/STM32F7xx_HAL_Driver/Src/stm32f7xx_hal_uart.c ****             (+++) Configure the priority and enable the NVIC for the transfer complete
  40:Drivers/STM32F7xx_HAL_Driver/Src/stm32f7xx_hal_uart.c ****                   interrupt on the DMA Tx/Rx Stream.
  41:Drivers/STM32F7xx_HAL_Driver/Src/stm32f7xx_hal_uart.c **** 
  42:Drivers/STM32F7xx_HAL_Driver/Src/stm32f7xx_hal_uart.c ****     (#) Program the Baud Rate, Word Length, Stop Bit, Parity, Hardware
  43:Drivers/STM32F7xx_HAL_Driver/Src/stm32f7xx_hal_uart.c ****         flow control and Mode(Receiver/Transmitter) in the Init structure.
  44:Drivers/STM32F7xx_HAL_Driver/Src/stm32f7xx_hal_uart.c **** 
  45:Drivers/STM32F7xx_HAL_Driver/Src/stm32f7xx_hal_uart.c ****     (#) For the UART asynchronous mode, initialize the UART registers by calling
  46:Drivers/STM32F7xx_HAL_Driver/Src/stm32f7xx_hal_uart.c ****         the HAL_UART_Init() API.
  47:Drivers/STM32F7xx_HAL_Driver/Src/stm32f7xx_hal_uart.c **** 
  48:Drivers/STM32F7xx_HAL_Driver/Src/stm32f7xx_hal_uart.c ****     (#) For the UART Half duplex mode, initialize the UART registers by calling
  49:Drivers/STM32F7xx_HAL_Driver/Src/stm32f7xx_hal_uart.c ****         the HAL_HalfDuplex_Init() API.
  50:Drivers/STM32F7xx_HAL_Driver/Src/stm32f7xx_hal_uart.c **** 
  51:Drivers/STM32F7xx_HAL_Driver/Src/stm32f7xx_hal_uart.c ****     (#) For the LIN mode, initialize the UART registers by calling the HAL_LIN_Init() API.
  52:Drivers/STM32F7xx_HAL_Driver/Src/stm32f7xx_hal_uart.c **** 
  53:Drivers/STM32F7xx_HAL_Driver/Src/stm32f7xx_hal_uart.c ****     (#) For the Multi-Processor mode, initialize the UART registers by calling
  54:Drivers/STM32F7xx_HAL_Driver/Src/stm32f7xx_hal_uart.c ****         the HAL_MultiProcessor_Init() API.
  55:Drivers/STM32F7xx_HAL_Driver/Src/stm32f7xx_hal_uart.c **** 
  56:Drivers/STM32F7xx_HAL_Driver/Src/stm32f7xx_hal_uart.c ****      [..]
  57:Drivers/STM32F7xx_HAL_Driver/Src/stm32f7xx_hal_uart.c ****        (@) The specific UART interrupts (Transmission complete interrupt,
  58:Drivers/STM32F7xx_HAL_Driver/Src/stm32f7xx_hal_uart.c ****             RXNE interrupt and Error Interrupts) will be managed using the macros
  59:Drivers/STM32F7xx_HAL_Driver/Src/stm32f7xx_hal_uart.c ****             __HAL_UART_ENABLE_IT() and __HAL_UART_DISABLE_IT() inside the transmit
  60:Drivers/STM32F7xx_HAL_Driver/Src/stm32f7xx_hal_uart.c ****             and receive process.
  61:Drivers/STM32F7xx_HAL_Driver/Src/stm32f7xx_hal_uart.c **** 
  62:Drivers/STM32F7xx_HAL_Driver/Src/stm32f7xx_hal_uart.c ****      [..]
  63:Drivers/STM32F7xx_HAL_Driver/Src/stm32f7xx_hal_uart.c ****        (@) These APIs (HAL_UART_Init() and HAL_HalfDuplex_Init()) configure also the
  64:Drivers/STM32F7xx_HAL_Driver/Src/stm32f7xx_hal_uart.c ****             low level Hardware GPIO, CLOCK, CORTEX...etc) by calling the customized
  65:Drivers/STM32F7xx_HAL_Driver/Src/stm32f7xx_hal_uart.c ****             HAL_UART_MspInit() API.
  66:Drivers/STM32F7xx_HAL_Driver/Src/stm32f7xx_hal_uart.c **** 
  67:Drivers/STM32F7xx_HAL_Driver/Src/stm32f7xx_hal_uart.c ****      [..]
  68:Drivers/STM32F7xx_HAL_Driver/Src/stm32f7xx_hal_uart.c ****         Three operation modes are available within this driver :
  69:Drivers/STM32F7xx_HAL_Driver/Src/stm32f7xx_hal_uart.c **** 
  70:Drivers/STM32F7xx_HAL_Driver/Src/stm32f7xx_hal_uart.c ****      *** Polling mode IO operation ***
  71:Drivers/STM32F7xx_HAL_Driver/Src/stm32f7xx_hal_uart.c ****      =================================
  72:Drivers/STM32F7xx_HAL_Driver/Src/stm32f7xx_hal_uart.c ****      [..]
  73:Drivers/STM32F7xx_HAL_Driver/Src/stm32f7xx_hal_uart.c ****        (+) Send an amount of data in blocking mode using HAL_UART_Transmit()
  74:Drivers/STM32F7xx_HAL_Driver/Src/stm32f7xx_hal_uart.c ****        (+) Receive an amount of data in blocking mode using HAL_UART_Receive()
  75:Drivers/STM32F7xx_HAL_Driver/Src/stm32f7xx_hal_uart.c **** 
  76:Drivers/STM32F7xx_HAL_Driver/Src/stm32f7xx_hal_uart.c ****      *** Interrupt mode IO operation ***
  77:Drivers/STM32F7xx_HAL_Driver/Src/stm32f7xx_hal_uart.c ****      ===================================
  78:Drivers/STM32F7xx_HAL_Driver/Src/stm32f7xx_hal_uart.c ****      [..]
  79:Drivers/STM32F7xx_HAL_Driver/Src/stm32f7xx_hal_uart.c ****        (+) Send an amount of data in non blocking mode using HAL_UART_Transmit_IT()
  80:Drivers/STM32F7xx_HAL_Driver/Src/stm32f7xx_hal_uart.c ****        (+) At transmission end of transfer HAL_UART_TxCpltCallback is executed and user can
  81:Drivers/STM32F7xx_HAL_Driver/Src/stm32f7xx_hal_uart.c ****             add his own code by customization of function pointer HAL_UART_TxCpltCallback
  82:Drivers/STM32F7xx_HAL_Driver/Src/stm32f7xx_hal_uart.c ****        (+) Receive an amount of data in non blocking mode using HAL_UART_Receive_IT()
  83:Drivers/STM32F7xx_HAL_Driver/Src/stm32f7xx_hal_uart.c ****        (+) At reception end of transfer HAL_UART_RxCpltCallback is executed and user can
  84:Drivers/STM32F7xx_HAL_Driver/Src/stm32f7xx_hal_uart.c ****             add his own code by customization of function pointer HAL_UART_RxCpltCallback
  85:Drivers/STM32F7xx_HAL_Driver/Src/stm32f7xx_hal_uart.c ****        (+) In case of transfer Error, HAL_UART_ErrorCallback() function is executed and user can
ARM GAS  /tmp/ccvy8ygO.s 			page 3


  86:Drivers/STM32F7xx_HAL_Driver/Src/stm32f7xx_hal_uart.c ****             add his own code by customization of function pointer HAL_UART_ErrorCallback
  87:Drivers/STM32F7xx_HAL_Driver/Src/stm32f7xx_hal_uart.c **** 
  88:Drivers/STM32F7xx_HAL_Driver/Src/stm32f7xx_hal_uart.c ****      *** DMA mode IO operation ***
  89:Drivers/STM32F7xx_HAL_Driver/Src/stm32f7xx_hal_uart.c ****      ==============================
  90:Drivers/STM32F7xx_HAL_Driver/Src/stm32f7xx_hal_uart.c ****      [..]
  91:Drivers/STM32F7xx_HAL_Driver/Src/stm32f7xx_hal_uart.c ****        (+) Send an amount of data in non blocking mode (DMA) using HAL_UART_Transmit_DMA()
  92:Drivers/STM32F7xx_HAL_Driver/Src/stm32f7xx_hal_uart.c ****        (+) At transmission end of half transfer HAL_UART_TxHalfCpltCallback is executed and user ca
  93:Drivers/STM32F7xx_HAL_Driver/Src/stm32f7xx_hal_uart.c ****             add his own code by customization of function pointer HAL_UART_TxHalfCpltCallback
  94:Drivers/STM32F7xx_HAL_Driver/Src/stm32f7xx_hal_uart.c ****        (+) At transmission end of transfer HAL_UART_TxCpltCallback is executed and user can
  95:Drivers/STM32F7xx_HAL_Driver/Src/stm32f7xx_hal_uart.c ****             add his own code by customization of function pointer HAL_UART_TxCpltCallback
  96:Drivers/STM32F7xx_HAL_Driver/Src/stm32f7xx_hal_uart.c ****        (+) Receive an amount of data in non blocking mode (DMA) using HAL_UART_Receive_DMA()
  97:Drivers/STM32F7xx_HAL_Driver/Src/stm32f7xx_hal_uart.c ****        (+) At reception end of half transfer HAL_UART_RxHalfCpltCallback is executed and user can
  98:Drivers/STM32F7xx_HAL_Driver/Src/stm32f7xx_hal_uart.c ****             add his own code by customization of function pointer HAL_UART_RxHalfCpltCallback
  99:Drivers/STM32F7xx_HAL_Driver/Src/stm32f7xx_hal_uart.c ****        (+) At reception end of transfer HAL_UART_RxCpltCallback is executed and user can
 100:Drivers/STM32F7xx_HAL_Driver/Src/stm32f7xx_hal_uart.c ****             add his own code by customization of function pointer HAL_UART_RxCpltCallback
 101:Drivers/STM32F7xx_HAL_Driver/Src/stm32f7xx_hal_uart.c ****        (+) In case of transfer Error, HAL_UART_ErrorCallback() function is executed and user can
 102:Drivers/STM32F7xx_HAL_Driver/Src/stm32f7xx_hal_uart.c ****             add his own code by customization of function pointer HAL_UART_ErrorCallback
 103:Drivers/STM32F7xx_HAL_Driver/Src/stm32f7xx_hal_uart.c ****        (+) Pause the DMA Transfer using HAL_UART_DMAPause()
 104:Drivers/STM32F7xx_HAL_Driver/Src/stm32f7xx_hal_uart.c ****        (+) Resume the DMA Transfer using HAL_UART_DMAResume()
 105:Drivers/STM32F7xx_HAL_Driver/Src/stm32f7xx_hal_uart.c ****        (+) Stop the DMA Transfer using HAL_UART_DMAStop()
 106:Drivers/STM32F7xx_HAL_Driver/Src/stm32f7xx_hal_uart.c **** 
 107:Drivers/STM32F7xx_HAL_Driver/Src/stm32f7xx_hal_uart.c ****      *** UART HAL driver macros list ***
 108:Drivers/STM32F7xx_HAL_Driver/Src/stm32f7xx_hal_uart.c ****      =============================================
 109:Drivers/STM32F7xx_HAL_Driver/Src/stm32f7xx_hal_uart.c ****      [..]
 110:Drivers/STM32F7xx_HAL_Driver/Src/stm32f7xx_hal_uart.c ****        Below the list of most used macros in UART HAL driver.
 111:Drivers/STM32F7xx_HAL_Driver/Src/stm32f7xx_hal_uart.c **** 
 112:Drivers/STM32F7xx_HAL_Driver/Src/stm32f7xx_hal_uart.c ****       (+) __HAL_UART_ENABLE: Enable the UART peripheral
 113:Drivers/STM32F7xx_HAL_Driver/Src/stm32f7xx_hal_uart.c ****       (+) __HAL_UART_DISABLE: Disable the UART peripheral
 114:Drivers/STM32F7xx_HAL_Driver/Src/stm32f7xx_hal_uart.c ****       (+) __HAL_UART_GET_FLAG : Check whether the specified UART flag is set or not
 115:Drivers/STM32F7xx_HAL_Driver/Src/stm32f7xx_hal_uart.c ****       (+) __HAL_UART_CLEAR_IT : Clears the specified UART ISR flag
 116:Drivers/STM32F7xx_HAL_Driver/Src/stm32f7xx_hal_uart.c ****       (+) __HAL_UART_ENABLE_IT: Enable the specified UART interrupt
 117:Drivers/STM32F7xx_HAL_Driver/Src/stm32f7xx_hal_uart.c ****       (+) __HAL_UART_DISABLE_IT: Disable the specified UART interrupt
 118:Drivers/STM32F7xx_HAL_Driver/Src/stm32f7xx_hal_uart.c ****       (+) __HAL_UART_GET_IT_SOURCE: Check whether the specified UART interrupt has occurred or not
 119:Drivers/STM32F7xx_HAL_Driver/Src/stm32f7xx_hal_uart.c **** 
 120:Drivers/STM32F7xx_HAL_Driver/Src/stm32f7xx_hal_uart.c ****      [..]
 121:Drivers/STM32F7xx_HAL_Driver/Src/stm32f7xx_hal_uart.c ****        (@) You can refer to the UART HAL driver header file for more useful macros
 122:Drivers/STM32F7xx_HAL_Driver/Src/stm32f7xx_hal_uart.c **** 
 123:Drivers/STM32F7xx_HAL_Driver/Src/stm32f7xx_hal_uart.c ****   @endverbatim
 124:Drivers/STM32F7xx_HAL_Driver/Src/stm32f7xx_hal_uart.c ****   ******************************************************************************
 125:Drivers/STM32F7xx_HAL_Driver/Src/stm32f7xx_hal_uart.c ****   * @attention
 126:Drivers/STM32F7xx_HAL_Driver/Src/stm32f7xx_hal_uart.c ****   *
 127:Drivers/STM32F7xx_HAL_Driver/Src/stm32f7xx_hal_uart.c ****   * <h2><center>&copy; COPYRIGHT(c) 2017 STMicroelectronics</center></h2>
 128:Drivers/STM32F7xx_HAL_Driver/Src/stm32f7xx_hal_uart.c ****   *
 129:Drivers/STM32F7xx_HAL_Driver/Src/stm32f7xx_hal_uart.c ****   * Redistribution and use in source and binary forms, with or without modification,
 130:Drivers/STM32F7xx_HAL_Driver/Src/stm32f7xx_hal_uart.c ****   * are permitted provided that the following conditions are met:
 131:Drivers/STM32F7xx_HAL_Driver/Src/stm32f7xx_hal_uart.c ****   *   1. Redistributions of source code must retain the above copyright notice,
 132:Drivers/STM32F7xx_HAL_Driver/Src/stm32f7xx_hal_uart.c ****   *      this list of conditions and the following disclaimer.
 133:Drivers/STM32F7xx_HAL_Driver/Src/stm32f7xx_hal_uart.c ****   *   2. Redistributions in binary form must reproduce the above copyright notice,
 134:Drivers/STM32F7xx_HAL_Driver/Src/stm32f7xx_hal_uart.c ****   *      this list of conditions and the following disclaimer in the documentation
 135:Drivers/STM32F7xx_HAL_Driver/Src/stm32f7xx_hal_uart.c ****   *      and/or other materials provided with the distribution.
 136:Drivers/STM32F7xx_HAL_Driver/Src/stm32f7xx_hal_uart.c ****   *   3. Neither the name of STMicroelectronics nor the names of its contributors
 137:Drivers/STM32F7xx_HAL_Driver/Src/stm32f7xx_hal_uart.c ****   *      may be used to endorse or promote products derived from this software
 138:Drivers/STM32F7xx_HAL_Driver/Src/stm32f7xx_hal_uart.c ****   *      without specific prior written permission.
 139:Drivers/STM32F7xx_HAL_Driver/Src/stm32f7xx_hal_uart.c ****   *
 140:Drivers/STM32F7xx_HAL_Driver/Src/stm32f7xx_hal_uart.c ****   * THIS SOFTWARE IS PROVIDED BY THE COPYRIGHT HOLDERS AND CONTRIBUTORS "AS IS"
 141:Drivers/STM32F7xx_HAL_Driver/Src/stm32f7xx_hal_uart.c ****   * AND ANY EXPRESS OR IMPLIED WARRANTIES, INCLUDING, BUT NOT LIMITED TO, THE
 142:Drivers/STM32F7xx_HAL_Driver/Src/stm32f7xx_hal_uart.c ****   * IMPLIED WARRANTIES OF MERCHANTABILITY AND FITNESS FOR A PARTICULAR PURPOSE ARE
ARM GAS  /tmp/ccvy8ygO.s 			page 4


 143:Drivers/STM32F7xx_HAL_Driver/Src/stm32f7xx_hal_uart.c ****   * DISCLAIMED. IN NO EVENT SHALL THE COPYRIGHT HOLDER OR CONTRIBUTORS BE LIABLE
 144:Drivers/STM32F7xx_HAL_Driver/Src/stm32f7xx_hal_uart.c ****   * FOR ANY DIRECT, INDIRECT, INCIDENTAL, SPECIAL, EXEMPLARY, OR CONSEQUENTIAL
 145:Drivers/STM32F7xx_HAL_Driver/Src/stm32f7xx_hal_uart.c ****   * DAMAGES (INCLUDING, BUT NOT LIMITED TO, PROCUREMENT OF SUBSTITUTE GOODS OR
 146:Drivers/STM32F7xx_HAL_Driver/Src/stm32f7xx_hal_uart.c ****   * SERVICES; LOSS OF USE, DATA, OR PROFITS; OR BUSINESS INTERRUPTION) HOWEVER
 147:Drivers/STM32F7xx_HAL_Driver/Src/stm32f7xx_hal_uart.c ****   * CAUSED AND ON ANY THEORY OF LIABILITY, WHETHER IN CONTRACT, STRICT LIABILITY,
 148:Drivers/STM32F7xx_HAL_Driver/Src/stm32f7xx_hal_uart.c ****   * OR TORT (INCLUDING NEGLIGENCE OR OTHERWISE) ARISING IN ANY WAY OUT OF THE USE
 149:Drivers/STM32F7xx_HAL_Driver/Src/stm32f7xx_hal_uart.c ****   * OF THIS SOFTWARE, EVEN IF ADVISED OF THE POSSIBILITY OF SUCH DAMAGE.
 150:Drivers/STM32F7xx_HAL_Driver/Src/stm32f7xx_hal_uart.c ****   *
 151:Drivers/STM32F7xx_HAL_Driver/Src/stm32f7xx_hal_uart.c ****   ******************************************************************************
 152:Drivers/STM32F7xx_HAL_Driver/Src/stm32f7xx_hal_uart.c ****   */
 153:Drivers/STM32F7xx_HAL_Driver/Src/stm32f7xx_hal_uart.c **** 
 154:Drivers/STM32F7xx_HAL_Driver/Src/stm32f7xx_hal_uart.c **** /* Includes ------------------------------------------------------------------*/
 155:Drivers/STM32F7xx_HAL_Driver/Src/stm32f7xx_hal_uart.c **** #include "stm32f7xx_hal.h"
 156:Drivers/STM32F7xx_HAL_Driver/Src/stm32f7xx_hal_uart.c **** 
 157:Drivers/STM32F7xx_HAL_Driver/Src/stm32f7xx_hal_uart.c **** /** @addtogroup STM32F7xx_HAL_Driver
 158:Drivers/STM32F7xx_HAL_Driver/Src/stm32f7xx_hal_uart.c ****   * @{
 159:Drivers/STM32F7xx_HAL_Driver/Src/stm32f7xx_hal_uart.c ****   */
 160:Drivers/STM32F7xx_HAL_Driver/Src/stm32f7xx_hal_uart.c **** 
 161:Drivers/STM32F7xx_HAL_Driver/Src/stm32f7xx_hal_uart.c **** /** @defgroup UART UART
 162:Drivers/STM32F7xx_HAL_Driver/Src/stm32f7xx_hal_uart.c ****   * @brief HAL UART module driver
 163:Drivers/STM32F7xx_HAL_Driver/Src/stm32f7xx_hal_uart.c ****   * @{
 164:Drivers/STM32F7xx_HAL_Driver/Src/stm32f7xx_hal_uart.c ****   */
 165:Drivers/STM32F7xx_HAL_Driver/Src/stm32f7xx_hal_uart.c **** 
 166:Drivers/STM32F7xx_HAL_Driver/Src/stm32f7xx_hal_uart.c **** #ifdef HAL_UART_MODULE_ENABLED
 167:Drivers/STM32F7xx_HAL_Driver/Src/stm32f7xx_hal_uart.c **** 
 168:Drivers/STM32F7xx_HAL_Driver/Src/stm32f7xx_hal_uart.c **** /* Private typedef -----------------------------------------------------------*/
 169:Drivers/STM32F7xx_HAL_Driver/Src/stm32f7xx_hal_uart.c **** /* Private define ------------------------------------------------------------*/
 170:Drivers/STM32F7xx_HAL_Driver/Src/stm32f7xx_hal_uart.c **** /** @defgroup UART_Private_Constants UART Private Constants
 171:Drivers/STM32F7xx_HAL_Driver/Src/stm32f7xx_hal_uart.c ****   * @{
 172:Drivers/STM32F7xx_HAL_Driver/Src/stm32f7xx_hal_uart.c ****   */
 173:Drivers/STM32F7xx_HAL_Driver/Src/stm32f7xx_hal_uart.c **** #define UART_CR1_FIELDS  ((uint32_t)(USART_CR1_M | USART_CR1_PCE | USART_CR1_PS | \
 174:Drivers/STM32F7xx_HAL_Driver/Src/stm32f7xx_hal_uart.c ****                                      USART_CR1_TE | USART_CR1_RE | USART_CR1_OVER8))
 175:Drivers/STM32F7xx_HAL_Driver/Src/stm32f7xx_hal_uart.c **** /**
 176:Drivers/STM32F7xx_HAL_Driver/Src/stm32f7xx_hal_uart.c ****   * @}
 177:Drivers/STM32F7xx_HAL_Driver/Src/stm32f7xx_hal_uart.c ****   */
 178:Drivers/STM32F7xx_HAL_Driver/Src/stm32f7xx_hal_uart.c **** /* Private macro -------------------------------------------------------------*/
 179:Drivers/STM32F7xx_HAL_Driver/Src/stm32f7xx_hal_uart.c **** /* Private variables ---------------------------------------------------------*/
 180:Drivers/STM32F7xx_HAL_Driver/Src/stm32f7xx_hal_uart.c **** /* Private function prototypes -----------------------------------------------*/
 181:Drivers/STM32F7xx_HAL_Driver/Src/stm32f7xx_hal_uart.c **** /** @addtogroup UART_Private_Functions
 182:Drivers/STM32F7xx_HAL_Driver/Src/stm32f7xx_hal_uart.c ****   * @{
 183:Drivers/STM32F7xx_HAL_Driver/Src/stm32f7xx_hal_uart.c ****   */
 184:Drivers/STM32F7xx_HAL_Driver/Src/stm32f7xx_hal_uart.c **** static void UART_EndTxTransfer(UART_HandleTypeDef *huart);
 185:Drivers/STM32F7xx_HAL_Driver/Src/stm32f7xx_hal_uart.c **** static void UART_EndRxTransfer(UART_HandleTypeDef *huart);
 186:Drivers/STM32F7xx_HAL_Driver/Src/stm32f7xx_hal_uart.c **** static void UART_DMATransmitCplt(DMA_HandleTypeDef *hdma);
 187:Drivers/STM32F7xx_HAL_Driver/Src/stm32f7xx_hal_uart.c **** static void UART_DMAReceiveCplt(DMA_HandleTypeDef *hdma);
 188:Drivers/STM32F7xx_HAL_Driver/Src/stm32f7xx_hal_uart.c **** static void UART_DMARxHalfCplt(DMA_HandleTypeDef *hdma);
 189:Drivers/STM32F7xx_HAL_Driver/Src/stm32f7xx_hal_uart.c **** static void UART_DMATxHalfCplt(DMA_HandleTypeDef *hdma);
 190:Drivers/STM32F7xx_HAL_Driver/Src/stm32f7xx_hal_uart.c **** static void UART_DMAError(DMA_HandleTypeDef *hdma);
 191:Drivers/STM32F7xx_HAL_Driver/Src/stm32f7xx_hal_uart.c **** static void UART_DMAAbortOnError(DMA_HandleTypeDef *hdma);
 192:Drivers/STM32F7xx_HAL_Driver/Src/stm32f7xx_hal_uart.c **** static HAL_StatusTypeDef UART_Transmit_IT(UART_HandleTypeDef *huart);
 193:Drivers/STM32F7xx_HAL_Driver/Src/stm32f7xx_hal_uart.c **** static HAL_StatusTypeDef UART_EndTransmit_IT(UART_HandleTypeDef *huart);
 194:Drivers/STM32F7xx_HAL_Driver/Src/stm32f7xx_hal_uart.c **** static HAL_StatusTypeDef UART_Receive_IT(UART_HandleTypeDef *huart);
 195:Drivers/STM32F7xx_HAL_Driver/Src/stm32f7xx_hal_uart.c **** /**
 196:Drivers/STM32F7xx_HAL_Driver/Src/stm32f7xx_hal_uart.c ****   * @}
 197:Drivers/STM32F7xx_HAL_Driver/Src/stm32f7xx_hal_uart.c ****   */
 198:Drivers/STM32F7xx_HAL_Driver/Src/stm32f7xx_hal_uart.c **** 
 199:Drivers/STM32F7xx_HAL_Driver/Src/stm32f7xx_hal_uart.c **** /* Exported functions --------------------------------------------------------*/
ARM GAS  /tmp/ccvy8ygO.s 			page 5


 200:Drivers/STM32F7xx_HAL_Driver/Src/stm32f7xx_hal_uart.c **** 
 201:Drivers/STM32F7xx_HAL_Driver/Src/stm32f7xx_hal_uart.c **** /** @defgroup UART_Exported_Functions UART Exported Functions
 202:Drivers/STM32F7xx_HAL_Driver/Src/stm32f7xx_hal_uart.c ****   * @{
 203:Drivers/STM32F7xx_HAL_Driver/Src/stm32f7xx_hal_uart.c ****   */
 204:Drivers/STM32F7xx_HAL_Driver/Src/stm32f7xx_hal_uart.c **** 
 205:Drivers/STM32F7xx_HAL_Driver/Src/stm32f7xx_hal_uart.c **** /** @defgroup UART_Exported_Functions_Group1 Initialization and de-initialization functions
 206:Drivers/STM32F7xx_HAL_Driver/Src/stm32f7xx_hal_uart.c ****   *  @brief    Initialization and Configuration functions
 207:Drivers/STM32F7xx_HAL_Driver/Src/stm32f7xx_hal_uart.c ****   *
 208:Drivers/STM32F7xx_HAL_Driver/Src/stm32f7xx_hal_uart.c **** @verbatim
 209:Drivers/STM32F7xx_HAL_Driver/Src/stm32f7xx_hal_uart.c **** ===============================================================================
 210:Drivers/STM32F7xx_HAL_Driver/Src/stm32f7xx_hal_uart.c ****             ##### Initialization and Configuration functions #####
 211:Drivers/STM32F7xx_HAL_Driver/Src/stm32f7xx_hal_uart.c ****  ===============================================================================
 212:Drivers/STM32F7xx_HAL_Driver/Src/stm32f7xx_hal_uart.c ****     [..]
 213:Drivers/STM32F7xx_HAL_Driver/Src/stm32f7xx_hal_uart.c ****     This subsection provides a set of functions allowing to initialize the USARTx or the UARTy
 214:Drivers/STM32F7xx_HAL_Driver/Src/stm32f7xx_hal_uart.c ****     in asynchronous mode.
 215:Drivers/STM32F7xx_HAL_Driver/Src/stm32f7xx_hal_uart.c ****       (+) For the asynchronous mode only these parameters can be configured:
 216:Drivers/STM32F7xx_HAL_Driver/Src/stm32f7xx_hal_uart.c ****         (++) Baud Rate
 217:Drivers/STM32F7xx_HAL_Driver/Src/stm32f7xx_hal_uart.c ****         (++) Word Length
 218:Drivers/STM32F7xx_HAL_Driver/Src/stm32f7xx_hal_uart.c ****         (++) Stop Bit
 219:Drivers/STM32F7xx_HAL_Driver/Src/stm32f7xx_hal_uart.c ****         (++) Parity: If the parity is enabled, then the MSB bit of the data written
 220:Drivers/STM32F7xx_HAL_Driver/Src/stm32f7xx_hal_uart.c ****              in the data register is transmitted but is changed by the parity bit.
 221:Drivers/STM32F7xx_HAL_Driver/Src/stm32f7xx_hal_uart.c ****              Depending on the frame length defined by the M bit (8-bits or 9-bits),
 222:Drivers/STM32F7xx_HAL_Driver/Src/stm32f7xx_hal_uart.c ****              please refer to Reference manual for possible UART frame formats.
 223:Drivers/STM32F7xx_HAL_Driver/Src/stm32f7xx_hal_uart.c ****         (++) Hardware flow control
 224:Drivers/STM32F7xx_HAL_Driver/Src/stm32f7xx_hal_uart.c ****         (++) Receiver/transmitter modes
 225:Drivers/STM32F7xx_HAL_Driver/Src/stm32f7xx_hal_uart.c ****         (++) Over Sampling Method
 226:Drivers/STM32F7xx_HAL_Driver/Src/stm32f7xx_hal_uart.c ****     [..]
 227:Drivers/STM32F7xx_HAL_Driver/Src/stm32f7xx_hal_uart.c ****     The HAL_UART_Init(), HAL_HalfDuplex_Init(), HAL_LIN_Init() and HAL_MultiProcessor_Init() APIs
 228:Drivers/STM32F7xx_HAL_Driver/Src/stm32f7xx_hal_uart.c ****     follow respectively the UART asynchronous, UART Half duplex, LIN and Multi-Processor
 229:Drivers/STM32F7xx_HAL_Driver/Src/stm32f7xx_hal_uart.c ****     configuration procedures (details for the procedures are available in reference manual (RM0329)
 230:Drivers/STM32F7xx_HAL_Driver/Src/stm32f7xx_hal_uart.c **** 
 231:Drivers/STM32F7xx_HAL_Driver/Src/stm32f7xx_hal_uart.c **** @endverbatim
 232:Drivers/STM32F7xx_HAL_Driver/Src/stm32f7xx_hal_uart.c ****   * @{
 233:Drivers/STM32F7xx_HAL_Driver/Src/stm32f7xx_hal_uart.c ****   */
 234:Drivers/STM32F7xx_HAL_Driver/Src/stm32f7xx_hal_uart.c **** 
 235:Drivers/STM32F7xx_HAL_Driver/Src/stm32f7xx_hal_uart.c **** /**
 236:Drivers/STM32F7xx_HAL_Driver/Src/stm32f7xx_hal_uart.c ****   * @brief Initializes the UART mode according to the specified
 237:Drivers/STM32F7xx_HAL_Driver/Src/stm32f7xx_hal_uart.c ****   *         parameters in the UART_InitTypeDef and creates the associated handle .
 238:Drivers/STM32F7xx_HAL_Driver/Src/stm32f7xx_hal_uart.c ****   * @param huart uart handle
 239:Drivers/STM32F7xx_HAL_Driver/Src/stm32f7xx_hal_uart.c ****   * @retval HAL status
 240:Drivers/STM32F7xx_HAL_Driver/Src/stm32f7xx_hal_uart.c ****   */
 241:Drivers/STM32F7xx_HAL_Driver/Src/stm32f7xx_hal_uart.c **** HAL_StatusTypeDef HAL_UART_Init(UART_HandleTypeDef *huart)
 242:Drivers/STM32F7xx_HAL_Driver/Src/stm32f7xx_hal_uart.c **** {
  31              		.loc 1 242 0
  32              		.cfi_startproc
  33              		@ args = 0, pretend = 0, frame = 8
  34              		@ frame_needed = 1, uses_anonymous_args = 0
  35 0000 80B5     		push	{r7, lr}
  36              	.LCFI0:
  37              		.cfi_def_cfa_offset 8
  38              		.cfi_offset 7, -8
  39              		.cfi_offset 14, -4
  40 0002 82B0     		sub	sp, sp, #8
  41              	.LCFI1:
  42              		.cfi_def_cfa_offset 16
  43 0004 00AF     		add	r7, sp, #0
  44              	.LCFI2:
ARM GAS  /tmp/ccvy8ygO.s 			page 6


  45              		.cfi_def_cfa_register 7
  46 0006 7860     		str	r0, [r7, #4]
 243:Drivers/STM32F7xx_HAL_Driver/Src/stm32f7xx_hal_uart.c ****   /* Check the UART handle allocation */
 244:Drivers/STM32F7xx_HAL_Driver/Src/stm32f7xx_hal_uart.c ****   if(huart == NULL)
  47              		.loc 1 244 0
  48 0008 7B68     		ldr	r3, [r7, #4]
  49 000a 002B     		cmp	r3, #0
  50 000c 01D1     		bne	.L2
 245:Drivers/STM32F7xx_HAL_Driver/Src/stm32f7xx_hal_uart.c ****   {
 246:Drivers/STM32F7xx_HAL_Driver/Src/stm32f7xx_hal_uart.c ****     return HAL_ERROR;
  51              		.loc 1 246 0
  52 000e 0123     		movs	r3, #1
  53 0010 43E0     		b	.L3
  54              	.L2:
 247:Drivers/STM32F7xx_HAL_Driver/Src/stm32f7xx_hal_uart.c ****   }
 248:Drivers/STM32F7xx_HAL_Driver/Src/stm32f7xx_hal_uart.c **** 
 249:Drivers/STM32F7xx_HAL_Driver/Src/stm32f7xx_hal_uart.c ****   if(huart->Init.HwFlowCtl != UART_HWCONTROL_NONE)
 250:Drivers/STM32F7xx_HAL_Driver/Src/stm32f7xx_hal_uart.c ****   {
 251:Drivers/STM32F7xx_HAL_Driver/Src/stm32f7xx_hal_uart.c ****     /* Check the parameters */
 252:Drivers/STM32F7xx_HAL_Driver/Src/stm32f7xx_hal_uart.c ****     assert_param(IS_UART_HWFLOW_INSTANCE(huart->Instance));
 253:Drivers/STM32F7xx_HAL_Driver/Src/stm32f7xx_hal_uart.c ****   }
 254:Drivers/STM32F7xx_HAL_Driver/Src/stm32f7xx_hal_uart.c ****   else
 255:Drivers/STM32F7xx_HAL_Driver/Src/stm32f7xx_hal_uart.c ****   {
 256:Drivers/STM32F7xx_HAL_Driver/Src/stm32f7xx_hal_uart.c ****     /* Check the parameters */
 257:Drivers/STM32F7xx_HAL_Driver/Src/stm32f7xx_hal_uart.c ****     assert_param(IS_UART_INSTANCE(huart->Instance));
 258:Drivers/STM32F7xx_HAL_Driver/Src/stm32f7xx_hal_uart.c ****   }
 259:Drivers/STM32F7xx_HAL_Driver/Src/stm32f7xx_hal_uart.c **** 
 260:Drivers/STM32F7xx_HAL_Driver/Src/stm32f7xx_hal_uart.c ****   if(huart->gState == HAL_UART_STATE_RESET)
  55              		.loc 1 260 0
  56 0012 7B68     		ldr	r3, [r7, #4]
  57 0014 93F86930 		ldrb	r3, [r3, #105]
  58 0018 DBB2     		uxtb	r3, r3
  59 001a 002B     		cmp	r3, #0
  60 001c 06D1     		bne	.L4
 261:Drivers/STM32F7xx_HAL_Driver/Src/stm32f7xx_hal_uart.c ****   {
 262:Drivers/STM32F7xx_HAL_Driver/Src/stm32f7xx_hal_uart.c ****     /* Allocate lock resource and initialize it */
 263:Drivers/STM32F7xx_HAL_Driver/Src/stm32f7xx_hal_uart.c ****     huart->Lock = HAL_UNLOCKED;
  61              		.loc 1 263 0
  62 001e 7B68     		ldr	r3, [r7, #4]
  63 0020 0022     		movs	r2, #0
  64 0022 83F86820 		strb	r2, [r3, #104]
 264:Drivers/STM32F7xx_HAL_Driver/Src/stm32f7xx_hal_uart.c **** 
 265:Drivers/STM32F7xx_HAL_Driver/Src/stm32f7xx_hal_uart.c ****     /* Init the low level hardware : GPIO, CLOCK */
 266:Drivers/STM32F7xx_HAL_Driver/Src/stm32f7xx_hal_uart.c ****     HAL_UART_MspInit(huart);
  65              		.loc 1 266 0
  66 0026 7868     		ldr	r0, [r7, #4]
  67 0028 FFF7FEFF 		bl	HAL_UART_MspInit
  68              	.L4:
 267:Drivers/STM32F7xx_HAL_Driver/Src/stm32f7xx_hal_uart.c ****   }
 268:Drivers/STM32F7xx_HAL_Driver/Src/stm32f7xx_hal_uart.c **** 
 269:Drivers/STM32F7xx_HAL_Driver/Src/stm32f7xx_hal_uart.c ****   huart->gState = HAL_UART_STATE_BUSY;
  69              		.loc 1 269 0
  70 002c 7B68     		ldr	r3, [r7, #4]
  71 002e 2422     		movs	r2, #36
  72 0030 83F86920 		strb	r2, [r3, #105]
 270:Drivers/STM32F7xx_HAL_Driver/Src/stm32f7xx_hal_uart.c **** 
 271:Drivers/STM32F7xx_HAL_Driver/Src/stm32f7xx_hal_uart.c ****   /* Disable the Peripheral */
ARM GAS  /tmp/ccvy8ygO.s 			page 7


 272:Drivers/STM32F7xx_HAL_Driver/Src/stm32f7xx_hal_uart.c ****   __HAL_UART_DISABLE(huart);
  73              		.loc 1 272 0
  74 0034 7B68     		ldr	r3, [r7, #4]
  75 0036 1B68     		ldr	r3, [r3]
  76 0038 1A68     		ldr	r2, [r3]
  77 003a 7B68     		ldr	r3, [r7, #4]
  78 003c 1B68     		ldr	r3, [r3]
  79 003e 22F00102 		bic	r2, r2, #1
  80 0042 1A60     		str	r2, [r3]
 273:Drivers/STM32F7xx_HAL_Driver/Src/stm32f7xx_hal_uart.c **** 
 274:Drivers/STM32F7xx_HAL_Driver/Src/stm32f7xx_hal_uart.c ****   /* Set the UART Communication parameters */
 275:Drivers/STM32F7xx_HAL_Driver/Src/stm32f7xx_hal_uart.c ****   if (UART_SetConfig(huart) == HAL_ERROR)
  81              		.loc 1 275 0
  82 0044 7868     		ldr	r0, [r7, #4]
  83 0046 FFF7FEFF 		bl	UART_SetConfig
  84 004a 0346     		mov	r3, r0
  85 004c 012B     		cmp	r3, #1
  86 004e 01D1     		bne	.L5
 276:Drivers/STM32F7xx_HAL_Driver/Src/stm32f7xx_hal_uart.c ****   {
 277:Drivers/STM32F7xx_HAL_Driver/Src/stm32f7xx_hal_uart.c ****     return HAL_ERROR;
  87              		.loc 1 277 0
  88 0050 0123     		movs	r3, #1
  89 0052 22E0     		b	.L3
  90              	.L5:
 278:Drivers/STM32F7xx_HAL_Driver/Src/stm32f7xx_hal_uart.c ****   }
 279:Drivers/STM32F7xx_HAL_Driver/Src/stm32f7xx_hal_uart.c **** 
 280:Drivers/STM32F7xx_HAL_Driver/Src/stm32f7xx_hal_uart.c ****   if (huart->AdvancedInit.AdvFeatureInit != UART_ADVFEATURE_NO_INIT)
  91              		.loc 1 280 0
  92 0054 7B68     		ldr	r3, [r7, #4]
  93 0056 5B6A     		ldr	r3, [r3, #36]
  94 0058 002B     		cmp	r3, #0
  95 005a 02D0     		beq	.L6
 281:Drivers/STM32F7xx_HAL_Driver/Src/stm32f7xx_hal_uart.c ****   {
 282:Drivers/STM32F7xx_HAL_Driver/Src/stm32f7xx_hal_uart.c ****     UART_AdvFeatureConfig(huart);
  96              		.loc 1 282 0
  97 005c 7868     		ldr	r0, [r7, #4]
  98 005e FFF7FEFF 		bl	UART_AdvFeatureConfig
  99              	.L6:
 283:Drivers/STM32F7xx_HAL_Driver/Src/stm32f7xx_hal_uart.c ****   }
 284:Drivers/STM32F7xx_HAL_Driver/Src/stm32f7xx_hal_uart.c **** 
 285:Drivers/STM32F7xx_HAL_Driver/Src/stm32f7xx_hal_uart.c ****   /* In asynchronous mode, the following bits must be kept cleared:
 286:Drivers/STM32F7xx_HAL_Driver/Src/stm32f7xx_hal_uart.c ****   - LINEN and CLKEN bits in the USART_CR2 register,
 287:Drivers/STM32F7xx_HAL_Driver/Src/stm32f7xx_hal_uart.c ****   - SCEN, HDSEL and IREN  bits in the USART_CR3 register.*/
 288:Drivers/STM32F7xx_HAL_Driver/Src/stm32f7xx_hal_uart.c ****   CLEAR_BIT(huart->Instance->CR2, (USART_CR2_LINEN | USART_CR2_CLKEN));
 100              		.loc 1 288 0
 101 0062 7B68     		ldr	r3, [r7, #4]
 102 0064 1B68     		ldr	r3, [r3]
 103 0066 5A68     		ldr	r2, [r3, #4]
 104 0068 7B68     		ldr	r3, [r7, #4]
 105 006a 1B68     		ldr	r3, [r3]
 106 006c 22F49042 		bic	r2, r2, #18432
 107 0070 5A60     		str	r2, [r3, #4]
 289:Drivers/STM32F7xx_HAL_Driver/Src/stm32f7xx_hal_uart.c ****   CLEAR_BIT(huart->Instance->CR3, (USART_CR3_SCEN | USART_CR3_HDSEL | USART_CR3_IREN));
 108              		.loc 1 289 0
 109 0072 7B68     		ldr	r3, [r7, #4]
 110 0074 1B68     		ldr	r3, [r3]
 111 0076 9A68     		ldr	r2, [r3, #8]
ARM GAS  /tmp/ccvy8ygO.s 			page 8


 112 0078 7B68     		ldr	r3, [r7, #4]
 113 007a 1B68     		ldr	r3, [r3]
 114 007c 22F02A02 		bic	r2, r2, #42
 115 0080 9A60     		str	r2, [r3, #8]
 290:Drivers/STM32F7xx_HAL_Driver/Src/stm32f7xx_hal_uart.c **** 
 291:Drivers/STM32F7xx_HAL_Driver/Src/stm32f7xx_hal_uart.c ****   /* Enable the Peripheral */
 292:Drivers/STM32F7xx_HAL_Driver/Src/stm32f7xx_hal_uart.c ****   __HAL_UART_ENABLE(huart);
 116              		.loc 1 292 0
 117 0082 7B68     		ldr	r3, [r7, #4]
 118 0084 1B68     		ldr	r3, [r3]
 119 0086 1A68     		ldr	r2, [r3]
 120 0088 7B68     		ldr	r3, [r7, #4]
 121 008a 1B68     		ldr	r3, [r3]
 122 008c 42F00102 		orr	r2, r2, #1
 123 0090 1A60     		str	r2, [r3]
 293:Drivers/STM32F7xx_HAL_Driver/Src/stm32f7xx_hal_uart.c **** 
 294:Drivers/STM32F7xx_HAL_Driver/Src/stm32f7xx_hal_uart.c ****   /* TEACK and/or REACK to check before moving huart->gState and huart->RxState to Ready */
 295:Drivers/STM32F7xx_HAL_Driver/Src/stm32f7xx_hal_uart.c ****   return (UART_CheckIdleState(huart));
 124              		.loc 1 295 0
 125 0092 7868     		ldr	r0, [r7, #4]
 126 0094 FFF7FEFF 		bl	UART_CheckIdleState
 127 0098 0346     		mov	r3, r0
 128              	.L3:
 296:Drivers/STM32F7xx_HAL_Driver/Src/stm32f7xx_hal_uart.c **** }
 129              		.loc 1 296 0
 130 009a 1846     		mov	r0, r3
 131 009c 0837     		adds	r7, r7, #8
 132              	.LCFI3:
 133              		.cfi_def_cfa_offset 8
 134 009e BD46     		mov	sp, r7
 135              	.LCFI4:
 136              		.cfi_def_cfa_register 13
 137              		@ sp needed
 138 00a0 80BD     		pop	{r7, pc}
 139              		.cfi_endproc
 140              	.LFE138:
 142              		.section	.text.HAL_HalfDuplex_Init,"ax",%progbits
 143              		.align	1
 144              		.global	HAL_HalfDuplex_Init
 145              		.syntax unified
 146              		.thumb
 147              		.thumb_func
 148              		.fpu fpv4-sp-d16
 150              	HAL_HalfDuplex_Init:
 151              	.LFB139:
 297:Drivers/STM32F7xx_HAL_Driver/Src/stm32f7xx_hal_uart.c **** 
 298:Drivers/STM32F7xx_HAL_Driver/Src/stm32f7xx_hal_uart.c **** /**
 299:Drivers/STM32F7xx_HAL_Driver/Src/stm32f7xx_hal_uart.c ****   * @brief Initializes the half-duplex mode according to the specified
 300:Drivers/STM32F7xx_HAL_Driver/Src/stm32f7xx_hal_uart.c ****   *         parameters in the UART_InitTypeDef and creates the associated handle .
 301:Drivers/STM32F7xx_HAL_Driver/Src/stm32f7xx_hal_uart.c ****   * @param huart UART handle
 302:Drivers/STM32F7xx_HAL_Driver/Src/stm32f7xx_hal_uart.c ****   * @retval HAL status
 303:Drivers/STM32F7xx_HAL_Driver/Src/stm32f7xx_hal_uart.c ****   */
 304:Drivers/STM32F7xx_HAL_Driver/Src/stm32f7xx_hal_uart.c **** HAL_StatusTypeDef HAL_HalfDuplex_Init(UART_HandleTypeDef *huart)
 305:Drivers/STM32F7xx_HAL_Driver/Src/stm32f7xx_hal_uart.c **** {
 152              		.loc 1 305 0
 153              		.cfi_startproc
 154              		@ args = 0, pretend = 0, frame = 8
ARM GAS  /tmp/ccvy8ygO.s 			page 9


 155              		@ frame_needed = 1, uses_anonymous_args = 0
 156 0000 80B5     		push	{r7, lr}
 157              	.LCFI5:
 158              		.cfi_def_cfa_offset 8
 159              		.cfi_offset 7, -8
 160              		.cfi_offset 14, -4
 161 0002 82B0     		sub	sp, sp, #8
 162              	.LCFI6:
 163              		.cfi_def_cfa_offset 16
 164 0004 00AF     		add	r7, sp, #0
 165              	.LCFI7:
 166              		.cfi_def_cfa_register 7
 167 0006 7860     		str	r0, [r7, #4]
 306:Drivers/STM32F7xx_HAL_Driver/Src/stm32f7xx_hal_uart.c ****   /* Check the UART handle allocation */
 307:Drivers/STM32F7xx_HAL_Driver/Src/stm32f7xx_hal_uart.c ****   if(huart == NULL)
 168              		.loc 1 307 0
 169 0008 7B68     		ldr	r3, [r7, #4]
 170 000a 002B     		cmp	r3, #0
 171 000c 01D1     		bne	.L8
 308:Drivers/STM32F7xx_HAL_Driver/Src/stm32f7xx_hal_uart.c ****   {
 309:Drivers/STM32F7xx_HAL_Driver/Src/stm32f7xx_hal_uart.c ****     return HAL_ERROR;
 172              		.loc 1 309 0
 173 000e 0123     		movs	r3, #1
 174 0010 4BE0     		b	.L9
 175              	.L8:
 310:Drivers/STM32F7xx_HAL_Driver/Src/stm32f7xx_hal_uart.c ****   }
 311:Drivers/STM32F7xx_HAL_Driver/Src/stm32f7xx_hal_uart.c **** 
 312:Drivers/STM32F7xx_HAL_Driver/Src/stm32f7xx_hal_uart.c ****   if(huart->gState == HAL_UART_STATE_RESET)
 176              		.loc 1 312 0
 177 0012 7B68     		ldr	r3, [r7, #4]
 178 0014 93F86930 		ldrb	r3, [r3, #105]
 179 0018 DBB2     		uxtb	r3, r3
 180 001a 002B     		cmp	r3, #0
 181 001c 06D1     		bne	.L10
 313:Drivers/STM32F7xx_HAL_Driver/Src/stm32f7xx_hal_uart.c ****   {
 314:Drivers/STM32F7xx_HAL_Driver/Src/stm32f7xx_hal_uart.c ****     /* Allocate lock resource and initialize it */
 315:Drivers/STM32F7xx_HAL_Driver/Src/stm32f7xx_hal_uart.c ****     huart->Lock = HAL_UNLOCKED;
 182              		.loc 1 315 0
 183 001e 7B68     		ldr	r3, [r7, #4]
 184 0020 0022     		movs	r2, #0
 185 0022 83F86820 		strb	r2, [r3, #104]
 316:Drivers/STM32F7xx_HAL_Driver/Src/stm32f7xx_hal_uart.c **** 
 317:Drivers/STM32F7xx_HAL_Driver/Src/stm32f7xx_hal_uart.c ****     /* Init the low level hardware : GPIO, CLOCK */
 318:Drivers/STM32F7xx_HAL_Driver/Src/stm32f7xx_hal_uart.c ****     HAL_UART_MspInit(huart);
 186              		.loc 1 318 0
 187 0026 7868     		ldr	r0, [r7, #4]
 188 0028 FFF7FEFF 		bl	HAL_UART_MspInit
 189              	.L10:
 319:Drivers/STM32F7xx_HAL_Driver/Src/stm32f7xx_hal_uart.c ****   }
 320:Drivers/STM32F7xx_HAL_Driver/Src/stm32f7xx_hal_uart.c **** 
 321:Drivers/STM32F7xx_HAL_Driver/Src/stm32f7xx_hal_uart.c ****   huart->gState = HAL_UART_STATE_BUSY;
 190              		.loc 1 321 0
 191 002c 7B68     		ldr	r3, [r7, #4]
 192 002e 2422     		movs	r2, #36
 193 0030 83F86920 		strb	r2, [r3, #105]
 322:Drivers/STM32F7xx_HAL_Driver/Src/stm32f7xx_hal_uart.c **** 
 323:Drivers/STM32F7xx_HAL_Driver/Src/stm32f7xx_hal_uart.c ****   /* Disable the Peripheral */
ARM GAS  /tmp/ccvy8ygO.s 			page 10


 324:Drivers/STM32F7xx_HAL_Driver/Src/stm32f7xx_hal_uart.c ****   __HAL_UART_DISABLE(huart);
 194              		.loc 1 324 0
 195 0034 7B68     		ldr	r3, [r7, #4]
 196 0036 1B68     		ldr	r3, [r3]
 197 0038 1A68     		ldr	r2, [r3]
 198 003a 7B68     		ldr	r3, [r7, #4]
 199 003c 1B68     		ldr	r3, [r3]
 200 003e 22F00102 		bic	r2, r2, #1
 201 0042 1A60     		str	r2, [r3]
 325:Drivers/STM32F7xx_HAL_Driver/Src/stm32f7xx_hal_uart.c **** 
 326:Drivers/STM32F7xx_HAL_Driver/Src/stm32f7xx_hal_uart.c ****   /* Set the UART Communication parameters */
 327:Drivers/STM32F7xx_HAL_Driver/Src/stm32f7xx_hal_uart.c ****   if (UART_SetConfig(huart) == HAL_ERROR)
 202              		.loc 1 327 0
 203 0044 7868     		ldr	r0, [r7, #4]
 204 0046 FFF7FEFF 		bl	UART_SetConfig
 205 004a 0346     		mov	r3, r0
 206 004c 012B     		cmp	r3, #1
 207 004e 01D1     		bne	.L11
 328:Drivers/STM32F7xx_HAL_Driver/Src/stm32f7xx_hal_uart.c ****   {
 329:Drivers/STM32F7xx_HAL_Driver/Src/stm32f7xx_hal_uart.c ****     return HAL_ERROR;
 208              		.loc 1 329 0
 209 0050 0123     		movs	r3, #1
 210 0052 2AE0     		b	.L9
 211              	.L11:
 330:Drivers/STM32F7xx_HAL_Driver/Src/stm32f7xx_hal_uart.c ****   }
 331:Drivers/STM32F7xx_HAL_Driver/Src/stm32f7xx_hal_uart.c **** 
 332:Drivers/STM32F7xx_HAL_Driver/Src/stm32f7xx_hal_uart.c ****   if (huart->AdvancedInit.AdvFeatureInit != UART_ADVFEATURE_NO_INIT)
 212              		.loc 1 332 0
 213 0054 7B68     		ldr	r3, [r7, #4]
 214 0056 5B6A     		ldr	r3, [r3, #36]
 215 0058 002B     		cmp	r3, #0
 216 005a 02D0     		beq	.L12
 333:Drivers/STM32F7xx_HAL_Driver/Src/stm32f7xx_hal_uart.c ****   {
 334:Drivers/STM32F7xx_HAL_Driver/Src/stm32f7xx_hal_uart.c ****     UART_AdvFeatureConfig(huart);
 217              		.loc 1 334 0
 218 005c 7868     		ldr	r0, [r7, #4]
 219 005e FFF7FEFF 		bl	UART_AdvFeatureConfig
 220              	.L12:
 335:Drivers/STM32F7xx_HAL_Driver/Src/stm32f7xx_hal_uart.c ****   }
 336:Drivers/STM32F7xx_HAL_Driver/Src/stm32f7xx_hal_uart.c **** 
 337:Drivers/STM32F7xx_HAL_Driver/Src/stm32f7xx_hal_uart.c ****   /* In half-duplex mode, the following bits must be kept cleared:
 338:Drivers/STM32F7xx_HAL_Driver/Src/stm32f7xx_hal_uart.c ****   - LINEN and CLKEN bits in the USART_CR2 register,
 339:Drivers/STM32F7xx_HAL_Driver/Src/stm32f7xx_hal_uart.c ****   - SCEN and IREN bits in the USART_CR3 register.*/
 340:Drivers/STM32F7xx_HAL_Driver/Src/stm32f7xx_hal_uart.c ****   CLEAR_BIT(huart->Instance->CR2, (USART_CR2_LINEN | USART_CR2_CLKEN));
 221              		.loc 1 340 0
 222 0062 7B68     		ldr	r3, [r7, #4]
 223 0064 1B68     		ldr	r3, [r3]
 224 0066 5A68     		ldr	r2, [r3, #4]
 225 0068 7B68     		ldr	r3, [r7, #4]
 226 006a 1B68     		ldr	r3, [r3]
 227 006c 22F49042 		bic	r2, r2, #18432
 228 0070 5A60     		str	r2, [r3, #4]
 341:Drivers/STM32F7xx_HAL_Driver/Src/stm32f7xx_hal_uart.c ****   CLEAR_BIT(huart->Instance->CR3, (USART_CR3_IREN | USART_CR3_SCEN));
 229              		.loc 1 341 0
 230 0072 7B68     		ldr	r3, [r7, #4]
 231 0074 1B68     		ldr	r3, [r3]
 232 0076 9A68     		ldr	r2, [r3, #8]
ARM GAS  /tmp/ccvy8ygO.s 			page 11


 233 0078 7B68     		ldr	r3, [r7, #4]
 234 007a 1B68     		ldr	r3, [r3]
 235 007c 22F02202 		bic	r2, r2, #34
 236 0080 9A60     		str	r2, [r3, #8]
 342:Drivers/STM32F7xx_HAL_Driver/Src/stm32f7xx_hal_uart.c **** 
 343:Drivers/STM32F7xx_HAL_Driver/Src/stm32f7xx_hal_uart.c ****   /* Enable the Half-Duplex mode by setting the HDSEL bit in the CR3 register */
 344:Drivers/STM32F7xx_HAL_Driver/Src/stm32f7xx_hal_uart.c ****   SET_BIT(huart->Instance->CR3, USART_CR3_HDSEL);
 237              		.loc 1 344 0
 238 0082 7B68     		ldr	r3, [r7, #4]
 239 0084 1B68     		ldr	r3, [r3]
 240 0086 9A68     		ldr	r2, [r3, #8]
 241 0088 7B68     		ldr	r3, [r7, #4]
 242 008a 1B68     		ldr	r3, [r3]
 243 008c 42F00802 		orr	r2, r2, #8
 244 0090 9A60     		str	r2, [r3, #8]
 345:Drivers/STM32F7xx_HAL_Driver/Src/stm32f7xx_hal_uart.c **** 
 346:Drivers/STM32F7xx_HAL_Driver/Src/stm32f7xx_hal_uart.c ****   /* Enable the Peripheral */
 347:Drivers/STM32F7xx_HAL_Driver/Src/stm32f7xx_hal_uart.c ****   __HAL_UART_ENABLE(huart);
 245              		.loc 1 347 0
 246 0092 7B68     		ldr	r3, [r7, #4]
 247 0094 1B68     		ldr	r3, [r3]
 248 0096 1A68     		ldr	r2, [r3]
 249 0098 7B68     		ldr	r3, [r7, #4]
 250 009a 1B68     		ldr	r3, [r3]
 251 009c 42F00102 		orr	r2, r2, #1
 252 00a0 1A60     		str	r2, [r3]
 348:Drivers/STM32F7xx_HAL_Driver/Src/stm32f7xx_hal_uart.c **** 
 349:Drivers/STM32F7xx_HAL_Driver/Src/stm32f7xx_hal_uart.c ****   /* TEACK and/or REACK to check before moving huart->gState and huart->RxState to Ready */
 350:Drivers/STM32F7xx_HAL_Driver/Src/stm32f7xx_hal_uart.c ****   return (UART_CheckIdleState(huart));
 253              		.loc 1 350 0
 254 00a2 7868     		ldr	r0, [r7, #4]
 255 00a4 FFF7FEFF 		bl	UART_CheckIdleState
 256 00a8 0346     		mov	r3, r0
 257              	.L9:
 351:Drivers/STM32F7xx_HAL_Driver/Src/stm32f7xx_hal_uart.c **** }
 258              		.loc 1 351 0
 259 00aa 1846     		mov	r0, r3
 260 00ac 0837     		adds	r7, r7, #8
 261              	.LCFI8:
 262              		.cfi_def_cfa_offset 8
 263 00ae BD46     		mov	sp, r7
 264              	.LCFI9:
 265              		.cfi_def_cfa_register 13
 266              		@ sp needed
 267 00b0 80BD     		pop	{r7, pc}
 268              		.cfi_endproc
 269              	.LFE139:
 271              		.section	.text.HAL_LIN_Init,"ax",%progbits
 272              		.align	1
 273              		.global	HAL_LIN_Init
 274              		.syntax unified
 275              		.thumb
 276              		.thumb_func
 277              		.fpu fpv4-sp-d16
 279              	HAL_LIN_Init:
 280              	.LFB140:
 352:Drivers/STM32F7xx_HAL_Driver/Src/stm32f7xx_hal_uart.c **** 
ARM GAS  /tmp/ccvy8ygO.s 			page 12


 353:Drivers/STM32F7xx_HAL_Driver/Src/stm32f7xx_hal_uart.c **** 
 354:Drivers/STM32F7xx_HAL_Driver/Src/stm32f7xx_hal_uart.c **** /**
 355:Drivers/STM32F7xx_HAL_Driver/Src/stm32f7xx_hal_uart.c ****   * @brief Initialize the LIN mode according to the specified
 356:Drivers/STM32F7xx_HAL_Driver/Src/stm32f7xx_hal_uart.c ****   *        parameters in the UART_InitTypeDef and creates the associated handle .
 357:Drivers/STM32F7xx_HAL_Driver/Src/stm32f7xx_hal_uart.c ****   * @param huart UART handle.
 358:Drivers/STM32F7xx_HAL_Driver/Src/stm32f7xx_hal_uart.c ****   * @param BreakDetectLength specifies the LIN break detection length.
 359:Drivers/STM32F7xx_HAL_Driver/Src/stm32f7xx_hal_uart.c ****   *        This parameter can be one of the following values:
 360:Drivers/STM32F7xx_HAL_Driver/Src/stm32f7xx_hal_uart.c ****   *          @arg @ref UART_LINBREAKDETECTLENGTH_10B 10-bit break detection
 361:Drivers/STM32F7xx_HAL_Driver/Src/stm32f7xx_hal_uart.c ****   *          @arg @ref UART_LINBREAKDETECTLENGTH_11B 11-bit break detection
 362:Drivers/STM32F7xx_HAL_Driver/Src/stm32f7xx_hal_uart.c ****   * @retval HAL status
 363:Drivers/STM32F7xx_HAL_Driver/Src/stm32f7xx_hal_uart.c ****   */
 364:Drivers/STM32F7xx_HAL_Driver/Src/stm32f7xx_hal_uart.c **** HAL_StatusTypeDef HAL_LIN_Init(UART_HandleTypeDef *huart, uint32_t BreakDetectLength)
 365:Drivers/STM32F7xx_HAL_Driver/Src/stm32f7xx_hal_uart.c **** {
 281              		.loc 1 365 0
 282              		.cfi_startproc
 283              		@ args = 0, pretend = 0, frame = 8
 284              		@ frame_needed = 1, uses_anonymous_args = 0
 285 0000 80B5     		push	{r7, lr}
 286              	.LCFI10:
 287              		.cfi_def_cfa_offset 8
 288              		.cfi_offset 7, -8
 289              		.cfi_offset 14, -4
 290 0002 82B0     		sub	sp, sp, #8
 291              	.LCFI11:
 292              		.cfi_def_cfa_offset 16
 293 0004 00AF     		add	r7, sp, #0
 294              	.LCFI12:
 295              		.cfi_def_cfa_register 7
 296 0006 7860     		str	r0, [r7, #4]
 297 0008 3960     		str	r1, [r7]
 366:Drivers/STM32F7xx_HAL_Driver/Src/stm32f7xx_hal_uart.c ****   /* Check the UART handle allocation */
 367:Drivers/STM32F7xx_HAL_Driver/Src/stm32f7xx_hal_uart.c ****   if(huart == NULL)
 298              		.loc 1 367 0
 299 000a 7B68     		ldr	r3, [r7, #4]
 300 000c 002B     		cmp	r3, #0
 301 000e 01D1     		bne	.L14
 368:Drivers/STM32F7xx_HAL_Driver/Src/stm32f7xx_hal_uart.c ****   {
 369:Drivers/STM32F7xx_HAL_Driver/Src/stm32f7xx_hal_uart.c ****     return HAL_ERROR;
 302              		.loc 1 369 0
 303 0010 0123     		movs	r3, #1
 304 0012 55E0     		b	.L15
 305              	.L14:
 370:Drivers/STM32F7xx_HAL_Driver/Src/stm32f7xx_hal_uart.c ****   }
 371:Drivers/STM32F7xx_HAL_Driver/Src/stm32f7xx_hal_uart.c **** 
 372:Drivers/STM32F7xx_HAL_Driver/Src/stm32f7xx_hal_uart.c ****   /* Check the parameters */
 373:Drivers/STM32F7xx_HAL_Driver/Src/stm32f7xx_hal_uart.c ****   assert_param(IS_UART_INSTANCE(huart->Instance));
 374:Drivers/STM32F7xx_HAL_Driver/Src/stm32f7xx_hal_uart.c ****   assert_param(IS_UART_LIN_BREAK_DETECT_LENGTH(BreakDetectLength));
 375:Drivers/STM32F7xx_HAL_Driver/Src/stm32f7xx_hal_uart.c ****   assert_param(IS_LIN_WORD_LENGTH(huart->Init.WordLength));
 376:Drivers/STM32F7xx_HAL_Driver/Src/stm32f7xx_hal_uart.c **** 
 377:Drivers/STM32F7xx_HAL_Driver/Src/stm32f7xx_hal_uart.c ****   if(huart->gState == HAL_UART_STATE_RESET)
 306              		.loc 1 377 0
 307 0014 7B68     		ldr	r3, [r7, #4]
 308 0016 93F86930 		ldrb	r3, [r3, #105]
 309 001a DBB2     		uxtb	r3, r3
 310 001c 002B     		cmp	r3, #0
 311 001e 06D1     		bne	.L16
 378:Drivers/STM32F7xx_HAL_Driver/Src/stm32f7xx_hal_uart.c ****   {
ARM GAS  /tmp/ccvy8ygO.s 			page 13


 379:Drivers/STM32F7xx_HAL_Driver/Src/stm32f7xx_hal_uart.c ****     /* Allocate lock resource and initialize it */
 380:Drivers/STM32F7xx_HAL_Driver/Src/stm32f7xx_hal_uart.c ****     huart->Lock = HAL_UNLOCKED;
 312              		.loc 1 380 0
 313 0020 7B68     		ldr	r3, [r7, #4]
 314 0022 0022     		movs	r2, #0
 315 0024 83F86820 		strb	r2, [r3, #104]
 381:Drivers/STM32F7xx_HAL_Driver/Src/stm32f7xx_hal_uart.c **** 
 382:Drivers/STM32F7xx_HAL_Driver/Src/stm32f7xx_hal_uart.c ****     /* Init the low level hardware : GPIO, CLOCK */
 383:Drivers/STM32F7xx_HAL_Driver/Src/stm32f7xx_hal_uart.c ****     HAL_UART_MspInit(huart);
 316              		.loc 1 383 0
 317 0028 7868     		ldr	r0, [r7, #4]
 318 002a FFF7FEFF 		bl	HAL_UART_MspInit
 319              	.L16:
 384:Drivers/STM32F7xx_HAL_Driver/Src/stm32f7xx_hal_uart.c ****   }
 385:Drivers/STM32F7xx_HAL_Driver/Src/stm32f7xx_hal_uart.c **** 
 386:Drivers/STM32F7xx_HAL_Driver/Src/stm32f7xx_hal_uart.c ****   huart->gState = HAL_UART_STATE_BUSY;
 320              		.loc 1 386 0
 321 002e 7B68     		ldr	r3, [r7, #4]
 322 0030 2422     		movs	r2, #36
 323 0032 83F86920 		strb	r2, [r3, #105]
 387:Drivers/STM32F7xx_HAL_Driver/Src/stm32f7xx_hal_uart.c **** 
 388:Drivers/STM32F7xx_HAL_Driver/Src/stm32f7xx_hal_uart.c ****   /* Disable the Peripheral */
 389:Drivers/STM32F7xx_HAL_Driver/Src/stm32f7xx_hal_uart.c ****   __HAL_UART_DISABLE(huart);
 324              		.loc 1 389 0
 325 0036 7B68     		ldr	r3, [r7, #4]
 326 0038 1B68     		ldr	r3, [r3]
 327 003a 1A68     		ldr	r2, [r3]
 328 003c 7B68     		ldr	r3, [r7, #4]
 329 003e 1B68     		ldr	r3, [r3]
 330 0040 22F00102 		bic	r2, r2, #1
 331 0044 1A60     		str	r2, [r3]
 390:Drivers/STM32F7xx_HAL_Driver/Src/stm32f7xx_hal_uart.c **** 
 391:Drivers/STM32F7xx_HAL_Driver/Src/stm32f7xx_hal_uart.c ****   /* Set the UART Communication parameters */
 392:Drivers/STM32F7xx_HAL_Driver/Src/stm32f7xx_hal_uart.c ****   if (UART_SetConfig(huart) == HAL_ERROR)
 332              		.loc 1 392 0
 333 0046 7868     		ldr	r0, [r7, #4]
 334 0048 FFF7FEFF 		bl	UART_SetConfig
 335 004c 0346     		mov	r3, r0
 336 004e 012B     		cmp	r3, #1
 337 0050 01D1     		bne	.L17
 393:Drivers/STM32F7xx_HAL_Driver/Src/stm32f7xx_hal_uart.c ****   {
 394:Drivers/STM32F7xx_HAL_Driver/Src/stm32f7xx_hal_uart.c ****     return HAL_ERROR;
 338              		.loc 1 394 0
 339 0052 0123     		movs	r3, #1
 340 0054 34E0     		b	.L15
 341              	.L17:
 395:Drivers/STM32F7xx_HAL_Driver/Src/stm32f7xx_hal_uart.c ****   }
 396:Drivers/STM32F7xx_HAL_Driver/Src/stm32f7xx_hal_uart.c **** 
 397:Drivers/STM32F7xx_HAL_Driver/Src/stm32f7xx_hal_uart.c ****   if (huart->AdvancedInit.AdvFeatureInit != UART_ADVFEATURE_NO_INIT)
 342              		.loc 1 397 0
 343 0056 7B68     		ldr	r3, [r7, #4]
 344 0058 5B6A     		ldr	r3, [r3, #36]
 345 005a 002B     		cmp	r3, #0
 346 005c 02D0     		beq	.L18
 398:Drivers/STM32F7xx_HAL_Driver/Src/stm32f7xx_hal_uart.c ****   {
 399:Drivers/STM32F7xx_HAL_Driver/Src/stm32f7xx_hal_uart.c ****     UART_AdvFeatureConfig(huart);
 347              		.loc 1 399 0
ARM GAS  /tmp/ccvy8ygO.s 			page 14


 348 005e 7868     		ldr	r0, [r7, #4]
 349 0060 FFF7FEFF 		bl	UART_AdvFeatureConfig
 350              	.L18:
 400:Drivers/STM32F7xx_HAL_Driver/Src/stm32f7xx_hal_uart.c ****   }
 401:Drivers/STM32F7xx_HAL_Driver/Src/stm32f7xx_hal_uart.c **** 
 402:Drivers/STM32F7xx_HAL_Driver/Src/stm32f7xx_hal_uart.c ****   /* In LIN mode, the following bits must be kept cleared:
 403:Drivers/STM32F7xx_HAL_Driver/Src/stm32f7xx_hal_uart.c ****   - LINEN and CLKEN bits in the USART_CR2 register,
 404:Drivers/STM32F7xx_HAL_Driver/Src/stm32f7xx_hal_uart.c ****   - SCEN and IREN bits in the USART_CR3 register.*/
 405:Drivers/STM32F7xx_HAL_Driver/Src/stm32f7xx_hal_uart.c ****   CLEAR_BIT(huart->Instance->CR2, USART_CR2_CLKEN);
 351              		.loc 1 405 0
 352 0064 7B68     		ldr	r3, [r7, #4]
 353 0066 1B68     		ldr	r3, [r3]
 354 0068 5A68     		ldr	r2, [r3, #4]
 355 006a 7B68     		ldr	r3, [r7, #4]
 356 006c 1B68     		ldr	r3, [r3]
 357 006e 22F40062 		bic	r2, r2, #2048
 358 0072 5A60     		str	r2, [r3, #4]
 406:Drivers/STM32F7xx_HAL_Driver/Src/stm32f7xx_hal_uart.c ****   CLEAR_BIT(huart->Instance->CR3, (USART_CR3_HDSEL | USART_CR3_IREN | USART_CR3_SCEN));
 359              		.loc 1 406 0
 360 0074 7B68     		ldr	r3, [r7, #4]
 361 0076 1B68     		ldr	r3, [r3]
 362 0078 9A68     		ldr	r2, [r3, #8]
 363 007a 7B68     		ldr	r3, [r7, #4]
 364 007c 1B68     		ldr	r3, [r3]
 365 007e 22F02A02 		bic	r2, r2, #42
 366 0082 9A60     		str	r2, [r3, #8]
 407:Drivers/STM32F7xx_HAL_Driver/Src/stm32f7xx_hal_uart.c **** 
 408:Drivers/STM32F7xx_HAL_Driver/Src/stm32f7xx_hal_uart.c ****   /* Enable the LIN mode by setting the LINEN bit in the CR2 register */
 409:Drivers/STM32F7xx_HAL_Driver/Src/stm32f7xx_hal_uart.c ****   SET_BIT(huart->Instance->CR2, USART_CR2_LINEN);
 367              		.loc 1 409 0
 368 0084 7B68     		ldr	r3, [r7, #4]
 369 0086 1B68     		ldr	r3, [r3]
 370 0088 5A68     		ldr	r2, [r3, #4]
 371 008a 7B68     		ldr	r3, [r7, #4]
 372 008c 1B68     		ldr	r3, [r3]
 373 008e 42F48042 		orr	r2, r2, #16384
 374 0092 5A60     		str	r2, [r3, #4]
 410:Drivers/STM32F7xx_HAL_Driver/Src/stm32f7xx_hal_uart.c **** 
 411:Drivers/STM32F7xx_HAL_Driver/Src/stm32f7xx_hal_uart.c ****   /* Set the USART LIN Break detection length. */
 412:Drivers/STM32F7xx_HAL_Driver/Src/stm32f7xx_hal_uart.c ****   MODIFY_REG(huart->Instance->CR2, USART_CR2_LBDL, BreakDetectLength);
 375              		.loc 1 412 0
 376 0094 7B68     		ldr	r3, [r7, #4]
 377 0096 1B68     		ldr	r3, [r3]
 378 0098 5B68     		ldr	r3, [r3, #4]
 379 009a 23F02001 		bic	r1, r3, #32
 380 009e 7B68     		ldr	r3, [r7, #4]
 381 00a0 1B68     		ldr	r3, [r3]
 382 00a2 3A68     		ldr	r2, [r7]
 383 00a4 0A43     		orrs	r2, r2, r1
 384 00a6 5A60     		str	r2, [r3, #4]
 413:Drivers/STM32F7xx_HAL_Driver/Src/stm32f7xx_hal_uart.c **** 
 414:Drivers/STM32F7xx_HAL_Driver/Src/stm32f7xx_hal_uart.c ****   /* Enable the Peripheral */
 415:Drivers/STM32F7xx_HAL_Driver/Src/stm32f7xx_hal_uart.c ****   __HAL_UART_ENABLE(huart);
 385              		.loc 1 415 0
 386 00a8 7B68     		ldr	r3, [r7, #4]
 387 00aa 1B68     		ldr	r3, [r3]
 388 00ac 1A68     		ldr	r2, [r3]
ARM GAS  /tmp/ccvy8ygO.s 			page 15


 389 00ae 7B68     		ldr	r3, [r7, #4]
 390 00b0 1B68     		ldr	r3, [r3]
 391 00b2 42F00102 		orr	r2, r2, #1
 392 00b6 1A60     		str	r2, [r3]
 416:Drivers/STM32F7xx_HAL_Driver/Src/stm32f7xx_hal_uart.c **** 
 417:Drivers/STM32F7xx_HAL_Driver/Src/stm32f7xx_hal_uart.c ****   /* TEACK and/or REACK to check before moving huart->gState and huart->RxState to Ready */
 418:Drivers/STM32F7xx_HAL_Driver/Src/stm32f7xx_hal_uart.c ****   return (UART_CheckIdleState(huart));
 393              		.loc 1 418 0
 394 00b8 7868     		ldr	r0, [r7, #4]
 395 00ba FFF7FEFF 		bl	UART_CheckIdleState
 396 00be 0346     		mov	r3, r0
 397              	.L15:
 419:Drivers/STM32F7xx_HAL_Driver/Src/stm32f7xx_hal_uart.c **** }
 398              		.loc 1 419 0
 399 00c0 1846     		mov	r0, r3
 400 00c2 0837     		adds	r7, r7, #8
 401              	.LCFI13:
 402              		.cfi_def_cfa_offset 8
 403 00c4 BD46     		mov	sp, r7
 404              	.LCFI14:
 405              		.cfi_def_cfa_register 13
 406              		@ sp needed
 407 00c6 80BD     		pop	{r7, pc}
 408              		.cfi_endproc
 409              	.LFE140:
 411              		.section	.text.HAL_MultiProcessor_Init,"ax",%progbits
 412              		.align	1
 413              		.global	HAL_MultiProcessor_Init
 414              		.syntax unified
 415              		.thumb
 416              		.thumb_func
 417              		.fpu fpv4-sp-d16
 419              	HAL_MultiProcessor_Init:
 420              	.LFB141:
 420:Drivers/STM32F7xx_HAL_Driver/Src/stm32f7xx_hal_uart.c **** 
 421:Drivers/STM32F7xx_HAL_Driver/Src/stm32f7xx_hal_uart.c **** 
 422:Drivers/STM32F7xx_HAL_Driver/Src/stm32f7xx_hal_uart.c **** /**
 423:Drivers/STM32F7xx_HAL_Driver/Src/stm32f7xx_hal_uart.c ****   * @brief Initialize the multiprocessor mode according to the specified
 424:Drivers/STM32F7xx_HAL_Driver/Src/stm32f7xx_hal_uart.c ****   *        parameters in the UART_InitTypeDef and initialize the associated handle.
 425:Drivers/STM32F7xx_HAL_Driver/Src/stm32f7xx_hal_uart.c ****   * @param huart UART handle.
 426:Drivers/STM32F7xx_HAL_Driver/Src/stm32f7xx_hal_uart.c ****   * @param Address UART node address (4-, 6-, 7- or 8-bit long).
 427:Drivers/STM32F7xx_HAL_Driver/Src/stm32f7xx_hal_uart.c ****   * @param WakeUpMethod specifies the UART wakeup method.
 428:Drivers/STM32F7xx_HAL_Driver/Src/stm32f7xx_hal_uart.c ****   *        This parameter can be one of the following values:
 429:Drivers/STM32F7xx_HAL_Driver/Src/stm32f7xx_hal_uart.c ****   *          @arg @ref UART_WAKEUPMETHOD_IDLELINE WakeUp by an idle line detection
 430:Drivers/STM32F7xx_HAL_Driver/Src/stm32f7xx_hal_uart.c ****   *          @arg @ref UART_WAKEUPMETHOD_ADDRESSMARK WakeUp by an address mark
 431:Drivers/STM32F7xx_HAL_Driver/Src/stm32f7xx_hal_uart.c ****   * @note  If the user resorts to idle line detection wake up, the Address parameter
 432:Drivers/STM32F7xx_HAL_Driver/Src/stm32f7xx_hal_uart.c ****   *        is useless and ignored by the initialization function.
 433:Drivers/STM32F7xx_HAL_Driver/Src/stm32f7xx_hal_uart.c ****   * @note  If the user resorts to address mark wake up, the address length detection
 434:Drivers/STM32F7xx_HAL_Driver/Src/stm32f7xx_hal_uart.c ****   *        is configured by default to 4 bits only. For the UART to be able to
 435:Drivers/STM32F7xx_HAL_Driver/Src/stm32f7xx_hal_uart.c ****   *        manage 6-, 7- or 8-bit long addresses detection
 436:Drivers/STM32F7xx_HAL_Driver/Src/stm32f7xx_hal_uart.c ****   * @retval HAL status
 437:Drivers/STM32F7xx_HAL_Driver/Src/stm32f7xx_hal_uart.c ****   */
 438:Drivers/STM32F7xx_HAL_Driver/Src/stm32f7xx_hal_uart.c **** HAL_StatusTypeDef HAL_MultiProcessor_Init(UART_HandleTypeDef *huart, uint8_t Address, uint32_t Wake
 439:Drivers/STM32F7xx_HAL_Driver/Src/stm32f7xx_hal_uart.c **** {
 421              		.loc 1 439 0
 422              		.cfi_startproc
 423              		@ args = 0, pretend = 0, frame = 16
ARM GAS  /tmp/ccvy8ygO.s 			page 16


 424              		@ frame_needed = 1, uses_anonymous_args = 0
 425 0000 80B5     		push	{r7, lr}
 426              	.LCFI15:
 427              		.cfi_def_cfa_offset 8
 428              		.cfi_offset 7, -8
 429              		.cfi_offset 14, -4
 430 0002 84B0     		sub	sp, sp, #16
 431              	.LCFI16:
 432              		.cfi_def_cfa_offset 24
 433 0004 00AF     		add	r7, sp, #0
 434              	.LCFI17:
 435              		.cfi_def_cfa_register 7
 436 0006 F860     		str	r0, [r7, #12]
 437 0008 0B46     		mov	r3, r1
 438 000a 7A60     		str	r2, [r7, #4]
 439 000c FB72     		strb	r3, [r7, #11]
 440:Drivers/STM32F7xx_HAL_Driver/Src/stm32f7xx_hal_uart.c ****   /* Check the UART handle allocation */
 441:Drivers/STM32F7xx_HAL_Driver/Src/stm32f7xx_hal_uart.c ****   if(huart == NULL)
 440              		.loc 1 441 0
 441 000e FB68     		ldr	r3, [r7, #12]
 442 0010 002B     		cmp	r3, #0
 443 0012 01D1     		bne	.L20
 442:Drivers/STM32F7xx_HAL_Driver/Src/stm32f7xx_hal_uart.c ****   {
 443:Drivers/STM32F7xx_HAL_Driver/Src/stm32f7xx_hal_uart.c ****     return HAL_ERROR;
 444              		.loc 1 443 0
 445 0014 0123     		movs	r3, #1
 446 0016 5CE0     		b	.L21
 447              	.L20:
 444:Drivers/STM32F7xx_HAL_Driver/Src/stm32f7xx_hal_uart.c ****   }
 445:Drivers/STM32F7xx_HAL_Driver/Src/stm32f7xx_hal_uart.c **** 
 446:Drivers/STM32F7xx_HAL_Driver/Src/stm32f7xx_hal_uart.c ****   /* Check the wake up method parameter */
 447:Drivers/STM32F7xx_HAL_Driver/Src/stm32f7xx_hal_uart.c ****   assert_param(IS_UART_WAKEUPMETHOD(WakeUpMethod));
 448:Drivers/STM32F7xx_HAL_Driver/Src/stm32f7xx_hal_uart.c **** 
 449:Drivers/STM32F7xx_HAL_Driver/Src/stm32f7xx_hal_uart.c ****   if(huart->gState == HAL_UART_STATE_RESET)
 448              		.loc 1 449 0
 449 0018 FB68     		ldr	r3, [r7, #12]
 450 001a 93F86930 		ldrb	r3, [r3, #105]
 451 001e DBB2     		uxtb	r3, r3
 452 0020 002B     		cmp	r3, #0
 453 0022 06D1     		bne	.L22
 450:Drivers/STM32F7xx_HAL_Driver/Src/stm32f7xx_hal_uart.c ****   {
 451:Drivers/STM32F7xx_HAL_Driver/Src/stm32f7xx_hal_uart.c ****     /* Allocate lock resource and initialize it */
 452:Drivers/STM32F7xx_HAL_Driver/Src/stm32f7xx_hal_uart.c ****     huart->Lock = HAL_UNLOCKED;
 454              		.loc 1 452 0
 455 0024 FB68     		ldr	r3, [r7, #12]
 456 0026 0022     		movs	r2, #0
 457 0028 83F86820 		strb	r2, [r3, #104]
 453:Drivers/STM32F7xx_HAL_Driver/Src/stm32f7xx_hal_uart.c **** 
 454:Drivers/STM32F7xx_HAL_Driver/Src/stm32f7xx_hal_uart.c ****     /* Init the low level hardware : GPIO, CLOCK */
 455:Drivers/STM32F7xx_HAL_Driver/Src/stm32f7xx_hal_uart.c ****     HAL_UART_MspInit(huart);
 458              		.loc 1 455 0
 459 002c F868     		ldr	r0, [r7, #12]
 460 002e FFF7FEFF 		bl	HAL_UART_MspInit
 461              	.L22:
 456:Drivers/STM32F7xx_HAL_Driver/Src/stm32f7xx_hal_uart.c ****   }
 457:Drivers/STM32F7xx_HAL_Driver/Src/stm32f7xx_hal_uart.c **** 
 458:Drivers/STM32F7xx_HAL_Driver/Src/stm32f7xx_hal_uart.c ****   huart->gState = HAL_UART_STATE_BUSY;
ARM GAS  /tmp/ccvy8ygO.s 			page 17


 462              		.loc 1 458 0
 463 0032 FB68     		ldr	r3, [r7, #12]
 464 0034 2422     		movs	r2, #36
 465 0036 83F86920 		strb	r2, [r3, #105]
 459:Drivers/STM32F7xx_HAL_Driver/Src/stm32f7xx_hal_uart.c **** 
 460:Drivers/STM32F7xx_HAL_Driver/Src/stm32f7xx_hal_uart.c ****   /* Disable the Peripheral */
 461:Drivers/STM32F7xx_HAL_Driver/Src/stm32f7xx_hal_uart.c ****   __HAL_UART_DISABLE(huart);
 466              		.loc 1 461 0
 467 003a FB68     		ldr	r3, [r7, #12]
 468 003c 1B68     		ldr	r3, [r3]
 469 003e 1A68     		ldr	r2, [r3]
 470 0040 FB68     		ldr	r3, [r7, #12]
 471 0042 1B68     		ldr	r3, [r3]
 472 0044 22F00102 		bic	r2, r2, #1
 473 0048 1A60     		str	r2, [r3]
 462:Drivers/STM32F7xx_HAL_Driver/Src/stm32f7xx_hal_uart.c **** 
 463:Drivers/STM32F7xx_HAL_Driver/Src/stm32f7xx_hal_uart.c ****   /* Set the UART Communication parameters */
 464:Drivers/STM32F7xx_HAL_Driver/Src/stm32f7xx_hal_uart.c ****   if (UART_SetConfig(huart) == HAL_ERROR)
 474              		.loc 1 464 0
 475 004a F868     		ldr	r0, [r7, #12]
 476 004c FFF7FEFF 		bl	UART_SetConfig
 477 0050 0346     		mov	r3, r0
 478 0052 012B     		cmp	r3, #1
 479 0054 01D1     		bne	.L23
 465:Drivers/STM32F7xx_HAL_Driver/Src/stm32f7xx_hal_uart.c ****   {
 466:Drivers/STM32F7xx_HAL_Driver/Src/stm32f7xx_hal_uart.c ****     return HAL_ERROR;
 480              		.loc 1 466 0
 481 0056 0123     		movs	r3, #1
 482 0058 3BE0     		b	.L21
 483              	.L23:
 467:Drivers/STM32F7xx_HAL_Driver/Src/stm32f7xx_hal_uart.c ****   }
 468:Drivers/STM32F7xx_HAL_Driver/Src/stm32f7xx_hal_uart.c **** 
 469:Drivers/STM32F7xx_HAL_Driver/Src/stm32f7xx_hal_uart.c ****   if (huart->AdvancedInit.AdvFeatureInit != UART_ADVFEATURE_NO_INIT)
 484              		.loc 1 469 0
 485 005a FB68     		ldr	r3, [r7, #12]
 486 005c 5B6A     		ldr	r3, [r3, #36]
 487 005e 002B     		cmp	r3, #0
 488 0060 02D0     		beq	.L24
 470:Drivers/STM32F7xx_HAL_Driver/Src/stm32f7xx_hal_uart.c ****   {
 471:Drivers/STM32F7xx_HAL_Driver/Src/stm32f7xx_hal_uart.c ****     UART_AdvFeatureConfig(huart);
 489              		.loc 1 471 0
 490 0062 F868     		ldr	r0, [r7, #12]
 491 0064 FFF7FEFF 		bl	UART_AdvFeatureConfig
 492              	.L24:
 472:Drivers/STM32F7xx_HAL_Driver/Src/stm32f7xx_hal_uart.c ****   }
 473:Drivers/STM32F7xx_HAL_Driver/Src/stm32f7xx_hal_uart.c **** 
 474:Drivers/STM32F7xx_HAL_Driver/Src/stm32f7xx_hal_uart.c ****   /* In multiprocessor mode, the following bits must be kept cleared:
 475:Drivers/STM32F7xx_HAL_Driver/Src/stm32f7xx_hal_uart.c ****   - LINEN and CLKEN bits in the USART_CR2 register,
 476:Drivers/STM32F7xx_HAL_Driver/Src/stm32f7xx_hal_uart.c ****   - SCEN, HDSEL and IREN  bits in the USART_CR3 register. */
 477:Drivers/STM32F7xx_HAL_Driver/Src/stm32f7xx_hal_uart.c ****   CLEAR_BIT(huart->Instance->CR2, (USART_CR2_LINEN | USART_CR2_CLKEN));
 493              		.loc 1 477 0
 494 0068 FB68     		ldr	r3, [r7, #12]
 495 006a 1B68     		ldr	r3, [r3]
 496 006c 5A68     		ldr	r2, [r3, #4]
 497 006e FB68     		ldr	r3, [r7, #12]
 498 0070 1B68     		ldr	r3, [r3]
 499 0072 22F49042 		bic	r2, r2, #18432
ARM GAS  /tmp/ccvy8ygO.s 			page 18


 500 0076 5A60     		str	r2, [r3, #4]
 478:Drivers/STM32F7xx_HAL_Driver/Src/stm32f7xx_hal_uart.c ****   CLEAR_BIT(huart->Instance->CR3, (USART_CR3_SCEN | USART_CR3_HDSEL | USART_CR3_IREN));
 501              		.loc 1 478 0
 502 0078 FB68     		ldr	r3, [r7, #12]
 503 007a 1B68     		ldr	r3, [r3]
 504 007c 9A68     		ldr	r2, [r3, #8]
 505 007e FB68     		ldr	r3, [r7, #12]
 506 0080 1B68     		ldr	r3, [r3]
 507 0082 22F02A02 		bic	r2, r2, #42
 508 0086 9A60     		str	r2, [r3, #8]
 479:Drivers/STM32F7xx_HAL_Driver/Src/stm32f7xx_hal_uart.c **** 
 480:Drivers/STM32F7xx_HAL_Driver/Src/stm32f7xx_hal_uart.c ****   if (WakeUpMethod == UART_WAKEUPMETHOD_ADDRESSMARK)
 509              		.loc 1 480 0
 510 0088 7B68     		ldr	r3, [r7, #4]
 511 008a B3F5006F 		cmp	r3, #2048
 512 008e 0AD1     		bne	.L25
 481:Drivers/STM32F7xx_HAL_Driver/Src/stm32f7xx_hal_uart.c ****   {
 482:Drivers/STM32F7xx_HAL_Driver/Src/stm32f7xx_hal_uart.c ****     /* If address mark wake up method is chosen, set the USART address node */
 483:Drivers/STM32F7xx_HAL_Driver/Src/stm32f7xx_hal_uart.c ****     MODIFY_REG(huart->Instance->CR2, USART_CR2_ADD, ((uint32_t)Address << UART_CR2_ADDRESS_LSB_POS)
 513              		.loc 1 483 0
 514 0090 FB68     		ldr	r3, [r7, #12]
 515 0092 1B68     		ldr	r3, [r3]
 516 0094 5B68     		ldr	r3, [r3, #4]
 517 0096 23F07F41 		bic	r1, r3, #-16777216
 518 009a FB7A     		ldrb	r3, [r7, #11]	@ zero_extendqisi2
 519 009c 1A06     		lsls	r2, r3, #24
 520 009e FB68     		ldr	r3, [r7, #12]
 521 00a0 1B68     		ldr	r3, [r3]
 522 00a2 0A43     		orrs	r2, r2, r1
 523 00a4 5A60     		str	r2, [r3, #4]
 524              	.L25:
 484:Drivers/STM32F7xx_HAL_Driver/Src/stm32f7xx_hal_uart.c ****   }
 485:Drivers/STM32F7xx_HAL_Driver/Src/stm32f7xx_hal_uart.c **** 
 486:Drivers/STM32F7xx_HAL_Driver/Src/stm32f7xx_hal_uart.c ****   /* Set the wake up method by setting the WAKE bit in the CR1 register */
 487:Drivers/STM32F7xx_HAL_Driver/Src/stm32f7xx_hal_uart.c ****   MODIFY_REG(huart->Instance->CR1, USART_CR1_WAKE, WakeUpMethod);
 525              		.loc 1 487 0
 526 00a6 FB68     		ldr	r3, [r7, #12]
 527 00a8 1B68     		ldr	r3, [r3]
 528 00aa 1B68     		ldr	r3, [r3]
 529 00ac 23F40061 		bic	r1, r3, #2048
 530 00b0 FB68     		ldr	r3, [r7, #12]
 531 00b2 1B68     		ldr	r3, [r3]
 532 00b4 7A68     		ldr	r2, [r7, #4]
 533 00b6 0A43     		orrs	r2, r2, r1
 534 00b8 1A60     		str	r2, [r3]
 488:Drivers/STM32F7xx_HAL_Driver/Src/stm32f7xx_hal_uart.c **** 
 489:Drivers/STM32F7xx_HAL_Driver/Src/stm32f7xx_hal_uart.c ****   /* Enable the Peripheral */
 490:Drivers/STM32F7xx_HAL_Driver/Src/stm32f7xx_hal_uart.c ****   __HAL_UART_ENABLE(huart);
 535              		.loc 1 490 0
 536 00ba FB68     		ldr	r3, [r7, #12]
 537 00bc 1B68     		ldr	r3, [r3]
 538 00be 1A68     		ldr	r2, [r3]
 539 00c0 FB68     		ldr	r3, [r7, #12]
 540 00c2 1B68     		ldr	r3, [r3]
 541 00c4 42F00102 		orr	r2, r2, #1
 542 00c8 1A60     		str	r2, [r3]
 491:Drivers/STM32F7xx_HAL_Driver/Src/stm32f7xx_hal_uart.c **** 
ARM GAS  /tmp/ccvy8ygO.s 			page 19


 492:Drivers/STM32F7xx_HAL_Driver/Src/stm32f7xx_hal_uart.c ****   /* TEACK and/or REACK to check before moving huart->gState and huart->RxState to Ready */
 493:Drivers/STM32F7xx_HAL_Driver/Src/stm32f7xx_hal_uart.c ****   return (UART_CheckIdleState(huart));
 543              		.loc 1 493 0
 544 00ca F868     		ldr	r0, [r7, #12]
 545 00cc FFF7FEFF 		bl	UART_CheckIdleState
 546 00d0 0346     		mov	r3, r0
 547              	.L21:
 494:Drivers/STM32F7xx_HAL_Driver/Src/stm32f7xx_hal_uart.c **** }
 548              		.loc 1 494 0
 549 00d2 1846     		mov	r0, r3
 550 00d4 1037     		adds	r7, r7, #16
 551              	.LCFI18:
 552              		.cfi_def_cfa_offset 8
 553 00d6 BD46     		mov	sp, r7
 554              	.LCFI19:
 555              		.cfi_def_cfa_register 13
 556              		@ sp needed
 557 00d8 80BD     		pop	{r7, pc}
 558              		.cfi_endproc
 559              	.LFE141:
 561              		.section	.text.HAL_RS485Ex_Init,"ax",%progbits
 562              		.align	1
 563              		.global	HAL_RS485Ex_Init
 564              		.syntax unified
 565              		.thumb
 566              		.thumb_func
 567              		.fpu fpv4-sp-d16
 569              	HAL_RS485Ex_Init:
 570              	.LFB142:
 495:Drivers/STM32F7xx_HAL_Driver/Src/stm32f7xx_hal_uart.c **** 
 496:Drivers/STM32F7xx_HAL_Driver/Src/stm32f7xx_hal_uart.c **** 
 497:Drivers/STM32F7xx_HAL_Driver/Src/stm32f7xx_hal_uart.c **** /**
 498:Drivers/STM32F7xx_HAL_Driver/Src/stm32f7xx_hal_uart.c ****   * @brief Initialize the RS485 Driver enable feature according to the specified
 499:Drivers/STM32F7xx_HAL_Driver/Src/stm32f7xx_hal_uart.c ****   *         parameters in the UART_InitTypeDef and creates the associated handle.
 500:Drivers/STM32F7xx_HAL_Driver/Src/stm32f7xx_hal_uart.c ****   * @param huart UART handle.
 501:Drivers/STM32F7xx_HAL_Driver/Src/stm32f7xx_hal_uart.c ****   * @param Polarity select the driver enable polarity.
 502:Drivers/STM32F7xx_HAL_Driver/Src/stm32f7xx_hal_uart.c ****   *        This parameter can be one of the following values:
 503:Drivers/STM32F7xx_HAL_Driver/Src/stm32f7xx_hal_uart.c ****   *          @arg @ref UART_DE_POLARITY_HIGH DE signal is active high
 504:Drivers/STM32F7xx_HAL_Driver/Src/stm32f7xx_hal_uart.c ****   *          @arg @ref UART_DE_POLARITY_LOW  DE signal is active low
 505:Drivers/STM32F7xx_HAL_Driver/Src/stm32f7xx_hal_uart.c ****   * @param AssertionTime Driver Enable assertion time:
 506:Drivers/STM32F7xx_HAL_Driver/Src/stm32f7xx_hal_uart.c ****   *                         5-bit value defining the time between the activation of the DE (Driver 
 507:Drivers/STM32F7xx_HAL_Driver/Src/stm32f7xx_hal_uart.c ****   *                         signal and the beginning of the start bit. It is expressed in sample ti
 508:Drivers/STM32F7xx_HAL_Driver/Src/stm32f7xx_hal_uart.c ****   *                         units (1/8 or 1/16 bit time, depending on the oversampling rate)
 509:Drivers/STM32F7xx_HAL_Driver/Src/stm32f7xx_hal_uart.c ****   * @param DeassertionTime Driver Enable deassertion time:
 510:Drivers/STM32F7xx_HAL_Driver/Src/stm32f7xx_hal_uart.c ****   *                         5-bit value defining the time between the end of the last stop bit, in 
 511:Drivers/STM32F7xx_HAL_Driver/Src/stm32f7xx_hal_uart.c ****   *                         transmitted message, and the de-activation of the DE (Driver Enable) si
 512:Drivers/STM32F7xx_HAL_Driver/Src/stm32f7xx_hal_uart.c ****   *                         It is expressed in sample time units (1/8 or 1/16 bit time, depending o
 513:Drivers/STM32F7xx_HAL_Driver/Src/stm32f7xx_hal_uart.c ****   *                         oversampling rate).
 514:Drivers/STM32F7xx_HAL_Driver/Src/stm32f7xx_hal_uart.c ****   * @retval HAL status
 515:Drivers/STM32F7xx_HAL_Driver/Src/stm32f7xx_hal_uart.c ****   */
 516:Drivers/STM32F7xx_HAL_Driver/Src/stm32f7xx_hal_uart.c **** HAL_StatusTypeDef HAL_RS485Ex_Init(UART_HandleTypeDef *huart, uint32_t Polarity, uint32_t Assertion
 517:Drivers/STM32F7xx_HAL_Driver/Src/stm32f7xx_hal_uart.c **** {
 571              		.loc 1 517 0
 572              		.cfi_startproc
 573              		@ args = 0, pretend = 0, frame = 24
 574              		@ frame_needed = 1, uses_anonymous_args = 0
 575 0000 80B5     		push	{r7, lr}
ARM GAS  /tmp/ccvy8ygO.s 			page 20


 576              	.LCFI20:
 577              		.cfi_def_cfa_offset 8
 578              		.cfi_offset 7, -8
 579              		.cfi_offset 14, -4
 580 0002 86B0     		sub	sp, sp, #24
 581              	.LCFI21:
 582              		.cfi_def_cfa_offset 32
 583 0004 00AF     		add	r7, sp, #0
 584              	.LCFI22:
 585              		.cfi_def_cfa_register 7
 586 0006 F860     		str	r0, [r7, #12]
 587 0008 B960     		str	r1, [r7, #8]
 588 000a 7A60     		str	r2, [r7, #4]
 589 000c 3B60     		str	r3, [r7]
 518:Drivers/STM32F7xx_HAL_Driver/Src/stm32f7xx_hal_uart.c ****   uint32_t temp = 0x0;
 590              		.loc 1 518 0
 591 000e 0023     		movs	r3, #0
 592 0010 7B61     		str	r3, [r7, #20]
 519:Drivers/STM32F7xx_HAL_Driver/Src/stm32f7xx_hal_uart.c **** 
 520:Drivers/STM32F7xx_HAL_Driver/Src/stm32f7xx_hal_uart.c ****   /* Check the UART handle allocation */
 521:Drivers/STM32F7xx_HAL_Driver/Src/stm32f7xx_hal_uart.c ****   if(huart == NULL)
 593              		.loc 1 521 0
 594 0012 FB68     		ldr	r3, [r7, #12]
 595 0014 002B     		cmp	r3, #0
 596 0016 01D1     		bne	.L27
 522:Drivers/STM32F7xx_HAL_Driver/Src/stm32f7xx_hal_uart.c ****   {
 523:Drivers/STM32F7xx_HAL_Driver/Src/stm32f7xx_hal_uart.c ****     return HAL_ERROR;
 597              		.loc 1 523 0
 598 0018 0123     		movs	r3, #1
 599 001a 57E0     		b	.L28
 600              	.L27:
 524:Drivers/STM32F7xx_HAL_Driver/Src/stm32f7xx_hal_uart.c ****   }
 525:Drivers/STM32F7xx_HAL_Driver/Src/stm32f7xx_hal_uart.c ****   /* Check the Driver Enable UART instance */
 526:Drivers/STM32F7xx_HAL_Driver/Src/stm32f7xx_hal_uart.c ****   assert_param(IS_UART_DRIVER_ENABLE_INSTANCE(huart->Instance));
 527:Drivers/STM32F7xx_HAL_Driver/Src/stm32f7xx_hal_uart.c **** 
 528:Drivers/STM32F7xx_HAL_Driver/Src/stm32f7xx_hal_uart.c ****   /* Check the Driver Enable polarity */
 529:Drivers/STM32F7xx_HAL_Driver/Src/stm32f7xx_hal_uart.c ****   assert_param(IS_UART_DE_POLARITY(Polarity));
 530:Drivers/STM32F7xx_HAL_Driver/Src/stm32f7xx_hal_uart.c **** 
 531:Drivers/STM32F7xx_HAL_Driver/Src/stm32f7xx_hal_uart.c ****   /* Check the Driver Enable assertion time */
 532:Drivers/STM32F7xx_HAL_Driver/Src/stm32f7xx_hal_uart.c ****   assert_param(IS_UART_ASSERTIONTIME(AssertionTime));
 533:Drivers/STM32F7xx_HAL_Driver/Src/stm32f7xx_hal_uart.c **** 
 534:Drivers/STM32F7xx_HAL_Driver/Src/stm32f7xx_hal_uart.c ****   /* Check the Driver Enable deassertion time */
 535:Drivers/STM32F7xx_HAL_Driver/Src/stm32f7xx_hal_uart.c ****   assert_param(IS_UART_DEASSERTIONTIME(DeassertionTime));
 536:Drivers/STM32F7xx_HAL_Driver/Src/stm32f7xx_hal_uart.c **** 
 537:Drivers/STM32F7xx_HAL_Driver/Src/stm32f7xx_hal_uart.c ****   if(huart->gState == HAL_UART_STATE_RESET)
 601              		.loc 1 537 0
 602 001c FB68     		ldr	r3, [r7, #12]
 603 001e 93F86930 		ldrb	r3, [r3, #105]
 604 0022 DBB2     		uxtb	r3, r3
 605 0024 002B     		cmp	r3, #0
 606 0026 06D1     		bne	.L29
 538:Drivers/STM32F7xx_HAL_Driver/Src/stm32f7xx_hal_uart.c ****   {
 539:Drivers/STM32F7xx_HAL_Driver/Src/stm32f7xx_hal_uart.c ****     /* Allocate lock resource and initialize it */
 540:Drivers/STM32F7xx_HAL_Driver/Src/stm32f7xx_hal_uart.c ****     huart->Lock = HAL_UNLOCKED;
 607              		.loc 1 540 0
 608 0028 FB68     		ldr	r3, [r7, #12]
 609 002a 0022     		movs	r2, #0
ARM GAS  /tmp/ccvy8ygO.s 			page 21


 610 002c 83F86820 		strb	r2, [r3, #104]
 541:Drivers/STM32F7xx_HAL_Driver/Src/stm32f7xx_hal_uart.c **** 
 542:Drivers/STM32F7xx_HAL_Driver/Src/stm32f7xx_hal_uart.c ****     /* Init the low level hardware : GPIO, CLOCK, CORTEX */
 543:Drivers/STM32F7xx_HAL_Driver/Src/stm32f7xx_hal_uart.c ****     HAL_UART_MspInit(huart);
 611              		.loc 1 543 0
 612 0030 F868     		ldr	r0, [r7, #12]
 613 0032 FFF7FEFF 		bl	HAL_UART_MspInit
 614              	.L29:
 544:Drivers/STM32F7xx_HAL_Driver/Src/stm32f7xx_hal_uart.c ****   }
 545:Drivers/STM32F7xx_HAL_Driver/Src/stm32f7xx_hal_uart.c **** 
 546:Drivers/STM32F7xx_HAL_Driver/Src/stm32f7xx_hal_uart.c ****   huart->gState = HAL_UART_STATE_BUSY;
 615              		.loc 1 546 0
 616 0036 FB68     		ldr	r3, [r7, #12]
 617 0038 2422     		movs	r2, #36
 618 003a 83F86920 		strb	r2, [r3, #105]
 547:Drivers/STM32F7xx_HAL_Driver/Src/stm32f7xx_hal_uart.c **** 
 548:Drivers/STM32F7xx_HAL_Driver/Src/stm32f7xx_hal_uart.c ****   /* Disable the Peripheral */
 549:Drivers/STM32F7xx_HAL_Driver/Src/stm32f7xx_hal_uart.c ****   __HAL_UART_DISABLE(huart);
 619              		.loc 1 549 0
 620 003e FB68     		ldr	r3, [r7, #12]
 621 0040 1B68     		ldr	r3, [r3]
 622 0042 1A68     		ldr	r2, [r3]
 623 0044 FB68     		ldr	r3, [r7, #12]
 624 0046 1B68     		ldr	r3, [r3]
 625 0048 22F00102 		bic	r2, r2, #1
 626 004c 1A60     		str	r2, [r3]
 550:Drivers/STM32F7xx_HAL_Driver/Src/stm32f7xx_hal_uart.c **** 
 551:Drivers/STM32F7xx_HAL_Driver/Src/stm32f7xx_hal_uart.c ****   /* Set the UART Communication parameters */
 552:Drivers/STM32F7xx_HAL_Driver/Src/stm32f7xx_hal_uart.c ****   if (UART_SetConfig(huart) == HAL_ERROR)
 627              		.loc 1 552 0
 628 004e F868     		ldr	r0, [r7, #12]
 629 0050 FFF7FEFF 		bl	UART_SetConfig
 630 0054 0346     		mov	r3, r0
 631 0056 012B     		cmp	r3, #1
 632 0058 01D1     		bne	.L30
 553:Drivers/STM32F7xx_HAL_Driver/Src/stm32f7xx_hal_uart.c ****   {
 554:Drivers/STM32F7xx_HAL_Driver/Src/stm32f7xx_hal_uart.c ****     return HAL_ERROR;
 633              		.loc 1 554 0
 634 005a 0123     		movs	r3, #1
 635 005c 36E0     		b	.L28
 636              	.L30:
 555:Drivers/STM32F7xx_HAL_Driver/Src/stm32f7xx_hal_uart.c ****   }
 556:Drivers/STM32F7xx_HAL_Driver/Src/stm32f7xx_hal_uart.c **** 
 557:Drivers/STM32F7xx_HAL_Driver/Src/stm32f7xx_hal_uart.c ****   if(huart->AdvancedInit.AdvFeatureInit != UART_ADVFEATURE_NO_INIT)
 637              		.loc 1 557 0
 638 005e FB68     		ldr	r3, [r7, #12]
 639 0060 5B6A     		ldr	r3, [r3, #36]
 640 0062 002B     		cmp	r3, #0
 641 0064 02D0     		beq	.L31
 558:Drivers/STM32F7xx_HAL_Driver/Src/stm32f7xx_hal_uart.c ****   {
 559:Drivers/STM32F7xx_HAL_Driver/Src/stm32f7xx_hal_uart.c ****     UART_AdvFeatureConfig(huart);
 642              		.loc 1 559 0
 643 0066 F868     		ldr	r0, [r7, #12]
 644 0068 FFF7FEFF 		bl	UART_AdvFeatureConfig
 645              	.L31:
 560:Drivers/STM32F7xx_HAL_Driver/Src/stm32f7xx_hal_uart.c ****   }
 561:Drivers/STM32F7xx_HAL_Driver/Src/stm32f7xx_hal_uart.c **** 
ARM GAS  /tmp/ccvy8ygO.s 			page 22


 562:Drivers/STM32F7xx_HAL_Driver/Src/stm32f7xx_hal_uart.c ****   /* Enable the Driver Enable mode by setting the DEM bit in the CR3 register */
 563:Drivers/STM32F7xx_HAL_Driver/Src/stm32f7xx_hal_uart.c ****   SET_BIT(huart->Instance->CR3, USART_CR3_DEM);
 646              		.loc 1 563 0
 647 006c FB68     		ldr	r3, [r7, #12]
 648 006e 1B68     		ldr	r3, [r3]
 649 0070 9A68     		ldr	r2, [r3, #8]
 650 0072 FB68     		ldr	r3, [r7, #12]
 651 0074 1B68     		ldr	r3, [r3]
 652 0076 42F48042 		orr	r2, r2, #16384
 653 007a 9A60     		str	r2, [r3, #8]
 564:Drivers/STM32F7xx_HAL_Driver/Src/stm32f7xx_hal_uart.c **** 
 565:Drivers/STM32F7xx_HAL_Driver/Src/stm32f7xx_hal_uart.c ****   /* Set the Driver Enable polarity */
 566:Drivers/STM32F7xx_HAL_Driver/Src/stm32f7xx_hal_uart.c ****   MODIFY_REG(huart->Instance->CR3, USART_CR3_DEP, Polarity);
 654              		.loc 1 566 0
 655 007c FB68     		ldr	r3, [r7, #12]
 656 007e 1B68     		ldr	r3, [r3]
 657 0080 9B68     		ldr	r3, [r3, #8]
 658 0082 23F40041 		bic	r1, r3, #32768
 659 0086 FB68     		ldr	r3, [r7, #12]
 660 0088 1B68     		ldr	r3, [r3]
 661 008a BA68     		ldr	r2, [r7, #8]
 662 008c 0A43     		orrs	r2, r2, r1
 663 008e 9A60     		str	r2, [r3, #8]
 567:Drivers/STM32F7xx_HAL_Driver/Src/stm32f7xx_hal_uart.c **** 
 568:Drivers/STM32F7xx_HAL_Driver/Src/stm32f7xx_hal_uart.c ****   /* Set the Driver Enable assertion and deassertion times */
 569:Drivers/STM32F7xx_HAL_Driver/Src/stm32f7xx_hal_uart.c ****   temp = (AssertionTime << UART_CR1_DEAT_ADDRESS_LSB_POS);
 664              		.loc 1 569 0
 665 0090 7B68     		ldr	r3, [r7, #4]
 666 0092 5B05     		lsls	r3, r3, #21
 667 0094 7B61     		str	r3, [r7, #20]
 570:Drivers/STM32F7xx_HAL_Driver/Src/stm32f7xx_hal_uart.c ****   temp |= (DeassertionTime << UART_CR1_DEDT_ADDRESS_LSB_POS);
 668              		.loc 1 570 0
 669 0096 3B68     		ldr	r3, [r7]
 670 0098 1B04     		lsls	r3, r3, #16
 671 009a 7A69     		ldr	r2, [r7, #20]
 672 009c 1343     		orrs	r3, r3, r2
 673 009e 7B61     		str	r3, [r7, #20]
 571:Drivers/STM32F7xx_HAL_Driver/Src/stm32f7xx_hal_uart.c ****   MODIFY_REG(huart->Instance->CR1, (USART_CR1_DEDT|USART_CR1_DEAT), temp);
 674              		.loc 1 571 0
 675 00a0 FB68     		ldr	r3, [r7, #12]
 676 00a2 1B68     		ldr	r3, [r3]
 677 00a4 1A68     		ldr	r2, [r3]
 678 00a6 0B4B     		ldr	r3, .L32
 679 00a8 1340     		ands	r3, r3, r2
 680 00aa FA68     		ldr	r2, [r7, #12]
 681 00ac 1268     		ldr	r2, [r2]
 682 00ae 7969     		ldr	r1, [r7, #20]
 683 00b0 0B43     		orrs	r3, r3, r1
 684 00b2 1360     		str	r3, [r2]
 572:Drivers/STM32F7xx_HAL_Driver/Src/stm32f7xx_hal_uart.c **** 
 573:Drivers/STM32F7xx_HAL_Driver/Src/stm32f7xx_hal_uart.c ****   /* Enable the Peripheral */
 574:Drivers/STM32F7xx_HAL_Driver/Src/stm32f7xx_hal_uart.c ****   __HAL_UART_ENABLE(huart);
 685              		.loc 1 574 0
 686 00b4 FB68     		ldr	r3, [r7, #12]
 687 00b6 1B68     		ldr	r3, [r3]
 688 00b8 1A68     		ldr	r2, [r3]
 689 00ba FB68     		ldr	r3, [r7, #12]
ARM GAS  /tmp/ccvy8ygO.s 			page 23


 690 00bc 1B68     		ldr	r3, [r3]
 691 00be 42F00102 		orr	r2, r2, #1
 692 00c2 1A60     		str	r2, [r3]
 575:Drivers/STM32F7xx_HAL_Driver/Src/stm32f7xx_hal_uart.c **** 
 576:Drivers/STM32F7xx_HAL_Driver/Src/stm32f7xx_hal_uart.c ****   /* TEACK and/or REACK to check before moving huart->gState and huart->RxState to Ready */
 577:Drivers/STM32F7xx_HAL_Driver/Src/stm32f7xx_hal_uart.c ****   return (UART_CheckIdleState(huart));
 693              		.loc 1 577 0
 694 00c4 F868     		ldr	r0, [r7, #12]
 695 00c6 FFF7FEFF 		bl	UART_CheckIdleState
 696 00ca 0346     		mov	r3, r0
 697              	.L28:
 578:Drivers/STM32F7xx_HAL_Driver/Src/stm32f7xx_hal_uart.c **** }
 698              		.loc 1 578 0
 699 00cc 1846     		mov	r0, r3
 700 00ce 1837     		adds	r7, r7, #24
 701              	.LCFI23:
 702              		.cfi_def_cfa_offset 8
 703 00d0 BD46     		mov	sp, r7
 704              	.LCFI24:
 705              		.cfi_def_cfa_register 13
 706              		@ sp needed
 707 00d2 80BD     		pop	{r7, pc}
 708              	.L33:
 709              		.align	2
 710              	.L32:
 711 00d4 FFFF00FC 		.word	-67043329
 712              		.cfi_endproc
 713              	.LFE142:
 715              		.section	.text.HAL_UART_DeInit,"ax",%progbits
 716              		.align	1
 717              		.global	HAL_UART_DeInit
 718              		.syntax unified
 719              		.thumb
 720              		.thumb_func
 721              		.fpu fpv4-sp-d16
 723              	HAL_UART_DeInit:
 724              	.LFB143:
 579:Drivers/STM32F7xx_HAL_Driver/Src/stm32f7xx_hal_uart.c **** 
 580:Drivers/STM32F7xx_HAL_Driver/Src/stm32f7xx_hal_uart.c **** /**
 581:Drivers/STM32F7xx_HAL_Driver/Src/stm32f7xx_hal_uart.c ****   * @brief DeInitializes the UART peripheral
 582:Drivers/STM32F7xx_HAL_Driver/Src/stm32f7xx_hal_uart.c ****   * @param huart uart handle
 583:Drivers/STM32F7xx_HAL_Driver/Src/stm32f7xx_hal_uart.c ****   * @retval HAL status
 584:Drivers/STM32F7xx_HAL_Driver/Src/stm32f7xx_hal_uart.c ****   */
 585:Drivers/STM32F7xx_HAL_Driver/Src/stm32f7xx_hal_uart.c **** HAL_StatusTypeDef HAL_UART_DeInit(UART_HandleTypeDef *huart)
 586:Drivers/STM32F7xx_HAL_Driver/Src/stm32f7xx_hal_uart.c **** {
 725              		.loc 1 586 0
 726              		.cfi_startproc
 727              		@ args = 0, pretend = 0, frame = 8
 728              		@ frame_needed = 1, uses_anonymous_args = 0
 729 0000 80B5     		push	{r7, lr}
 730              	.LCFI25:
 731              		.cfi_def_cfa_offset 8
 732              		.cfi_offset 7, -8
 733              		.cfi_offset 14, -4
 734 0002 82B0     		sub	sp, sp, #8
 735              	.LCFI26:
 736              		.cfi_def_cfa_offset 16
ARM GAS  /tmp/ccvy8ygO.s 			page 24


 737 0004 00AF     		add	r7, sp, #0
 738              	.LCFI27:
 739              		.cfi_def_cfa_register 7
 740 0006 7860     		str	r0, [r7, #4]
 587:Drivers/STM32F7xx_HAL_Driver/Src/stm32f7xx_hal_uart.c ****   /* Check the UART handle allocation */
 588:Drivers/STM32F7xx_HAL_Driver/Src/stm32f7xx_hal_uart.c ****   if(huart == NULL)
 741              		.loc 1 588 0
 742 0008 7B68     		ldr	r3, [r7, #4]
 743 000a 002B     		cmp	r3, #0
 744 000c 01D1     		bne	.L35
 589:Drivers/STM32F7xx_HAL_Driver/Src/stm32f7xx_hal_uart.c ****   {
 590:Drivers/STM32F7xx_HAL_Driver/Src/stm32f7xx_hal_uart.c ****     return HAL_ERROR;
 745              		.loc 1 590 0
 746 000e 0123     		movs	r3, #1
 747 0010 2AE0     		b	.L36
 748              	.L35:
 591:Drivers/STM32F7xx_HAL_Driver/Src/stm32f7xx_hal_uart.c ****   }
 592:Drivers/STM32F7xx_HAL_Driver/Src/stm32f7xx_hal_uart.c **** 
 593:Drivers/STM32F7xx_HAL_Driver/Src/stm32f7xx_hal_uart.c ****   /* Check the parameters */
 594:Drivers/STM32F7xx_HAL_Driver/Src/stm32f7xx_hal_uart.c ****   assert_param(IS_UART_INSTANCE(huart->Instance));
 595:Drivers/STM32F7xx_HAL_Driver/Src/stm32f7xx_hal_uart.c **** 
 596:Drivers/STM32F7xx_HAL_Driver/Src/stm32f7xx_hal_uart.c ****   huart->gState = HAL_UART_STATE_BUSY;
 749              		.loc 1 596 0
 750 0012 7B68     		ldr	r3, [r7, #4]
 751 0014 2422     		movs	r2, #36
 752 0016 83F86920 		strb	r2, [r3, #105]
 597:Drivers/STM32F7xx_HAL_Driver/Src/stm32f7xx_hal_uart.c **** 
 598:Drivers/STM32F7xx_HAL_Driver/Src/stm32f7xx_hal_uart.c ****   /* Disable the Peripheral */
 599:Drivers/STM32F7xx_HAL_Driver/Src/stm32f7xx_hal_uart.c ****   __HAL_UART_DISABLE(huart);
 753              		.loc 1 599 0
 754 001a 7B68     		ldr	r3, [r7, #4]
 755 001c 1B68     		ldr	r3, [r3]
 756 001e 1A68     		ldr	r2, [r3]
 757 0020 7B68     		ldr	r3, [r7, #4]
 758 0022 1B68     		ldr	r3, [r3]
 759 0024 22F00102 		bic	r2, r2, #1
 760 0028 1A60     		str	r2, [r3]
 600:Drivers/STM32F7xx_HAL_Driver/Src/stm32f7xx_hal_uart.c **** 
 601:Drivers/STM32F7xx_HAL_Driver/Src/stm32f7xx_hal_uart.c ****   huart->Instance->CR1 = 0x0U;
 761              		.loc 1 601 0
 762 002a 7B68     		ldr	r3, [r7, #4]
 763 002c 1B68     		ldr	r3, [r3]
 764 002e 0022     		movs	r2, #0
 765 0030 1A60     		str	r2, [r3]
 602:Drivers/STM32F7xx_HAL_Driver/Src/stm32f7xx_hal_uart.c ****   huart->Instance->CR2 = 0x0U;
 766              		.loc 1 602 0
 767 0032 7B68     		ldr	r3, [r7, #4]
 768 0034 1B68     		ldr	r3, [r3]
 769 0036 0022     		movs	r2, #0
 770 0038 5A60     		str	r2, [r3, #4]
 603:Drivers/STM32F7xx_HAL_Driver/Src/stm32f7xx_hal_uart.c ****   huart->Instance->CR3 = 0x0U;
 771              		.loc 1 603 0
 772 003a 7B68     		ldr	r3, [r7, #4]
 773 003c 1B68     		ldr	r3, [r3]
 774 003e 0022     		movs	r2, #0
 775 0040 9A60     		str	r2, [r3, #8]
 604:Drivers/STM32F7xx_HAL_Driver/Src/stm32f7xx_hal_uart.c **** 
ARM GAS  /tmp/ccvy8ygO.s 			page 25


 605:Drivers/STM32F7xx_HAL_Driver/Src/stm32f7xx_hal_uart.c ****   /* DeInit the low level hardware */
 606:Drivers/STM32F7xx_HAL_Driver/Src/stm32f7xx_hal_uart.c ****   HAL_UART_MspDeInit(huart);
 776              		.loc 1 606 0
 777 0042 7868     		ldr	r0, [r7, #4]
 778 0044 FFF7FEFF 		bl	HAL_UART_MspDeInit
 607:Drivers/STM32F7xx_HAL_Driver/Src/stm32f7xx_hal_uart.c **** 
 608:Drivers/STM32F7xx_HAL_Driver/Src/stm32f7xx_hal_uart.c ****   huart->ErrorCode = HAL_UART_ERROR_NONE;
 779              		.loc 1 608 0
 780 0048 7B68     		ldr	r3, [r7, #4]
 781 004a 0022     		movs	r2, #0
 782 004c DA66     		str	r2, [r3, #108]
 609:Drivers/STM32F7xx_HAL_Driver/Src/stm32f7xx_hal_uart.c ****   huart->gState    = HAL_UART_STATE_RESET;
 783              		.loc 1 609 0
 784 004e 7B68     		ldr	r3, [r7, #4]
 785 0050 0022     		movs	r2, #0
 786 0052 83F86920 		strb	r2, [r3, #105]
 610:Drivers/STM32F7xx_HAL_Driver/Src/stm32f7xx_hal_uart.c ****   huart->RxState   = HAL_UART_STATE_RESET;
 787              		.loc 1 610 0
 788 0056 7B68     		ldr	r3, [r7, #4]
 789 0058 0022     		movs	r2, #0
 790 005a 83F86A20 		strb	r2, [r3, #106]
 611:Drivers/STM32F7xx_HAL_Driver/Src/stm32f7xx_hal_uart.c **** 
 612:Drivers/STM32F7xx_HAL_Driver/Src/stm32f7xx_hal_uart.c ****   /* Process Unlock */
 613:Drivers/STM32F7xx_HAL_Driver/Src/stm32f7xx_hal_uart.c ****   __HAL_UNLOCK(huart);
 791              		.loc 1 613 0
 792 005e 7B68     		ldr	r3, [r7, #4]
 793 0060 0022     		movs	r2, #0
 794 0062 83F86820 		strb	r2, [r3, #104]
 614:Drivers/STM32F7xx_HAL_Driver/Src/stm32f7xx_hal_uart.c **** 
 615:Drivers/STM32F7xx_HAL_Driver/Src/stm32f7xx_hal_uart.c ****   return HAL_OK;
 795              		.loc 1 615 0
 796 0066 0023     		movs	r3, #0
 797              	.L36:
 616:Drivers/STM32F7xx_HAL_Driver/Src/stm32f7xx_hal_uart.c **** }
 798              		.loc 1 616 0
 799 0068 1846     		mov	r0, r3
 800 006a 0837     		adds	r7, r7, #8
 801              	.LCFI28:
 802              		.cfi_def_cfa_offset 8
 803 006c BD46     		mov	sp, r7
 804              	.LCFI29:
 805              		.cfi_def_cfa_register 13
 806              		@ sp needed
 807 006e 80BD     		pop	{r7, pc}
 808              		.cfi_endproc
 809              	.LFE143:
 811              		.section	.text.HAL_UART_MspInit,"ax",%progbits
 812              		.align	1
 813              		.weak	HAL_UART_MspInit
 814              		.syntax unified
 815              		.thumb
 816              		.thumb_func
 817              		.fpu fpv4-sp-d16
 819              	HAL_UART_MspInit:
 820              	.LFB144:
 617:Drivers/STM32F7xx_HAL_Driver/Src/stm32f7xx_hal_uart.c **** 
 618:Drivers/STM32F7xx_HAL_Driver/Src/stm32f7xx_hal_uart.c **** /**
ARM GAS  /tmp/ccvy8ygO.s 			page 26


 619:Drivers/STM32F7xx_HAL_Driver/Src/stm32f7xx_hal_uart.c ****   * @brief UART MSP Init
 620:Drivers/STM32F7xx_HAL_Driver/Src/stm32f7xx_hal_uart.c ****   * @param huart uart handle
 621:Drivers/STM32F7xx_HAL_Driver/Src/stm32f7xx_hal_uart.c ****   * @retval None
 622:Drivers/STM32F7xx_HAL_Driver/Src/stm32f7xx_hal_uart.c ****   */
 623:Drivers/STM32F7xx_HAL_Driver/Src/stm32f7xx_hal_uart.c **** __weak void HAL_UART_MspInit(UART_HandleTypeDef *huart)
 624:Drivers/STM32F7xx_HAL_Driver/Src/stm32f7xx_hal_uart.c **** {
 821              		.loc 1 624 0
 822              		.cfi_startproc
 823              		@ args = 0, pretend = 0, frame = 8
 824              		@ frame_needed = 1, uses_anonymous_args = 0
 825              		@ link register save eliminated.
 826 0000 80B4     		push	{r7}
 827              	.LCFI30:
 828              		.cfi_def_cfa_offset 4
 829              		.cfi_offset 7, -4
 830 0002 83B0     		sub	sp, sp, #12
 831              	.LCFI31:
 832              		.cfi_def_cfa_offset 16
 833 0004 00AF     		add	r7, sp, #0
 834              	.LCFI32:
 835              		.cfi_def_cfa_register 7
 836 0006 7860     		str	r0, [r7, #4]
 625:Drivers/STM32F7xx_HAL_Driver/Src/stm32f7xx_hal_uart.c ****   /* Prevent unused argument(s) compilation warning */
 626:Drivers/STM32F7xx_HAL_Driver/Src/stm32f7xx_hal_uart.c ****   UNUSED(huart);
 627:Drivers/STM32F7xx_HAL_Driver/Src/stm32f7xx_hal_uart.c **** 
 628:Drivers/STM32F7xx_HAL_Driver/Src/stm32f7xx_hal_uart.c ****   /* NOTE : This function should not be modified, when the callback is needed,
 629:Drivers/STM32F7xx_HAL_Driver/Src/stm32f7xx_hal_uart.c ****             the HAL_UART_MspInit can be implemented in the user file
 630:Drivers/STM32F7xx_HAL_Driver/Src/stm32f7xx_hal_uart.c ****    */
 631:Drivers/STM32F7xx_HAL_Driver/Src/stm32f7xx_hal_uart.c **** }
 837              		.loc 1 631 0
 838 0008 00BF     		nop
 839 000a 0C37     		adds	r7, r7, #12
 840              	.LCFI33:
 841              		.cfi_def_cfa_offset 4
 842 000c BD46     		mov	sp, r7
 843              	.LCFI34:
 844              		.cfi_def_cfa_register 13
 845              		@ sp needed
 846 000e 5DF8047B 		ldr	r7, [sp], #4
 847              	.LCFI35:
 848              		.cfi_restore 7
 849              		.cfi_def_cfa_offset 0
 850 0012 7047     		bx	lr
 851              		.cfi_endproc
 852              	.LFE144:
 854              		.section	.text.HAL_UART_MspDeInit,"ax",%progbits
 855              		.align	1
 856              		.weak	HAL_UART_MspDeInit
 857              		.syntax unified
 858              		.thumb
 859              		.thumb_func
 860              		.fpu fpv4-sp-d16
 862              	HAL_UART_MspDeInit:
 863              	.LFB145:
 632:Drivers/STM32F7xx_HAL_Driver/Src/stm32f7xx_hal_uart.c **** 
 633:Drivers/STM32F7xx_HAL_Driver/Src/stm32f7xx_hal_uart.c **** /**
 634:Drivers/STM32F7xx_HAL_Driver/Src/stm32f7xx_hal_uart.c ****   * @brief UART MSP DeInit
ARM GAS  /tmp/ccvy8ygO.s 			page 27


 635:Drivers/STM32F7xx_HAL_Driver/Src/stm32f7xx_hal_uart.c ****   * @param huart uart handle
 636:Drivers/STM32F7xx_HAL_Driver/Src/stm32f7xx_hal_uart.c ****   * @retval None
 637:Drivers/STM32F7xx_HAL_Driver/Src/stm32f7xx_hal_uart.c ****   */
 638:Drivers/STM32F7xx_HAL_Driver/Src/stm32f7xx_hal_uart.c **** __weak void HAL_UART_MspDeInit(UART_HandleTypeDef *huart)
 639:Drivers/STM32F7xx_HAL_Driver/Src/stm32f7xx_hal_uart.c **** {
 864              		.loc 1 639 0
 865              		.cfi_startproc
 866              		@ args = 0, pretend = 0, frame = 8
 867              		@ frame_needed = 1, uses_anonymous_args = 0
 868              		@ link register save eliminated.
 869 0000 80B4     		push	{r7}
 870              	.LCFI36:
 871              		.cfi_def_cfa_offset 4
 872              		.cfi_offset 7, -4
 873 0002 83B0     		sub	sp, sp, #12
 874              	.LCFI37:
 875              		.cfi_def_cfa_offset 16
 876 0004 00AF     		add	r7, sp, #0
 877              	.LCFI38:
 878              		.cfi_def_cfa_register 7
 879 0006 7860     		str	r0, [r7, #4]
 640:Drivers/STM32F7xx_HAL_Driver/Src/stm32f7xx_hal_uart.c ****   /* Prevent unused argument(s) compilation warning */
 641:Drivers/STM32F7xx_HAL_Driver/Src/stm32f7xx_hal_uart.c ****   UNUSED(huart);
 642:Drivers/STM32F7xx_HAL_Driver/Src/stm32f7xx_hal_uart.c **** 
 643:Drivers/STM32F7xx_HAL_Driver/Src/stm32f7xx_hal_uart.c ****   /* NOTE : This function should not be modified, when the callback is needed,
 644:Drivers/STM32F7xx_HAL_Driver/Src/stm32f7xx_hal_uart.c ****             the HAL_UART_MspDeInit can be implemented in the user file
 645:Drivers/STM32F7xx_HAL_Driver/Src/stm32f7xx_hal_uart.c ****    */
 646:Drivers/STM32F7xx_HAL_Driver/Src/stm32f7xx_hal_uart.c **** }
 880              		.loc 1 646 0
 881 0008 00BF     		nop
 882 000a 0C37     		adds	r7, r7, #12
 883              	.LCFI39:
 884              		.cfi_def_cfa_offset 4
 885 000c BD46     		mov	sp, r7
 886              	.LCFI40:
 887              		.cfi_def_cfa_register 13
 888              		@ sp needed
 889 000e 5DF8047B 		ldr	r7, [sp], #4
 890              	.LCFI41:
 891              		.cfi_restore 7
 892              		.cfi_def_cfa_offset 0
 893 0012 7047     		bx	lr
 894              		.cfi_endproc
 895              	.LFE145:
 897              		.section	.text.HAL_UART_Transmit,"ax",%progbits
 898              		.align	1
 899              		.global	HAL_UART_Transmit
 900              		.syntax unified
 901              		.thumb
 902              		.thumb_func
 903              		.fpu fpv4-sp-d16
 905              	HAL_UART_Transmit:
 906              	.LFB146:
 647:Drivers/STM32F7xx_HAL_Driver/Src/stm32f7xx_hal_uart.c **** 
 648:Drivers/STM32F7xx_HAL_Driver/Src/stm32f7xx_hal_uart.c **** /**
 649:Drivers/STM32F7xx_HAL_Driver/Src/stm32f7xx_hal_uart.c ****   * @}
 650:Drivers/STM32F7xx_HAL_Driver/Src/stm32f7xx_hal_uart.c ****   */
ARM GAS  /tmp/ccvy8ygO.s 			page 28


 651:Drivers/STM32F7xx_HAL_Driver/Src/stm32f7xx_hal_uart.c **** 
 652:Drivers/STM32F7xx_HAL_Driver/Src/stm32f7xx_hal_uart.c **** /** @defgroup UART_Exported_Functions_Group2 IO operation functions
 653:Drivers/STM32F7xx_HAL_Driver/Src/stm32f7xx_hal_uart.c ****   * @brief UART Transmit/Receive functions
 654:Drivers/STM32F7xx_HAL_Driver/Src/stm32f7xx_hal_uart.c ****   *
 655:Drivers/STM32F7xx_HAL_Driver/Src/stm32f7xx_hal_uart.c **** @verbatim
 656:Drivers/STM32F7xx_HAL_Driver/Src/stm32f7xx_hal_uart.c ****  ===============================================================================
 657:Drivers/STM32F7xx_HAL_Driver/Src/stm32f7xx_hal_uart.c ****                       ##### IO operation functions #####
 658:Drivers/STM32F7xx_HAL_Driver/Src/stm32f7xx_hal_uart.c ****  ===============================================================================
 659:Drivers/STM32F7xx_HAL_Driver/Src/stm32f7xx_hal_uart.c ****     This subsection provides a set of functions allowing to manage the UART asynchronous
 660:Drivers/STM32F7xx_HAL_Driver/Src/stm32f7xx_hal_uart.c ****     and Half duplex data transfers.
 661:Drivers/STM32F7xx_HAL_Driver/Src/stm32f7xx_hal_uart.c **** 
 662:Drivers/STM32F7xx_HAL_Driver/Src/stm32f7xx_hal_uart.c ****     (#) There are two mode of transfer:
 663:Drivers/STM32F7xx_HAL_Driver/Src/stm32f7xx_hal_uart.c ****        (+) Blocking mode: The communication is performed in polling mode.
 664:Drivers/STM32F7xx_HAL_Driver/Src/stm32f7xx_hal_uart.c ****            The HAL status of all data processing is returned by the same function
 665:Drivers/STM32F7xx_HAL_Driver/Src/stm32f7xx_hal_uart.c ****            after finishing transfer.
 666:Drivers/STM32F7xx_HAL_Driver/Src/stm32f7xx_hal_uart.c ****        (+) Non-Blocking mode: The communication is performed using Interrupts
 667:Drivers/STM32F7xx_HAL_Driver/Src/stm32f7xx_hal_uart.c ****            or DMA, These API's return the HAL status.
 668:Drivers/STM32F7xx_HAL_Driver/Src/stm32f7xx_hal_uart.c ****            The end of the data processing will be indicated through the
 669:Drivers/STM32F7xx_HAL_Driver/Src/stm32f7xx_hal_uart.c ****            dedicated UART IRQ when using Interrupt mode or the DMA IRQ when
 670:Drivers/STM32F7xx_HAL_Driver/Src/stm32f7xx_hal_uart.c ****            using DMA mode.
 671:Drivers/STM32F7xx_HAL_Driver/Src/stm32f7xx_hal_uart.c ****            The HAL_UART_TxCpltCallback(), HAL_UART_RxCpltCallback() user callbacks
 672:Drivers/STM32F7xx_HAL_Driver/Src/stm32f7xx_hal_uart.c ****            will be executed respectively at the end of the transmit or Receive process
 673:Drivers/STM32F7xx_HAL_Driver/Src/stm32f7xx_hal_uart.c ****            The HAL_UART_ErrorCallback()user callback will be executed when a communication error is
 674:Drivers/STM32F7xx_HAL_Driver/Src/stm32f7xx_hal_uart.c **** 
 675:Drivers/STM32F7xx_HAL_Driver/Src/stm32f7xx_hal_uart.c ****     (#) Blocking mode API's are :
 676:Drivers/STM32F7xx_HAL_Driver/Src/stm32f7xx_hal_uart.c ****         (+) HAL_UART_Transmit()
 677:Drivers/STM32F7xx_HAL_Driver/Src/stm32f7xx_hal_uart.c ****         (+) HAL_UART_Receive()
 678:Drivers/STM32F7xx_HAL_Driver/Src/stm32f7xx_hal_uart.c **** 
 679:Drivers/STM32F7xx_HAL_Driver/Src/stm32f7xx_hal_uart.c ****     (#) Non-Blocking mode API's with Interrupt are :
 680:Drivers/STM32F7xx_HAL_Driver/Src/stm32f7xx_hal_uart.c ****         (+) HAL_UART_Transmit_IT()
 681:Drivers/STM32F7xx_HAL_Driver/Src/stm32f7xx_hal_uart.c ****         (+) HAL_UART_Receive_IT()
 682:Drivers/STM32F7xx_HAL_Driver/Src/stm32f7xx_hal_uart.c ****         (+) HAL_UART_IRQHandler()
 683:Drivers/STM32F7xx_HAL_Driver/Src/stm32f7xx_hal_uart.c ****         (+) UART_Transmit_IT()
 684:Drivers/STM32F7xx_HAL_Driver/Src/stm32f7xx_hal_uart.c ****         (+) UART_Receive_IT()
 685:Drivers/STM32F7xx_HAL_Driver/Src/stm32f7xx_hal_uart.c **** 
 686:Drivers/STM32F7xx_HAL_Driver/Src/stm32f7xx_hal_uart.c ****     (#) Non-Blocking mode API's with DMA are :
 687:Drivers/STM32F7xx_HAL_Driver/Src/stm32f7xx_hal_uart.c ****         (+) HAL_UART_Transmit_DMA()
 688:Drivers/STM32F7xx_HAL_Driver/Src/stm32f7xx_hal_uart.c ****         (+) HAL_UART_Receive_DMA()
 689:Drivers/STM32F7xx_HAL_Driver/Src/stm32f7xx_hal_uart.c ****         (+) HAL_UART_DMAPause()
 690:Drivers/STM32F7xx_HAL_Driver/Src/stm32f7xx_hal_uart.c ****         (+) HAL_UART_DMAResume()
 691:Drivers/STM32F7xx_HAL_Driver/Src/stm32f7xx_hal_uart.c ****         (+) HAL_UART_DMAStop()
 692:Drivers/STM32F7xx_HAL_Driver/Src/stm32f7xx_hal_uart.c **** 
 693:Drivers/STM32F7xx_HAL_Driver/Src/stm32f7xx_hal_uart.c ****     (#) A set of Transfer Complete Callbacks are provided in Non_Blocking mode:
 694:Drivers/STM32F7xx_HAL_Driver/Src/stm32f7xx_hal_uart.c ****         (+) HAL_UART_TxHalfCpltCallback()
 695:Drivers/STM32F7xx_HAL_Driver/Src/stm32f7xx_hal_uart.c ****         (+) HAL_UART_TxCpltCallback()
 696:Drivers/STM32F7xx_HAL_Driver/Src/stm32f7xx_hal_uart.c ****         (+) HAL_UART_RxHalfCpltCallback()
 697:Drivers/STM32F7xx_HAL_Driver/Src/stm32f7xx_hal_uart.c ****         (+) HAL_UART_RxCpltCallback()
 698:Drivers/STM32F7xx_HAL_Driver/Src/stm32f7xx_hal_uart.c ****         (+) HAL_UART_ErrorCallback()
 699:Drivers/STM32F7xx_HAL_Driver/Src/stm32f7xx_hal_uart.c **** 
 700:Drivers/STM32F7xx_HAL_Driver/Src/stm32f7xx_hal_uart.c **** 
 701:Drivers/STM32F7xx_HAL_Driver/Src/stm32f7xx_hal_uart.c ****     -@- In the Half duplex communication, it is forbidden to run the transmit
 702:Drivers/STM32F7xx_HAL_Driver/Src/stm32f7xx_hal_uart.c ****         and receive process in parallel, the UART state HAL_UART_STATE_BUSY_TX_RX can't be useful.
 703:Drivers/STM32F7xx_HAL_Driver/Src/stm32f7xx_hal_uart.c **** 
 704:Drivers/STM32F7xx_HAL_Driver/Src/stm32f7xx_hal_uart.c **** @endverbatim
 705:Drivers/STM32F7xx_HAL_Driver/Src/stm32f7xx_hal_uart.c ****   * @{
 706:Drivers/STM32F7xx_HAL_Driver/Src/stm32f7xx_hal_uart.c ****   */
 707:Drivers/STM32F7xx_HAL_Driver/Src/stm32f7xx_hal_uart.c **** 
ARM GAS  /tmp/ccvy8ygO.s 			page 29


 708:Drivers/STM32F7xx_HAL_Driver/Src/stm32f7xx_hal_uart.c **** /**
 709:Drivers/STM32F7xx_HAL_Driver/Src/stm32f7xx_hal_uart.c ****   * @brief Send an amount of data in blocking mode.
 710:Drivers/STM32F7xx_HAL_Driver/Src/stm32f7xx_hal_uart.c ****   * @param huart UART handle.
 711:Drivers/STM32F7xx_HAL_Driver/Src/stm32f7xx_hal_uart.c ****   * @param pData Pointer to data buffer.
 712:Drivers/STM32F7xx_HAL_Driver/Src/stm32f7xx_hal_uart.c ****   * @param Size Amount of data to be sent.
 713:Drivers/STM32F7xx_HAL_Driver/Src/stm32f7xx_hal_uart.c ****   * @param Timeout Timeout duration.
 714:Drivers/STM32F7xx_HAL_Driver/Src/stm32f7xx_hal_uart.c ****   * @retval HAL status
 715:Drivers/STM32F7xx_HAL_Driver/Src/stm32f7xx_hal_uart.c ****   */
 716:Drivers/STM32F7xx_HAL_Driver/Src/stm32f7xx_hal_uart.c **** HAL_StatusTypeDef HAL_UART_Transmit(UART_HandleTypeDef *huart, uint8_t *pData, uint16_t Size, uint3
 717:Drivers/STM32F7xx_HAL_Driver/Src/stm32f7xx_hal_uart.c **** {
 907              		.loc 1 717 0
 908              		.cfi_startproc
 909              		@ args = 0, pretend = 0, frame = 24
 910              		@ frame_needed = 1, uses_anonymous_args = 0
 911 0000 80B5     		push	{r7, lr}
 912              	.LCFI42:
 913              		.cfi_def_cfa_offset 8
 914              		.cfi_offset 7, -8
 915              		.cfi_offset 14, -4
 916 0002 88B0     		sub	sp, sp, #32
 917              	.LCFI43:
 918              		.cfi_def_cfa_offset 40
 919 0004 02AF     		add	r7, sp, #8
 920              	.LCFI44:
 921              		.cfi_def_cfa 7, 32
 922 0006 F860     		str	r0, [r7, #12]
 923 0008 B960     		str	r1, [r7, #8]
 924 000a 3B60     		str	r3, [r7]
 925 000c 1346     		mov	r3, r2	@ movhi
 926 000e FB80     		strh	r3, [r7, #6]	@ movhi
 718:Drivers/STM32F7xx_HAL_Driver/Src/stm32f7xx_hal_uart.c ****   uint16_t* tmp;
 719:Drivers/STM32F7xx_HAL_Driver/Src/stm32f7xx_hal_uart.c ****   uint32_t tickstart = 0U;
 927              		.loc 1 719 0
 928 0010 0023     		movs	r3, #0
 929 0012 7B61     		str	r3, [r7, #20]
 720:Drivers/STM32F7xx_HAL_Driver/Src/stm32f7xx_hal_uart.c **** 
 721:Drivers/STM32F7xx_HAL_Driver/Src/stm32f7xx_hal_uart.c ****   /* Check that a Tx process is not already ongoing */
 722:Drivers/STM32F7xx_HAL_Driver/Src/stm32f7xx_hal_uart.c ****   if(huart->gState == HAL_UART_STATE_READY)
 930              		.loc 1 722 0
 931 0014 FB68     		ldr	r3, [r7, #12]
 932 0016 93F86930 		ldrb	r3, [r3, #105]
 933 001a DBB2     		uxtb	r3, r3
 934 001c 202B     		cmp	r3, #32
 935 001e 76D1     		bne	.L40
 723:Drivers/STM32F7xx_HAL_Driver/Src/stm32f7xx_hal_uart.c ****   {
 724:Drivers/STM32F7xx_HAL_Driver/Src/stm32f7xx_hal_uart.c ****     if((pData == NULL ) || (Size == 0U))
 936              		.loc 1 724 0
 937 0020 BB68     		ldr	r3, [r7, #8]
 938 0022 002B     		cmp	r3, #0
 939 0024 02D0     		beq	.L41
 940              		.loc 1 724 0 is_stmt 0 discriminator 1
 941 0026 FB88     		ldrh	r3, [r7, #6]
 942 0028 002B     		cmp	r3, #0
 943 002a 01D1     		bne	.L42
 944              	.L41:
 725:Drivers/STM32F7xx_HAL_Driver/Src/stm32f7xx_hal_uart.c ****     {
 726:Drivers/STM32F7xx_HAL_Driver/Src/stm32f7xx_hal_uart.c ****       return  HAL_ERROR;
ARM GAS  /tmp/ccvy8ygO.s 			page 30


 945              		.loc 1 726 0 is_stmt 1
 946 002c 0123     		movs	r3, #1
 947 002e 6FE0     		b	.L43
 948              	.L42:
 727:Drivers/STM32F7xx_HAL_Driver/Src/stm32f7xx_hal_uart.c ****     }
 728:Drivers/STM32F7xx_HAL_Driver/Src/stm32f7xx_hal_uart.c **** 
 729:Drivers/STM32F7xx_HAL_Driver/Src/stm32f7xx_hal_uart.c ****     /* Process Locked */
 730:Drivers/STM32F7xx_HAL_Driver/Src/stm32f7xx_hal_uart.c ****     __HAL_LOCK(huart);
 949              		.loc 1 730 0
 950 0030 FB68     		ldr	r3, [r7, #12]
 951 0032 93F86830 		ldrb	r3, [r3, #104]	@ zero_extendqisi2
 952 0036 012B     		cmp	r3, #1
 953 0038 01D1     		bne	.L44
 954              		.loc 1 730 0 is_stmt 0 discriminator 1
 955 003a 0223     		movs	r3, #2
 956 003c 68E0     		b	.L43
 957              	.L44:
 958              		.loc 1 730 0 discriminator 2
 959 003e FB68     		ldr	r3, [r7, #12]
 960 0040 0122     		movs	r2, #1
 961 0042 83F86820 		strb	r2, [r3, #104]
 731:Drivers/STM32F7xx_HAL_Driver/Src/stm32f7xx_hal_uart.c **** 
 732:Drivers/STM32F7xx_HAL_Driver/Src/stm32f7xx_hal_uart.c ****     huart->ErrorCode = HAL_UART_ERROR_NONE;
 962              		.loc 1 732 0 is_stmt 1 discriminator 2
 963 0046 FB68     		ldr	r3, [r7, #12]
 964 0048 0022     		movs	r2, #0
 965 004a DA66     		str	r2, [r3, #108]
 733:Drivers/STM32F7xx_HAL_Driver/Src/stm32f7xx_hal_uart.c ****     huart->gState = HAL_UART_STATE_BUSY_TX;
 966              		.loc 1 733 0 discriminator 2
 967 004c FB68     		ldr	r3, [r7, #12]
 968 004e 2122     		movs	r2, #33
 969 0050 83F86920 		strb	r2, [r3, #105]
 734:Drivers/STM32F7xx_HAL_Driver/Src/stm32f7xx_hal_uart.c **** 
 735:Drivers/STM32F7xx_HAL_Driver/Src/stm32f7xx_hal_uart.c ****     /* Init tickstart for timeout managment*/
 736:Drivers/STM32F7xx_HAL_Driver/Src/stm32f7xx_hal_uart.c ****     tickstart = HAL_GetTick();
 970              		.loc 1 736 0 discriminator 2
 971 0054 FFF7FEFF 		bl	HAL_GetTick
 972 0058 7861     		str	r0, [r7, #20]
 737:Drivers/STM32F7xx_HAL_Driver/Src/stm32f7xx_hal_uart.c **** 
 738:Drivers/STM32F7xx_HAL_Driver/Src/stm32f7xx_hal_uart.c ****     huart->TxXferSize = Size;
 973              		.loc 1 738 0 discriminator 2
 974 005a FB68     		ldr	r3, [r7, #12]
 975 005c FA88     		ldrh	r2, [r7, #6]	@ movhi
 976 005e A3F85020 		strh	r2, [r3, #80]	@ movhi
 739:Drivers/STM32F7xx_HAL_Driver/Src/stm32f7xx_hal_uart.c ****     huart->TxXferCount = Size;
 977              		.loc 1 739 0 discriminator 2
 978 0062 FB68     		ldr	r3, [r7, #12]
 979 0064 FA88     		ldrh	r2, [r7, #6]	@ movhi
 980 0066 A3F85220 		strh	r2, [r3, #82]	@ movhi
 740:Drivers/STM32F7xx_HAL_Driver/Src/stm32f7xx_hal_uart.c ****     while(huart->TxXferCount > 0U)
 981              		.loc 1 740 0 discriminator 2
 982 006a 33E0     		b	.L45
 983              	.L48:
 741:Drivers/STM32F7xx_HAL_Driver/Src/stm32f7xx_hal_uart.c ****     {
 742:Drivers/STM32F7xx_HAL_Driver/Src/stm32f7xx_hal_uart.c ****       huart->TxXferCount--;
 984              		.loc 1 742 0
 985 006c FB68     		ldr	r3, [r7, #12]
ARM GAS  /tmp/ccvy8ygO.s 			page 31


 986 006e B3F85230 		ldrh	r3, [r3, #82]	@ movhi
 987 0072 9BB2     		uxth	r3, r3
 988 0074 013B     		subs	r3, r3, #1
 989 0076 9AB2     		uxth	r2, r3
 990 0078 FB68     		ldr	r3, [r7, #12]
 991 007a A3F85220 		strh	r2, [r3, #82]	@ movhi
 743:Drivers/STM32F7xx_HAL_Driver/Src/stm32f7xx_hal_uart.c ****       if(UART_WaitOnFlagUntilTimeout(huart, UART_FLAG_TXE, RESET, tickstart, Timeout) != HAL_OK)
 992              		.loc 1 743 0
 993 007e 3B68     		ldr	r3, [r7]
 994 0080 0093     		str	r3, [sp]
 995 0082 7B69     		ldr	r3, [r7, #20]
 996 0084 0022     		movs	r2, #0
 997 0086 8021     		movs	r1, #128
 998 0088 F868     		ldr	r0, [r7, #12]
 999 008a FFF7FEFF 		bl	UART_WaitOnFlagUntilTimeout
 1000 008e 0346     		mov	r3, r0
 1001 0090 002B     		cmp	r3, #0
 1002 0092 01D0     		beq	.L46
 744:Drivers/STM32F7xx_HAL_Driver/Src/stm32f7xx_hal_uart.c ****       {
 745:Drivers/STM32F7xx_HAL_Driver/Src/stm32f7xx_hal_uart.c ****         return HAL_TIMEOUT;
 1003              		.loc 1 745 0
 1004 0094 0323     		movs	r3, #3
 1005 0096 3BE0     		b	.L43
 1006              	.L46:
 746:Drivers/STM32F7xx_HAL_Driver/Src/stm32f7xx_hal_uart.c ****       }
 747:Drivers/STM32F7xx_HAL_Driver/Src/stm32f7xx_hal_uart.c ****       if ((huart->Init.WordLength == UART_WORDLENGTH_9B) && (huart->Init.Parity == UART_PARITY_NONE
 1007              		.loc 1 747 0
 1008 0098 FB68     		ldr	r3, [r7, #12]
 1009 009a 9B68     		ldr	r3, [r3, #8]
 1010 009c B3F5805F 		cmp	r3, #4096
 1011 00a0 11D1     		bne	.L47
 1012              		.loc 1 747 0 is_stmt 0 discriminator 1
 1013 00a2 FB68     		ldr	r3, [r7, #12]
 1014 00a4 1B69     		ldr	r3, [r3, #16]
 1015 00a6 002B     		cmp	r3, #0
 1016 00a8 0DD1     		bne	.L47
 748:Drivers/STM32F7xx_HAL_Driver/Src/stm32f7xx_hal_uart.c ****       {
 749:Drivers/STM32F7xx_HAL_Driver/Src/stm32f7xx_hal_uart.c ****         tmp = (uint16_t*) pData;
 1017              		.loc 1 749 0 is_stmt 1
 1018 00aa BB68     		ldr	r3, [r7, #8]
 1019 00ac 3B61     		str	r3, [r7, #16]
 750:Drivers/STM32F7xx_HAL_Driver/Src/stm32f7xx_hal_uart.c ****         huart->Instance->TDR = (*tmp & (uint16_t)0x01FFU);
 1020              		.loc 1 750 0
 1021 00ae 3B69     		ldr	r3, [r7, #16]
 1022 00b0 1B88     		ldrh	r3, [r3]
 1023 00b2 1A46     		mov	r2, r3
 1024 00b4 FB68     		ldr	r3, [r7, #12]
 1025 00b6 1B68     		ldr	r3, [r3]
 1026 00b8 C2F30802 		ubfx	r2, r2, #0, #9
 1027 00bc 9A62     		str	r2, [r3, #40]
 751:Drivers/STM32F7xx_HAL_Driver/Src/stm32f7xx_hal_uart.c ****         pData += 2;
 1028              		.loc 1 751 0
 1029 00be BB68     		ldr	r3, [r7, #8]
 1030 00c0 0233     		adds	r3, r3, #2
 1031 00c2 BB60     		str	r3, [r7, #8]
 1032 00c4 06E0     		b	.L45
 1033              	.L47:
ARM GAS  /tmp/ccvy8ygO.s 			page 32


 752:Drivers/STM32F7xx_HAL_Driver/Src/stm32f7xx_hal_uart.c ****       }
 753:Drivers/STM32F7xx_HAL_Driver/Src/stm32f7xx_hal_uart.c ****       else
 754:Drivers/STM32F7xx_HAL_Driver/Src/stm32f7xx_hal_uart.c ****       {
 755:Drivers/STM32F7xx_HAL_Driver/Src/stm32f7xx_hal_uart.c ****         huart->Instance->TDR = (*pData++ & (uint8_t)0xFFU);
 1034              		.loc 1 755 0
 1035 00c6 BB68     		ldr	r3, [r7, #8]
 1036 00c8 5A1C     		adds	r2, r3, #1
 1037 00ca BA60     		str	r2, [r7, #8]
 1038 00cc 1A78     		ldrb	r2, [r3]	@ zero_extendqisi2
 1039 00ce FB68     		ldr	r3, [r7, #12]
 1040 00d0 1B68     		ldr	r3, [r3]
 1041 00d2 9A62     		str	r2, [r3, #40]
 1042              	.L45:
 740:Drivers/STM32F7xx_HAL_Driver/Src/stm32f7xx_hal_uart.c ****     {
 1043              		.loc 1 740 0
 1044 00d4 FB68     		ldr	r3, [r7, #12]
 1045 00d6 B3F85230 		ldrh	r3, [r3, #82]	@ movhi
 1046 00da 9BB2     		uxth	r3, r3
 1047 00dc 002B     		cmp	r3, #0
 1048 00de C5D1     		bne	.L48
 756:Drivers/STM32F7xx_HAL_Driver/Src/stm32f7xx_hal_uart.c ****       }
 757:Drivers/STM32F7xx_HAL_Driver/Src/stm32f7xx_hal_uart.c ****     }
 758:Drivers/STM32F7xx_HAL_Driver/Src/stm32f7xx_hal_uart.c ****     if(UART_WaitOnFlagUntilTimeout(huart, UART_FLAG_TC, RESET, tickstart, Timeout) != HAL_OK)
 1049              		.loc 1 758 0
 1050 00e0 3B68     		ldr	r3, [r7]
 1051 00e2 0093     		str	r3, [sp]
 1052 00e4 7B69     		ldr	r3, [r7, #20]
 1053 00e6 0022     		movs	r2, #0
 1054 00e8 4021     		movs	r1, #64
 1055 00ea F868     		ldr	r0, [r7, #12]
 1056 00ec FFF7FEFF 		bl	UART_WaitOnFlagUntilTimeout
 1057 00f0 0346     		mov	r3, r0
 1058 00f2 002B     		cmp	r3, #0
 1059 00f4 01D0     		beq	.L49
 759:Drivers/STM32F7xx_HAL_Driver/Src/stm32f7xx_hal_uart.c ****     {
 760:Drivers/STM32F7xx_HAL_Driver/Src/stm32f7xx_hal_uart.c ****       return HAL_TIMEOUT;
 1060              		.loc 1 760 0
 1061 00f6 0323     		movs	r3, #3
 1062 00f8 0AE0     		b	.L43
 1063              	.L49:
 761:Drivers/STM32F7xx_HAL_Driver/Src/stm32f7xx_hal_uart.c ****     }
 762:Drivers/STM32F7xx_HAL_Driver/Src/stm32f7xx_hal_uart.c **** 
 763:Drivers/STM32F7xx_HAL_Driver/Src/stm32f7xx_hal_uart.c ****     /* At end of Tx process, restore huart->gState to Ready */
 764:Drivers/STM32F7xx_HAL_Driver/Src/stm32f7xx_hal_uart.c ****     huart->gState = HAL_UART_STATE_READY;
 1064              		.loc 1 764 0
 1065 00fa FB68     		ldr	r3, [r7, #12]
 1066 00fc 2022     		movs	r2, #32
 1067 00fe 83F86920 		strb	r2, [r3, #105]
 765:Drivers/STM32F7xx_HAL_Driver/Src/stm32f7xx_hal_uart.c **** 
 766:Drivers/STM32F7xx_HAL_Driver/Src/stm32f7xx_hal_uart.c ****     /* Process Unlocked */
 767:Drivers/STM32F7xx_HAL_Driver/Src/stm32f7xx_hal_uart.c ****     __HAL_UNLOCK(huart);
 1068              		.loc 1 767 0
 1069 0102 FB68     		ldr	r3, [r7, #12]
 1070 0104 0022     		movs	r2, #0
 1071 0106 83F86820 		strb	r2, [r3, #104]
 768:Drivers/STM32F7xx_HAL_Driver/Src/stm32f7xx_hal_uart.c **** 
 769:Drivers/STM32F7xx_HAL_Driver/Src/stm32f7xx_hal_uart.c ****     return HAL_OK;
ARM GAS  /tmp/ccvy8ygO.s 			page 33


 1072              		.loc 1 769 0
 1073 010a 0023     		movs	r3, #0
 1074 010c 00E0     		b	.L43
 1075              	.L40:
 770:Drivers/STM32F7xx_HAL_Driver/Src/stm32f7xx_hal_uart.c ****   }
 771:Drivers/STM32F7xx_HAL_Driver/Src/stm32f7xx_hal_uart.c ****   else
 772:Drivers/STM32F7xx_HAL_Driver/Src/stm32f7xx_hal_uart.c ****   {
 773:Drivers/STM32F7xx_HAL_Driver/Src/stm32f7xx_hal_uart.c ****     return HAL_BUSY;
 1076              		.loc 1 773 0
 1077 010e 0223     		movs	r3, #2
 1078              	.L43:
 774:Drivers/STM32F7xx_HAL_Driver/Src/stm32f7xx_hal_uart.c ****   }
 775:Drivers/STM32F7xx_HAL_Driver/Src/stm32f7xx_hal_uart.c **** }
 1079              		.loc 1 775 0
 1080 0110 1846     		mov	r0, r3
 1081 0112 1837     		adds	r7, r7, #24
 1082              	.LCFI45:
 1083              		.cfi_def_cfa_offset 8
 1084 0114 BD46     		mov	sp, r7
 1085              	.LCFI46:
 1086              		.cfi_def_cfa_register 13
 1087              		@ sp needed
 1088 0116 80BD     		pop	{r7, pc}
 1089              		.cfi_endproc
 1090              	.LFE146:
 1092              		.section	.text.HAL_UART_Receive,"ax",%progbits
 1093              		.align	1
 1094              		.global	HAL_UART_Receive
 1095              		.syntax unified
 1096              		.thumb
 1097              		.thumb_func
 1098              		.fpu fpv4-sp-d16
 1100              	HAL_UART_Receive:
 1101              	.LFB147:
 776:Drivers/STM32F7xx_HAL_Driver/Src/stm32f7xx_hal_uart.c **** 
 777:Drivers/STM32F7xx_HAL_Driver/Src/stm32f7xx_hal_uart.c **** /**
 778:Drivers/STM32F7xx_HAL_Driver/Src/stm32f7xx_hal_uart.c ****   * @brief Receive an amount of data in blocking mode.
 779:Drivers/STM32F7xx_HAL_Driver/Src/stm32f7xx_hal_uart.c ****   * @param huart UART handle.
 780:Drivers/STM32F7xx_HAL_Driver/Src/stm32f7xx_hal_uart.c ****   * @param pData pointer to data buffer.
 781:Drivers/STM32F7xx_HAL_Driver/Src/stm32f7xx_hal_uart.c ****   * @param Size amount of data to be received.
 782:Drivers/STM32F7xx_HAL_Driver/Src/stm32f7xx_hal_uart.c ****   * @param Timeout Timeout duration.
 783:Drivers/STM32F7xx_HAL_Driver/Src/stm32f7xx_hal_uart.c ****   * @retval HAL status
 784:Drivers/STM32F7xx_HAL_Driver/Src/stm32f7xx_hal_uart.c ****   */
 785:Drivers/STM32F7xx_HAL_Driver/Src/stm32f7xx_hal_uart.c **** HAL_StatusTypeDef HAL_UART_Receive(UART_HandleTypeDef *huart, uint8_t *pData, uint16_t Size, uint32
 786:Drivers/STM32F7xx_HAL_Driver/Src/stm32f7xx_hal_uart.c **** {
 1102              		.loc 1 786 0
 1103              		.cfi_startproc
 1104              		@ args = 0, pretend = 0, frame = 32
 1105              		@ frame_needed = 1, uses_anonymous_args = 0
 1106 0000 80B5     		push	{r7, lr}
 1107              	.LCFI47:
 1108              		.cfi_def_cfa_offset 8
 1109              		.cfi_offset 7, -8
 1110              		.cfi_offset 14, -4
 1111 0002 8AB0     		sub	sp, sp, #40
 1112              	.LCFI48:
 1113              		.cfi_def_cfa_offset 48
ARM GAS  /tmp/ccvy8ygO.s 			page 34


 1114 0004 02AF     		add	r7, sp, #8
 1115              	.LCFI49:
 1116              		.cfi_def_cfa 7, 40
 1117 0006 F860     		str	r0, [r7, #12]
 1118 0008 B960     		str	r1, [r7, #8]
 1119 000a 3B60     		str	r3, [r7]
 1120 000c 1346     		mov	r3, r2	@ movhi
 1121 000e FB80     		strh	r3, [r7, #6]	@ movhi
 787:Drivers/STM32F7xx_HAL_Driver/Src/stm32f7xx_hal_uart.c ****   uint16_t* tmp;
 788:Drivers/STM32F7xx_HAL_Driver/Src/stm32f7xx_hal_uart.c ****   uint16_t uhMask;
 789:Drivers/STM32F7xx_HAL_Driver/Src/stm32f7xx_hal_uart.c ****   uint32_t tickstart = 0U;
 1122              		.loc 1 789 0
 1123 0010 0023     		movs	r3, #0
 1124 0012 FB61     		str	r3, [r7, #28]
 790:Drivers/STM32F7xx_HAL_Driver/Src/stm32f7xx_hal_uart.c **** 
 791:Drivers/STM32F7xx_HAL_Driver/Src/stm32f7xx_hal_uart.c ****   /* Check that a Rx process is not already ongoing */
 792:Drivers/STM32F7xx_HAL_Driver/Src/stm32f7xx_hal_uart.c ****   if(huart->RxState == HAL_UART_STATE_READY)
 1125              		.loc 1 792 0
 1126 0014 FB68     		ldr	r3, [r7, #12]
 1127 0016 93F86A30 		ldrb	r3, [r3, #106]
 1128 001a DBB2     		uxtb	r3, r3
 1129 001c 202B     		cmp	r3, #32
 1130 001e 40F0AC80 		bne	.L51
 793:Drivers/STM32F7xx_HAL_Driver/Src/stm32f7xx_hal_uart.c ****   {
 794:Drivers/STM32F7xx_HAL_Driver/Src/stm32f7xx_hal_uart.c ****     if((pData == NULL ) || (Size == 0U))
 1131              		.loc 1 794 0
 1132 0022 BB68     		ldr	r3, [r7, #8]
 1133 0024 002B     		cmp	r3, #0
 1134 0026 02D0     		beq	.L52
 1135              		.loc 1 794 0 is_stmt 0 discriminator 1
 1136 0028 FB88     		ldrh	r3, [r7, #6]
 1137 002a 002B     		cmp	r3, #0
 1138 002c 01D1     		bne	.L53
 1139              	.L52:
 795:Drivers/STM32F7xx_HAL_Driver/Src/stm32f7xx_hal_uart.c ****     {
 796:Drivers/STM32F7xx_HAL_Driver/Src/stm32f7xx_hal_uart.c ****       return  HAL_ERROR;
 1140              		.loc 1 796 0 is_stmt 1
 1141 002e 0123     		movs	r3, #1
 1142 0030 A4E0     		b	.L54
 1143              	.L53:
 797:Drivers/STM32F7xx_HAL_Driver/Src/stm32f7xx_hal_uart.c ****     }
 798:Drivers/STM32F7xx_HAL_Driver/Src/stm32f7xx_hal_uart.c **** 
 799:Drivers/STM32F7xx_HAL_Driver/Src/stm32f7xx_hal_uart.c ****     /* Process Locked */
 800:Drivers/STM32F7xx_HAL_Driver/Src/stm32f7xx_hal_uart.c ****     __HAL_LOCK(huart);
 1144              		.loc 1 800 0
 1145 0032 FB68     		ldr	r3, [r7, #12]
 1146 0034 93F86830 		ldrb	r3, [r3, #104]	@ zero_extendqisi2
 1147 0038 012B     		cmp	r3, #1
 1148 003a 01D1     		bne	.L55
 1149              		.loc 1 800 0 is_stmt 0 discriminator 1
 1150 003c 0223     		movs	r3, #2
 1151 003e 9DE0     		b	.L54
 1152              	.L55:
 1153              		.loc 1 800 0 discriminator 2
 1154 0040 FB68     		ldr	r3, [r7, #12]
 1155 0042 0122     		movs	r2, #1
 1156 0044 83F86820 		strb	r2, [r3, #104]
ARM GAS  /tmp/ccvy8ygO.s 			page 35


 801:Drivers/STM32F7xx_HAL_Driver/Src/stm32f7xx_hal_uart.c **** 
 802:Drivers/STM32F7xx_HAL_Driver/Src/stm32f7xx_hal_uart.c ****     huart->ErrorCode = HAL_UART_ERROR_NONE;
 1157              		.loc 1 802 0 is_stmt 1 discriminator 2
 1158 0048 FB68     		ldr	r3, [r7, #12]
 1159 004a 0022     		movs	r2, #0
 1160 004c DA66     		str	r2, [r3, #108]
 803:Drivers/STM32F7xx_HAL_Driver/Src/stm32f7xx_hal_uart.c ****     huart->RxState = HAL_UART_STATE_BUSY_RX;
 1161              		.loc 1 803 0 discriminator 2
 1162 004e FB68     		ldr	r3, [r7, #12]
 1163 0050 2222     		movs	r2, #34
 1164 0052 83F86A20 		strb	r2, [r3, #106]
 804:Drivers/STM32F7xx_HAL_Driver/Src/stm32f7xx_hal_uart.c **** 
 805:Drivers/STM32F7xx_HAL_Driver/Src/stm32f7xx_hal_uart.c ****     /* Init tickstart for timeout managment*/
 806:Drivers/STM32F7xx_HAL_Driver/Src/stm32f7xx_hal_uart.c ****     tickstart = HAL_GetTick();
 1165              		.loc 1 806 0 discriminator 2
 1166 0056 FFF7FEFF 		bl	HAL_GetTick
 1167 005a F861     		str	r0, [r7, #28]
 807:Drivers/STM32F7xx_HAL_Driver/Src/stm32f7xx_hal_uart.c **** 
 808:Drivers/STM32F7xx_HAL_Driver/Src/stm32f7xx_hal_uart.c ****     huart->RxXferSize = Size;
 1168              		.loc 1 808 0 discriminator 2
 1169 005c FB68     		ldr	r3, [r7, #12]
 1170 005e FA88     		ldrh	r2, [r7, #6]	@ movhi
 1171 0060 A3F85820 		strh	r2, [r3, #88]	@ movhi
 809:Drivers/STM32F7xx_HAL_Driver/Src/stm32f7xx_hal_uart.c ****     huart->RxXferCount = Size;
 1172              		.loc 1 809 0 discriminator 2
 1173 0064 FB68     		ldr	r3, [r7, #12]
 1174 0066 FA88     		ldrh	r2, [r7, #6]	@ movhi
 1175 0068 A3F85A20 		strh	r2, [r3, #90]	@ movhi
 810:Drivers/STM32F7xx_HAL_Driver/Src/stm32f7xx_hal_uart.c **** 
 811:Drivers/STM32F7xx_HAL_Driver/Src/stm32f7xx_hal_uart.c ****     /* Computation of UART mask to apply to RDR register */
 812:Drivers/STM32F7xx_HAL_Driver/Src/stm32f7xx_hal_uart.c ****     UART_MASK_COMPUTATION(huart);
 1176              		.loc 1 812 0 discriminator 2
 1177 006c FB68     		ldr	r3, [r7, #12]
 1178 006e 9B68     		ldr	r3, [r3, #8]
 1179 0070 B3F5805F 		cmp	r3, #4096
 1180 0074 0ED1     		bne	.L56
 1181              		.loc 1 812 0 is_stmt 0 discriminator 1
 1182 0076 FB68     		ldr	r3, [r7, #12]
 1183 0078 1B69     		ldr	r3, [r3, #16]
 1184 007a 002B     		cmp	r3, #0
 1185 007c 05D1     		bne	.L57
 1186              		.loc 1 812 0 discriminator 3
 1187 007e FB68     		ldr	r3, [r7, #12]
 1188 0080 40F2FF12 		movw	r2, #511
 1189 0084 A3F85C20 		strh	r2, [r3, #92]	@ movhi
 1190 0088 28E0     		b	.L59
 1191              	.L57:
 1192              		.loc 1 812 0 discriminator 4
 1193 008a FB68     		ldr	r3, [r7, #12]
 1194 008c FF22     		movs	r2, #255
 1195 008e A3F85C20 		strh	r2, [r3, #92]	@ movhi
 1196 0092 23E0     		b	.L59
 1197              	.L56:
 1198              		.loc 1 812 0 discriminator 2
 1199 0094 FB68     		ldr	r3, [r7, #12]
 1200 0096 9B68     		ldr	r3, [r3, #8]
 1201 0098 002B     		cmp	r3, #0
ARM GAS  /tmp/ccvy8ygO.s 			page 36


 1202 009a 0DD1     		bne	.L60
 1203              		.loc 1 812 0 discriminator 5
 1204 009c FB68     		ldr	r3, [r7, #12]
 1205 009e 1B69     		ldr	r3, [r3, #16]
 1206 00a0 002B     		cmp	r3, #0
 1207 00a2 04D1     		bne	.L61
 1208              		.loc 1 812 0 discriminator 7
 1209 00a4 FB68     		ldr	r3, [r7, #12]
 1210 00a6 FF22     		movs	r2, #255
 1211 00a8 A3F85C20 		strh	r2, [r3, #92]	@ movhi
 1212 00ac 16E0     		b	.L59
 1213              	.L61:
 1214              		.loc 1 812 0 discriminator 8
 1215 00ae FB68     		ldr	r3, [r7, #12]
 1216 00b0 7F22     		movs	r2, #127
 1217 00b2 A3F85C20 		strh	r2, [r3, #92]	@ movhi
 1218 00b6 11E0     		b	.L59
 1219              	.L60:
 1220              		.loc 1 812 0 discriminator 6
 1221 00b8 FB68     		ldr	r3, [r7, #12]
 1222 00ba 9B68     		ldr	r3, [r3, #8]
 1223 00bc B3F1805F 		cmp	r3, #268435456
 1224 00c0 0CD1     		bne	.L59
 1225              		.loc 1 812 0 discriminator 9
 1226 00c2 FB68     		ldr	r3, [r7, #12]
 1227 00c4 1B69     		ldr	r3, [r3, #16]
 1228 00c6 002B     		cmp	r3, #0
 1229 00c8 04D1     		bne	.L63
 1230              		.loc 1 812 0 discriminator 10
 1231 00ca FB68     		ldr	r3, [r7, #12]
 1232 00cc 7F22     		movs	r2, #127
 1233 00ce A3F85C20 		strh	r2, [r3, #92]	@ movhi
 1234 00d2 03E0     		b	.L59
 1235              	.L63:
 1236              		.loc 1 812 0 discriminator 11
 1237 00d4 FB68     		ldr	r3, [r7, #12]
 1238 00d6 3F22     		movs	r2, #63
 1239 00d8 A3F85C20 		strh	r2, [r3, #92]	@ movhi
 1240              	.L59:
 813:Drivers/STM32F7xx_HAL_Driver/Src/stm32f7xx_hal_uart.c ****     uhMask = huart->Mask;
 1241              		.loc 1 813 0 is_stmt 1
 1242 00dc FB68     		ldr	r3, [r7, #12]
 1243 00de B3F85C30 		ldrh	r3, [r3, #92]	@ movhi
 1244 00e2 7B83     		strh	r3, [r7, #26]	@ movhi
 814:Drivers/STM32F7xx_HAL_Driver/Src/stm32f7xx_hal_uart.c **** 
 815:Drivers/STM32F7xx_HAL_Driver/Src/stm32f7xx_hal_uart.c ****     /* as long as data have to be received */
 816:Drivers/STM32F7xx_HAL_Driver/Src/stm32f7xx_hal_uart.c ****     while(huart->RxXferCount > 0U)
 1245              		.loc 1 816 0
 1246 00e4 39E0     		b	.L64
 1247              	.L67:
 817:Drivers/STM32F7xx_HAL_Driver/Src/stm32f7xx_hal_uart.c ****     {
 818:Drivers/STM32F7xx_HAL_Driver/Src/stm32f7xx_hal_uart.c ****       huart->RxXferCount--;
 1248              		.loc 1 818 0
 1249 00e6 FB68     		ldr	r3, [r7, #12]
 1250 00e8 B3F85A30 		ldrh	r3, [r3, #90]	@ movhi
 1251 00ec 9BB2     		uxth	r3, r3
 1252 00ee 013B     		subs	r3, r3, #1
ARM GAS  /tmp/ccvy8ygO.s 			page 37


 1253 00f0 9AB2     		uxth	r2, r3
 1254 00f2 FB68     		ldr	r3, [r7, #12]
 1255 00f4 A3F85A20 		strh	r2, [r3, #90]	@ movhi
 819:Drivers/STM32F7xx_HAL_Driver/Src/stm32f7xx_hal_uart.c ****       if(UART_WaitOnFlagUntilTimeout(huart, UART_FLAG_RXNE, RESET, tickstart, Timeout) != HAL_OK)
 1256              		.loc 1 819 0
 1257 00f8 3B68     		ldr	r3, [r7]
 1258 00fa 0093     		str	r3, [sp]
 1259 00fc FB69     		ldr	r3, [r7, #28]
 1260 00fe 0022     		movs	r2, #0
 1261 0100 2021     		movs	r1, #32
 1262 0102 F868     		ldr	r0, [r7, #12]
 1263 0104 FFF7FEFF 		bl	UART_WaitOnFlagUntilTimeout
 1264 0108 0346     		mov	r3, r0
 1265 010a 002B     		cmp	r3, #0
 1266 010c 01D0     		beq	.L65
 820:Drivers/STM32F7xx_HAL_Driver/Src/stm32f7xx_hal_uart.c ****       {
 821:Drivers/STM32F7xx_HAL_Driver/Src/stm32f7xx_hal_uart.c ****         return HAL_TIMEOUT;
 1267              		.loc 1 821 0
 1268 010e 0323     		movs	r3, #3
 1269 0110 34E0     		b	.L54
 1270              	.L65:
 822:Drivers/STM32F7xx_HAL_Driver/Src/stm32f7xx_hal_uart.c ****       }
 823:Drivers/STM32F7xx_HAL_Driver/Src/stm32f7xx_hal_uart.c ****       if ((huart->Init.WordLength == UART_WORDLENGTH_9B) && (huart->Init.Parity == UART_PARITY_NONE
 1271              		.loc 1 823 0
 1272 0112 FB68     		ldr	r3, [r7, #12]
 1273 0114 9B68     		ldr	r3, [r3, #8]
 1274 0116 B3F5805F 		cmp	r3, #4096
 1275 011a 12D1     		bne	.L66
 1276              		.loc 1 823 0 is_stmt 0 discriminator 1
 1277 011c FB68     		ldr	r3, [r7, #12]
 1278 011e 1B69     		ldr	r3, [r3, #16]
 1279 0120 002B     		cmp	r3, #0
 1280 0122 0ED1     		bne	.L66
 824:Drivers/STM32F7xx_HAL_Driver/Src/stm32f7xx_hal_uart.c ****       {
 825:Drivers/STM32F7xx_HAL_Driver/Src/stm32f7xx_hal_uart.c ****         tmp = (uint16_t*) pData ;
 1281              		.loc 1 825 0 is_stmt 1
 1282 0124 BB68     		ldr	r3, [r7, #8]
 1283 0126 7B61     		str	r3, [r7, #20]
 826:Drivers/STM32F7xx_HAL_Driver/Src/stm32f7xx_hal_uart.c ****         *tmp = (uint16_t)(huart->Instance->RDR & uhMask);
 1284              		.loc 1 826 0
 1285 0128 FB68     		ldr	r3, [r7, #12]
 1286 012a 1B68     		ldr	r3, [r3]
 1287 012c 5B6A     		ldr	r3, [r3, #36]
 1288 012e 9AB2     		uxth	r2, r3
 1289 0130 7B8B     		ldrh	r3, [r7, #26]	@ movhi
 1290 0132 1340     		ands	r3, r3, r2
 1291 0134 9AB2     		uxth	r2, r3
 1292 0136 7B69     		ldr	r3, [r7, #20]
 1293 0138 1A80     		strh	r2, [r3]	@ movhi
 827:Drivers/STM32F7xx_HAL_Driver/Src/stm32f7xx_hal_uart.c ****         pData +=2U;
 1294              		.loc 1 827 0
 1295 013a BB68     		ldr	r3, [r7, #8]
 1296 013c 0233     		adds	r3, r3, #2
 1297 013e BB60     		str	r3, [r7, #8]
 1298 0140 0BE0     		b	.L64
 1299              	.L66:
 828:Drivers/STM32F7xx_HAL_Driver/Src/stm32f7xx_hal_uart.c ****       }
ARM GAS  /tmp/ccvy8ygO.s 			page 38


 829:Drivers/STM32F7xx_HAL_Driver/Src/stm32f7xx_hal_uart.c ****       else
 830:Drivers/STM32F7xx_HAL_Driver/Src/stm32f7xx_hal_uart.c ****       {
 831:Drivers/STM32F7xx_HAL_Driver/Src/stm32f7xx_hal_uart.c ****         *pData++ = (uint8_t)(huart->Instance->RDR & (uint8_t)uhMask);
 1300              		.loc 1 831 0
 1301 0142 FB68     		ldr	r3, [r7, #12]
 1302 0144 1B68     		ldr	r3, [r3]
 1303 0146 5B6A     		ldr	r3, [r3, #36]
 1304 0148 D9B2     		uxtb	r1, r3
 1305 014a 7B8B     		ldrh	r3, [r7, #26]	@ movhi
 1306 014c DAB2     		uxtb	r2, r3
 1307 014e BB68     		ldr	r3, [r7, #8]
 1308 0150 581C     		adds	r0, r3, #1
 1309 0152 B860     		str	r0, [r7, #8]
 1310 0154 0A40     		ands	r2, r2, r1
 1311 0156 D2B2     		uxtb	r2, r2
 1312 0158 1A70     		strb	r2, [r3]
 1313              	.L64:
 816:Drivers/STM32F7xx_HAL_Driver/Src/stm32f7xx_hal_uart.c ****     {
 1314              		.loc 1 816 0
 1315 015a FB68     		ldr	r3, [r7, #12]
 1316 015c B3F85A30 		ldrh	r3, [r3, #90]	@ movhi
 1317 0160 9BB2     		uxth	r3, r3
 1318 0162 002B     		cmp	r3, #0
 1319 0164 BFD1     		bne	.L67
 832:Drivers/STM32F7xx_HAL_Driver/Src/stm32f7xx_hal_uart.c ****       }
 833:Drivers/STM32F7xx_HAL_Driver/Src/stm32f7xx_hal_uart.c ****     }
 834:Drivers/STM32F7xx_HAL_Driver/Src/stm32f7xx_hal_uart.c **** 
 835:Drivers/STM32F7xx_HAL_Driver/Src/stm32f7xx_hal_uart.c ****     /* At end of Rx process, restore huart->RxState to Ready */
 836:Drivers/STM32F7xx_HAL_Driver/Src/stm32f7xx_hal_uart.c ****     huart->RxState = HAL_UART_STATE_READY;
 1320              		.loc 1 836 0
 1321 0166 FB68     		ldr	r3, [r7, #12]
 1322 0168 2022     		movs	r2, #32
 1323 016a 83F86A20 		strb	r2, [r3, #106]
 837:Drivers/STM32F7xx_HAL_Driver/Src/stm32f7xx_hal_uart.c **** 
 838:Drivers/STM32F7xx_HAL_Driver/Src/stm32f7xx_hal_uart.c ****     /* Process Unlocked */
 839:Drivers/STM32F7xx_HAL_Driver/Src/stm32f7xx_hal_uart.c ****     __HAL_UNLOCK(huart);
 1324              		.loc 1 839 0
 1325 016e FB68     		ldr	r3, [r7, #12]
 1326 0170 0022     		movs	r2, #0
 1327 0172 83F86820 		strb	r2, [r3, #104]
 840:Drivers/STM32F7xx_HAL_Driver/Src/stm32f7xx_hal_uart.c **** 
 841:Drivers/STM32F7xx_HAL_Driver/Src/stm32f7xx_hal_uart.c ****     return HAL_OK;
 1328              		.loc 1 841 0
 1329 0176 0023     		movs	r3, #0
 1330 0178 00E0     		b	.L54
 1331              	.L51:
 842:Drivers/STM32F7xx_HAL_Driver/Src/stm32f7xx_hal_uart.c ****   }
 843:Drivers/STM32F7xx_HAL_Driver/Src/stm32f7xx_hal_uart.c ****   else
 844:Drivers/STM32F7xx_HAL_Driver/Src/stm32f7xx_hal_uart.c ****   {
 845:Drivers/STM32F7xx_HAL_Driver/Src/stm32f7xx_hal_uart.c ****     return HAL_BUSY;
 1332              		.loc 1 845 0
 1333 017a 0223     		movs	r3, #2
 1334              	.L54:
 846:Drivers/STM32F7xx_HAL_Driver/Src/stm32f7xx_hal_uart.c ****   }
 847:Drivers/STM32F7xx_HAL_Driver/Src/stm32f7xx_hal_uart.c **** }
 1335              		.loc 1 847 0
 1336 017c 1846     		mov	r0, r3
ARM GAS  /tmp/ccvy8ygO.s 			page 39


 1337 017e 2037     		adds	r7, r7, #32
 1338              	.LCFI50:
 1339              		.cfi_def_cfa_offset 8
 1340 0180 BD46     		mov	sp, r7
 1341              	.LCFI51:
 1342              		.cfi_def_cfa_register 13
 1343              		@ sp needed
 1344 0182 80BD     		pop	{r7, pc}
 1345              		.cfi_endproc
 1346              	.LFE147:
 1348              		.section	.text.HAL_UART_Transmit_IT,"ax",%progbits
 1349              		.align	1
 1350              		.global	HAL_UART_Transmit_IT
 1351              		.syntax unified
 1352              		.thumb
 1353              		.thumb_func
 1354              		.fpu fpv4-sp-d16
 1356              	HAL_UART_Transmit_IT:
 1357              	.LFB148:
 848:Drivers/STM32F7xx_HAL_Driver/Src/stm32f7xx_hal_uart.c **** 
 849:Drivers/STM32F7xx_HAL_Driver/Src/stm32f7xx_hal_uart.c **** /**
 850:Drivers/STM32F7xx_HAL_Driver/Src/stm32f7xx_hal_uart.c ****   * @brief Send an amount of data in interrupt mode.
 851:Drivers/STM32F7xx_HAL_Driver/Src/stm32f7xx_hal_uart.c ****   * @param huart UART handle.
 852:Drivers/STM32F7xx_HAL_Driver/Src/stm32f7xx_hal_uart.c ****   * @param pData pointer to data buffer.
 853:Drivers/STM32F7xx_HAL_Driver/Src/stm32f7xx_hal_uart.c ****   * @param Size amount of data to be sent.
 854:Drivers/STM32F7xx_HAL_Driver/Src/stm32f7xx_hal_uart.c ****   * @retval HAL status
 855:Drivers/STM32F7xx_HAL_Driver/Src/stm32f7xx_hal_uart.c ****   */
 856:Drivers/STM32F7xx_HAL_Driver/Src/stm32f7xx_hal_uart.c **** HAL_StatusTypeDef HAL_UART_Transmit_IT(UART_HandleTypeDef *huart, uint8_t *pData, uint16_t Size)
 857:Drivers/STM32F7xx_HAL_Driver/Src/stm32f7xx_hal_uart.c **** {
 1358              		.loc 1 857 0
 1359              		.cfi_startproc
 1360              		@ args = 0, pretend = 0, frame = 16
 1361              		@ frame_needed = 1, uses_anonymous_args = 0
 1362              		@ link register save eliminated.
 1363 0000 80B4     		push	{r7}
 1364              	.LCFI52:
 1365              		.cfi_def_cfa_offset 4
 1366              		.cfi_offset 7, -4
 1367 0002 85B0     		sub	sp, sp, #20
 1368              	.LCFI53:
 1369              		.cfi_def_cfa_offset 24
 1370 0004 00AF     		add	r7, sp, #0
 1371              	.LCFI54:
 1372              		.cfi_def_cfa_register 7
 1373 0006 F860     		str	r0, [r7, #12]
 1374 0008 B960     		str	r1, [r7, #8]
 1375 000a 1346     		mov	r3, r2
 1376 000c FB80     		strh	r3, [r7, #6]	@ movhi
 858:Drivers/STM32F7xx_HAL_Driver/Src/stm32f7xx_hal_uart.c ****   /* Check that a Tx process is not already ongoing */
 859:Drivers/STM32F7xx_HAL_Driver/Src/stm32f7xx_hal_uart.c ****   if(huart->gState == HAL_UART_STATE_READY)
 1377              		.loc 1 859 0
 1378 000e FB68     		ldr	r3, [r7, #12]
 1379 0010 93F86930 		ldrb	r3, [r3, #105]
 1380 0014 DBB2     		uxtb	r3, r3
 1381 0016 202B     		cmp	r3, #32
 1382 0018 32D1     		bne	.L69
 860:Drivers/STM32F7xx_HAL_Driver/Src/stm32f7xx_hal_uart.c ****   {
ARM GAS  /tmp/ccvy8ygO.s 			page 40


 861:Drivers/STM32F7xx_HAL_Driver/Src/stm32f7xx_hal_uart.c ****     if((pData == NULL ) || (Size == 0U))
 1383              		.loc 1 861 0
 1384 001a BB68     		ldr	r3, [r7, #8]
 1385 001c 002B     		cmp	r3, #0
 1386 001e 02D0     		beq	.L70
 1387              		.loc 1 861 0 is_stmt 0 discriminator 1
 1388 0020 FB88     		ldrh	r3, [r7, #6]
 1389 0022 002B     		cmp	r3, #0
 1390 0024 01D1     		bne	.L71
 1391              	.L70:
 862:Drivers/STM32F7xx_HAL_Driver/Src/stm32f7xx_hal_uart.c ****     {
 863:Drivers/STM32F7xx_HAL_Driver/Src/stm32f7xx_hal_uart.c ****       return HAL_ERROR;
 1392              		.loc 1 863 0 is_stmt 1
 1393 0026 0123     		movs	r3, #1
 1394 0028 2BE0     		b	.L72
 1395              	.L71:
 864:Drivers/STM32F7xx_HAL_Driver/Src/stm32f7xx_hal_uart.c ****     }
 865:Drivers/STM32F7xx_HAL_Driver/Src/stm32f7xx_hal_uart.c **** 
 866:Drivers/STM32F7xx_HAL_Driver/Src/stm32f7xx_hal_uart.c ****     /* Process Locked */
 867:Drivers/STM32F7xx_HAL_Driver/Src/stm32f7xx_hal_uart.c ****     __HAL_LOCK(huart);
 1396              		.loc 1 867 0
 1397 002a FB68     		ldr	r3, [r7, #12]
 1398 002c 93F86830 		ldrb	r3, [r3, #104]	@ zero_extendqisi2
 1399 0030 012B     		cmp	r3, #1
 1400 0032 01D1     		bne	.L73
 1401              		.loc 1 867 0 is_stmt 0 discriminator 1
 1402 0034 0223     		movs	r3, #2
 1403 0036 24E0     		b	.L72
 1404              	.L73:
 1405              		.loc 1 867 0 discriminator 2
 1406 0038 FB68     		ldr	r3, [r7, #12]
 1407 003a 0122     		movs	r2, #1
 1408 003c 83F86820 		strb	r2, [r3, #104]
 868:Drivers/STM32F7xx_HAL_Driver/Src/stm32f7xx_hal_uart.c **** 
 869:Drivers/STM32F7xx_HAL_Driver/Src/stm32f7xx_hal_uart.c ****     huart->pTxBuffPtr = pData;
 1409              		.loc 1 869 0 is_stmt 1 discriminator 2
 1410 0040 FB68     		ldr	r3, [r7, #12]
 1411 0042 BA68     		ldr	r2, [r7, #8]
 1412 0044 DA64     		str	r2, [r3, #76]
 870:Drivers/STM32F7xx_HAL_Driver/Src/stm32f7xx_hal_uart.c ****     huart->TxXferSize = Size;
 1413              		.loc 1 870 0 discriminator 2
 1414 0046 FB68     		ldr	r3, [r7, #12]
 1415 0048 FA88     		ldrh	r2, [r7, #6]	@ movhi
 1416 004a A3F85020 		strh	r2, [r3, #80]	@ movhi
 871:Drivers/STM32F7xx_HAL_Driver/Src/stm32f7xx_hal_uart.c ****     huart->TxXferCount = Size;
 1417              		.loc 1 871 0 discriminator 2
 1418 004e FB68     		ldr	r3, [r7, #12]
 1419 0050 FA88     		ldrh	r2, [r7, #6]	@ movhi
 1420 0052 A3F85220 		strh	r2, [r3, #82]	@ movhi
 872:Drivers/STM32F7xx_HAL_Driver/Src/stm32f7xx_hal_uart.c **** 
 873:Drivers/STM32F7xx_HAL_Driver/Src/stm32f7xx_hal_uart.c ****     huart->ErrorCode = HAL_UART_ERROR_NONE;
 1421              		.loc 1 873 0 discriminator 2
 1422 0056 FB68     		ldr	r3, [r7, #12]
 1423 0058 0022     		movs	r2, #0
 1424 005a DA66     		str	r2, [r3, #108]
 874:Drivers/STM32F7xx_HAL_Driver/Src/stm32f7xx_hal_uart.c ****     huart->gState = HAL_UART_STATE_BUSY_TX;
 1425              		.loc 1 874 0 discriminator 2
ARM GAS  /tmp/ccvy8ygO.s 			page 41


 1426 005c FB68     		ldr	r3, [r7, #12]
 1427 005e 2122     		movs	r2, #33
 1428 0060 83F86920 		strb	r2, [r3, #105]
 875:Drivers/STM32F7xx_HAL_Driver/Src/stm32f7xx_hal_uart.c **** 
 876:Drivers/STM32F7xx_HAL_Driver/Src/stm32f7xx_hal_uart.c ****     /* Process Unlocked */
 877:Drivers/STM32F7xx_HAL_Driver/Src/stm32f7xx_hal_uart.c ****     __HAL_UNLOCK(huart);
 1429              		.loc 1 877 0 discriminator 2
 1430 0064 FB68     		ldr	r3, [r7, #12]
 1431 0066 0022     		movs	r2, #0
 1432 0068 83F86820 		strb	r2, [r3, #104]
 878:Drivers/STM32F7xx_HAL_Driver/Src/stm32f7xx_hal_uart.c **** 
 879:Drivers/STM32F7xx_HAL_Driver/Src/stm32f7xx_hal_uart.c ****     /* Enable the UART Transmit Data Register Empty Interrupt */
 880:Drivers/STM32F7xx_HAL_Driver/Src/stm32f7xx_hal_uart.c ****     SET_BIT(huart->Instance->CR1, USART_CR1_TXEIE);
 1433              		.loc 1 880 0 discriminator 2
 1434 006c FB68     		ldr	r3, [r7, #12]
 1435 006e 1B68     		ldr	r3, [r3]
 1436 0070 1A68     		ldr	r2, [r3]
 1437 0072 FB68     		ldr	r3, [r7, #12]
 1438 0074 1B68     		ldr	r3, [r3]
 1439 0076 42F08002 		orr	r2, r2, #128
 1440 007a 1A60     		str	r2, [r3]
 881:Drivers/STM32F7xx_HAL_Driver/Src/stm32f7xx_hal_uart.c **** 
 882:Drivers/STM32F7xx_HAL_Driver/Src/stm32f7xx_hal_uart.c ****     return HAL_OK;
 1441              		.loc 1 882 0 discriminator 2
 1442 007c 0023     		movs	r3, #0
 1443 007e 00E0     		b	.L72
 1444              	.L69:
 883:Drivers/STM32F7xx_HAL_Driver/Src/stm32f7xx_hal_uart.c ****   }
 884:Drivers/STM32F7xx_HAL_Driver/Src/stm32f7xx_hal_uart.c ****   else
 885:Drivers/STM32F7xx_HAL_Driver/Src/stm32f7xx_hal_uart.c ****   {
 886:Drivers/STM32F7xx_HAL_Driver/Src/stm32f7xx_hal_uart.c ****     return HAL_BUSY;
 1445              		.loc 1 886 0
 1446 0080 0223     		movs	r3, #2
 1447              	.L72:
 887:Drivers/STM32F7xx_HAL_Driver/Src/stm32f7xx_hal_uart.c ****   }
 888:Drivers/STM32F7xx_HAL_Driver/Src/stm32f7xx_hal_uart.c **** }
 1448              		.loc 1 888 0
 1449 0082 1846     		mov	r0, r3
 1450 0084 1437     		adds	r7, r7, #20
 1451              	.LCFI55:
 1452              		.cfi_def_cfa_offset 4
 1453 0086 BD46     		mov	sp, r7
 1454              	.LCFI56:
 1455              		.cfi_def_cfa_register 13
 1456              		@ sp needed
 1457 0088 5DF8047B 		ldr	r7, [sp], #4
 1458              	.LCFI57:
 1459              		.cfi_restore 7
 1460              		.cfi_def_cfa_offset 0
 1461 008c 7047     		bx	lr
 1462              		.cfi_endproc
 1463              	.LFE148:
 1465              		.section	.text.HAL_UART_Receive_IT,"ax",%progbits
 1466              		.align	1
 1467              		.global	HAL_UART_Receive_IT
 1468              		.syntax unified
 1469              		.thumb
ARM GAS  /tmp/ccvy8ygO.s 			page 42


 1470              		.thumb_func
 1471              		.fpu fpv4-sp-d16
 1473              	HAL_UART_Receive_IT:
 1474              	.LFB149:
 889:Drivers/STM32F7xx_HAL_Driver/Src/stm32f7xx_hal_uart.c **** 
 890:Drivers/STM32F7xx_HAL_Driver/Src/stm32f7xx_hal_uart.c **** /**
 891:Drivers/STM32F7xx_HAL_Driver/Src/stm32f7xx_hal_uart.c ****   * @brief Receive an amount of data in interrupt mode.
 892:Drivers/STM32F7xx_HAL_Driver/Src/stm32f7xx_hal_uart.c ****   * @param huart UART handle.
 893:Drivers/STM32F7xx_HAL_Driver/Src/stm32f7xx_hal_uart.c ****   * @param pData pointer to data buffer.
 894:Drivers/STM32F7xx_HAL_Driver/Src/stm32f7xx_hal_uart.c ****   * @param Size amount of data to be received.
 895:Drivers/STM32F7xx_HAL_Driver/Src/stm32f7xx_hal_uart.c ****   * @retval HAL status
 896:Drivers/STM32F7xx_HAL_Driver/Src/stm32f7xx_hal_uart.c ****   */
 897:Drivers/STM32F7xx_HAL_Driver/Src/stm32f7xx_hal_uart.c **** HAL_StatusTypeDef HAL_UART_Receive_IT(UART_HandleTypeDef *huart, uint8_t *pData, uint16_t Size)
 898:Drivers/STM32F7xx_HAL_Driver/Src/stm32f7xx_hal_uart.c **** {
 1475              		.loc 1 898 0
 1476              		.cfi_startproc
 1477              		@ args = 0, pretend = 0, frame = 16
 1478              		@ frame_needed = 1, uses_anonymous_args = 0
 1479              		@ link register save eliminated.
 1480 0000 80B4     		push	{r7}
 1481              	.LCFI58:
 1482              		.cfi_def_cfa_offset 4
 1483              		.cfi_offset 7, -4
 1484 0002 85B0     		sub	sp, sp, #20
 1485              	.LCFI59:
 1486              		.cfi_def_cfa_offset 24
 1487 0004 00AF     		add	r7, sp, #0
 1488              	.LCFI60:
 1489              		.cfi_def_cfa_register 7
 1490 0006 F860     		str	r0, [r7, #12]
 1491 0008 B960     		str	r1, [r7, #8]
 1492 000a 1346     		mov	r3, r2
 1493 000c FB80     		strh	r3, [r7, #6]	@ movhi
 899:Drivers/STM32F7xx_HAL_Driver/Src/stm32f7xx_hal_uart.c ****   /* Check that a Rx process is not already ongoing */
 900:Drivers/STM32F7xx_HAL_Driver/Src/stm32f7xx_hal_uart.c ****   if(huart->RxState == HAL_UART_STATE_READY)
 1494              		.loc 1 900 0
 1495 000e FB68     		ldr	r3, [r7, #12]
 1496 0010 93F86A30 		ldrb	r3, [r3, #106]
 1497 0014 DBB2     		uxtb	r3, r3
 1498 0016 202B     		cmp	r3, #32
 1499 0018 72D1     		bne	.L75
 901:Drivers/STM32F7xx_HAL_Driver/Src/stm32f7xx_hal_uart.c ****   {
 902:Drivers/STM32F7xx_HAL_Driver/Src/stm32f7xx_hal_uart.c ****     if((pData == NULL ) || (Size == 0U))
 1500              		.loc 1 902 0
 1501 001a BB68     		ldr	r3, [r7, #8]
 1502 001c 002B     		cmp	r3, #0
 1503 001e 02D0     		beq	.L76
 1504              		.loc 1 902 0 is_stmt 0 discriminator 1
 1505 0020 FB88     		ldrh	r3, [r7, #6]
 1506 0022 002B     		cmp	r3, #0
 1507 0024 01D1     		bne	.L77
 1508              	.L76:
 903:Drivers/STM32F7xx_HAL_Driver/Src/stm32f7xx_hal_uart.c ****     {
 904:Drivers/STM32F7xx_HAL_Driver/Src/stm32f7xx_hal_uart.c ****       return HAL_ERROR;
 1509              		.loc 1 904 0 is_stmt 1
 1510 0026 0123     		movs	r3, #1
 1511 0028 6BE0     		b	.L78
ARM GAS  /tmp/ccvy8ygO.s 			page 43


 1512              	.L77:
 905:Drivers/STM32F7xx_HAL_Driver/Src/stm32f7xx_hal_uart.c ****     }
 906:Drivers/STM32F7xx_HAL_Driver/Src/stm32f7xx_hal_uart.c **** 
 907:Drivers/STM32F7xx_HAL_Driver/Src/stm32f7xx_hal_uart.c ****     /* Process Locked */
 908:Drivers/STM32F7xx_HAL_Driver/Src/stm32f7xx_hal_uart.c ****     __HAL_LOCK(huart);
 1513              		.loc 1 908 0
 1514 002a FB68     		ldr	r3, [r7, #12]
 1515 002c 93F86830 		ldrb	r3, [r3, #104]	@ zero_extendqisi2
 1516 0030 012B     		cmp	r3, #1
 1517 0032 01D1     		bne	.L79
 1518              		.loc 1 908 0 is_stmt 0 discriminator 1
 1519 0034 0223     		movs	r3, #2
 1520 0036 64E0     		b	.L78
 1521              	.L79:
 1522              		.loc 1 908 0 discriminator 2
 1523 0038 FB68     		ldr	r3, [r7, #12]
 1524 003a 0122     		movs	r2, #1
 1525 003c 83F86820 		strb	r2, [r3, #104]
 909:Drivers/STM32F7xx_HAL_Driver/Src/stm32f7xx_hal_uart.c **** 
 910:Drivers/STM32F7xx_HAL_Driver/Src/stm32f7xx_hal_uart.c ****     huart->pRxBuffPtr = pData;
 1526              		.loc 1 910 0 is_stmt 1 discriminator 2
 1527 0040 FB68     		ldr	r3, [r7, #12]
 1528 0042 BA68     		ldr	r2, [r7, #8]
 1529 0044 5A65     		str	r2, [r3, #84]
 911:Drivers/STM32F7xx_HAL_Driver/Src/stm32f7xx_hal_uart.c ****     huart->RxXferSize = Size;
 1530              		.loc 1 911 0 discriminator 2
 1531 0046 FB68     		ldr	r3, [r7, #12]
 1532 0048 FA88     		ldrh	r2, [r7, #6]	@ movhi
 1533 004a A3F85820 		strh	r2, [r3, #88]	@ movhi
 912:Drivers/STM32F7xx_HAL_Driver/Src/stm32f7xx_hal_uart.c ****     huart->RxXferCount = Size;
 1534              		.loc 1 912 0 discriminator 2
 1535 004e FB68     		ldr	r3, [r7, #12]
 1536 0050 FA88     		ldrh	r2, [r7, #6]	@ movhi
 1537 0052 A3F85A20 		strh	r2, [r3, #90]	@ movhi
 913:Drivers/STM32F7xx_HAL_Driver/Src/stm32f7xx_hal_uart.c **** 
 914:Drivers/STM32F7xx_HAL_Driver/Src/stm32f7xx_hal_uart.c ****     /* Computation of UART mask to apply to RDR register */
 915:Drivers/STM32F7xx_HAL_Driver/Src/stm32f7xx_hal_uart.c ****     UART_MASK_COMPUTATION(huart);
 1538              		.loc 1 915 0 discriminator 2
 1539 0056 FB68     		ldr	r3, [r7, #12]
 1540 0058 9B68     		ldr	r3, [r3, #8]
 1541 005a B3F5805F 		cmp	r3, #4096
 1542 005e 0ED1     		bne	.L80
 1543              		.loc 1 915 0 is_stmt 0 discriminator 1
 1544 0060 FB68     		ldr	r3, [r7, #12]
 1545 0062 1B69     		ldr	r3, [r3, #16]
 1546 0064 002B     		cmp	r3, #0
 1547 0066 05D1     		bne	.L81
 1548              		.loc 1 915 0 discriminator 3
 1549 0068 FB68     		ldr	r3, [r7, #12]
 1550 006a 40F2FF12 		movw	r2, #511
 1551 006e A3F85C20 		strh	r2, [r3, #92]	@ movhi
 1552 0072 28E0     		b	.L83
 1553              	.L81:
 1554              		.loc 1 915 0 discriminator 4
 1555 0074 FB68     		ldr	r3, [r7, #12]
 1556 0076 FF22     		movs	r2, #255
 1557 0078 A3F85C20 		strh	r2, [r3, #92]	@ movhi
ARM GAS  /tmp/ccvy8ygO.s 			page 44


 1558 007c 23E0     		b	.L83
 1559              	.L80:
 1560              		.loc 1 915 0 discriminator 2
 1561 007e FB68     		ldr	r3, [r7, #12]
 1562 0080 9B68     		ldr	r3, [r3, #8]
 1563 0082 002B     		cmp	r3, #0
 1564 0084 0DD1     		bne	.L84
 1565              		.loc 1 915 0 discriminator 5
 1566 0086 FB68     		ldr	r3, [r7, #12]
 1567 0088 1B69     		ldr	r3, [r3, #16]
 1568 008a 002B     		cmp	r3, #0
 1569 008c 04D1     		bne	.L85
 1570              		.loc 1 915 0 discriminator 7
 1571 008e FB68     		ldr	r3, [r7, #12]
 1572 0090 FF22     		movs	r2, #255
 1573 0092 A3F85C20 		strh	r2, [r3, #92]	@ movhi
 1574 0096 16E0     		b	.L83
 1575              	.L85:
 1576              		.loc 1 915 0 discriminator 8
 1577 0098 FB68     		ldr	r3, [r7, #12]
 1578 009a 7F22     		movs	r2, #127
 1579 009c A3F85C20 		strh	r2, [r3, #92]	@ movhi
 1580 00a0 11E0     		b	.L83
 1581              	.L84:
 1582              		.loc 1 915 0 discriminator 6
 1583 00a2 FB68     		ldr	r3, [r7, #12]
 1584 00a4 9B68     		ldr	r3, [r3, #8]
 1585 00a6 B3F1805F 		cmp	r3, #268435456
 1586 00aa 0CD1     		bne	.L83
 1587              		.loc 1 915 0 discriminator 9
 1588 00ac FB68     		ldr	r3, [r7, #12]
 1589 00ae 1B69     		ldr	r3, [r3, #16]
 1590 00b0 002B     		cmp	r3, #0
 1591 00b2 04D1     		bne	.L87
 1592              		.loc 1 915 0 discriminator 10
 1593 00b4 FB68     		ldr	r3, [r7, #12]
 1594 00b6 7F22     		movs	r2, #127
 1595 00b8 A3F85C20 		strh	r2, [r3, #92]	@ movhi
 1596 00bc 03E0     		b	.L83
 1597              	.L87:
 1598              		.loc 1 915 0 discriminator 11
 1599 00be FB68     		ldr	r3, [r7, #12]
 1600 00c0 3F22     		movs	r2, #63
 1601 00c2 A3F85C20 		strh	r2, [r3, #92]	@ movhi
 1602              	.L83:
 916:Drivers/STM32F7xx_HAL_Driver/Src/stm32f7xx_hal_uart.c **** 
 917:Drivers/STM32F7xx_HAL_Driver/Src/stm32f7xx_hal_uart.c ****     huart->ErrorCode = HAL_UART_ERROR_NONE;
 1603              		.loc 1 917 0 is_stmt 1
 1604 00c6 FB68     		ldr	r3, [r7, #12]
 1605 00c8 0022     		movs	r2, #0
 1606 00ca DA66     		str	r2, [r3, #108]
 918:Drivers/STM32F7xx_HAL_Driver/Src/stm32f7xx_hal_uart.c ****     huart->RxState = HAL_UART_STATE_BUSY_RX;
 1607              		.loc 1 918 0
 1608 00cc FB68     		ldr	r3, [r7, #12]
 1609 00ce 2222     		movs	r2, #34
 1610 00d0 83F86A20 		strb	r2, [r3, #106]
 919:Drivers/STM32F7xx_HAL_Driver/Src/stm32f7xx_hal_uart.c **** 
ARM GAS  /tmp/ccvy8ygO.s 			page 45


 920:Drivers/STM32F7xx_HAL_Driver/Src/stm32f7xx_hal_uart.c ****     /* Process Unlocked */
 921:Drivers/STM32F7xx_HAL_Driver/Src/stm32f7xx_hal_uart.c ****     __HAL_UNLOCK(huart);
 1611              		.loc 1 921 0
 1612 00d4 FB68     		ldr	r3, [r7, #12]
 1613 00d6 0022     		movs	r2, #0
 1614 00d8 83F86820 		strb	r2, [r3, #104]
 922:Drivers/STM32F7xx_HAL_Driver/Src/stm32f7xx_hal_uart.c **** 
 923:Drivers/STM32F7xx_HAL_Driver/Src/stm32f7xx_hal_uart.c ****     /* Enable the UART Error Interrupt: (Frame error, noise error, overrun error) */
 924:Drivers/STM32F7xx_HAL_Driver/Src/stm32f7xx_hal_uart.c ****     SET_BIT(huart->Instance->CR3, USART_CR3_EIE);
 1615              		.loc 1 924 0
 1616 00dc FB68     		ldr	r3, [r7, #12]
 1617 00de 1B68     		ldr	r3, [r3]
 1618 00e0 9A68     		ldr	r2, [r3, #8]
 1619 00e2 FB68     		ldr	r3, [r7, #12]
 1620 00e4 1B68     		ldr	r3, [r3]
 1621 00e6 42F00102 		orr	r2, r2, #1
 1622 00ea 9A60     		str	r2, [r3, #8]
 925:Drivers/STM32F7xx_HAL_Driver/Src/stm32f7xx_hal_uart.c **** 
 926:Drivers/STM32F7xx_HAL_Driver/Src/stm32f7xx_hal_uart.c ****     /* Enable the UART Parity Error and Data Register not empty Interrupts */
 927:Drivers/STM32F7xx_HAL_Driver/Src/stm32f7xx_hal_uart.c ****     SET_BIT(huart->Instance->CR1, USART_CR1_PEIE | USART_CR1_RXNEIE);
 1623              		.loc 1 927 0
 1624 00ec FB68     		ldr	r3, [r7, #12]
 1625 00ee 1B68     		ldr	r3, [r3]
 1626 00f0 1A68     		ldr	r2, [r3]
 1627 00f2 FB68     		ldr	r3, [r7, #12]
 1628 00f4 1B68     		ldr	r3, [r3]
 1629 00f6 42F49072 		orr	r2, r2, #288
 1630 00fa 1A60     		str	r2, [r3]
 928:Drivers/STM32F7xx_HAL_Driver/Src/stm32f7xx_hal_uart.c **** 
 929:Drivers/STM32F7xx_HAL_Driver/Src/stm32f7xx_hal_uart.c ****     return HAL_OK;
 1631              		.loc 1 929 0
 1632 00fc 0023     		movs	r3, #0
 1633 00fe 00E0     		b	.L78
 1634              	.L75:
 930:Drivers/STM32F7xx_HAL_Driver/Src/stm32f7xx_hal_uart.c ****   }
 931:Drivers/STM32F7xx_HAL_Driver/Src/stm32f7xx_hal_uart.c ****   else
 932:Drivers/STM32F7xx_HAL_Driver/Src/stm32f7xx_hal_uart.c ****   {
 933:Drivers/STM32F7xx_HAL_Driver/Src/stm32f7xx_hal_uart.c ****     return HAL_BUSY;
 1635              		.loc 1 933 0
 1636 0100 0223     		movs	r3, #2
 1637              	.L78:
 934:Drivers/STM32F7xx_HAL_Driver/Src/stm32f7xx_hal_uart.c ****   }
 935:Drivers/STM32F7xx_HAL_Driver/Src/stm32f7xx_hal_uart.c **** }
 1638              		.loc 1 935 0
 1639 0102 1846     		mov	r0, r3
 1640 0104 1437     		adds	r7, r7, #20
 1641              	.LCFI61:
 1642              		.cfi_def_cfa_offset 4
 1643 0106 BD46     		mov	sp, r7
 1644              	.LCFI62:
 1645              		.cfi_def_cfa_register 13
 1646              		@ sp needed
 1647 0108 5DF8047B 		ldr	r7, [sp], #4
 1648              	.LCFI63:
 1649              		.cfi_restore 7
 1650              		.cfi_def_cfa_offset 0
 1651 010c 7047     		bx	lr
ARM GAS  /tmp/ccvy8ygO.s 			page 46


 1652              		.cfi_endproc
 1653              	.LFE149:
 1655              		.section	.text.HAL_UART_Transmit_DMA,"ax",%progbits
 1656              		.align	1
 1657              		.global	HAL_UART_Transmit_DMA
 1658              		.syntax unified
 1659              		.thumb
 1660              		.thumb_func
 1661              		.fpu fpv4-sp-d16
 1663              	HAL_UART_Transmit_DMA:
 1664              	.LFB150:
 936:Drivers/STM32F7xx_HAL_Driver/Src/stm32f7xx_hal_uart.c **** 
 937:Drivers/STM32F7xx_HAL_Driver/Src/stm32f7xx_hal_uart.c **** /**
 938:Drivers/STM32F7xx_HAL_Driver/Src/stm32f7xx_hal_uart.c ****   * @brief Send an amount of data in DMA mode.
 939:Drivers/STM32F7xx_HAL_Driver/Src/stm32f7xx_hal_uart.c ****   * @param huart UART handle.
 940:Drivers/STM32F7xx_HAL_Driver/Src/stm32f7xx_hal_uart.c ****   * @param pData pointer to data buffer.
 941:Drivers/STM32F7xx_HAL_Driver/Src/stm32f7xx_hal_uart.c ****   * @param Size amount of data to be sent.
 942:Drivers/STM32F7xx_HAL_Driver/Src/stm32f7xx_hal_uart.c ****   * @retval HAL status
 943:Drivers/STM32F7xx_HAL_Driver/Src/stm32f7xx_hal_uart.c ****   */
 944:Drivers/STM32F7xx_HAL_Driver/Src/stm32f7xx_hal_uart.c **** HAL_StatusTypeDef HAL_UART_Transmit_DMA(UART_HandleTypeDef *huart, uint8_t *pData, uint16_t Size)
 945:Drivers/STM32F7xx_HAL_Driver/Src/stm32f7xx_hal_uart.c **** {
 1665              		.loc 1 945 0
 1666              		.cfi_startproc
 1667              		@ args = 0, pretend = 0, frame = 24
 1668              		@ frame_needed = 1, uses_anonymous_args = 0
 1669 0000 80B5     		push	{r7, lr}
 1670              	.LCFI64:
 1671              		.cfi_def_cfa_offset 8
 1672              		.cfi_offset 7, -8
 1673              		.cfi_offset 14, -4
 1674 0002 86B0     		sub	sp, sp, #24
 1675              	.LCFI65:
 1676              		.cfi_def_cfa_offset 32
 1677 0004 00AF     		add	r7, sp, #0
 1678              	.LCFI66:
 1679              		.cfi_def_cfa_register 7
 1680 0006 F860     		str	r0, [r7, #12]
 1681 0008 B960     		str	r1, [r7, #8]
 1682 000a 1346     		mov	r3, r2
 1683 000c FB80     		strh	r3, [r7, #6]	@ movhi
 946:Drivers/STM32F7xx_HAL_Driver/Src/stm32f7xx_hal_uart.c ****   uint32_t *tmp;
 947:Drivers/STM32F7xx_HAL_Driver/Src/stm32f7xx_hal_uart.c **** 
 948:Drivers/STM32F7xx_HAL_Driver/Src/stm32f7xx_hal_uart.c ****   /* Check that a Tx process is not already ongoing */
 949:Drivers/STM32F7xx_HAL_Driver/Src/stm32f7xx_hal_uart.c ****   if(huart->gState == HAL_UART_STATE_READY)
 1684              		.loc 1 949 0
 1685 000e FB68     		ldr	r3, [r7, #12]
 1686 0010 93F86930 		ldrb	r3, [r3, #105]
 1687 0014 DBB2     		uxtb	r3, r3
 1688 0016 202B     		cmp	r3, #32
 1689 0018 54D1     		bne	.L89
 950:Drivers/STM32F7xx_HAL_Driver/Src/stm32f7xx_hal_uart.c ****   {
 951:Drivers/STM32F7xx_HAL_Driver/Src/stm32f7xx_hal_uart.c ****     if((pData == NULL ) || (Size == 0U))
 1690              		.loc 1 951 0
 1691 001a BB68     		ldr	r3, [r7, #8]
 1692 001c 002B     		cmp	r3, #0
 1693 001e 02D0     		beq	.L90
 1694              		.loc 1 951 0 is_stmt 0 discriminator 1
ARM GAS  /tmp/ccvy8ygO.s 			page 47


 1695 0020 FB88     		ldrh	r3, [r7, #6]
 1696 0022 002B     		cmp	r3, #0
 1697 0024 01D1     		bne	.L91
 1698              	.L90:
 952:Drivers/STM32F7xx_HAL_Driver/Src/stm32f7xx_hal_uart.c ****     {
 953:Drivers/STM32F7xx_HAL_Driver/Src/stm32f7xx_hal_uart.c ****       return HAL_ERROR;
 1699              		.loc 1 953 0 is_stmt 1
 1700 0026 0123     		movs	r3, #1
 1701 0028 4DE0     		b	.L92
 1702              	.L91:
 954:Drivers/STM32F7xx_HAL_Driver/Src/stm32f7xx_hal_uart.c ****     }
 955:Drivers/STM32F7xx_HAL_Driver/Src/stm32f7xx_hal_uart.c **** 
 956:Drivers/STM32F7xx_HAL_Driver/Src/stm32f7xx_hal_uart.c ****     /* Process Locked */
 957:Drivers/STM32F7xx_HAL_Driver/Src/stm32f7xx_hal_uart.c ****     __HAL_LOCK(huart);
 1703              		.loc 1 957 0
 1704 002a FB68     		ldr	r3, [r7, #12]
 1705 002c 93F86830 		ldrb	r3, [r3, #104]	@ zero_extendqisi2
 1706 0030 012B     		cmp	r3, #1
 1707 0032 01D1     		bne	.L93
 1708              		.loc 1 957 0 is_stmt 0 discriminator 1
 1709 0034 0223     		movs	r3, #2
 1710 0036 46E0     		b	.L92
 1711              	.L93:
 1712              		.loc 1 957 0 discriminator 2
 1713 0038 FB68     		ldr	r3, [r7, #12]
 1714 003a 0122     		movs	r2, #1
 1715 003c 83F86820 		strb	r2, [r3, #104]
 958:Drivers/STM32F7xx_HAL_Driver/Src/stm32f7xx_hal_uart.c **** 
 959:Drivers/STM32F7xx_HAL_Driver/Src/stm32f7xx_hal_uart.c ****     huart->pTxBuffPtr = pData;
 1716              		.loc 1 959 0 is_stmt 1 discriminator 2
 1717 0040 BA68     		ldr	r2, [r7, #8]
 1718 0042 FB68     		ldr	r3, [r7, #12]
 1719 0044 DA64     		str	r2, [r3, #76]
 960:Drivers/STM32F7xx_HAL_Driver/Src/stm32f7xx_hal_uart.c ****     huart->TxXferSize = Size;
 1720              		.loc 1 960 0 discriminator 2
 1721 0046 FB68     		ldr	r3, [r7, #12]
 1722 0048 FA88     		ldrh	r2, [r7, #6]	@ movhi
 1723 004a A3F85020 		strh	r2, [r3, #80]	@ movhi
 961:Drivers/STM32F7xx_HAL_Driver/Src/stm32f7xx_hal_uart.c ****     huart->TxXferCount = Size;
 1724              		.loc 1 961 0 discriminator 2
 1725 004e FB68     		ldr	r3, [r7, #12]
 1726 0050 FA88     		ldrh	r2, [r7, #6]	@ movhi
 1727 0052 A3F85220 		strh	r2, [r3, #82]	@ movhi
 962:Drivers/STM32F7xx_HAL_Driver/Src/stm32f7xx_hal_uart.c **** 
 963:Drivers/STM32F7xx_HAL_Driver/Src/stm32f7xx_hal_uart.c ****     huart->ErrorCode = HAL_UART_ERROR_NONE;
 1728              		.loc 1 963 0 discriminator 2
 1729 0056 FB68     		ldr	r3, [r7, #12]
 1730 0058 0022     		movs	r2, #0
 1731 005a DA66     		str	r2, [r3, #108]
 964:Drivers/STM32F7xx_HAL_Driver/Src/stm32f7xx_hal_uart.c ****     huart->gState = HAL_UART_STATE_BUSY_TX;
 1732              		.loc 1 964 0 discriminator 2
 1733 005c FB68     		ldr	r3, [r7, #12]
 1734 005e 2122     		movs	r2, #33
 1735 0060 83F86920 		strb	r2, [r3, #105]
 965:Drivers/STM32F7xx_HAL_Driver/Src/stm32f7xx_hal_uart.c **** 
 966:Drivers/STM32F7xx_HAL_Driver/Src/stm32f7xx_hal_uart.c ****     /* Set the UART DMA transfer complete callback */
 967:Drivers/STM32F7xx_HAL_Driver/Src/stm32f7xx_hal_uart.c ****     huart->hdmatx->XferCpltCallback = UART_DMATransmitCplt;
ARM GAS  /tmp/ccvy8ygO.s 			page 48


 1736              		.loc 1 967 0 discriminator 2
 1737 0064 FB68     		ldr	r3, [r7, #12]
 1738 0066 1B6E     		ldr	r3, [r3, #96]
 1739 0068 194A     		ldr	r2, .L94
 1740 006a DA63     		str	r2, [r3, #60]
 968:Drivers/STM32F7xx_HAL_Driver/Src/stm32f7xx_hal_uart.c **** 
 969:Drivers/STM32F7xx_HAL_Driver/Src/stm32f7xx_hal_uart.c ****     /* Set the UART DMA Half transfer complete callback */
 970:Drivers/STM32F7xx_HAL_Driver/Src/stm32f7xx_hal_uart.c ****     huart->hdmatx->XferHalfCpltCallback = UART_DMATxHalfCplt;
 1741              		.loc 1 970 0 discriminator 2
 1742 006c FB68     		ldr	r3, [r7, #12]
 1743 006e 1B6E     		ldr	r3, [r3, #96]
 1744 0070 184A     		ldr	r2, .L94+4
 1745 0072 1A64     		str	r2, [r3, #64]
 971:Drivers/STM32F7xx_HAL_Driver/Src/stm32f7xx_hal_uart.c **** 
 972:Drivers/STM32F7xx_HAL_Driver/Src/stm32f7xx_hal_uart.c ****     /* Set the DMA error callback */
 973:Drivers/STM32F7xx_HAL_Driver/Src/stm32f7xx_hal_uart.c ****     huart->hdmatx->XferErrorCallback = UART_DMAError;
 1746              		.loc 1 973 0 discriminator 2
 1747 0074 FB68     		ldr	r3, [r7, #12]
 1748 0076 1B6E     		ldr	r3, [r3, #96]
 1749 0078 174A     		ldr	r2, .L94+8
 1750 007a DA64     		str	r2, [r3, #76]
 974:Drivers/STM32F7xx_HAL_Driver/Src/stm32f7xx_hal_uart.c **** 
 975:Drivers/STM32F7xx_HAL_Driver/Src/stm32f7xx_hal_uart.c ****     /* Set the DMA abort callback */
 976:Drivers/STM32F7xx_HAL_Driver/Src/stm32f7xx_hal_uart.c ****     huart->hdmatx->XferAbortCallback = NULL;
 1751              		.loc 1 976 0 discriminator 2
 1752 007c FB68     		ldr	r3, [r7, #12]
 1753 007e 1B6E     		ldr	r3, [r3, #96]
 1754 0080 0022     		movs	r2, #0
 1755 0082 1A65     		str	r2, [r3, #80]
 977:Drivers/STM32F7xx_HAL_Driver/Src/stm32f7xx_hal_uart.c **** 
 978:Drivers/STM32F7xx_HAL_Driver/Src/stm32f7xx_hal_uart.c ****     /* Enable the UART transmit DMA channel */
 979:Drivers/STM32F7xx_HAL_Driver/Src/stm32f7xx_hal_uart.c ****     tmp = (uint32_t*)&pData;
 1756              		.loc 1 979 0 discriminator 2
 1757 0084 07F10803 		add	r3, r7, #8
 1758 0088 7B61     		str	r3, [r7, #20]
 980:Drivers/STM32F7xx_HAL_Driver/Src/stm32f7xx_hal_uart.c ****     HAL_DMA_Start_IT(huart->hdmatx, *(uint32_t*)tmp, (uint32_t)&huart->Instance->TDR, Size);
 1759              		.loc 1 980 0 discriminator 2
 1760 008a FB68     		ldr	r3, [r7, #12]
 1761 008c 186E     		ldr	r0, [r3, #96]
 1762 008e 7B69     		ldr	r3, [r7, #20]
 1763 0090 1968     		ldr	r1, [r3]
 1764 0092 FB68     		ldr	r3, [r7, #12]
 1765 0094 1B68     		ldr	r3, [r3]
 1766 0096 2833     		adds	r3, r3, #40
 1767 0098 1A46     		mov	r2, r3
 1768 009a FB88     		ldrh	r3, [r7, #6]
 1769 009c FFF7FEFF 		bl	HAL_DMA_Start_IT
 981:Drivers/STM32F7xx_HAL_Driver/Src/stm32f7xx_hal_uart.c **** 
 982:Drivers/STM32F7xx_HAL_Driver/Src/stm32f7xx_hal_uart.c ****     /* Clear the TC flag in the SR register by writing 0 to it */
 983:Drivers/STM32F7xx_HAL_Driver/Src/stm32f7xx_hal_uart.c ****     __HAL_UART_CLEAR_IT(huart, UART_FLAG_TC);
 1770              		.loc 1 983 0 discriminator 2
 1771 00a0 FB68     		ldr	r3, [r7, #12]
 1772 00a2 1B68     		ldr	r3, [r3]
 1773 00a4 4022     		movs	r2, #64
 1774 00a6 1A62     		str	r2, [r3, #32]
 984:Drivers/STM32F7xx_HAL_Driver/Src/stm32f7xx_hal_uart.c **** 
 985:Drivers/STM32F7xx_HAL_Driver/Src/stm32f7xx_hal_uart.c ****     /* Process Unlocked */
ARM GAS  /tmp/ccvy8ygO.s 			page 49


 986:Drivers/STM32F7xx_HAL_Driver/Src/stm32f7xx_hal_uart.c ****     __HAL_UNLOCK(huart);
 1775              		.loc 1 986 0 discriminator 2
 1776 00a8 FB68     		ldr	r3, [r7, #12]
 1777 00aa 0022     		movs	r2, #0
 1778 00ac 83F86820 		strb	r2, [r3, #104]
 987:Drivers/STM32F7xx_HAL_Driver/Src/stm32f7xx_hal_uart.c **** 
 988:Drivers/STM32F7xx_HAL_Driver/Src/stm32f7xx_hal_uart.c ****     /* Enable the DMA transfer for transmit request by setting the DMAT bit
 989:Drivers/STM32F7xx_HAL_Driver/Src/stm32f7xx_hal_uart.c ****        in the UART CR3 register */
 990:Drivers/STM32F7xx_HAL_Driver/Src/stm32f7xx_hal_uart.c ****     SET_BIT(huart->Instance->CR3, USART_CR3_DMAT);
 1779              		.loc 1 990 0 discriminator 2
 1780 00b0 FB68     		ldr	r3, [r7, #12]
 1781 00b2 1B68     		ldr	r3, [r3]
 1782 00b4 9A68     		ldr	r2, [r3, #8]
 1783 00b6 FB68     		ldr	r3, [r7, #12]
 1784 00b8 1B68     		ldr	r3, [r3]
 1785 00ba 42F08002 		orr	r2, r2, #128
 1786 00be 9A60     		str	r2, [r3, #8]
 991:Drivers/STM32F7xx_HAL_Driver/Src/stm32f7xx_hal_uart.c **** 
 992:Drivers/STM32F7xx_HAL_Driver/Src/stm32f7xx_hal_uart.c ****     return HAL_OK;
 1787              		.loc 1 992 0 discriminator 2
 1788 00c0 0023     		movs	r3, #0
 1789 00c2 00E0     		b	.L92
 1790              	.L89:
 993:Drivers/STM32F7xx_HAL_Driver/Src/stm32f7xx_hal_uart.c ****   }
 994:Drivers/STM32F7xx_HAL_Driver/Src/stm32f7xx_hal_uart.c ****   else
 995:Drivers/STM32F7xx_HAL_Driver/Src/stm32f7xx_hal_uart.c ****   {
 996:Drivers/STM32F7xx_HAL_Driver/Src/stm32f7xx_hal_uart.c ****     return HAL_BUSY;
 1791              		.loc 1 996 0
 1792 00c4 0223     		movs	r3, #2
 1793              	.L92:
 997:Drivers/STM32F7xx_HAL_Driver/Src/stm32f7xx_hal_uart.c ****   }
 998:Drivers/STM32F7xx_HAL_Driver/Src/stm32f7xx_hal_uart.c **** }
 1794              		.loc 1 998 0
 1795 00c6 1846     		mov	r0, r3
 1796 00c8 1837     		adds	r7, r7, #24
 1797              	.LCFI67:
 1798              		.cfi_def_cfa_offset 8
 1799 00ca BD46     		mov	sp, r7
 1800              	.LCFI68:
 1801              		.cfi_def_cfa_register 13
 1802              		@ sp needed
 1803 00cc 80BD     		pop	{r7, pc}
 1804              	.L95:
 1805 00ce 00BF     		.align	2
 1806              	.L94:
 1807 00d0 00000000 		.word	UART_DMATransmitCplt
 1808 00d4 00000000 		.word	UART_DMATxHalfCplt
 1809 00d8 00000000 		.word	UART_DMAError
 1810              		.cfi_endproc
 1811              	.LFE150:
 1813              		.section	.text.HAL_UART_Receive_DMA,"ax",%progbits
 1814              		.align	1
 1815              		.global	HAL_UART_Receive_DMA
 1816              		.syntax unified
 1817              		.thumb
 1818              		.thumb_func
 1819              		.fpu fpv4-sp-d16
ARM GAS  /tmp/ccvy8ygO.s 			page 50


 1821              	HAL_UART_Receive_DMA:
 1822              	.LFB151:
 999:Drivers/STM32F7xx_HAL_Driver/Src/stm32f7xx_hal_uart.c **** 
1000:Drivers/STM32F7xx_HAL_Driver/Src/stm32f7xx_hal_uart.c **** /**
1001:Drivers/STM32F7xx_HAL_Driver/Src/stm32f7xx_hal_uart.c ****   * @brief Receive an amount of data in DMA mode.
1002:Drivers/STM32F7xx_HAL_Driver/Src/stm32f7xx_hal_uart.c ****   * @param huart UART handle.
1003:Drivers/STM32F7xx_HAL_Driver/Src/stm32f7xx_hal_uart.c ****   * @param pData pointer to data buffer.
1004:Drivers/STM32F7xx_HAL_Driver/Src/stm32f7xx_hal_uart.c ****   * @param Size amount of data to be received.
1005:Drivers/STM32F7xx_HAL_Driver/Src/stm32f7xx_hal_uart.c ****   * @note   When the UART parity is enabled (PCE = 1), the received data contain
1006:Drivers/STM32F7xx_HAL_Driver/Src/stm32f7xx_hal_uart.c ****   *         the parity bit (MSB position).
1007:Drivers/STM32F7xx_HAL_Driver/Src/stm32f7xx_hal_uart.c ****   * @retval HAL status
1008:Drivers/STM32F7xx_HAL_Driver/Src/stm32f7xx_hal_uart.c ****   */
1009:Drivers/STM32F7xx_HAL_Driver/Src/stm32f7xx_hal_uart.c **** HAL_StatusTypeDef HAL_UART_Receive_DMA(UART_HandleTypeDef *huart, uint8_t *pData, uint16_t Size)
1010:Drivers/STM32F7xx_HAL_Driver/Src/stm32f7xx_hal_uart.c **** {
 1823              		.loc 1 1010 0
 1824              		.cfi_startproc
 1825              		@ args = 0, pretend = 0, frame = 24
 1826              		@ frame_needed = 1, uses_anonymous_args = 0
 1827 0000 80B5     		push	{r7, lr}
 1828              	.LCFI69:
 1829              		.cfi_def_cfa_offset 8
 1830              		.cfi_offset 7, -8
 1831              		.cfi_offset 14, -4
 1832 0002 86B0     		sub	sp, sp, #24
 1833              	.LCFI70:
 1834              		.cfi_def_cfa_offset 32
 1835 0004 00AF     		add	r7, sp, #0
 1836              	.LCFI71:
 1837              		.cfi_def_cfa_register 7
 1838 0006 F860     		str	r0, [r7, #12]
 1839 0008 B960     		str	r1, [r7, #8]
 1840 000a 1346     		mov	r3, r2
 1841 000c FB80     		strh	r3, [r7, #6]	@ movhi
1011:Drivers/STM32F7xx_HAL_Driver/Src/stm32f7xx_hal_uart.c ****   uint32_t *tmp;
1012:Drivers/STM32F7xx_HAL_Driver/Src/stm32f7xx_hal_uart.c **** 
1013:Drivers/STM32F7xx_HAL_Driver/Src/stm32f7xx_hal_uart.c ****   /* Check that a Rx process is not already ongoing */
1014:Drivers/STM32F7xx_HAL_Driver/Src/stm32f7xx_hal_uart.c ****   if(huart->RxState == HAL_UART_STATE_READY)
 1842              		.loc 1 1014 0
 1843 000e FB68     		ldr	r3, [r7, #12]
 1844 0010 93F86A30 		ldrb	r3, [r3, #106]
 1845 0014 DBB2     		uxtb	r3, r3
 1846 0016 202B     		cmp	r3, #32
 1847 0018 5CD1     		bne	.L97
1015:Drivers/STM32F7xx_HAL_Driver/Src/stm32f7xx_hal_uart.c ****   {
1016:Drivers/STM32F7xx_HAL_Driver/Src/stm32f7xx_hal_uart.c ****     if((pData == NULL ) || (Size == 0U))
 1848              		.loc 1 1016 0
 1849 001a BB68     		ldr	r3, [r7, #8]
 1850 001c 002B     		cmp	r3, #0
 1851 001e 02D0     		beq	.L98
 1852              		.loc 1 1016 0 is_stmt 0 discriminator 1
 1853 0020 FB88     		ldrh	r3, [r7, #6]
 1854 0022 002B     		cmp	r3, #0
 1855 0024 01D1     		bne	.L99
 1856              	.L98:
1017:Drivers/STM32F7xx_HAL_Driver/Src/stm32f7xx_hal_uart.c ****     {
1018:Drivers/STM32F7xx_HAL_Driver/Src/stm32f7xx_hal_uart.c ****       return HAL_ERROR;
 1857              		.loc 1 1018 0 is_stmt 1
ARM GAS  /tmp/ccvy8ygO.s 			page 51


 1858 0026 0123     		movs	r3, #1
 1859 0028 55E0     		b	.L100
 1860              	.L99:
1019:Drivers/STM32F7xx_HAL_Driver/Src/stm32f7xx_hal_uart.c ****     }
1020:Drivers/STM32F7xx_HAL_Driver/Src/stm32f7xx_hal_uart.c **** 
1021:Drivers/STM32F7xx_HAL_Driver/Src/stm32f7xx_hal_uart.c ****     /* Process Locked */
1022:Drivers/STM32F7xx_HAL_Driver/Src/stm32f7xx_hal_uart.c ****     __HAL_LOCK(huart);
 1861              		.loc 1 1022 0
 1862 002a FB68     		ldr	r3, [r7, #12]
 1863 002c 93F86830 		ldrb	r3, [r3, #104]	@ zero_extendqisi2
 1864 0030 012B     		cmp	r3, #1
 1865 0032 01D1     		bne	.L101
 1866              		.loc 1 1022 0 is_stmt 0 discriminator 1
 1867 0034 0223     		movs	r3, #2
 1868 0036 4EE0     		b	.L100
 1869              	.L101:
 1870              		.loc 1 1022 0 discriminator 2
 1871 0038 FB68     		ldr	r3, [r7, #12]
 1872 003a 0122     		movs	r2, #1
 1873 003c 83F86820 		strb	r2, [r3, #104]
1023:Drivers/STM32F7xx_HAL_Driver/Src/stm32f7xx_hal_uart.c **** 
1024:Drivers/STM32F7xx_HAL_Driver/Src/stm32f7xx_hal_uart.c ****     huart->pRxBuffPtr = pData;
 1874              		.loc 1 1024 0 is_stmt 1 discriminator 2
 1875 0040 BA68     		ldr	r2, [r7, #8]
 1876 0042 FB68     		ldr	r3, [r7, #12]
 1877 0044 5A65     		str	r2, [r3, #84]
1025:Drivers/STM32F7xx_HAL_Driver/Src/stm32f7xx_hal_uart.c ****     huart->RxXferSize = Size;
 1878              		.loc 1 1025 0 discriminator 2
 1879 0046 FB68     		ldr	r3, [r7, #12]
 1880 0048 FA88     		ldrh	r2, [r7, #6]	@ movhi
 1881 004a A3F85820 		strh	r2, [r3, #88]	@ movhi
1026:Drivers/STM32F7xx_HAL_Driver/Src/stm32f7xx_hal_uart.c **** 
1027:Drivers/STM32F7xx_HAL_Driver/Src/stm32f7xx_hal_uart.c ****     huart->ErrorCode = HAL_UART_ERROR_NONE;
 1882              		.loc 1 1027 0 discriminator 2
 1883 004e FB68     		ldr	r3, [r7, #12]
 1884 0050 0022     		movs	r2, #0
 1885 0052 DA66     		str	r2, [r3, #108]
1028:Drivers/STM32F7xx_HAL_Driver/Src/stm32f7xx_hal_uart.c ****     huart->RxState = HAL_UART_STATE_BUSY_RX;
 1886              		.loc 1 1028 0 discriminator 2
 1887 0054 FB68     		ldr	r3, [r7, #12]
 1888 0056 2222     		movs	r2, #34
 1889 0058 83F86A20 		strb	r2, [r3, #106]
1029:Drivers/STM32F7xx_HAL_Driver/Src/stm32f7xx_hal_uart.c **** 
1030:Drivers/STM32F7xx_HAL_Driver/Src/stm32f7xx_hal_uart.c ****     /* Set the UART DMA transfer complete callback */
1031:Drivers/STM32F7xx_HAL_Driver/Src/stm32f7xx_hal_uart.c ****     huart->hdmarx->XferCpltCallback = UART_DMAReceiveCplt;
 1890              		.loc 1 1031 0 discriminator 2
 1891 005c FB68     		ldr	r3, [r7, #12]
 1892 005e 5B6E     		ldr	r3, [r3, #100]
 1893 0060 1F4A     		ldr	r2, .L102
 1894 0062 DA63     		str	r2, [r3, #60]
1032:Drivers/STM32F7xx_HAL_Driver/Src/stm32f7xx_hal_uart.c **** 
1033:Drivers/STM32F7xx_HAL_Driver/Src/stm32f7xx_hal_uart.c ****     /* Set the UART DMA Half transfer complete callback */
1034:Drivers/STM32F7xx_HAL_Driver/Src/stm32f7xx_hal_uart.c ****     huart->hdmarx->XferHalfCpltCallback = UART_DMARxHalfCplt;
 1895              		.loc 1 1034 0 discriminator 2
 1896 0064 FB68     		ldr	r3, [r7, #12]
 1897 0066 5B6E     		ldr	r3, [r3, #100]
 1898 0068 1E4A     		ldr	r2, .L102+4
ARM GAS  /tmp/ccvy8ygO.s 			page 52


 1899 006a 1A64     		str	r2, [r3, #64]
1035:Drivers/STM32F7xx_HAL_Driver/Src/stm32f7xx_hal_uart.c **** 
1036:Drivers/STM32F7xx_HAL_Driver/Src/stm32f7xx_hal_uart.c ****     /* Set the DMA error callback */
1037:Drivers/STM32F7xx_HAL_Driver/Src/stm32f7xx_hal_uart.c ****     huart->hdmarx->XferErrorCallback = UART_DMAError;
 1900              		.loc 1 1037 0 discriminator 2
 1901 006c FB68     		ldr	r3, [r7, #12]
 1902 006e 5B6E     		ldr	r3, [r3, #100]
 1903 0070 1D4A     		ldr	r2, .L102+8
 1904 0072 DA64     		str	r2, [r3, #76]
1038:Drivers/STM32F7xx_HAL_Driver/Src/stm32f7xx_hal_uart.c **** 
1039:Drivers/STM32F7xx_HAL_Driver/Src/stm32f7xx_hal_uart.c ****     /* Set the DMA abort callback */
1040:Drivers/STM32F7xx_HAL_Driver/Src/stm32f7xx_hal_uart.c ****     huart->hdmarx->XferAbortCallback = NULL;
 1905              		.loc 1 1040 0 discriminator 2
 1906 0074 FB68     		ldr	r3, [r7, #12]
 1907 0076 5B6E     		ldr	r3, [r3, #100]
 1908 0078 0022     		movs	r2, #0
 1909 007a 1A65     		str	r2, [r3, #80]
1041:Drivers/STM32F7xx_HAL_Driver/Src/stm32f7xx_hal_uart.c **** 
1042:Drivers/STM32F7xx_HAL_Driver/Src/stm32f7xx_hal_uart.c ****     /* Enable the DMA channel */
1043:Drivers/STM32F7xx_HAL_Driver/Src/stm32f7xx_hal_uart.c ****     tmp = (uint32_t*)&pData;
 1910              		.loc 1 1043 0 discriminator 2
 1911 007c 07F10803 		add	r3, r7, #8
 1912 0080 7B61     		str	r3, [r7, #20]
1044:Drivers/STM32F7xx_HAL_Driver/Src/stm32f7xx_hal_uart.c ****     HAL_DMA_Start_IT(huart->hdmarx, (uint32_t)&huart->Instance->RDR, *(uint32_t*)tmp, Size);
 1913              		.loc 1 1044 0 discriminator 2
 1914 0082 FB68     		ldr	r3, [r7, #12]
 1915 0084 586E     		ldr	r0, [r3, #100]
 1916 0086 FB68     		ldr	r3, [r7, #12]
 1917 0088 1B68     		ldr	r3, [r3]
 1918 008a 2433     		adds	r3, r3, #36
 1919 008c 1946     		mov	r1, r3
 1920 008e 7B69     		ldr	r3, [r7, #20]
 1921 0090 1A68     		ldr	r2, [r3]
 1922 0092 FB88     		ldrh	r3, [r7, #6]
 1923 0094 FFF7FEFF 		bl	HAL_DMA_Start_IT
1045:Drivers/STM32F7xx_HAL_Driver/Src/stm32f7xx_hal_uart.c **** 
1046:Drivers/STM32F7xx_HAL_Driver/Src/stm32f7xx_hal_uart.c ****     /* Process Unlocked */
1047:Drivers/STM32F7xx_HAL_Driver/Src/stm32f7xx_hal_uart.c ****     __HAL_UNLOCK(huart);
 1924              		.loc 1 1047 0 discriminator 2
 1925 0098 FB68     		ldr	r3, [r7, #12]
 1926 009a 0022     		movs	r2, #0
 1927 009c 83F86820 		strb	r2, [r3, #104]
1048:Drivers/STM32F7xx_HAL_Driver/Src/stm32f7xx_hal_uart.c **** 
1049:Drivers/STM32F7xx_HAL_Driver/Src/stm32f7xx_hal_uart.c ****     /* Enable the UART Parity Error Interrupt */
1050:Drivers/STM32F7xx_HAL_Driver/Src/stm32f7xx_hal_uart.c ****     SET_BIT(huart->Instance->CR1, USART_CR1_PEIE);
 1928              		.loc 1 1050 0 discriminator 2
 1929 00a0 FB68     		ldr	r3, [r7, #12]
 1930 00a2 1B68     		ldr	r3, [r3]
 1931 00a4 1A68     		ldr	r2, [r3]
 1932 00a6 FB68     		ldr	r3, [r7, #12]
 1933 00a8 1B68     		ldr	r3, [r3]
 1934 00aa 42F48072 		orr	r2, r2, #256
 1935 00ae 1A60     		str	r2, [r3]
1051:Drivers/STM32F7xx_HAL_Driver/Src/stm32f7xx_hal_uart.c **** 
1052:Drivers/STM32F7xx_HAL_Driver/Src/stm32f7xx_hal_uart.c ****     /* Enable the UART Error Interrupt: (Frame error, noise error, overrun error) */
1053:Drivers/STM32F7xx_HAL_Driver/Src/stm32f7xx_hal_uart.c ****     SET_BIT(huart->Instance->CR3, USART_CR3_EIE);
 1936              		.loc 1 1053 0 discriminator 2
ARM GAS  /tmp/ccvy8ygO.s 			page 53


 1937 00b0 FB68     		ldr	r3, [r7, #12]
 1938 00b2 1B68     		ldr	r3, [r3]
 1939 00b4 9A68     		ldr	r2, [r3, #8]
 1940 00b6 FB68     		ldr	r3, [r7, #12]
 1941 00b8 1B68     		ldr	r3, [r3]
 1942 00ba 42F00102 		orr	r2, r2, #1
 1943 00be 9A60     		str	r2, [r3, #8]
1054:Drivers/STM32F7xx_HAL_Driver/Src/stm32f7xx_hal_uart.c **** 
1055:Drivers/STM32F7xx_HAL_Driver/Src/stm32f7xx_hal_uart.c ****     /* Enable the DMA transfer for the receiver request by setting the DMAR bit
1056:Drivers/STM32F7xx_HAL_Driver/Src/stm32f7xx_hal_uart.c ****     in the UART CR3 register */
1057:Drivers/STM32F7xx_HAL_Driver/Src/stm32f7xx_hal_uart.c ****     SET_BIT(huart->Instance->CR3, USART_CR3_DMAR);
 1944              		.loc 1 1057 0 discriminator 2
 1945 00c0 FB68     		ldr	r3, [r7, #12]
 1946 00c2 1B68     		ldr	r3, [r3]
 1947 00c4 9A68     		ldr	r2, [r3, #8]
 1948 00c6 FB68     		ldr	r3, [r7, #12]
 1949 00c8 1B68     		ldr	r3, [r3]
 1950 00ca 42F04002 		orr	r2, r2, #64
 1951 00ce 9A60     		str	r2, [r3, #8]
1058:Drivers/STM32F7xx_HAL_Driver/Src/stm32f7xx_hal_uart.c **** 
1059:Drivers/STM32F7xx_HAL_Driver/Src/stm32f7xx_hal_uart.c ****     return HAL_OK;
 1952              		.loc 1 1059 0 discriminator 2
 1953 00d0 0023     		movs	r3, #0
 1954 00d2 00E0     		b	.L100
 1955              	.L97:
1060:Drivers/STM32F7xx_HAL_Driver/Src/stm32f7xx_hal_uart.c ****   }
1061:Drivers/STM32F7xx_HAL_Driver/Src/stm32f7xx_hal_uart.c ****   else
1062:Drivers/STM32F7xx_HAL_Driver/Src/stm32f7xx_hal_uart.c ****   {
1063:Drivers/STM32F7xx_HAL_Driver/Src/stm32f7xx_hal_uart.c ****     return HAL_BUSY;
 1956              		.loc 1 1063 0
 1957 00d4 0223     		movs	r3, #2
 1958              	.L100:
1064:Drivers/STM32F7xx_HAL_Driver/Src/stm32f7xx_hal_uart.c ****   }
1065:Drivers/STM32F7xx_HAL_Driver/Src/stm32f7xx_hal_uart.c **** }
 1959              		.loc 1 1065 0
 1960 00d6 1846     		mov	r0, r3
 1961 00d8 1837     		adds	r7, r7, #24
 1962              	.LCFI72:
 1963              		.cfi_def_cfa_offset 8
 1964 00da BD46     		mov	sp, r7
 1965              	.LCFI73:
 1966              		.cfi_def_cfa_register 13
 1967              		@ sp needed
 1968 00dc 80BD     		pop	{r7, pc}
 1969              	.L103:
 1970 00de 00BF     		.align	2
 1971              	.L102:
 1972 00e0 00000000 		.word	UART_DMAReceiveCplt
 1973 00e4 00000000 		.word	UART_DMARxHalfCplt
 1974 00e8 00000000 		.word	UART_DMAError
 1975              		.cfi_endproc
 1976              	.LFE151:
 1978              		.section	.text.HAL_UART_DMAPause,"ax",%progbits
 1979              		.align	1
 1980              		.global	HAL_UART_DMAPause
 1981              		.syntax unified
 1982              		.thumb
ARM GAS  /tmp/ccvy8ygO.s 			page 54


 1983              		.thumb_func
 1984              		.fpu fpv4-sp-d16
 1986              	HAL_UART_DMAPause:
 1987              	.LFB152:
1066:Drivers/STM32F7xx_HAL_Driver/Src/stm32f7xx_hal_uart.c **** 
1067:Drivers/STM32F7xx_HAL_Driver/Src/stm32f7xx_hal_uart.c **** /**
1068:Drivers/STM32F7xx_HAL_Driver/Src/stm32f7xx_hal_uart.c ****   * @brief Pause the DMA Transfer.
1069:Drivers/STM32F7xx_HAL_Driver/Src/stm32f7xx_hal_uart.c ****   * @param huart UART handle.
1070:Drivers/STM32F7xx_HAL_Driver/Src/stm32f7xx_hal_uart.c ****   * @retval HAL status
1071:Drivers/STM32F7xx_HAL_Driver/Src/stm32f7xx_hal_uart.c ****   */
1072:Drivers/STM32F7xx_HAL_Driver/Src/stm32f7xx_hal_uart.c **** HAL_StatusTypeDef HAL_UART_DMAPause(UART_HandleTypeDef *huart)
1073:Drivers/STM32F7xx_HAL_Driver/Src/stm32f7xx_hal_uart.c **** {
 1988              		.loc 1 1073 0
 1989              		.cfi_startproc
 1990              		@ args = 0, pretend = 0, frame = 8
 1991              		@ frame_needed = 1, uses_anonymous_args = 0
 1992              		@ link register save eliminated.
 1993 0000 80B4     		push	{r7}
 1994              	.LCFI74:
 1995              		.cfi_def_cfa_offset 4
 1996              		.cfi_offset 7, -4
 1997 0002 83B0     		sub	sp, sp, #12
 1998              	.LCFI75:
 1999              		.cfi_def_cfa_offset 16
 2000 0004 00AF     		add	r7, sp, #0
 2001              	.LCFI76:
 2002              		.cfi_def_cfa_register 7
 2003 0006 7860     		str	r0, [r7, #4]
1074:Drivers/STM32F7xx_HAL_Driver/Src/stm32f7xx_hal_uart.c ****   /* Process Locked */
1075:Drivers/STM32F7xx_HAL_Driver/Src/stm32f7xx_hal_uart.c ****   __HAL_LOCK(huart);
 2004              		.loc 1 1075 0
 2005 0008 7B68     		ldr	r3, [r7, #4]
 2006 000a 93F86830 		ldrb	r3, [r3, #104]	@ zero_extendqisi2
 2007 000e 012B     		cmp	r3, #1
 2008 0010 01D1     		bne	.L105
 2009              		.loc 1 1075 0 is_stmt 0 discriminator 1
 2010 0012 0223     		movs	r3, #2
 2011 0014 42E0     		b	.L106
 2012              	.L105:
 2013              		.loc 1 1075 0 discriminator 2
 2014 0016 7B68     		ldr	r3, [r7, #4]
 2015 0018 0122     		movs	r2, #1
 2016 001a 83F86820 		strb	r2, [r3, #104]
1076:Drivers/STM32F7xx_HAL_Driver/Src/stm32f7xx_hal_uart.c **** 
1077:Drivers/STM32F7xx_HAL_Driver/Src/stm32f7xx_hal_uart.c ****   if ((huart->gState == HAL_UART_STATE_BUSY_TX) &&
 2017              		.loc 1 1077 0 is_stmt 1 discriminator 2
 2018 001e 7B68     		ldr	r3, [r7, #4]
 2019 0020 93F86930 		ldrb	r3, [r3, #105]
 2020 0024 DBB2     		uxtb	r3, r3
 2021 0026 212B     		cmp	r3, #33
 2022 0028 0ED1     		bne	.L107
1078:Drivers/STM32F7xx_HAL_Driver/Src/stm32f7xx_hal_uart.c ****       (HAL_IS_BIT_SET(huart->Instance->CR3, USART_CR3_DMAT)))
 2023              		.loc 1 1078 0 discriminator 1
 2024 002a 7B68     		ldr	r3, [r7, #4]
 2025 002c 1B68     		ldr	r3, [r3]
 2026 002e 9B68     		ldr	r3, [r3, #8]
 2027 0030 03F08003 		and	r3, r3, #128
ARM GAS  /tmp/ccvy8ygO.s 			page 55


1077:Drivers/STM32F7xx_HAL_Driver/Src/stm32f7xx_hal_uart.c ****       (HAL_IS_BIT_SET(huart->Instance->CR3, USART_CR3_DMAT)))
 2028              		.loc 1 1077 0 discriminator 1
 2029 0034 002B     		cmp	r3, #0
 2030 0036 07D0     		beq	.L107
1079:Drivers/STM32F7xx_HAL_Driver/Src/stm32f7xx_hal_uart.c ****   {
1080:Drivers/STM32F7xx_HAL_Driver/Src/stm32f7xx_hal_uart.c ****     /* Disable the UART DMA Tx request */
1081:Drivers/STM32F7xx_HAL_Driver/Src/stm32f7xx_hal_uart.c ****     CLEAR_BIT(huart->Instance->CR3, USART_CR3_DMAT);
 2031              		.loc 1 1081 0
 2032 0038 7B68     		ldr	r3, [r7, #4]
 2033 003a 1B68     		ldr	r3, [r3]
 2034 003c 9A68     		ldr	r2, [r3, #8]
 2035 003e 7B68     		ldr	r3, [r7, #4]
 2036 0040 1B68     		ldr	r3, [r3]
 2037 0042 22F08002 		bic	r2, r2, #128
 2038 0046 9A60     		str	r2, [r3, #8]
 2039              	.L107:
1082:Drivers/STM32F7xx_HAL_Driver/Src/stm32f7xx_hal_uart.c ****   }
1083:Drivers/STM32F7xx_HAL_Driver/Src/stm32f7xx_hal_uart.c ****   if ((huart->RxState == HAL_UART_STATE_BUSY_RX) &&
 2040              		.loc 1 1083 0
 2041 0048 7B68     		ldr	r3, [r7, #4]
 2042 004a 93F86A30 		ldrb	r3, [r3, #106]
 2043 004e DBB2     		uxtb	r3, r3
 2044 0050 222B     		cmp	r3, #34
 2045 0052 1ED1     		bne	.L108
1084:Drivers/STM32F7xx_HAL_Driver/Src/stm32f7xx_hal_uart.c ****       (HAL_IS_BIT_SET(huart->Instance->CR3, USART_CR3_DMAR)))
 2046              		.loc 1 1084 0 discriminator 1
 2047 0054 7B68     		ldr	r3, [r7, #4]
 2048 0056 1B68     		ldr	r3, [r3]
 2049 0058 9B68     		ldr	r3, [r3, #8]
 2050 005a 03F04003 		and	r3, r3, #64
1083:Drivers/STM32F7xx_HAL_Driver/Src/stm32f7xx_hal_uart.c ****       (HAL_IS_BIT_SET(huart->Instance->CR3, USART_CR3_DMAR)))
 2051              		.loc 1 1083 0 discriminator 1
 2052 005e 002B     		cmp	r3, #0
 2053 0060 17D0     		beq	.L108
1085:Drivers/STM32F7xx_HAL_Driver/Src/stm32f7xx_hal_uart.c ****   {
1086:Drivers/STM32F7xx_HAL_Driver/Src/stm32f7xx_hal_uart.c ****     /* Disable PE and ERR (Frame error, noise error, overrun error) interrupts */
1087:Drivers/STM32F7xx_HAL_Driver/Src/stm32f7xx_hal_uart.c ****     CLEAR_BIT(huart->Instance->CR1, USART_CR1_PEIE);
 2054              		.loc 1 1087 0
 2055 0062 7B68     		ldr	r3, [r7, #4]
 2056 0064 1B68     		ldr	r3, [r3]
 2057 0066 1A68     		ldr	r2, [r3]
 2058 0068 7B68     		ldr	r3, [r7, #4]
 2059 006a 1B68     		ldr	r3, [r3]
 2060 006c 22F48072 		bic	r2, r2, #256
 2061 0070 1A60     		str	r2, [r3]
1088:Drivers/STM32F7xx_HAL_Driver/Src/stm32f7xx_hal_uart.c ****     CLEAR_BIT(huart->Instance->CR3, USART_CR3_EIE);
 2062              		.loc 1 1088 0
 2063 0072 7B68     		ldr	r3, [r7, #4]
 2064 0074 1B68     		ldr	r3, [r3]
 2065 0076 9A68     		ldr	r2, [r3, #8]
 2066 0078 7B68     		ldr	r3, [r7, #4]
 2067 007a 1B68     		ldr	r3, [r3]
 2068 007c 22F00102 		bic	r2, r2, #1
 2069 0080 9A60     		str	r2, [r3, #8]
1089:Drivers/STM32F7xx_HAL_Driver/Src/stm32f7xx_hal_uart.c **** 
1090:Drivers/STM32F7xx_HAL_Driver/Src/stm32f7xx_hal_uart.c ****     /* Disable the UART DMA Rx request */
1091:Drivers/STM32F7xx_HAL_Driver/Src/stm32f7xx_hal_uart.c ****     CLEAR_BIT(huart->Instance->CR3, USART_CR3_DMAR);
ARM GAS  /tmp/ccvy8ygO.s 			page 56


 2070              		.loc 1 1091 0
 2071 0082 7B68     		ldr	r3, [r7, #4]
 2072 0084 1B68     		ldr	r3, [r3]
 2073 0086 9A68     		ldr	r2, [r3, #8]
 2074 0088 7B68     		ldr	r3, [r7, #4]
 2075 008a 1B68     		ldr	r3, [r3]
 2076 008c 22F04002 		bic	r2, r2, #64
 2077 0090 9A60     		str	r2, [r3, #8]
 2078              	.L108:
1092:Drivers/STM32F7xx_HAL_Driver/Src/stm32f7xx_hal_uart.c ****   }
1093:Drivers/STM32F7xx_HAL_Driver/Src/stm32f7xx_hal_uart.c **** 
1094:Drivers/STM32F7xx_HAL_Driver/Src/stm32f7xx_hal_uart.c ****   /* Process Unlocked */
1095:Drivers/STM32F7xx_HAL_Driver/Src/stm32f7xx_hal_uart.c ****   __HAL_UNLOCK(huart);
 2079              		.loc 1 1095 0
 2080 0092 7B68     		ldr	r3, [r7, #4]
 2081 0094 0022     		movs	r2, #0
 2082 0096 83F86820 		strb	r2, [r3, #104]
1096:Drivers/STM32F7xx_HAL_Driver/Src/stm32f7xx_hal_uart.c **** 
1097:Drivers/STM32F7xx_HAL_Driver/Src/stm32f7xx_hal_uart.c ****   return HAL_OK;
 2083              		.loc 1 1097 0
 2084 009a 0023     		movs	r3, #0
 2085              	.L106:
1098:Drivers/STM32F7xx_HAL_Driver/Src/stm32f7xx_hal_uart.c **** }
 2086              		.loc 1 1098 0
 2087 009c 1846     		mov	r0, r3
 2088 009e 0C37     		adds	r7, r7, #12
 2089              	.LCFI77:
 2090              		.cfi_def_cfa_offset 4
 2091 00a0 BD46     		mov	sp, r7
 2092              	.LCFI78:
 2093              		.cfi_def_cfa_register 13
 2094              		@ sp needed
 2095 00a2 5DF8047B 		ldr	r7, [sp], #4
 2096              	.LCFI79:
 2097              		.cfi_restore 7
 2098              		.cfi_def_cfa_offset 0
 2099 00a6 7047     		bx	lr
 2100              		.cfi_endproc
 2101              	.LFE152:
 2103              		.section	.text.HAL_UART_DMAResume,"ax",%progbits
 2104              		.align	1
 2105              		.global	HAL_UART_DMAResume
 2106              		.syntax unified
 2107              		.thumb
 2108              		.thumb_func
 2109              		.fpu fpv4-sp-d16
 2111              	HAL_UART_DMAResume:
 2112              	.LFB153:
1099:Drivers/STM32F7xx_HAL_Driver/Src/stm32f7xx_hal_uart.c **** 
1100:Drivers/STM32F7xx_HAL_Driver/Src/stm32f7xx_hal_uart.c **** /**
1101:Drivers/STM32F7xx_HAL_Driver/Src/stm32f7xx_hal_uart.c ****   * @brief Resume the DMA Transfer.
1102:Drivers/STM32F7xx_HAL_Driver/Src/stm32f7xx_hal_uart.c ****   * @param huart UART handle.
1103:Drivers/STM32F7xx_HAL_Driver/Src/stm32f7xx_hal_uart.c ****   * @retval HAL status
1104:Drivers/STM32F7xx_HAL_Driver/Src/stm32f7xx_hal_uart.c ****   */
1105:Drivers/STM32F7xx_HAL_Driver/Src/stm32f7xx_hal_uart.c **** HAL_StatusTypeDef HAL_UART_DMAResume(UART_HandleTypeDef *huart)
1106:Drivers/STM32F7xx_HAL_Driver/Src/stm32f7xx_hal_uart.c **** {
 2113              		.loc 1 1106 0
ARM GAS  /tmp/ccvy8ygO.s 			page 57


 2114              		.cfi_startproc
 2115              		@ args = 0, pretend = 0, frame = 8
 2116              		@ frame_needed = 1, uses_anonymous_args = 0
 2117              		@ link register save eliminated.
 2118 0000 80B4     		push	{r7}
 2119              	.LCFI80:
 2120              		.cfi_def_cfa_offset 4
 2121              		.cfi_offset 7, -4
 2122 0002 83B0     		sub	sp, sp, #12
 2123              	.LCFI81:
 2124              		.cfi_def_cfa_offset 16
 2125 0004 00AF     		add	r7, sp, #0
 2126              	.LCFI82:
 2127              		.cfi_def_cfa_register 7
 2128 0006 7860     		str	r0, [r7, #4]
1107:Drivers/STM32F7xx_HAL_Driver/Src/stm32f7xx_hal_uart.c ****   /* Process Locked */
1108:Drivers/STM32F7xx_HAL_Driver/Src/stm32f7xx_hal_uart.c ****   __HAL_LOCK(huart);
 2129              		.loc 1 1108 0
 2130 0008 7B68     		ldr	r3, [r7, #4]
 2131 000a 93F86830 		ldrb	r3, [r3, #104]	@ zero_extendqisi2
 2132 000e 012B     		cmp	r3, #1
 2133 0010 01D1     		bne	.L110
 2134              		.loc 1 1108 0 is_stmt 0 discriminator 1
 2135 0012 0223     		movs	r3, #2
 2136 0014 43E0     		b	.L111
 2137              	.L110:
 2138              		.loc 1 1108 0 discriminator 2
 2139 0016 7B68     		ldr	r3, [r7, #4]
 2140 0018 0122     		movs	r2, #1
 2141 001a 83F86820 		strb	r2, [r3, #104]
1109:Drivers/STM32F7xx_HAL_Driver/Src/stm32f7xx_hal_uart.c **** 
1110:Drivers/STM32F7xx_HAL_Driver/Src/stm32f7xx_hal_uart.c ****   if(huart->gState == HAL_UART_STATE_BUSY_TX)
 2142              		.loc 1 1110 0 is_stmt 1 discriminator 2
 2143 001e 7B68     		ldr	r3, [r7, #4]
 2144 0020 93F86930 		ldrb	r3, [r3, #105]
 2145 0024 DBB2     		uxtb	r3, r3
 2146 0026 212B     		cmp	r3, #33
 2147 0028 07D1     		bne	.L112
1111:Drivers/STM32F7xx_HAL_Driver/Src/stm32f7xx_hal_uart.c ****   {
1112:Drivers/STM32F7xx_HAL_Driver/Src/stm32f7xx_hal_uart.c ****     /* Enable the UART DMA Tx request */
1113:Drivers/STM32F7xx_HAL_Driver/Src/stm32f7xx_hal_uart.c ****     SET_BIT(huart->Instance->CR3, USART_CR3_DMAT);
 2148              		.loc 1 1113 0
 2149 002a 7B68     		ldr	r3, [r7, #4]
 2150 002c 1B68     		ldr	r3, [r3]
 2151 002e 9A68     		ldr	r2, [r3, #8]
 2152 0030 7B68     		ldr	r3, [r7, #4]
 2153 0032 1B68     		ldr	r3, [r3]
 2154 0034 42F08002 		orr	r2, r2, #128
 2155 0038 9A60     		str	r2, [r3, #8]
 2156              	.L112:
1114:Drivers/STM32F7xx_HAL_Driver/Src/stm32f7xx_hal_uart.c ****   }
1115:Drivers/STM32F7xx_HAL_Driver/Src/stm32f7xx_hal_uart.c ****   if(huart->RxState == HAL_UART_STATE_BUSY_RX)
 2157              		.loc 1 1115 0
 2158 003a 7B68     		ldr	r3, [r7, #4]
 2159 003c 93F86A30 		ldrb	r3, [r3, #106]
 2160 0040 DBB2     		uxtb	r3, r3
 2161 0042 222B     		cmp	r3, #34
ARM GAS  /tmp/ccvy8ygO.s 			page 58


 2162 0044 1BD1     		bne	.L113
1116:Drivers/STM32F7xx_HAL_Driver/Src/stm32f7xx_hal_uart.c ****   {
1117:Drivers/STM32F7xx_HAL_Driver/Src/stm32f7xx_hal_uart.c ****     /* Clear the Overrun flag before resuming the Rx transfer*/
1118:Drivers/STM32F7xx_HAL_Driver/Src/stm32f7xx_hal_uart.c ****     __HAL_UART_CLEAR_IT(huart, UART_CLEAR_OREF);
 2163              		.loc 1 1118 0
 2164 0046 7B68     		ldr	r3, [r7, #4]
 2165 0048 1B68     		ldr	r3, [r3]
 2166 004a 0822     		movs	r2, #8
 2167 004c 1A62     		str	r2, [r3, #32]
1119:Drivers/STM32F7xx_HAL_Driver/Src/stm32f7xx_hal_uart.c **** 
1120:Drivers/STM32F7xx_HAL_Driver/Src/stm32f7xx_hal_uart.c ****     /* Reenable PE and ERR (Frame error, noise error, overrun error) interrupts */
1121:Drivers/STM32F7xx_HAL_Driver/Src/stm32f7xx_hal_uart.c ****     SET_BIT(huart->Instance->CR1, USART_CR1_PEIE);
 2168              		.loc 1 1121 0
 2169 004e 7B68     		ldr	r3, [r7, #4]
 2170 0050 1B68     		ldr	r3, [r3]
 2171 0052 1A68     		ldr	r2, [r3]
 2172 0054 7B68     		ldr	r3, [r7, #4]
 2173 0056 1B68     		ldr	r3, [r3]
 2174 0058 42F48072 		orr	r2, r2, #256
 2175 005c 1A60     		str	r2, [r3]
1122:Drivers/STM32F7xx_HAL_Driver/Src/stm32f7xx_hal_uart.c ****     SET_BIT(huart->Instance->CR3, USART_CR3_EIE);
 2176              		.loc 1 1122 0
 2177 005e 7B68     		ldr	r3, [r7, #4]
 2178 0060 1B68     		ldr	r3, [r3]
 2179 0062 9A68     		ldr	r2, [r3, #8]
 2180 0064 7B68     		ldr	r3, [r7, #4]
 2181 0066 1B68     		ldr	r3, [r3]
 2182 0068 42F00102 		orr	r2, r2, #1
 2183 006c 9A60     		str	r2, [r3, #8]
1123:Drivers/STM32F7xx_HAL_Driver/Src/stm32f7xx_hal_uart.c **** 
1124:Drivers/STM32F7xx_HAL_Driver/Src/stm32f7xx_hal_uart.c ****     /* Enable the UART DMA Rx request */
1125:Drivers/STM32F7xx_HAL_Driver/Src/stm32f7xx_hal_uart.c ****     SET_BIT(huart->Instance->CR3, USART_CR3_DMAR);
 2184              		.loc 1 1125 0
 2185 006e 7B68     		ldr	r3, [r7, #4]
 2186 0070 1B68     		ldr	r3, [r3]
 2187 0072 9A68     		ldr	r2, [r3, #8]
 2188 0074 7B68     		ldr	r3, [r7, #4]
 2189 0076 1B68     		ldr	r3, [r3]
 2190 0078 42F04002 		orr	r2, r2, #64
 2191 007c 9A60     		str	r2, [r3, #8]
 2192              	.L113:
1126:Drivers/STM32F7xx_HAL_Driver/Src/stm32f7xx_hal_uart.c ****   }
1127:Drivers/STM32F7xx_HAL_Driver/Src/stm32f7xx_hal_uart.c **** 
1128:Drivers/STM32F7xx_HAL_Driver/Src/stm32f7xx_hal_uart.c ****   /* If the UART peripheral is still not enabled, enable it */
1129:Drivers/STM32F7xx_HAL_Driver/Src/stm32f7xx_hal_uart.c ****   if ((huart->Instance->CR1 & USART_CR1_UE) == 0U)
 2193              		.loc 1 1129 0
 2194 007e 7B68     		ldr	r3, [r7, #4]
 2195 0080 1B68     		ldr	r3, [r3]
 2196 0082 1B68     		ldr	r3, [r3]
 2197 0084 03F00103 		and	r3, r3, #1
 2198 0088 002B     		cmp	r3, #0
 2199 008a 07D1     		bne	.L114
1130:Drivers/STM32F7xx_HAL_Driver/Src/stm32f7xx_hal_uart.c ****   {
1131:Drivers/STM32F7xx_HAL_Driver/Src/stm32f7xx_hal_uart.c ****     /* Enable UART peripheral */
1132:Drivers/STM32F7xx_HAL_Driver/Src/stm32f7xx_hal_uart.c ****     __HAL_UART_ENABLE(huart);
 2200              		.loc 1 1132 0
 2201 008c 7B68     		ldr	r3, [r7, #4]
ARM GAS  /tmp/ccvy8ygO.s 			page 59


 2202 008e 1B68     		ldr	r3, [r3]
 2203 0090 1A68     		ldr	r2, [r3]
 2204 0092 7B68     		ldr	r3, [r7, #4]
 2205 0094 1B68     		ldr	r3, [r3]
 2206 0096 42F00102 		orr	r2, r2, #1
 2207 009a 1A60     		str	r2, [r3]
 2208              	.L114:
1133:Drivers/STM32F7xx_HAL_Driver/Src/stm32f7xx_hal_uart.c ****   }
1134:Drivers/STM32F7xx_HAL_Driver/Src/stm32f7xx_hal_uart.c **** 
1135:Drivers/STM32F7xx_HAL_Driver/Src/stm32f7xx_hal_uart.c ****   return HAL_OK;
 2209              		.loc 1 1135 0
 2210 009c 0023     		movs	r3, #0
 2211              	.L111:
1136:Drivers/STM32F7xx_HAL_Driver/Src/stm32f7xx_hal_uart.c **** }
 2212              		.loc 1 1136 0
 2213 009e 1846     		mov	r0, r3
 2214 00a0 0C37     		adds	r7, r7, #12
 2215              	.LCFI83:
 2216              		.cfi_def_cfa_offset 4
 2217 00a2 BD46     		mov	sp, r7
 2218              	.LCFI84:
 2219              		.cfi_def_cfa_register 13
 2220              		@ sp needed
 2221 00a4 5DF8047B 		ldr	r7, [sp], #4
 2222              	.LCFI85:
 2223              		.cfi_restore 7
 2224              		.cfi_def_cfa_offset 0
 2225 00a8 7047     		bx	lr
 2226              		.cfi_endproc
 2227              	.LFE153:
 2229              		.section	.text.HAL_UART_DMAStop,"ax",%progbits
 2230              		.align	1
 2231              		.global	HAL_UART_DMAStop
 2232              		.syntax unified
 2233              		.thumb
 2234              		.thumb_func
 2235              		.fpu fpv4-sp-d16
 2237              	HAL_UART_DMAStop:
 2238              	.LFB154:
1137:Drivers/STM32F7xx_HAL_Driver/Src/stm32f7xx_hal_uart.c **** 
1138:Drivers/STM32F7xx_HAL_Driver/Src/stm32f7xx_hal_uart.c **** /**
1139:Drivers/STM32F7xx_HAL_Driver/Src/stm32f7xx_hal_uart.c ****   * @brief Stop the DMA Transfer.
1140:Drivers/STM32F7xx_HAL_Driver/Src/stm32f7xx_hal_uart.c ****   * @param huart UART handle.
1141:Drivers/STM32F7xx_HAL_Driver/Src/stm32f7xx_hal_uart.c ****   * @retval HAL status
1142:Drivers/STM32F7xx_HAL_Driver/Src/stm32f7xx_hal_uart.c ****   */
1143:Drivers/STM32F7xx_HAL_Driver/Src/stm32f7xx_hal_uart.c **** HAL_StatusTypeDef HAL_UART_DMAStop(UART_HandleTypeDef *huart)
1144:Drivers/STM32F7xx_HAL_Driver/Src/stm32f7xx_hal_uart.c **** {
 2239              		.loc 1 1144 0
 2240              		.cfi_startproc
 2241              		@ args = 0, pretend = 0, frame = 8
 2242              		@ frame_needed = 1, uses_anonymous_args = 0
 2243 0000 80B5     		push	{r7, lr}
 2244              	.LCFI86:
 2245              		.cfi_def_cfa_offset 8
 2246              		.cfi_offset 7, -8
 2247              		.cfi_offset 14, -4
 2248 0002 82B0     		sub	sp, sp, #8
ARM GAS  /tmp/ccvy8ygO.s 			page 60


 2249              	.LCFI87:
 2250              		.cfi_def_cfa_offset 16
 2251 0004 00AF     		add	r7, sp, #0
 2252              	.LCFI88:
 2253              		.cfi_def_cfa_register 7
 2254 0006 7860     		str	r0, [r7, #4]
1145:Drivers/STM32F7xx_HAL_Driver/Src/stm32f7xx_hal_uart.c ****   /* The Lock is not implemented on this API to allow the user application
1146:Drivers/STM32F7xx_HAL_Driver/Src/stm32f7xx_hal_uart.c ****      to call the HAL UART API under callbacks HAL_UART_TxCpltCallback() / HAL_UART_RxCpltCallback()
1147:Drivers/STM32F7xx_HAL_Driver/Src/stm32f7xx_hal_uart.c ****      HAL_UART_TxHalfCpltCallback / HAL_UART_RxHalfCpltCallback:
1148:Drivers/STM32F7xx_HAL_Driver/Src/stm32f7xx_hal_uart.c ****      indeed, when HAL_DMA_Abort() API is called, the DMA TX/RX Transfer or Half Transfer complete
1149:Drivers/STM32F7xx_HAL_Driver/Src/stm32f7xx_hal_uart.c ****      interrupt is generated if the DMA transfer interruption occurs at the middle or at the end of
1150:Drivers/STM32F7xx_HAL_Driver/Src/stm32f7xx_hal_uart.c ****      the stream and the corresponding call back is executed. */
1151:Drivers/STM32F7xx_HAL_Driver/Src/stm32f7xx_hal_uart.c **** 
1152:Drivers/STM32F7xx_HAL_Driver/Src/stm32f7xx_hal_uart.c ****   /* Stop UART DMA Tx request if ongoing */
1153:Drivers/STM32F7xx_HAL_Driver/Src/stm32f7xx_hal_uart.c ****   if ((huart->gState == HAL_UART_STATE_BUSY_TX) &&
 2255              		.loc 1 1153 0
 2256 0008 7B68     		ldr	r3, [r7, #4]
 2257 000a 93F86930 		ldrb	r3, [r3, #105]
 2258 000e DBB2     		uxtb	r3, r3
 2259 0010 212B     		cmp	r3, #33
 2260 0012 1AD1     		bne	.L116
1154:Drivers/STM32F7xx_HAL_Driver/Src/stm32f7xx_hal_uart.c ****       (HAL_IS_BIT_SET(huart->Instance->CR3, USART_CR3_DMAT)))
 2261              		.loc 1 1154 0 discriminator 1
 2262 0014 7B68     		ldr	r3, [r7, #4]
 2263 0016 1B68     		ldr	r3, [r3]
 2264 0018 9B68     		ldr	r3, [r3, #8]
 2265 001a 03F08003 		and	r3, r3, #128
1153:Drivers/STM32F7xx_HAL_Driver/Src/stm32f7xx_hal_uart.c ****       (HAL_IS_BIT_SET(huart->Instance->CR3, USART_CR3_DMAT)))
 2266              		.loc 1 1153 0 discriminator 1
 2267 001e 002B     		cmp	r3, #0
 2268 0020 13D0     		beq	.L116
1155:Drivers/STM32F7xx_HAL_Driver/Src/stm32f7xx_hal_uart.c ****   {
1156:Drivers/STM32F7xx_HAL_Driver/Src/stm32f7xx_hal_uart.c ****     CLEAR_BIT(huart->Instance->CR3, USART_CR3_DMAT);
 2269              		.loc 1 1156 0
 2270 0022 7B68     		ldr	r3, [r7, #4]
 2271 0024 1B68     		ldr	r3, [r3]
 2272 0026 9A68     		ldr	r2, [r3, #8]
 2273 0028 7B68     		ldr	r3, [r7, #4]
 2274 002a 1B68     		ldr	r3, [r3]
 2275 002c 22F08002 		bic	r2, r2, #128
 2276 0030 9A60     		str	r2, [r3, #8]
1157:Drivers/STM32F7xx_HAL_Driver/Src/stm32f7xx_hal_uart.c **** 
1158:Drivers/STM32F7xx_HAL_Driver/Src/stm32f7xx_hal_uart.c ****     /* Abort the UART DMA Tx channel */
1159:Drivers/STM32F7xx_HAL_Driver/Src/stm32f7xx_hal_uart.c ****     if(huart->hdmatx != NULL)
 2277              		.loc 1 1159 0
 2278 0032 7B68     		ldr	r3, [r7, #4]
 2279 0034 1B6E     		ldr	r3, [r3, #96]
 2280 0036 002B     		cmp	r3, #0
 2281 0038 04D0     		beq	.L117
1160:Drivers/STM32F7xx_HAL_Driver/Src/stm32f7xx_hal_uart.c ****     {
1161:Drivers/STM32F7xx_HAL_Driver/Src/stm32f7xx_hal_uart.c ****       HAL_DMA_Abort(huart->hdmatx);
 2282              		.loc 1 1161 0
 2283 003a 7B68     		ldr	r3, [r7, #4]
 2284 003c 1B6E     		ldr	r3, [r3, #96]
 2285 003e 1846     		mov	r0, r3
 2286 0040 FFF7FEFF 		bl	HAL_DMA_Abort
 2287              	.L117:
ARM GAS  /tmp/ccvy8ygO.s 			page 61


1162:Drivers/STM32F7xx_HAL_Driver/Src/stm32f7xx_hal_uart.c ****     }
1163:Drivers/STM32F7xx_HAL_Driver/Src/stm32f7xx_hal_uart.c **** 
1164:Drivers/STM32F7xx_HAL_Driver/Src/stm32f7xx_hal_uart.c ****     UART_EndTxTransfer(huart);
 2288              		.loc 1 1164 0
 2289 0044 7868     		ldr	r0, [r7, #4]
 2290 0046 FFF7FEFF 		bl	UART_EndTxTransfer
 2291              	.L116:
1165:Drivers/STM32F7xx_HAL_Driver/Src/stm32f7xx_hal_uart.c ****   }
1166:Drivers/STM32F7xx_HAL_Driver/Src/stm32f7xx_hal_uart.c **** 
1167:Drivers/STM32F7xx_HAL_Driver/Src/stm32f7xx_hal_uart.c ****   /* Stop UART DMA Rx request if ongoing */
1168:Drivers/STM32F7xx_HAL_Driver/Src/stm32f7xx_hal_uart.c ****   if ((huart->RxState == HAL_UART_STATE_BUSY_RX) &&
 2292              		.loc 1 1168 0
 2293 004a 7B68     		ldr	r3, [r7, #4]
 2294 004c 93F86A30 		ldrb	r3, [r3, #106]
 2295 0050 DBB2     		uxtb	r3, r3
 2296 0052 222B     		cmp	r3, #34
 2297 0054 1AD1     		bne	.L118
1169:Drivers/STM32F7xx_HAL_Driver/Src/stm32f7xx_hal_uart.c ****       (HAL_IS_BIT_SET(huart->Instance->CR3, USART_CR3_DMAR)))
 2298              		.loc 1 1169 0 discriminator 1
 2299 0056 7B68     		ldr	r3, [r7, #4]
 2300 0058 1B68     		ldr	r3, [r3]
 2301 005a 9B68     		ldr	r3, [r3, #8]
 2302 005c 03F04003 		and	r3, r3, #64
1168:Drivers/STM32F7xx_HAL_Driver/Src/stm32f7xx_hal_uart.c ****       (HAL_IS_BIT_SET(huart->Instance->CR3, USART_CR3_DMAR)))
 2303              		.loc 1 1168 0 discriminator 1
 2304 0060 002B     		cmp	r3, #0
 2305 0062 13D0     		beq	.L118
1170:Drivers/STM32F7xx_HAL_Driver/Src/stm32f7xx_hal_uart.c ****   {
1171:Drivers/STM32F7xx_HAL_Driver/Src/stm32f7xx_hal_uart.c ****     CLEAR_BIT(huart->Instance->CR3, USART_CR3_DMAR);
 2306              		.loc 1 1171 0
 2307 0064 7B68     		ldr	r3, [r7, #4]
 2308 0066 1B68     		ldr	r3, [r3]
 2309 0068 9A68     		ldr	r2, [r3, #8]
 2310 006a 7B68     		ldr	r3, [r7, #4]
 2311 006c 1B68     		ldr	r3, [r3]
 2312 006e 22F04002 		bic	r2, r2, #64
 2313 0072 9A60     		str	r2, [r3, #8]
1172:Drivers/STM32F7xx_HAL_Driver/Src/stm32f7xx_hal_uart.c **** 
1173:Drivers/STM32F7xx_HAL_Driver/Src/stm32f7xx_hal_uart.c ****     /* Abort the UART DMA Rx channel */
1174:Drivers/STM32F7xx_HAL_Driver/Src/stm32f7xx_hal_uart.c ****     if(huart->hdmarx != NULL)
 2314              		.loc 1 1174 0
 2315 0074 7B68     		ldr	r3, [r7, #4]
 2316 0076 5B6E     		ldr	r3, [r3, #100]
 2317 0078 002B     		cmp	r3, #0
 2318 007a 04D0     		beq	.L119
1175:Drivers/STM32F7xx_HAL_Driver/Src/stm32f7xx_hal_uart.c ****     {
1176:Drivers/STM32F7xx_HAL_Driver/Src/stm32f7xx_hal_uart.c ****       HAL_DMA_Abort(huart->hdmarx);
 2319              		.loc 1 1176 0
 2320 007c 7B68     		ldr	r3, [r7, #4]
 2321 007e 5B6E     		ldr	r3, [r3, #100]
 2322 0080 1846     		mov	r0, r3
 2323 0082 FFF7FEFF 		bl	HAL_DMA_Abort
 2324              	.L119:
1177:Drivers/STM32F7xx_HAL_Driver/Src/stm32f7xx_hal_uart.c ****     }
1178:Drivers/STM32F7xx_HAL_Driver/Src/stm32f7xx_hal_uart.c **** 
1179:Drivers/STM32F7xx_HAL_Driver/Src/stm32f7xx_hal_uart.c ****     UART_EndRxTransfer(huart);
 2325              		.loc 1 1179 0
ARM GAS  /tmp/ccvy8ygO.s 			page 62


 2326 0086 7868     		ldr	r0, [r7, #4]
 2327 0088 FFF7FEFF 		bl	UART_EndRxTransfer
 2328              	.L118:
1180:Drivers/STM32F7xx_HAL_Driver/Src/stm32f7xx_hal_uart.c ****   }
1181:Drivers/STM32F7xx_HAL_Driver/Src/stm32f7xx_hal_uart.c **** 
1182:Drivers/STM32F7xx_HAL_Driver/Src/stm32f7xx_hal_uart.c ****   return HAL_OK;
 2329              		.loc 1 1182 0
 2330 008c 0023     		movs	r3, #0
1183:Drivers/STM32F7xx_HAL_Driver/Src/stm32f7xx_hal_uart.c **** }
 2331              		.loc 1 1183 0
 2332 008e 1846     		mov	r0, r3
 2333 0090 0837     		adds	r7, r7, #8
 2334              	.LCFI89:
 2335              		.cfi_def_cfa_offset 8
 2336 0092 BD46     		mov	sp, r7
 2337              	.LCFI90:
 2338              		.cfi_def_cfa_register 13
 2339              		@ sp needed
 2340 0094 80BD     		pop	{r7, pc}
 2341              		.cfi_endproc
 2342              	.LFE154:
 2344              		.section	.text.HAL_UART_IRQHandler,"ax",%progbits
 2345              		.align	1
 2346              		.global	HAL_UART_IRQHandler
 2347              		.syntax unified
 2348              		.thumb
 2349              		.thumb_func
 2350              		.fpu fpv4-sp-d16
 2352              	HAL_UART_IRQHandler:
 2353              	.LFB155:
1184:Drivers/STM32F7xx_HAL_Driver/Src/stm32f7xx_hal_uart.c **** 
1185:Drivers/STM32F7xx_HAL_Driver/Src/stm32f7xx_hal_uart.c **** /**
1186:Drivers/STM32F7xx_HAL_Driver/Src/stm32f7xx_hal_uart.c ****   * @brief This function handles UART interrupt request.
1187:Drivers/STM32F7xx_HAL_Driver/Src/stm32f7xx_hal_uart.c ****   * @param huart uart handle
1188:Drivers/STM32F7xx_HAL_Driver/Src/stm32f7xx_hal_uart.c ****   * @retval None
1189:Drivers/STM32F7xx_HAL_Driver/Src/stm32f7xx_hal_uart.c ****   */
1190:Drivers/STM32F7xx_HAL_Driver/Src/stm32f7xx_hal_uart.c **** void HAL_UART_IRQHandler(UART_HandleTypeDef *huart)
1191:Drivers/STM32F7xx_HAL_Driver/Src/stm32f7xx_hal_uart.c **** {
 2354              		.loc 1 1191 0
 2355              		.cfi_startproc
 2356              		@ args = 0, pretend = 0, frame = 24
 2357              		@ frame_needed = 1, uses_anonymous_args = 0
 2358 0000 80B5     		push	{r7, lr}
 2359              	.LCFI91:
 2360              		.cfi_def_cfa_offset 8
 2361              		.cfi_offset 7, -8
 2362              		.cfi_offset 14, -4
 2363 0002 86B0     		sub	sp, sp, #24
 2364              	.LCFI92:
 2365              		.cfi_def_cfa_offset 32
 2366 0004 00AF     		add	r7, sp, #0
 2367              	.LCFI93:
 2368              		.cfi_def_cfa_register 7
 2369 0006 7860     		str	r0, [r7, #4]
1192:Drivers/STM32F7xx_HAL_Driver/Src/stm32f7xx_hal_uart.c ****   uint32_t isrflags   = READ_REG(huart->Instance->ISR);
 2370              		.loc 1 1192 0
 2371 0008 7B68     		ldr	r3, [r7, #4]
ARM GAS  /tmp/ccvy8ygO.s 			page 63


 2372 000a 1B68     		ldr	r3, [r3]
 2373 000c DB69     		ldr	r3, [r3, #28]
 2374 000e 7B61     		str	r3, [r7, #20]
1193:Drivers/STM32F7xx_HAL_Driver/Src/stm32f7xx_hal_uart.c ****   uint32_t cr1its     = READ_REG(huart->Instance->CR1);
 2375              		.loc 1 1193 0
 2376 0010 7B68     		ldr	r3, [r7, #4]
 2377 0012 1B68     		ldr	r3, [r3]
 2378 0014 1B68     		ldr	r3, [r3]
 2379 0016 3B61     		str	r3, [r7, #16]
1194:Drivers/STM32F7xx_HAL_Driver/Src/stm32f7xx_hal_uart.c ****   uint32_t cr3its     = READ_REG(huart->Instance->CR3);
 2380              		.loc 1 1194 0
 2381 0018 7B68     		ldr	r3, [r7, #4]
 2382 001a 1B68     		ldr	r3, [r3]
 2383 001c 9B68     		ldr	r3, [r3, #8]
 2384 001e FB60     		str	r3, [r7, #12]
1195:Drivers/STM32F7xx_HAL_Driver/Src/stm32f7xx_hal_uart.c ****   uint32_t errorflags;
1196:Drivers/STM32F7xx_HAL_Driver/Src/stm32f7xx_hal_uart.c **** 
1197:Drivers/STM32F7xx_HAL_Driver/Src/stm32f7xx_hal_uart.c ****   /* If no error occurs */
1198:Drivers/STM32F7xx_HAL_Driver/Src/stm32f7xx_hal_uart.c ****   errorflags = (isrflags & (uint32_t)(USART_ISR_PE | USART_ISR_FE | USART_ISR_ORE | USART_ISR_NE));
 2385              		.loc 1 1198 0
 2386 0020 7B69     		ldr	r3, [r7, #20]
 2387 0022 03F00F03 		and	r3, r3, #15
 2388 0026 BB60     		str	r3, [r7, #8]
1199:Drivers/STM32F7xx_HAL_Driver/Src/stm32f7xx_hal_uart.c ****   if (errorflags == RESET)
 2389              		.loc 1 1199 0
 2390 0028 BB68     		ldr	r3, [r7, #8]
 2391 002a 002B     		cmp	r3, #0
 2392 002c 0DD1     		bne	.L122
1200:Drivers/STM32F7xx_HAL_Driver/Src/stm32f7xx_hal_uart.c ****   {
1201:Drivers/STM32F7xx_HAL_Driver/Src/stm32f7xx_hal_uart.c ****     /* UART in mode Receiver ---------------------------------------------------*/
1202:Drivers/STM32F7xx_HAL_Driver/Src/stm32f7xx_hal_uart.c ****     if(((isrflags & USART_ISR_RXNE) != RESET) && ((cr1its & USART_CR1_RXNEIE) != RESET))
 2393              		.loc 1 1202 0
 2394 002e 7B69     		ldr	r3, [r7, #20]
 2395 0030 03F02003 		and	r3, r3, #32
 2396 0034 002B     		cmp	r3, #0
 2397 0036 08D0     		beq	.L122
 2398              		.loc 1 1202 0 is_stmt 0 discriminator 1
 2399 0038 3B69     		ldr	r3, [r7, #16]
 2400 003a 03F02003 		and	r3, r3, #32
 2401 003e 002B     		cmp	r3, #0
 2402 0040 03D0     		beq	.L122
1203:Drivers/STM32F7xx_HAL_Driver/Src/stm32f7xx_hal_uart.c ****     {
1204:Drivers/STM32F7xx_HAL_Driver/Src/stm32f7xx_hal_uart.c ****       UART_Receive_IT(huart);
 2403              		.loc 1 1204 0 is_stmt 1
 2404 0042 7868     		ldr	r0, [r7, #4]
 2405 0044 FFF7FEFF 		bl	UART_Receive_IT
1205:Drivers/STM32F7xx_HAL_Driver/Src/stm32f7xx_hal_uart.c ****       return;
 2406              		.loc 1 1205 0
 2407 0048 DAE0     		b	.L121
 2408              	.L122:
1206:Drivers/STM32F7xx_HAL_Driver/Src/stm32f7xx_hal_uart.c ****     }
1207:Drivers/STM32F7xx_HAL_Driver/Src/stm32f7xx_hal_uart.c ****   }
1208:Drivers/STM32F7xx_HAL_Driver/Src/stm32f7xx_hal_uart.c **** 
1209:Drivers/STM32F7xx_HAL_Driver/Src/stm32f7xx_hal_uart.c ****   /* If some errors occur */
1210:Drivers/STM32F7xx_HAL_Driver/Src/stm32f7xx_hal_uart.c ****   if(   (errorflags != RESET)
 2409              		.loc 1 1210 0
 2410 004a BB68     		ldr	r3, [r7, #8]
ARM GAS  /tmp/ccvy8ygO.s 			page 64


 2411 004c 002B     		cmp	r3, #0
 2412 004e 00F0B980 		beq	.L124
1211:Drivers/STM32F7xx_HAL_Driver/Src/stm32f7xx_hal_uart.c ****      && (   ((cr3its & USART_CR3_EIE) != RESET)
 2413              		.loc 1 1211 0
 2414 0052 FB68     		ldr	r3, [r7, #12]
 2415 0054 03F00103 		and	r3, r3, #1
 2416 0058 002B     		cmp	r3, #0
 2417 005a 05D1     		bne	.L125
1212:Drivers/STM32F7xx_HAL_Driver/Src/stm32f7xx_hal_uart.c ****          || ((cr1its & (USART_CR1_RXNEIE | USART_CR1_PEIE)) != RESET)) )
 2418              		.loc 1 1212 0
 2419 005c 3B69     		ldr	r3, [r7, #16]
 2420 005e 03F49073 		and	r3, r3, #288
 2421 0062 002B     		cmp	r3, #0
 2422 0064 00F0AE80 		beq	.L124
 2423              	.L125:
1213:Drivers/STM32F7xx_HAL_Driver/Src/stm32f7xx_hal_uart.c ****   {
1214:Drivers/STM32F7xx_HAL_Driver/Src/stm32f7xx_hal_uart.c **** 
1215:Drivers/STM32F7xx_HAL_Driver/Src/stm32f7xx_hal_uart.c ****     /* UART parity error interrupt occurred -------------------------------------*/
1216:Drivers/STM32F7xx_HAL_Driver/Src/stm32f7xx_hal_uart.c ****     if(((isrflags & USART_ISR_PE) != RESET) && ((cr1its & USART_CR1_PEIE) != RESET))
 2424              		.loc 1 1216 0
 2425 0068 7B69     		ldr	r3, [r7, #20]
 2426 006a 03F00103 		and	r3, r3, #1
 2427 006e 002B     		cmp	r3, #0
 2428 0070 0ED0     		beq	.L126
 2429              		.loc 1 1216 0 is_stmt 0 discriminator 1
 2430 0072 3B69     		ldr	r3, [r7, #16]
 2431 0074 03F48073 		and	r3, r3, #256
 2432 0078 002B     		cmp	r3, #0
 2433 007a 09D0     		beq	.L126
1217:Drivers/STM32F7xx_HAL_Driver/Src/stm32f7xx_hal_uart.c ****     {
1218:Drivers/STM32F7xx_HAL_Driver/Src/stm32f7xx_hal_uart.c ****       __HAL_UART_CLEAR_IT(huart, UART_CLEAR_PEF);
 2434              		.loc 1 1218 0 is_stmt 1
 2435 007c 7B68     		ldr	r3, [r7, #4]
 2436 007e 1B68     		ldr	r3, [r3]
 2437 0080 0122     		movs	r2, #1
 2438 0082 1A62     		str	r2, [r3, #32]
1219:Drivers/STM32F7xx_HAL_Driver/Src/stm32f7xx_hal_uart.c **** 
1220:Drivers/STM32F7xx_HAL_Driver/Src/stm32f7xx_hal_uart.c ****       huart->ErrorCode |= HAL_UART_ERROR_PE;
 2439              		.loc 1 1220 0
 2440 0084 7B68     		ldr	r3, [r7, #4]
 2441 0086 DB6E     		ldr	r3, [r3, #108]
 2442 0088 43F00102 		orr	r2, r3, #1
 2443 008c 7B68     		ldr	r3, [r7, #4]
 2444 008e DA66     		str	r2, [r3, #108]
 2445              	.L126:
1221:Drivers/STM32F7xx_HAL_Driver/Src/stm32f7xx_hal_uart.c ****     }
1222:Drivers/STM32F7xx_HAL_Driver/Src/stm32f7xx_hal_uart.c **** 
1223:Drivers/STM32F7xx_HAL_Driver/Src/stm32f7xx_hal_uart.c ****     /* UART frame error interrupt occurred --------------------------------------*/
1224:Drivers/STM32F7xx_HAL_Driver/Src/stm32f7xx_hal_uart.c ****     if(((isrflags & USART_ISR_FE) != RESET) && ((cr3its & USART_CR3_EIE) != RESET))
 2446              		.loc 1 1224 0
 2447 0090 7B69     		ldr	r3, [r7, #20]
 2448 0092 03F00203 		and	r3, r3, #2
 2449 0096 002B     		cmp	r3, #0
 2450 0098 0ED0     		beq	.L127
 2451              		.loc 1 1224 0 is_stmt 0 discriminator 1
 2452 009a FB68     		ldr	r3, [r7, #12]
 2453 009c 03F00103 		and	r3, r3, #1
ARM GAS  /tmp/ccvy8ygO.s 			page 65


 2454 00a0 002B     		cmp	r3, #0
 2455 00a2 09D0     		beq	.L127
1225:Drivers/STM32F7xx_HAL_Driver/Src/stm32f7xx_hal_uart.c ****     {
1226:Drivers/STM32F7xx_HAL_Driver/Src/stm32f7xx_hal_uart.c ****       __HAL_UART_CLEAR_IT(huart, UART_CLEAR_FEF);
 2456              		.loc 1 1226 0 is_stmt 1
 2457 00a4 7B68     		ldr	r3, [r7, #4]
 2458 00a6 1B68     		ldr	r3, [r3]
 2459 00a8 0222     		movs	r2, #2
 2460 00aa 1A62     		str	r2, [r3, #32]
1227:Drivers/STM32F7xx_HAL_Driver/Src/stm32f7xx_hal_uart.c **** 
1228:Drivers/STM32F7xx_HAL_Driver/Src/stm32f7xx_hal_uart.c ****       huart->ErrorCode |= HAL_UART_ERROR_FE;
 2461              		.loc 1 1228 0
 2462 00ac 7B68     		ldr	r3, [r7, #4]
 2463 00ae DB6E     		ldr	r3, [r3, #108]
 2464 00b0 43F00402 		orr	r2, r3, #4
 2465 00b4 7B68     		ldr	r3, [r7, #4]
 2466 00b6 DA66     		str	r2, [r3, #108]
 2467              	.L127:
1229:Drivers/STM32F7xx_HAL_Driver/Src/stm32f7xx_hal_uart.c ****     }
1230:Drivers/STM32F7xx_HAL_Driver/Src/stm32f7xx_hal_uart.c **** 
1231:Drivers/STM32F7xx_HAL_Driver/Src/stm32f7xx_hal_uart.c ****     /* UART noise error interrupt occurred --------------------------------------*/
1232:Drivers/STM32F7xx_HAL_Driver/Src/stm32f7xx_hal_uart.c ****     if(((isrflags & USART_ISR_NE) != RESET) && ((cr3its & USART_CR3_EIE) != RESET))
 2468              		.loc 1 1232 0
 2469 00b8 7B69     		ldr	r3, [r7, #20]
 2470 00ba 03F00403 		and	r3, r3, #4
 2471 00be 002B     		cmp	r3, #0
 2472 00c0 0ED0     		beq	.L128
 2473              		.loc 1 1232 0 is_stmt 0 discriminator 1
 2474 00c2 FB68     		ldr	r3, [r7, #12]
 2475 00c4 03F00103 		and	r3, r3, #1
 2476 00c8 002B     		cmp	r3, #0
 2477 00ca 09D0     		beq	.L128
1233:Drivers/STM32F7xx_HAL_Driver/Src/stm32f7xx_hal_uart.c ****     {
1234:Drivers/STM32F7xx_HAL_Driver/Src/stm32f7xx_hal_uart.c ****       __HAL_UART_CLEAR_IT(huart, UART_CLEAR_NEF);
 2478              		.loc 1 1234 0 is_stmt 1
 2479 00cc 7B68     		ldr	r3, [r7, #4]
 2480 00ce 1B68     		ldr	r3, [r3]
 2481 00d0 0422     		movs	r2, #4
 2482 00d2 1A62     		str	r2, [r3, #32]
1235:Drivers/STM32F7xx_HAL_Driver/Src/stm32f7xx_hal_uart.c **** 
1236:Drivers/STM32F7xx_HAL_Driver/Src/stm32f7xx_hal_uart.c ****       huart->ErrorCode |= HAL_UART_ERROR_NE;
 2483              		.loc 1 1236 0
 2484 00d4 7B68     		ldr	r3, [r7, #4]
 2485 00d6 DB6E     		ldr	r3, [r3, #108]
 2486 00d8 43F00202 		orr	r2, r3, #2
 2487 00dc 7B68     		ldr	r3, [r7, #4]
 2488 00de DA66     		str	r2, [r3, #108]
 2489              	.L128:
1237:Drivers/STM32F7xx_HAL_Driver/Src/stm32f7xx_hal_uart.c ****     }
1238:Drivers/STM32F7xx_HAL_Driver/Src/stm32f7xx_hal_uart.c ****     
1239:Drivers/STM32F7xx_HAL_Driver/Src/stm32f7xx_hal_uart.c ****     /* UART Over-Run interrupt occurred -----------------------------------------*/
1240:Drivers/STM32F7xx_HAL_Driver/Src/stm32f7xx_hal_uart.c ****     if(((isrflags & USART_ISR_ORE) != RESET) &&
 2490              		.loc 1 1240 0
 2491 00e0 7B69     		ldr	r3, [r7, #20]
 2492 00e2 03F00803 		and	r3, r3, #8
 2493 00e6 002B     		cmp	r3, #0
 2494 00e8 13D0     		beq	.L129
ARM GAS  /tmp/ccvy8ygO.s 			page 66


1241:Drivers/STM32F7xx_HAL_Driver/Src/stm32f7xx_hal_uart.c ****        (((cr1its & USART_CR1_RXNEIE) != RESET) || ((cr3its & USART_CR3_EIE) != RESET)))
 2495              		.loc 1 1241 0 discriminator 1
 2496 00ea 3B69     		ldr	r3, [r7, #16]
 2497 00ec 03F02003 		and	r3, r3, #32
1240:Drivers/STM32F7xx_HAL_Driver/Src/stm32f7xx_hal_uart.c ****        (((cr1its & USART_CR1_RXNEIE) != RESET) || ((cr3its & USART_CR3_EIE) != RESET)))
 2498              		.loc 1 1240 0 discriminator 1
 2499 00f0 002B     		cmp	r3, #0
 2500 00f2 04D1     		bne	.L130
 2501              		.loc 1 1241 0
 2502 00f4 FB68     		ldr	r3, [r7, #12]
 2503 00f6 03F00103 		and	r3, r3, #1
 2504 00fa 002B     		cmp	r3, #0
 2505 00fc 09D0     		beq	.L129
 2506              	.L130:
1242:Drivers/STM32F7xx_HAL_Driver/Src/stm32f7xx_hal_uart.c ****     {
1243:Drivers/STM32F7xx_HAL_Driver/Src/stm32f7xx_hal_uart.c ****       __HAL_UART_CLEAR_IT(huart, UART_CLEAR_OREF);
 2507              		.loc 1 1243 0
 2508 00fe 7B68     		ldr	r3, [r7, #4]
 2509 0100 1B68     		ldr	r3, [r3]
 2510 0102 0822     		movs	r2, #8
 2511 0104 1A62     		str	r2, [r3, #32]
1244:Drivers/STM32F7xx_HAL_Driver/Src/stm32f7xx_hal_uart.c **** 
1245:Drivers/STM32F7xx_HAL_Driver/Src/stm32f7xx_hal_uart.c ****       huart->ErrorCode |= HAL_UART_ERROR_ORE;
 2512              		.loc 1 1245 0
 2513 0106 7B68     		ldr	r3, [r7, #4]
 2514 0108 DB6E     		ldr	r3, [r3, #108]
 2515 010a 43F00802 		orr	r2, r3, #8
 2516 010e 7B68     		ldr	r3, [r7, #4]
 2517 0110 DA66     		str	r2, [r3, #108]
 2518              	.L129:
1246:Drivers/STM32F7xx_HAL_Driver/Src/stm32f7xx_hal_uart.c ****     }
1247:Drivers/STM32F7xx_HAL_Driver/Src/stm32f7xx_hal_uart.c **** 
1248:Drivers/STM32F7xx_HAL_Driver/Src/stm32f7xx_hal_uart.c ****     /* Call UART Error Call back function if need be --------------------------*/
1249:Drivers/STM32F7xx_HAL_Driver/Src/stm32f7xx_hal_uart.c ****     if(huart->ErrorCode != HAL_UART_ERROR_NONE)
 2519              		.loc 1 1249 0
 2520 0112 7B68     		ldr	r3, [r7, #4]
 2521 0114 DB6E     		ldr	r3, [r3, #108]
 2522 0116 002B     		cmp	r3, #0
 2523 0118 71D0     		beq	.L141
1250:Drivers/STM32F7xx_HAL_Driver/Src/stm32f7xx_hal_uart.c ****     {
1251:Drivers/STM32F7xx_HAL_Driver/Src/stm32f7xx_hal_uart.c ****       /* UART in mode Receiver ---------------------------------------------------*/
1252:Drivers/STM32F7xx_HAL_Driver/Src/stm32f7xx_hal_uart.c ****       if(((isrflags & USART_ISR_RXNE) != RESET) && ((cr1its & USART_CR1_RXNEIE) != RESET))
 2524              		.loc 1 1252 0
 2525 011a 7B69     		ldr	r3, [r7, #20]
 2526 011c 03F02003 		and	r3, r3, #32
 2527 0120 002B     		cmp	r3, #0
 2528 0122 07D0     		beq	.L132
 2529              		.loc 1 1252 0 is_stmt 0 discriminator 1
 2530 0124 3B69     		ldr	r3, [r7, #16]
 2531 0126 03F02003 		and	r3, r3, #32
 2532 012a 002B     		cmp	r3, #0
 2533 012c 02D0     		beq	.L132
1253:Drivers/STM32F7xx_HAL_Driver/Src/stm32f7xx_hal_uart.c ****       {
1254:Drivers/STM32F7xx_HAL_Driver/Src/stm32f7xx_hal_uart.c ****         UART_Receive_IT(huart);
 2534              		.loc 1 1254 0 is_stmt 1
 2535 012e 7868     		ldr	r0, [r7, #4]
 2536 0130 FFF7FEFF 		bl	UART_Receive_IT
ARM GAS  /tmp/ccvy8ygO.s 			page 67


 2537              	.L132:
1255:Drivers/STM32F7xx_HAL_Driver/Src/stm32f7xx_hal_uart.c ****       }
1256:Drivers/STM32F7xx_HAL_Driver/Src/stm32f7xx_hal_uart.c **** 
1257:Drivers/STM32F7xx_HAL_Driver/Src/stm32f7xx_hal_uart.c ****       /* If Overrun error occurs, or if any error occurs in DMA mode reception,
1258:Drivers/STM32F7xx_HAL_Driver/Src/stm32f7xx_hal_uart.c ****          consider error as blocking */
1259:Drivers/STM32F7xx_HAL_Driver/Src/stm32f7xx_hal_uart.c ****       if (((huart->ErrorCode & HAL_UART_ERROR_ORE) != RESET) ||
 2538              		.loc 1 1259 0
 2539 0134 7B68     		ldr	r3, [r7, #4]
 2540 0136 DB6E     		ldr	r3, [r3, #108]
 2541 0138 03F00803 		and	r3, r3, #8
 2542 013c 002B     		cmp	r3, #0
 2543 013e 06D1     		bne	.L133
1260:Drivers/STM32F7xx_HAL_Driver/Src/stm32f7xx_hal_uart.c ****           (HAL_IS_BIT_SET(huart->Instance->CR3, USART_CR3_DMAR)))
 2544              		.loc 1 1260 0 discriminator 1
 2545 0140 7B68     		ldr	r3, [r7, #4]
 2546 0142 1B68     		ldr	r3, [r3]
 2547 0144 9B68     		ldr	r3, [r3, #8]
 2548 0146 03F04003 		and	r3, r3, #64
1259:Drivers/STM32F7xx_HAL_Driver/Src/stm32f7xx_hal_uart.c ****           (HAL_IS_BIT_SET(huart->Instance->CR3, USART_CR3_DMAR)))
 2549              		.loc 1 1259 0 discriminator 1
 2550 014a 002B     		cmp	r3, #0
 2551 014c 31D0     		beq	.L134
 2552              	.L133:
1261:Drivers/STM32F7xx_HAL_Driver/Src/stm32f7xx_hal_uart.c ****       {
1262:Drivers/STM32F7xx_HAL_Driver/Src/stm32f7xx_hal_uart.c ****         /* Blocking error : transfer is aborted
1263:Drivers/STM32F7xx_HAL_Driver/Src/stm32f7xx_hal_uart.c ****            Set the UART state ready to be able to start again the process,
1264:Drivers/STM32F7xx_HAL_Driver/Src/stm32f7xx_hal_uart.c ****            Disable Rx Interrupts, and disable Rx DMA request, if ongoing */
1265:Drivers/STM32F7xx_HAL_Driver/Src/stm32f7xx_hal_uart.c ****         UART_EndRxTransfer(huart);
 2553              		.loc 1 1265 0
 2554 014e 7868     		ldr	r0, [r7, #4]
 2555 0150 FFF7FEFF 		bl	UART_EndRxTransfer
1266:Drivers/STM32F7xx_HAL_Driver/Src/stm32f7xx_hal_uart.c **** 
1267:Drivers/STM32F7xx_HAL_Driver/Src/stm32f7xx_hal_uart.c ****         /* Disable the UART DMA Rx request if enabled */
1268:Drivers/STM32F7xx_HAL_Driver/Src/stm32f7xx_hal_uart.c ****         if (HAL_IS_BIT_SET(huart->Instance->CR3, USART_CR3_DMAR))
 2556              		.loc 1 1268 0
 2557 0154 7B68     		ldr	r3, [r7, #4]
 2558 0156 1B68     		ldr	r3, [r3]
 2559 0158 9B68     		ldr	r3, [r3, #8]
 2560 015a 03F04003 		and	r3, r3, #64
 2561 015e 002B     		cmp	r3, #0
 2562 0160 23D0     		beq	.L135
1269:Drivers/STM32F7xx_HAL_Driver/Src/stm32f7xx_hal_uart.c ****         {
1270:Drivers/STM32F7xx_HAL_Driver/Src/stm32f7xx_hal_uart.c ****           CLEAR_BIT(huart->Instance->CR3, USART_CR3_DMAR);
 2563              		.loc 1 1270 0
 2564 0162 7B68     		ldr	r3, [r7, #4]
 2565 0164 1B68     		ldr	r3, [r3]
 2566 0166 9A68     		ldr	r2, [r3, #8]
 2567 0168 7B68     		ldr	r3, [r7, #4]
 2568 016a 1B68     		ldr	r3, [r3]
 2569 016c 22F04002 		bic	r2, r2, #64
 2570 0170 9A60     		str	r2, [r3, #8]
1271:Drivers/STM32F7xx_HAL_Driver/Src/stm32f7xx_hal_uart.c **** 
1272:Drivers/STM32F7xx_HAL_Driver/Src/stm32f7xx_hal_uart.c ****           /* Abort the UART DMA Rx channel */
1273:Drivers/STM32F7xx_HAL_Driver/Src/stm32f7xx_hal_uart.c ****           if(huart->hdmarx != NULL)
 2571              		.loc 1 1273 0
 2572 0172 7B68     		ldr	r3, [r7, #4]
 2573 0174 5B6E     		ldr	r3, [r3, #100]
ARM GAS  /tmp/ccvy8ygO.s 			page 68


 2574 0176 002B     		cmp	r3, #0
 2575 0178 13D0     		beq	.L136
1274:Drivers/STM32F7xx_HAL_Driver/Src/stm32f7xx_hal_uart.c ****           {
1275:Drivers/STM32F7xx_HAL_Driver/Src/stm32f7xx_hal_uart.c ****             /* Set the UART DMA Abort callback :
1276:Drivers/STM32F7xx_HAL_Driver/Src/stm32f7xx_hal_uart.c ****             will lead to call HAL_UART_ErrorCallback() at end of DMA abort procedure */
1277:Drivers/STM32F7xx_HAL_Driver/Src/stm32f7xx_hal_uart.c ****             huart->hdmarx->XferAbortCallback = UART_DMAAbortOnError;
 2576              		.loc 1 1277 0
 2577 017a 7B68     		ldr	r3, [r7, #4]
 2578 017c 5B6E     		ldr	r3, [r3, #100]
 2579 017e 224A     		ldr	r2, .L143
 2580 0180 1A65     		str	r2, [r3, #80]
1278:Drivers/STM32F7xx_HAL_Driver/Src/stm32f7xx_hal_uart.c **** 
1279:Drivers/STM32F7xx_HAL_Driver/Src/stm32f7xx_hal_uart.c ****             /* Abort DMA RX */
1280:Drivers/STM32F7xx_HAL_Driver/Src/stm32f7xx_hal_uart.c ****             if(HAL_DMA_Abort_IT(huart->hdmarx) != HAL_OK)
 2581              		.loc 1 1280 0
 2582 0182 7B68     		ldr	r3, [r7, #4]
 2583 0184 5B6E     		ldr	r3, [r3, #100]
 2584 0186 1846     		mov	r0, r3
 2585 0188 FFF7FEFF 		bl	HAL_DMA_Abort_IT
 2586 018c 0346     		mov	r3, r0
 2587 018e 002B     		cmp	r3, #0
 2588 0190 16D0     		beq	.L142
1281:Drivers/STM32F7xx_HAL_Driver/Src/stm32f7xx_hal_uart.c ****             {
1282:Drivers/STM32F7xx_HAL_Driver/Src/stm32f7xx_hal_uart.c ****               /* Call Directly huart->hdmarx->XferAbortCallback function in case of error */
1283:Drivers/STM32F7xx_HAL_Driver/Src/stm32f7xx_hal_uart.c ****               huart->hdmarx->XferAbortCallback(huart->hdmarx);
 2589              		.loc 1 1283 0
 2590 0192 7B68     		ldr	r3, [r7, #4]
 2591 0194 5B6E     		ldr	r3, [r3, #100]
 2592 0196 1B6D     		ldr	r3, [r3, #80]
 2593 0198 7A68     		ldr	r2, [r7, #4]
 2594 019a 526E     		ldr	r2, [r2, #100]
 2595 019c 1046     		mov	r0, r2
 2596 019e 9847     		blx	r3
 2597              	.LVL0:
1268:Drivers/STM32F7xx_HAL_Driver/Src/stm32f7xx_hal_uart.c ****         {
 2598              		.loc 1 1268 0
 2599 01a0 0EE0     		b	.L142
 2600              	.L136:
1284:Drivers/STM32F7xx_HAL_Driver/Src/stm32f7xx_hal_uart.c ****             }
1285:Drivers/STM32F7xx_HAL_Driver/Src/stm32f7xx_hal_uart.c ****           }
1286:Drivers/STM32F7xx_HAL_Driver/Src/stm32f7xx_hal_uart.c ****           else
1287:Drivers/STM32F7xx_HAL_Driver/Src/stm32f7xx_hal_uart.c ****           {
1288:Drivers/STM32F7xx_HAL_Driver/Src/stm32f7xx_hal_uart.c ****             /* Call user error callback */
1289:Drivers/STM32F7xx_HAL_Driver/Src/stm32f7xx_hal_uart.c ****             HAL_UART_ErrorCallback(huart);
 2601              		.loc 1 1289 0
 2602 01a2 7868     		ldr	r0, [r7, #4]
 2603 01a4 FFF7FEFF 		bl	HAL_UART_ErrorCallback
1268:Drivers/STM32F7xx_HAL_Driver/Src/stm32f7xx_hal_uart.c ****         {
 2604              		.loc 1 1268 0
 2605 01a8 0AE0     		b	.L142
 2606              	.L135:
1290:Drivers/STM32F7xx_HAL_Driver/Src/stm32f7xx_hal_uart.c ****           }
1291:Drivers/STM32F7xx_HAL_Driver/Src/stm32f7xx_hal_uart.c ****         }
1292:Drivers/STM32F7xx_HAL_Driver/Src/stm32f7xx_hal_uart.c ****         else
1293:Drivers/STM32F7xx_HAL_Driver/Src/stm32f7xx_hal_uart.c ****         {
1294:Drivers/STM32F7xx_HAL_Driver/Src/stm32f7xx_hal_uart.c ****           /* Call user error callback */
1295:Drivers/STM32F7xx_HAL_Driver/Src/stm32f7xx_hal_uart.c ****           HAL_UART_ErrorCallback(huart);
ARM GAS  /tmp/ccvy8ygO.s 			page 69


 2607              		.loc 1 1295 0
 2608 01aa 7868     		ldr	r0, [r7, #4]
 2609 01ac FFF7FEFF 		bl	HAL_UART_ErrorCallback
1268:Drivers/STM32F7xx_HAL_Driver/Src/stm32f7xx_hal_uart.c ****         {
 2610              		.loc 1 1268 0
 2611 01b0 06E0     		b	.L142
 2612              	.L134:
1296:Drivers/STM32F7xx_HAL_Driver/Src/stm32f7xx_hal_uart.c ****         }
1297:Drivers/STM32F7xx_HAL_Driver/Src/stm32f7xx_hal_uart.c ****       }
1298:Drivers/STM32F7xx_HAL_Driver/Src/stm32f7xx_hal_uart.c ****       else
1299:Drivers/STM32F7xx_HAL_Driver/Src/stm32f7xx_hal_uart.c ****       {
1300:Drivers/STM32F7xx_HAL_Driver/Src/stm32f7xx_hal_uart.c ****         /* Non Blocking error : transfer could go on.
1301:Drivers/STM32F7xx_HAL_Driver/Src/stm32f7xx_hal_uart.c ****            Error is notified to user through user error callback */
1302:Drivers/STM32F7xx_HAL_Driver/Src/stm32f7xx_hal_uart.c ****         HAL_UART_ErrorCallback(huart);
 2613              		.loc 1 1302 0
 2614 01b2 7868     		ldr	r0, [r7, #4]
 2615 01b4 FFF7FEFF 		bl	HAL_UART_ErrorCallback
1303:Drivers/STM32F7xx_HAL_Driver/Src/stm32f7xx_hal_uart.c ****         huart->ErrorCode = HAL_UART_ERROR_NONE;
 2616              		.loc 1 1303 0
 2617 01b8 7B68     		ldr	r3, [r7, #4]
 2618 01ba 0022     		movs	r2, #0
 2619 01bc DA66     		str	r2, [r3, #108]
1304:Drivers/STM32F7xx_HAL_Driver/Src/stm32f7xx_hal_uart.c ****       }
1305:Drivers/STM32F7xx_HAL_Driver/Src/stm32f7xx_hal_uart.c ****     }
1306:Drivers/STM32F7xx_HAL_Driver/Src/stm32f7xx_hal_uart.c ****     return;
 2620              		.loc 1 1306 0
 2621 01be 1EE0     		b	.L141
 2622              	.L142:
1268:Drivers/STM32F7xx_HAL_Driver/Src/stm32f7xx_hal_uart.c ****         {
 2623              		.loc 1 1268 0
 2624 01c0 00BF     		nop
 2625              		.loc 1 1306 0
 2626 01c2 1CE0     		b	.L141
 2627              	.L124:
1307:Drivers/STM32F7xx_HAL_Driver/Src/stm32f7xx_hal_uart.c **** 
1308:Drivers/STM32F7xx_HAL_Driver/Src/stm32f7xx_hal_uart.c ****   } /* End if some error occurs */
1309:Drivers/STM32F7xx_HAL_Driver/Src/stm32f7xx_hal_uart.c **** 
1310:Drivers/STM32F7xx_HAL_Driver/Src/stm32f7xx_hal_uart.c ****   /* UART in mode Transmitter ------------------------------------------------*/
1311:Drivers/STM32F7xx_HAL_Driver/Src/stm32f7xx_hal_uart.c ****   if(((isrflags & USART_ISR_TXE) != RESET) && ((cr1its & USART_CR1_TXEIE) != RESET))
 2628              		.loc 1 1311 0
 2629 01c4 7B69     		ldr	r3, [r7, #20]
 2630 01c6 03F08003 		and	r3, r3, #128
 2631 01ca 002B     		cmp	r3, #0
 2632 01cc 08D0     		beq	.L140
 2633              		.loc 1 1311 0 is_stmt 0 discriminator 1
 2634 01ce 3B69     		ldr	r3, [r7, #16]
 2635 01d0 03F08003 		and	r3, r3, #128
 2636 01d4 002B     		cmp	r3, #0
 2637 01d6 03D0     		beq	.L140
1312:Drivers/STM32F7xx_HAL_Driver/Src/stm32f7xx_hal_uart.c ****   {
1313:Drivers/STM32F7xx_HAL_Driver/Src/stm32f7xx_hal_uart.c ****     UART_Transmit_IT(huart);
 2638              		.loc 1 1313 0 is_stmt 1
 2639 01d8 7868     		ldr	r0, [r7, #4]
 2640 01da FFF7FEFF 		bl	UART_Transmit_IT
1314:Drivers/STM32F7xx_HAL_Driver/Src/stm32f7xx_hal_uart.c ****     return;
 2641              		.loc 1 1314 0
 2642 01de 0FE0     		b	.L121
ARM GAS  /tmp/ccvy8ygO.s 			page 70


 2643              	.L140:
1315:Drivers/STM32F7xx_HAL_Driver/Src/stm32f7xx_hal_uart.c ****   }
1316:Drivers/STM32F7xx_HAL_Driver/Src/stm32f7xx_hal_uart.c **** 
1317:Drivers/STM32F7xx_HAL_Driver/Src/stm32f7xx_hal_uart.c ****   /* UART in mode Transmitter (transmission end) -----------------------------*/
1318:Drivers/STM32F7xx_HAL_Driver/Src/stm32f7xx_hal_uart.c ****   if(((isrflags & USART_ISR_TC) != RESET) && ((cr1its & USART_CR1_TCIE) != RESET))
 2644              		.loc 1 1318 0
 2645 01e0 7B69     		ldr	r3, [r7, #20]
 2646 01e2 03F04003 		and	r3, r3, #64
 2647 01e6 002B     		cmp	r3, #0
 2648 01e8 0AD0     		beq	.L121
 2649              		.loc 1 1318 0 is_stmt 0 discriminator 1
 2650 01ea 3B69     		ldr	r3, [r7, #16]
 2651 01ec 03F04003 		and	r3, r3, #64
 2652 01f0 002B     		cmp	r3, #0
 2653 01f2 05D0     		beq	.L121
1319:Drivers/STM32F7xx_HAL_Driver/Src/stm32f7xx_hal_uart.c ****   {
1320:Drivers/STM32F7xx_HAL_Driver/Src/stm32f7xx_hal_uart.c ****     UART_EndTransmit_IT(huart);
 2654              		.loc 1 1320 0 is_stmt 1
 2655 01f4 7868     		ldr	r0, [r7, #4]
 2656 01f6 FFF7FEFF 		bl	UART_EndTransmit_IT
1321:Drivers/STM32F7xx_HAL_Driver/Src/stm32f7xx_hal_uart.c ****     return;
 2657              		.loc 1 1321 0
 2658 01fa 00BF     		nop
 2659 01fc 00E0     		b	.L121
 2660              	.L141:
1306:Drivers/STM32F7xx_HAL_Driver/Src/stm32f7xx_hal_uart.c **** 
 2661              		.loc 1 1306 0
 2662 01fe 00BF     		nop
 2663              	.L121:
1322:Drivers/STM32F7xx_HAL_Driver/Src/stm32f7xx_hal_uart.c ****   }
1323:Drivers/STM32F7xx_HAL_Driver/Src/stm32f7xx_hal_uart.c **** 
1324:Drivers/STM32F7xx_HAL_Driver/Src/stm32f7xx_hal_uart.c **** }
 2664              		.loc 1 1324 0
 2665 0200 1837     		adds	r7, r7, #24
 2666              	.LCFI94:
 2667              		.cfi_def_cfa_offset 8
 2668 0202 BD46     		mov	sp, r7
 2669              	.LCFI95:
 2670              		.cfi_def_cfa_register 13
 2671              		@ sp needed
 2672 0204 80BD     		pop	{r7, pc}
 2673              	.L144:
 2674 0206 00BF     		.align	2
 2675              	.L143:
 2676 0208 00000000 		.word	UART_DMAAbortOnError
 2677              		.cfi_endproc
 2678              	.LFE155:
 2680              		.section	.text.UART_WaitOnFlagUntilTimeout,"ax",%progbits
 2681              		.align	1
 2682              		.global	UART_WaitOnFlagUntilTimeout
 2683              		.syntax unified
 2684              		.thumb
 2685              		.thumb_func
 2686              		.fpu fpv4-sp-d16
 2688              	UART_WaitOnFlagUntilTimeout:
 2689              	.LFB156:
1325:Drivers/STM32F7xx_HAL_Driver/Src/stm32f7xx_hal_uart.c **** 
ARM GAS  /tmp/ccvy8ygO.s 			page 71


1326:Drivers/STM32F7xx_HAL_Driver/Src/stm32f7xx_hal_uart.c **** /**
1327:Drivers/STM32F7xx_HAL_Driver/Src/stm32f7xx_hal_uart.c ****   * @brief  This function handles UART Communication Timeout.
1328:Drivers/STM32F7xx_HAL_Driver/Src/stm32f7xx_hal_uart.c ****   * @param  huart UART handle
1329:Drivers/STM32F7xx_HAL_Driver/Src/stm32f7xx_hal_uart.c ****   * @param  Flag specifies the UART flag to check.
1330:Drivers/STM32F7xx_HAL_Driver/Src/stm32f7xx_hal_uart.c ****   * @param  Status The new Flag status (SET or RESET).
1331:Drivers/STM32F7xx_HAL_Driver/Src/stm32f7xx_hal_uart.c ****   * @param  Tickstart Tick start value
1332:Drivers/STM32F7xx_HAL_Driver/Src/stm32f7xx_hal_uart.c ****   * @param  Timeout Timeout duration
1333:Drivers/STM32F7xx_HAL_Driver/Src/stm32f7xx_hal_uart.c ****   * @retval HAL status
1334:Drivers/STM32F7xx_HAL_Driver/Src/stm32f7xx_hal_uart.c ****   */
1335:Drivers/STM32F7xx_HAL_Driver/Src/stm32f7xx_hal_uart.c **** HAL_StatusTypeDef UART_WaitOnFlagUntilTimeout(UART_HandleTypeDef *huart, uint32_t Flag, FlagStatus 
1336:Drivers/STM32F7xx_HAL_Driver/Src/stm32f7xx_hal_uart.c **** {
 2690              		.loc 1 1336 0
 2691              		.cfi_startproc
 2692              		@ args = 4, pretend = 0, frame = 16
 2693              		@ frame_needed = 1, uses_anonymous_args = 0
 2694 0000 80B5     		push	{r7, lr}
 2695              	.LCFI96:
 2696              		.cfi_def_cfa_offset 8
 2697              		.cfi_offset 7, -8
 2698              		.cfi_offset 14, -4
 2699 0002 84B0     		sub	sp, sp, #16
 2700              	.LCFI97:
 2701              		.cfi_def_cfa_offset 24
 2702 0004 00AF     		add	r7, sp, #0
 2703              	.LCFI98:
 2704              		.cfi_def_cfa_register 7
 2705 0006 F860     		str	r0, [r7, #12]
 2706 0008 B960     		str	r1, [r7, #8]
 2707 000a 3B60     		str	r3, [r7]
 2708 000c 1346     		mov	r3, r2
 2709 000e FB71     		strb	r3, [r7, #7]
1337:Drivers/STM32F7xx_HAL_Driver/Src/stm32f7xx_hal_uart.c ****   /* Wait until flag is set */
1338:Drivers/STM32F7xx_HAL_Driver/Src/stm32f7xx_hal_uart.c ****   while((__HAL_UART_GET_FLAG(huart, Flag) ? SET : RESET) == Status)
 2710              		.loc 1 1338 0
 2711 0010 2CE0     		b	.L146
 2712              	.L149:
1339:Drivers/STM32F7xx_HAL_Driver/Src/stm32f7xx_hal_uart.c ****   {
1340:Drivers/STM32F7xx_HAL_Driver/Src/stm32f7xx_hal_uart.c ****     /* Check for the Timeout */
1341:Drivers/STM32F7xx_HAL_Driver/Src/stm32f7xx_hal_uart.c ****     if(Timeout != HAL_MAX_DELAY)
 2713              		.loc 1 1341 0
 2714 0012 BB69     		ldr	r3, [r7, #24]
 2715 0014 B3F1FF3F 		cmp	r3, #-1
 2716 0018 28D0     		beq	.L146
1342:Drivers/STM32F7xx_HAL_Driver/Src/stm32f7xx_hal_uart.c ****     {
1343:Drivers/STM32F7xx_HAL_Driver/Src/stm32f7xx_hal_uart.c ****       if((Timeout == 0U)||((HAL_GetTick()-Tickstart) >=  Timeout))
 2717              		.loc 1 1343 0
 2718 001a BB69     		ldr	r3, [r7, #24]
 2719 001c 002B     		cmp	r3, #0
 2720 001e 07D0     		beq	.L147
 2721              		.loc 1 1343 0 is_stmt 0 discriminator 1
 2722 0020 FFF7FEFF 		bl	HAL_GetTick
 2723 0024 0246     		mov	r2, r0
 2724 0026 3B68     		ldr	r3, [r7]
 2725 0028 D31A     		subs	r3, r2, r3
 2726 002a BA69     		ldr	r2, [r7, #24]
 2727 002c 9A42     		cmp	r2, r3
 2728 002e 1DD8     		bhi	.L146
ARM GAS  /tmp/ccvy8ygO.s 			page 72


 2729              	.L147:
1344:Drivers/STM32F7xx_HAL_Driver/Src/stm32f7xx_hal_uart.c ****       {
1345:Drivers/STM32F7xx_HAL_Driver/Src/stm32f7xx_hal_uart.c ****         /* Disable TXE, RXNE, PE and ERR (Frame error, noise error, overrun error) interrupts for t
1346:Drivers/STM32F7xx_HAL_Driver/Src/stm32f7xx_hal_uart.c ****         CLEAR_BIT(huart->Instance->CR1, (USART_CR1_RXNEIE | USART_CR1_PEIE | USART_CR1_TXEIE));
 2730              		.loc 1 1346 0 is_stmt 1
 2731 0030 FB68     		ldr	r3, [r7, #12]
 2732 0032 1B68     		ldr	r3, [r3]
 2733 0034 1A68     		ldr	r2, [r3]
 2734 0036 FB68     		ldr	r3, [r7, #12]
 2735 0038 1B68     		ldr	r3, [r3]
 2736 003a 22F4D072 		bic	r2, r2, #416
 2737 003e 1A60     		str	r2, [r3]
1347:Drivers/STM32F7xx_HAL_Driver/Src/stm32f7xx_hal_uart.c ****         CLEAR_BIT(huart->Instance->CR3, USART_CR3_EIE);
 2738              		.loc 1 1347 0
 2739 0040 FB68     		ldr	r3, [r7, #12]
 2740 0042 1B68     		ldr	r3, [r3]
 2741 0044 9A68     		ldr	r2, [r3, #8]
 2742 0046 FB68     		ldr	r3, [r7, #12]
 2743 0048 1B68     		ldr	r3, [r3]
 2744 004a 22F00102 		bic	r2, r2, #1
 2745 004e 9A60     		str	r2, [r3, #8]
1348:Drivers/STM32F7xx_HAL_Driver/Src/stm32f7xx_hal_uart.c **** 
1349:Drivers/STM32F7xx_HAL_Driver/Src/stm32f7xx_hal_uart.c ****         huart->gState = HAL_UART_STATE_READY;
 2746              		.loc 1 1349 0
 2747 0050 FB68     		ldr	r3, [r7, #12]
 2748 0052 2022     		movs	r2, #32
 2749 0054 83F86920 		strb	r2, [r3, #105]
1350:Drivers/STM32F7xx_HAL_Driver/Src/stm32f7xx_hal_uart.c ****         huart->RxState = HAL_UART_STATE_READY;
 2750              		.loc 1 1350 0
 2751 0058 FB68     		ldr	r3, [r7, #12]
 2752 005a 2022     		movs	r2, #32
 2753 005c 83F86A20 		strb	r2, [r3, #106]
1351:Drivers/STM32F7xx_HAL_Driver/Src/stm32f7xx_hal_uart.c **** 
1352:Drivers/STM32F7xx_HAL_Driver/Src/stm32f7xx_hal_uart.c ****         /* Process Unlocked */
1353:Drivers/STM32F7xx_HAL_Driver/Src/stm32f7xx_hal_uart.c ****         __HAL_UNLOCK(huart);
 2754              		.loc 1 1353 0
 2755 0060 FB68     		ldr	r3, [r7, #12]
 2756 0062 0022     		movs	r2, #0
 2757 0064 83F86820 		strb	r2, [r3, #104]
1354:Drivers/STM32F7xx_HAL_Driver/Src/stm32f7xx_hal_uart.c ****         return HAL_TIMEOUT;
 2758              		.loc 1 1354 0
 2759 0068 0323     		movs	r3, #3
 2760 006a 0FE0     		b	.L148
 2761              	.L146:
1338:Drivers/STM32F7xx_HAL_Driver/Src/stm32f7xx_hal_uart.c ****   {
 2762              		.loc 1 1338 0
 2763 006c FB68     		ldr	r3, [r7, #12]
 2764 006e 1B68     		ldr	r3, [r3]
 2765 0070 DA69     		ldr	r2, [r3, #28]
 2766 0072 BB68     		ldr	r3, [r7, #8]
 2767 0074 1340     		ands	r3, r3, r2
 2768 0076 BA68     		ldr	r2, [r7, #8]
 2769 0078 9A42     		cmp	r2, r3
 2770 007a 0CBF     		ite	eq
 2771 007c 0123     		moveq	r3, #1
 2772 007e 0023     		movne	r3, #0
 2773 0080 DBB2     		uxtb	r3, r3
ARM GAS  /tmp/ccvy8ygO.s 			page 73


 2774 0082 1A46     		mov	r2, r3
 2775 0084 FB79     		ldrb	r3, [r7, #7]	@ zero_extendqisi2
 2776 0086 9A42     		cmp	r2, r3
 2777 0088 C3D0     		beq	.L149
1355:Drivers/STM32F7xx_HAL_Driver/Src/stm32f7xx_hal_uart.c ****       }
1356:Drivers/STM32F7xx_HAL_Driver/Src/stm32f7xx_hal_uart.c ****     }
1357:Drivers/STM32F7xx_HAL_Driver/Src/stm32f7xx_hal_uart.c ****   }
1358:Drivers/STM32F7xx_HAL_Driver/Src/stm32f7xx_hal_uart.c ****   return HAL_OK;
 2778              		.loc 1 1358 0
 2779 008a 0023     		movs	r3, #0
 2780              	.L148:
1359:Drivers/STM32F7xx_HAL_Driver/Src/stm32f7xx_hal_uart.c **** }
 2781              		.loc 1 1359 0
 2782 008c 1846     		mov	r0, r3
 2783 008e 1037     		adds	r7, r7, #16
 2784              	.LCFI99:
 2785              		.cfi_def_cfa_offset 8
 2786 0090 BD46     		mov	sp, r7
 2787              	.LCFI100:
 2788              		.cfi_def_cfa_register 13
 2789              		@ sp needed
 2790 0092 80BD     		pop	{r7, pc}
 2791              		.cfi_endproc
 2792              	.LFE156:
 2794              		.section	.text.UART_DMATransmitCplt,"ax",%progbits
 2795              		.align	1
 2796              		.syntax unified
 2797              		.thumb
 2798              		.thumb_func
 2799              		.fpu fpv4-sp-d16
 2801              	UART_DMATransmitCplt:
 2802              	.LFB157:
1360:Drivers/STM32F7xx_HAL_Driver/Src/stm32f7xx_hal_uart.c **** 
1361:Drivers/STM32F7xx_HAL_Driver/Src/stm32f7xx_hal_uart.c **** /**
1362:Drivers/STM32F7xx_HAL_Driver/Src/stm32f7xx_hal_uart.c ****   * @brief DMA UART transmit process complete callback
1363:Drivers/STM32F7xx_HAL_Driver/Src/stm32f7xx_hal_uart.c ****   * @param hdma DMA handle
1364:Drivers/STM32F7xx_HAL_Driver/Src/stm32f7xx_hal_uart.c ****   * @retval None
1365:Drivers/STM32F7xx_HAL_Driver/Src/stm32f7xx_hal_uart.c ****   */
1366:Drivers/STM32F7xx_HAL_Driver/Src/stm32f7xx_hal_uart.c **** static void UART_DMATransmitCplt(DMA_HandleTypeDef *hdma)
1367:Drivers/STM32F7xx_HAL_Driver/Src/stm32f7xx_hal_uart.c **** {
 2803              		.loc 1 1367 0
 2804              		.cfi_startproc
 2805              		@ args = 0, pretend = 0, frame = 16
 2806              		@ frame_needed = 1, uses_anonymous_args = 0
 2807 0000 80B5     		push	{r7, lr}
 2808              	.LCFI101:
 2809              		.cfi_def_cfa_offset 8
 2810              		.cfi_offset 7, -8
 2811              		.cfi_offset 14, -4
 2812 0002 84B0     		sub	sp, sp, #16
 2813              	.LCFI102:
 2814              		.cfi_def_cfa_offset 24
 2815 0004 00AF     		add	r7, sp, #0
 2816              	.LCFI103:
 2817              		.cfi_def_cfa_register 7
 2818 0006 7860     		str	r0, [r7, #4]
1368:Drivers/STM32F7xx_HAL_Driver/Src/stm32f7xx_hal_uart.c ****   UART_HandleTypeDef* huart = ( UART_HandleTypeDef* )((DMA_HandleTypeDef* )hdma)->Parent;
ARM GAS  /tmp/ccvy8ygO.s 			page 74


 2819              		.loc 1 1368 0
 2820 0008 7B68     		ldr	r3, [r7, #4]
 2821 000a 9B6B     		ldr	r3, [r3, #56]
 2822 000c FB60     		str	r3, [r7, #12]
1369:Drivers/STM32F7xx_HAL_Driver/Src/stm32f7xx_hal_uart.c **** 
1370:Drivers/STM32F7xx_HAL_Driver/Src/stm32f7xx_hal_uart.c ****   /* DMA Normal mode*/
1371:Drivers/STM32F7xx_HAL_Driver/Src/stm32f7xx_hal_uart.c ****   if((hdma->Instance->CR & DMA_SxCR_CIRC) == 0U)
 2823              		.loc 1 1371 0
 2824 000e 7B68     		ldr	r3, [r7, #4]
 2825 0010 1B68     		ldr	r3, [r3]
 2826 0012 1B68     		ldr	r3, [r3]
 2827 0014 03F48073 		and	r3, r3, #256
 2828 0018 002B     		cmp	r3, #0
 2829 001a 14D1     		bne	.L151
1372:Drivers/STM32F7xx_HAL_Driver/Src/stm32f7xx_hal_uart.c ****   {
1373:Drivers/STM32F7xx_HAL_Driver/Src/stm32f7xx_hal_uart.c ****     huart->TxXferCount = 0U;
 2830              		.loc 1 1373 0
 2831 001c FB68     		ldr	r3, [r7, #12]
 2832 001e 0022     		movs	r2, #0
 2833 0020 A3F85220 		strh	r2, [r3, #82]	@ movhi
1374:Drivers/STM32F7xx_HAL_Driver/Src/stm32f7xx_hal_uart.c **** 
1375:Drivers/STM32F7xx_HAL_Driver/Src/stm32f7xx_hal_uart.c ****     /* Disable the DMA transfer for transmit request by setting the DMAT bit
1376:Drivers/STM32F7xx_HAL_Driver/Src/stm32f7xx_hal_uart.c ****        in the UART CR3 register */
1377:Drivers/STM32F7xx_HAL_Driver/Src/stm32f7xx_hal_uart.c ****     CLEAR_BIT(huart->Instance->CR3, USART_CR3_DMAT);
 2834              		.loc 1 1377 0
 2835 0024 FB68     		ldr	r3, [r7, #12]
 2836 0026 1B68     		ldr	r3, [r3]
 2837 0028 9A68     		ldr	r2, [r3, #8]
 2838 002a FB68     		ldr	r3, [r7, #12]
 2839 002c 1B68     		ldr	r3, [r3]
 2840 002e 22F08002 		bic	r2, r2, #128
 2841 0032 9A60     		str	r2, [r3, #8]
1378:Drivers/STM32F7xx_HAL_Driver/Src/stm32f7xx_hal_uart.c **** 
1379:Drivers/STM32F7xx_HAL_Driver/Src/stm32f7xx_hal_uart.c ****     /* Enable the UART Transmit Complete Interrupt */
1380:Drivers/STM32F7xx_HAL_Driver/Src/stm32f7xx_hal_uart.c ****     SET_BIT(huart->Instance->CR1, USART_CR1_TCIE);
 2842              		.loc 1 1380 0
 2843 0034 FB68     		ldr	r3, [r7, #12]
 2844 0036 1B68     		ldr	r3, [r3]
 2845 0038 1A68     		ldr	r2, [r3]
 2846 003a FB68     		ldr	r3, [r7, #12]
 2847 003c 1B68     		ldr	r3, [r3]
 2848 003e 42F04002 		orr	r2, r2, #64
 2849 0042 1A60     		str	r2, [r3]
1381:Drivers/STM32F7xx_HAL_Driver/Src/stm32f7xx_hal_uart.c ****   }
1382:Drivers/STM32F7xx_HAL_Driver/Src/stm32f7xx_hal_uart.c ****   /* DMA Circular mode */
1383:Drivers/STM32F7xx_HAL_Driver/Src/stm32f7xx_hal_uart.c ****   else
1384:Drivers/STM32F7xx_HAL_Driver/Src/stm32f7xx_hal_uart.c ****   {
1385:Drivers/STM32F7xx_HAL_Driver/Src/stm32f7xx_hal_uart.c ****     HAL_UART_TxCpltCallback(huart);
1386:Drivers/STM32F7xx_HAL_Driver/Src/stm32f7xx_hal_uart.c ****   }
1387:Drivers/STM32F7xx_HAL_Driver/Src/stm32f7xx_hal_uart.c **** }
 2850              		.loc 1 1387 0
 2851 0044 02E0     		b	.L153
 2852              	.L151:
1385:Drivers/STM32F7xx_HAL_Driver/Src/stm32f7xx_hal_uart.c ****   }
 2853              		.loc 1 1385 0
 2854 0046 F868     		ldr	r0, [r7, #12]
 2855 0048 FFF7FEFF 		bl	HAL_UART_TxCpltCallback
ARM GAS  /tmp/ccvy8ygO.s 			page 75


 2856              	.L153:
 2857              		.loc 1 1387 0
 2858 004c 00BF     		nop
 2859 004e 1037     		adds	r7, r7, #16
 2860              	.LCFI104:
 2861              		.cfi_def_cfa_offset 8
 2862 0050 BD46     		mov	sp, r7
 2863              	.LCFI105:
 2864              		.cfi_def_cfa_register 13
 2865              		@ sp needed
 2866 0052 80BD     		pop	{r7, pc}
 2867              		.cfi_endproc
 2868              	.LFE157:
 2870              		.section	.text.UART_DMATxHalfCplt,"ax",%progbits
 2871              		.align	1
 2872              		.syntax unified
 2873              		.thumb
 2874              		.thumb_func
 2875              		.fpu fpv4-sp-d16
 2877              	UART_DMATxHalfCplt:
 2878              	.LFB158:
1388:Drivers/STM32F7xx_HAL_Driver/Src/stm32f7xx_hal_uart.c **** 
1389:Drivers/STM32F7xx_HAL_Driver/Src/stm32f7xx_hal_uart.c **** /**
1390:Drivers/STM32F7xx_HAL_Driver/Src/stm32f7xx_hal_uart.c ****   * @brief DMA UART transmit process half complete callback
1391:Drivers/STM32F7xx_HAL_Driver/Src/stm32f7xx_hal_uart.c ****   * @param hdma  DMA handle
1392:Drivers/STM32F7xx_HAL_Driver/Src/stm32f7xx_hal_uart.c ****   * @retval None
1393:Drivers/STM32F7xx_HAL_Driver/Src/stm32f7xx_hal_uart.c ****   */
1394:Drivers/STM32F7xx_HAL_Driver/Src/stm32f7xx_hal_uart.c **** static void UART_DMATxHalfCplt(DMA_HandleTypeDef *hdma)
1395:Drivers/STM32F7xx_HAL_Driver/Src/stm32f7xx_hal_uart.c **** {
 2879              		.loc 1 1395 0
 2880              		.cfi_startproc
 2881              		@ args = 0, pretend = 0, frame = 16
 2882              		@ frame_needed = 1, uses_anonymous_args = 0
 2883 0000 80B5     		push	{r7, lr}
 2884              	.LCFI106:
 2885              		.cfi_def_cfa_offset 8
 2886              		.cfi_offset 7, -8
 2887              		.cfi_offset 14, -4
 2888 0002 84B0     		sub	sp, sp, #16
 2889              	.LCFI107:
 2890              		.cfi_def_cfa_offset 24
 2891 0004 00AF     		add	r7, sp, #0
 2892              	.LCFI108:
 2893              		.cfi_def_cfa_register 7
 2894 0006 7860     		str	r0, [r7, #4]
1396:Drivers/STM32F7xx_HAL_Driver/Src/stm32f7xx_hal_uart.c ****   UART_HandleTypeDef* huart = (UART_HandleTypeDef*)((DMA_HandleTypeDef*)hdma)->Parent;
 2895              		.loc 1 1396 0
 2896 0008 7B68     		ldr	r3, [r7, #4]
 2897 000a 9B6B     		ldr	r3, [r3, #56]
 2898 000c FB60     		str	r3, [r7, #12]
1397:Drivers/STM32F7xx_HAL_Driver/Src/stm32f7xx_hal_uart.c **** 
1398:Drivers/STM32F7xx_HAL_Driver/Src/stm32f7xx_hal_uart.c ****   HAL_UART_TxHalfCpltCallback(huart);
 2899              		.loc 1 1398 0
 2900 000e F868     		ldr	r0, [r7, #12]
 2901 0010 FFF7FEFF 		bl	HAL_UART_TxHalfCpltCallback
1399:Drivers/STM32F7xx_HAL_Driver/Src/stm32f7xx_hal_uart.c **** }
 2902              		.loc 1 1399 0
ARM GAS  /tmp/ccvy8ygO.s 			page 76


 2903 0014 00BF     		nop
 2904 0016 1037     		adds	r7, r7, #16
 2905              	.LCFI109:
 2906              		.cfi_def_cfa_offset 8
 2907 0018 BD46     		mov	sp, r7
 2908              	.LCFI110:
 2909              		.cfi_def_cfa_register 13
 2910              		@ sp needed
 2911 001a 80BD     		pop	{r7, pc}
 2912              		.cfi_endproc
 2913              	.LFE158:
 2915              		.section	.text.UART_DMAReceiveCplt,"ax",%progbits
 2916              		.align	1
 2917              		.syntax unified
 2918              		.thumb
 2919              		.thumb_func
 2920              		.fpu fpv4-sp-d16
 2922              	UART_DMAReceiveCplt:
 2923              	.LFB159:
1400:Drivers/STM32F7xx_HAL_Driver/Src/stm32f7xx_hal_uart.c **** 
1401:Drivers/STM32F7xx_HAL_Driver/Src/stm32f7xx_hal_uart.c **** /**
1402:Drivers/STM32F7xx_HAL_Driver/Src/stm32f7xx_hal_uart.c ****   * @brief DMA UART receive process complete callback
1403:Drivers/STM32F7xx_HAL_Driver/Src/stm32f7xx_hal_uart.c ****   * @param hdma DMA handle
1404:Drivers/STM32F7xx_HAL_Driver/Src/stm32f7xx_hal_uart.c ****   * @retval None
1405:Drivers/STM32F7xx_HAL_Driver/Src/stm32f7xx_hal_uart.c ****   */
1406:Drivers/STM32F7xx_HAL_Driver/Src/stm32f7xx_hal_uart.c **** static void UART_DMAReceiveCplt(DMA_HandleTypeDef *hdma)
1407:Drivers/STM32F7xx_HAL_Driver/Src/stm32f7xx_hal_uart.c **** {
 2924              		.loc 1 1407 0
 2925              		.cfi_startproc
 2926              		@ args = 0, pretend = 0, frame = 16
 2927              		@ frame_needed = 1, uses_anonymous_args = 0
 2928 0000 80B5     		push	{r7, lr}
 2929              	.LCFI111:
 2930              		.cfi_def_cfa_offset 8
 2931              		.cfi_offset 7, -8
 2932              		.cfi_offset 14, -4
 2933 0002 84B0     		sub	sp, sp, #16
 2934              	.LCFI112:
 2935              		.cfi_def_cfa_offset 24
 2936 0004 00AF     		add	r7, sp, #0
 2937              	.LCFI113:
 2938              		.cfi_def_cfa_register 7
 2939 0006 7860     		str	r0, [r7, #4]
1408:Drivers/STM32F7xx_HAL_Driver/Src/stm32f7xx_hal_uart.c ****   UART_HandleTypeDef* huart = ( UART_HandleTypeDef* )((DMA_HandleTypeDef* )hdma)->Parent;
 2940              		.loc 1 1408 0
 2941 0008 7B68     		ldr	r3, [r7, #4]
 2942 000a 9B6B     		ldr	r3, [r3, #56]
 2943 000c FB60     		str	r3, [r7, #12]
1409:Drivers/STM32F7xx_HAL_Driver/Src/stm32f7xx_hal_uart.c **** 
1410:Drivers/STM32F7xx_HAL_Driver/Src/stm32f7xx_hal_uart.c ****   /* DMA Normal mode */
1411:Drivers/STM32F7xx_HAL_Driver/Src/stm32f7xx_hal_uart.c ****   if((hdma->Instance->CR & DMA_SxCR_CIRC) == 0U)
 2944              		.loc 1 1411 0
 2945 000e 7B68     		ldr	r3, [r7, #4]
 2946 0010 1B68     		ldr	r3, [r3]
 2947 0012 1B68     		ldr	r3, [r3]
 2948 0014 03F48073 		and	r3, r3, #256
 2949 0018 002B     		cmp	r3, #0
ARM GAS  /tmp/ccvy8ygO.s 			page 77


 2950 001a 1FD1     		bne	.L156
1412:Drivers/STM32F7xx_HAL_Driver/Src/stm32f7xx_hal_uart.c ****   {
1413:Drivers/STM32F7xx_HAL_Driver/Src/stm32f7xx_hal_uart.c ****     huart->RxXferCount = 0U;
 2951              		.loc 1 1413 0
 2952 001c FB68     		ldr	r3, [r7, #12]
 2953 001e 0022     		movs	r2, #0
 2954 0020 A3F85A20 		strh	r2, [r3, #90]	@ movhi
1414:Drivers/STM32F7xx_HAL_Driver/Src/stm32f7xx_hal_uart.c **** 
