ARM GAS  /tmp/cc8NeEne.s 			page 1


   1              		.cpu cortex-m7
   2              		.eabi_attribute 27, 1
   3              		.eabi_attribute 28, 1
   4              		.eabi_attribute 20, 1
   5              		.eabi_attribute 21, 1
   6              		.eabi_attribute 23, 3
   7              		.eabi_attribute 24, 1
   8              		.eabi_attribute 25, 1
   9              		.eabi_attribute 26, 1
  10              		.eabi_attribute 30, 6
  11              		.eabi_attribute 34, 1
  12              		.eabi_attribute 18, 4
  13              		.file	"stm32f7xx_hal_dma_ex.c"
  14              		.text
  15              	.Ltext0:
  16              		.cfi_sections	.debug_frame
  17              		.comm	SpiTxData,4,4
  18              		.comm	SpiRxData,4,4
  19              		.comm	UpdateFile,4,4
  20              		.section	.text.HAL_DMAEx_MultiBufferStart,"ax",%progbits
  21              		.align	1
  22              		.global	HAL_DMAEx_MultiBufferStart
  23              		.syntax unified
  24              		.thumb
  25              		.thumb_func
  26              		.fpu fpv4-sp-d16
  28              	HAL_DMAEx_MultiBufferStart:
  29              	.LFB138:
  30              		.file 1 "Drivers/STM32F7xx_HAL_Driver/Src/stm32f7xx_hal_dma_ex.c"
   1:Drivers/STM32F7xx_HAL_Driver/Src/stm32f7xx_hal_dma_ex.c **** /**
   2:Drivers/STM32F7xx_HAL_Driver/Src/stm32f7xx_hal_dma_ex.c ****   ******************************************************************************
   3:Drivers/STM32F7xx_HAL_Driver/Src/stm32f7xx_hal_dma_ex.c ****   * @file    stm32f7xx_hal_dma_ex.c
   4:Drivers/STM32F7xx_HAL_Driver/Src/stm32f7xx_hal_dma_ex.c ****   * @author  MCD Application Team
   5:Drivers/STM32F7xx_HAL_Driver/Src/stm32f7xx_hal_dma_ex.c ****   * @brief   DMA Extension HAL module driver
   6:Drivers/STM32F7xx_HAL_Driver/Src/stm32f7xx_hal_dma_ex.c ****   *         This file provides firmware functions to manage the following 
   7:Drivers/STM32F7xx_HAL_Driver/Src/stm32f7xx_hal_dma_ex.c ****   *         functionalities of the DMA Extension peripheral:
   8:Drivers/STM32F7xx_HAL_Driver/Src/stm32f7xx_hal_dma_ex.c ****   *           + Extended features functions
   9:Drivers/STM32F7xx_HAL_Driver/Src/stm32f7xx_hal_dma_ex.c ****   *
  10:Drivers/STM32F7xx_HAL_Driver/Src/stm32f7xx_hal_dma_ex.c ****   @verbatim
  11:Drivers/STM32F7xx_HAL_Driver/Src/stm32f7xx_hal_dma_ex.c ****   ==============================================================================
  12:Drivers/STM32F7xx_HAL_Driver/Src/stm32f7xx_hal_dma_ex.c ****                         ##### How to use this driver #####
  13:Drivers/STM32F7xx_HAL_Driver/Src/stm32f7xx_hal_dma_ex.c ****   ==============================================================================
  14:Drivers/STM32F7xx_HAL_Driver/Src/stm32f7xx_hal_dma_ex.c ****   [..]
  15:Drivers/STM32F7xx_HAL_Driver/Src/stm32f7xx_hal_dma_ex.c ****   The DMA Extension HAL driver can be used as follows:
  16:Drivers/STM32F7xx_HAL_Driver/Src/stm32f7xx_hal_dma_ex.c ****    (+) Start a multi buffer transfer using the HAL_DMA_MultiBufferStart() function
  17:Drivers/STM32F7xx_HAL_Driver/Src/stm32f7xx_hal_dma_ex.c ****        for polling mode or HAL_DMA_MultiBufferStart_IT() for interrupt mode.
  18:Drivers/STM32F7xx_HAL_Driver/Src/stm32f7xx_hal_dma_ex.c **** 
  19:Drivers/STM32F7xx_HAL_Driver/Src/stm32f7xx_hal_dma_ex.c ****      -@-  In Memory-to-Memory transfer mode, Multi (Double) Buffer mode is not allowed.
  20:Drivers/STM32F7xx_HAL_Driver/Src/stm32f7xx_hal_dma_ex.c ****      -@-  When Multi (Double) Buffer mode is enabled, the transfer is circular by default.
  21:Drivers/STM32F7xx_HAL_Driver/Src/stm32f7xx_hal_dma_ex.c ****      -@-  In Multi (Double) buffer mode, it is possible to update the base address for 
  22:Drivers/STM32F7xx_HAL_Driver/Src/stm32f7xx_hal_dma_ex.c ****           the AHB memory port on the fly (DMA_SxM0AR or DMA_SxM1AR) when the stream is enabled.
  23:Drivers/STM32F7xx_HAL_Driver/Src/stm32f7xx_hal_dma_ex.c ****   
  24:Drivers/STM32F7xx_HAL_Driver/Src/stm32f7xx_hal_dma_ex.c ****   @endverbatim
  25:Drivers/STM32F7xx_HAL_Driver/Src/stm32f7xx_hal_dma_ex.c ****   ******************************************************************************
  26:Drivers/STM32F7xx_HAL_Driver/Src/stm32f7xx_hal_dma_ex.c ****   * @attention
  27:Drivers/STM32F7xx_HAL_Driver/Src/stm32f7xx_hal_dma_ex.c ****   *
  28:Drivers/STM32F7xx_HAL_Driver/Src/stm32f7xx_hal_dma_ex.c ****   * <h2><center>&copy; COPYRIGHT(c) 2017 STMicroelectronics</center></h2>
ARM GAS  /tmp/cc8NeEne.s 			page 2


  29:Drivers/STM32F7xx_HAL_Driver/Src/stm32f7xx_hal_dma_ex.c ****   *
  30:Drivers/STM32F7xx_HAL_Driver/Src/stm32f7xx_hal_dma_ex.c ****   * Redistribution and use in source and binary forms, with or without modification,
  31:Drivers/STM32F7xx_HAL_Driver/Src/stm32f7xx_hal_dma_ex.c ****   * are permitted provided that the following conditions are met:
  32:Drivers/STM32F7xx_HAL_Driver/Src/stm32f7xx_hal_dma_ex.c ****   *   1. Redistributions of source code must retain the above copyright notice,
  33:Drivers/STM32F7xx_HAL_Driver/Src/stm32f7xx_hal_dma_ex.c ****   *      this list of conditions and the following disclaimer.
  34:Drivers/STM32F7xx_HAL_Driver/Src/stm32f7xx_hal_dma_ex.c ****   *   2. Redistributions in binary form must reproduce the above copyright notice,
  35:Drivers/STM32F7xx_HAL_Driver/Src/stm32f7xx_hal_dma_ex.c ****   *      this list of conditions and the following disclaimer in the documentation
  36:Drivers/STM32F7xx_HAL_Driver/Src/stm32f7xx_hal_dma_ex.c ****   *      and/or other materials provided with the distribution.
  37:Drivers/STM32F7xx_HAL_Driver/Src/stm32f7xx_hal_dma_ex.c ****   *   3. Neither the name of STMicroelectronics nor the names of its contributors
  38:Drivers/STM32F7xx_HAL_Driver/Src/stm32f7xx_hal_dma_ex.c ****   *      may be used to endorse or promote products derived from this software
  39:Drivers/STM32F7xx_HAL_Driver/Src/stm32f7xx_hal_dma_ex.c ****   *      without specific prior written permission.
  40:Drivers/STM32F7xx_HAL_Driver/Src/stm32f7xx_hal_dma_ex.c ****   *
  41:Drivers/STM32F7xx_HAL_Driver/Src/stm32f7xx_hal_dma_ex.c ****   * THIS SOFTWARE IS PROVIDED BY THE COPYRIGHT HOLDERS AND CONTRIBUTORS "AS IS"
  42:Drivers/STM32F7xx_HAL_Driver/Src/stm32f7xx_hal_dma_ex.c ****   * AND ANY EXPRESS OR IMPLIED WARRANTIES, INCLUDING, BUT NOT LIMITED TO, THE
  43:Drivers/STM32F7xx_HAL_Driver/Src/stm32f7xx_hal_dma_ex.c ****   * IMPLIED WARRANTIES OF MERCHANTABILITY AND FITNESS FOR A PARTICULAR PURPOSE ARE
  44:Drivers/STM32F7xx_HAL_Driver/Src/stm32f7xx_hal_dma_ex.c ****   * DISCLAIMED. IN NO EVENT SHALL THE COPYRIGHT HOLDER OR CONTRIBUTORS BE LIABLE
  45:Drivers/STM32F7xx_HAL_Driver/Src/stm32f7xx_hal_dma_ex.c ****   * FOR ANY DIRECT, INDIRECT, INCIDENTAL, SPECIAL, EXEMPLARY, OR CONSEQUENTIAL
  46:Drivers/STM32F7xx_HAL_Driver/Src/stm32f7xx_hal_dma_ex.c ****   * DAMAGES (INCLUDING, BUT NOT LIMITED TO, PROCUREMENT OF SUBSTITUTE GOODS OR
  47:Drivers/STM32F7xx_HAL_Driver/Src/stm32f7xx_hal_dma_ex.c ****   * SERVICES; LOSS OF USE, DATA, OR PROFITS; OR BUSINESS INTERRUPTION) HOWEVER
  48:Drivers/STM32F7xx_HAL_Driver/Src/stm32f7xx_hal_dma_ex.c ****   * CAUSED AND ON ANY THEORY OF LIABILITY, WHETHER IN CONTRACT, STRICT LIABILITY,
  49:Drivers/STM32F7xx_HAL_Driver/Src/stm32f7xx_hal_dma_ex.c ****   * OR TORT (INCLUDING NEGLIGENCE OR OTHERWISE) ARISING IN ANY WAY OUT OF THE USE
  50:Drivers/STM32F7xx_HAL_Driver/Src/stm32f7xx_hal_dma_ex.c ****   * OF THIS SOFTWARE, EVEN IF ADVISED OF THE POSSIBILITY OF SUCH DAMAGE.
  51:Drivers/STM32F7xx_HAL_Driver/Src/stm32f7xx_hal_dma_ex.c ****   *
  52:Drivers/STM32F7xx_HAL_Driver/Src/stm32f7xx_hal_dma_ex.c ****   ******************************************************************************
  53:Drivers/STM32F7xx_HAL_Driver/Src/stm32f7xx_hal_dma_ex.c ****   */
  54:Drivers/STM32F7xx_HAL_Driver/Src/stm32f7xx_hal_dma_ex.c **** 
  55:Drivers/STM32F7xx_HAL_Driver/Src/stm32f7xx_hal_dma_ex.c **** /* Includes ------------------------------------------------------------------*/
  56:Drivers/STM32F7xx_HAL_Driver/Src/stm32f7xx_hal_dma_ex.c **** #include "stm32f7xx_hal.h"
  57:Drivers/STM32F7xx_HAL_Driver/Src/stm32f7xx_hal_dma_ex.c **** 
  58:Drivers/STM32F7xx_HAL_Driver/Src/stm32f7xx_hal_dma_ex.c **** /** @addtogroup STM32F7xx_HAL_Driver
  59:Drivers/STM32F7xx_HAL_Driver/Src/stm32f7xx_hal_dma_ex.c ****   * @{
  60:Drivers/STM32F7xx_HAL_Driver/Src/stm32f7xx_hal_dma_ex.c ****   */
  61:Drivers/STM32F7xx_HAL_Driver/Src/stm32f7xx_hal_dma_ex.c **** 
  62:Drivers/STM32F7xx_HAL_Driver/Src/stm32f7xx_hal_dma_ex.c **** /** @defgroup DMAEx DMAEx
  63:Drivers/STM32F7xx_HAL_Driver/Src/stm32f7xx_hal_dma_ex.c ****   * @brief DMA Extended HAL module driver
  64:Drivers/STM32F7xx_HAL_Driver/Src/stm32f7xx_hal_dma_ex.c ****   * @{
  65:Drivers/STM32F7xx_HAL_Driver/Src/stm32f7xx_hal_dma_ex.c ****   */
  66:Drivers/STM32F7xx_HAL_Driver/Src/stm32f7xx_hal_dma_ex.c **** 
  67:Drivers/STM32F7xx_HAL_Driver/Src/stm32f7xx_hal_dma_ex.c **** #ifdef HAL_DMA_MODULE_ENABLED
  68:Drivers/STM32F7xx_HAL_Driver/Src/stm32f7xx_hal_dma_ex.c **** 
  69:Drivers/STM32F7xx_HAL_Driver/Src/stm32f7xx_hal_dma_ex.c **** /* Private types -------------------------------------------------------------*/
  70:Drivers/STM32F7xx_HAL_Driver/Src/stm32f7xx_hal_dma_ex.c **** /* Private variables ---------------------------------------------------------*/
  71:Drivers/STM32F7xx_HAL_Driver/Src/stm32f7xx_hal_dma_ex.c **** /* Private Constants ---------------------------------------------------------*/
  72:Drivers/STM32F7xx_HAL_Driver/Src/stm32f7xx_hal_dma_ex.c **** /* Private macros ------------------------------------------------------------*/
  73:Drivers/STM32F7xx_HAL_Driver/Src/stm32f7xx_hal_dma_ex.c **** /* Private functions ---------------------------------------------------------*/
  74:Drivers/STM32F7xx_HAL_Driver/Src/stm32f7xx_hal_dma_ex.c **** /** @addtogroup DMAEx_Private_Functions
  75:Drivers/STM32F7xx_HAL_Driver/Src/stm32f7xx_hal_dma_ex.c ****   * @{
  76:Drivers/STM32F7xx_HAL_Driver/Src/stm32f7xx_hal_dma_ex.c ****   */
  77:Drivers/STM32F7xx_HAL_Driver/Src/stm32f7xx_hal_dma_ex.c **** 
  78:Drivers/STM32F7xx_HAL_Driver/Src/stm32f7xx_hal_dma_ex.c **** static void DMA_MultiBufferSetConfig(DMA_HandleTypeDef *hdma, uint32_t SrcAddress, uint32_t DstAddr
  79:Drivers/STM32F7xx_HAL_Driver/Src/stm32f7xx_hal_dma_ex.c **** 
  80:Drivers/STM32F7xx_HAL_Driver/Src/stm32f7xx_hal_dma_ex.c **** /**
  81:Drivers/STM32F7xx_HAL_Driver/Src/stm32f7xx_hal_dma_ex.c ****   * @}
  82:Drivers/STM32F7xx_HAL_Driver/Src/stm32f7xx_hal_dma_ex.c ****   */
  83:Drivers/STM32F7xx_HAL_Driver/Src/stm32f7xx_hal_dma_ex.c **** 
  84:Drivers/STM32F7xx_HAL_Driver/Src/stm32f7xx_hal_dma_ex.c **** /* Exported functions ---------------------------------------------------------*/
  85:Drivers/STM32F7xx_HAL_Driver/Src/stm32f7xx_hal_dma_ex.c **** 
ARM GAS  /tmp/cc8NeEne.s 			page 3


  86:Drivers/STM32F7xx_HAL_Driver/Src/stm32f7xx_hal_dma_ex.c **** /** @addtogroup DMAEx_Exported_Functions
  87:Drivers/STM32F7xx_HAL_Driver/Src/stm32f7xx_hal_dma_ex.c ****   * @{
  88:Drivers/STM32F7xx_HAL_Driver/Src/stm32f7xx_hal_dma_ex.c ****   */
  89:Drivers/STM32F7xx_HAL_Driver/Src/stm32f7xx_hal_dma_ex.c **** 
  90:Drivers/STM32F7xx_HAL_Driver/Src/stm32f7xx_hal_dma_ex.c **** 
  91:Drivers/STM32F7xx_HAL_Driver/Src/stm32f7xx_hal_dma_ex.c **** /** @addtogroup DMAEx_Exported_Functions_Group1
  92:Drivers/STM32F7xx_HAL_Driver/Src/stm32f7xx_hal_dma_ex.c ****   *
  93:Drivers/STM32F7xx_HAL_Driver/Src/stm32f7xx_hal_dma_ex.c **** @verbatim
  94:Drivers/STM32F7xx_HAL_Driver/Src/stm32f7xx_hal_dma_ex.c ****  ===============================================================================
  95:Drivers/STM32F7xx_HAL_Driver/Src/stm32f7xx_hal_dma_ex.c ****                 #####  Extended features functions  #####
  96:Drivers/STM32F7xx_HAL_Driver/Src/stm32f7xx_hal_dma_ex.c ****  ===============================================================================  
  97:Drivers/STM32F7xx_HAL_Driver/Src/stm32f7xx_hal_dma_ex.c ****     [..]  This section provides functions allowing to:
  98:Drivers/STM32F7xx_HAL_Driver/Src/stm32f7xx_hal_dma_ex.c ****       (+) Configure the source, destination address and data length and 
  99:Drivers/STM32F7xx_HAL_Driver/Src/stm32f7xx_hal_dma_ex.c ****           Start MultiBuffer DMA transfer
 100:Drivers/STM32F7xx_HAL_Driver/Src/stm32f7xx_hal_dma_ex.c ****       (+) Configure the source, destination address and data length and 
 101:Drivers/STM32F7xx_HAL_Driver/Src/stm32f7xx_hal_dma_ex.c ****           Start MultiBuffer DMA transfer with interrupt
 102:Drivers/STM32F7xx_HAL_Driver/Src/stm32f7xx_hal_dma_ex.c ****       (+) Change on the fly the memory0 or memory1 address.
 103:Drivers/STM32F7xx_HAL_Driver/Src/stm32f7xx_hal_dma_ex.c ****       
 104:Drivers/STM32F7xx_HAL_Driver/Src/stm32f7xx_hal_dma_ex.c **** @endverbatim
 105:Drivers/STM32F7xx_HAL_Driver/Src/stm32f7xx_hal_dma_ex.c ****   * @{
 106:Drivers/STM32F7xx_HAL_Driver/Src/stm32f7xx_hal_dma_ex.c ****   */
 107:Drivers/STM32F7xx_HAL_Driver/Src/stm32f7xx_hal_dma_ex.c **** 
 108:Drivers/STM32F7xx_HAL_Driver/Src/stm32f7xx_hal_dma_ex.c **** 
 109:Drivers/STM32F7xx_HAL_Driver/Src/stm32f7xx_hal_dma_ex.c **** /**
 110:Drivers/STM32F7xx_HAL_Driver/Src/stm32f7xx_hal_dma_ex.c ****   * @brief  Starts the multi_buffer DMA Transfer.
 111:Drivers/STM32F7xx_HAL_Driver/Src/stm32f7xx_hal_dma_ex.c ****   * @param  hdma       pointer to a DMA_HandleTypeDef structure that contains
 112:Drivers/STM32F7xx_HAL_Driver/Src/stm32f7xx_hal_dma_ex.c ****   *                     the configuration information for the specified DMA Stream.  
 113:Drivers/STM32F7xx_HAL_Driver/Src/stm32f7xx_hal_dma_ex.c ****   * @param  SrcAddress The source memory Buffer address
 114:Drivers/STM32F7xx_HAL_Driver/Src/stm32f7xx_hal_dma_ex.c ****   * @param  DstAddress The destination memory Buffer address
 115:Drivers/STM32F7xx_HAL_Driver/Src/stm32f7xx_hal_dma_ex.c ****   * @param  SecondMemAddress The second memory Buffer address in case of multi buffer Transfer  
 116:Drivers/STM32F7xx_HAL_Driver/Src/stm32f7xx_hal_dma_ex.c ****   * @param  DataLength The length of data to be transferred from source to destination
 117:Drivers/STM32F7xx_HAL_Driver/Src/stm32f7xx_hal_dma_ex.c ****   * @retval HAL status
 118:Drivers/STM32F7xx_HAL_Driver/Src/stm32f7xx_hal_dma_ex.c ****   */
 119:Drivers/STM32F7xx_HAL_Driver/Src/stm32f7xx_hal_dma_ex.c **** HAL_StatusTypeDef HAL_DMAEx_MultiBufferStart(DMA_HandleTypeDef *hdma, uint32_t SrcAddress, uint32_t
 120:Drivers/STM32F7xx_HAL_Driver/Src/stm32f7xx_hal_dma_ex.c **** {
  31              		.loc 1 120 0
  32              		.cfi_startproc
  33              		@ args = 4, pretend = 0, frame = 24
  34              		@ frame_needed = 1, uses_anonymous_args = 0
  35 0000 80B5     		push	{r7, lr}
  36              	.LCFI0:
  37              		.cfi_def_cfa_offset 8
  38              		.cfi_offset 7, -8
  39              		.cfi_offset 14, -4
  40 0002 86B0     		sub	sp, sp, #24
  41              	.LCFI1:
  42              		.cfi_def_cfa_offset 32
  43 0004 00AF     		add	r7, sp, #0
  44              	.LCFI2:
  45              		.cfi_def_cfa_register 7
  46 0006 F860     		str	r0, [r7, #12]
  47 0008 B960     		str	r1, [r7, #8]
  48 000a 7A60     		str	r2, [r7, #4]
  49 000c 3B60     		str	r3, [r7]
 121:Drivers/STM32F7xx_HAL_Driver/Src/stm32f7xx_hal_dma_ex.c ****   HAL_StatusTypeDef status = HAL_OK;
  50              		.loc 1 121 0
  51 000e 0023     		movs	r3, #0
ARM GAS  /tmp/cc8NeEne.s 			page 4


  52 0010 FB75     		strb	r3, [r7, #23]
 122:Drivers/STM32F7xx_HAL_Driver/Src/stm32f7xx_hal_dma_ex.c ****   
 123:Drivers/STM32F7xx_HAL_Driver/Src/stm32f7xx_hal_dma_ex.c ****   /* Check the parameters */
 124:Drivers/STM32F7xx_HAL_Driver/Src/stm32f7xx_hal_dma_ex.c ****   assert_param(IS_DMA_BUFFER_SIZE(DataLength));
 125:Drivers/STM32F7xx_HAL_Driver/Src/stm32f7xx_hal_dma_ex.c ****   
 126:Drivers/STM32F7xx_HAL_Driver/Src/stm32f7xx_hal_dma_ex.c ****   /* Memory-to-memory transfer not supported in double buffering mode */
 127:Drivers/STM32F7xx_HAL_Driver/Src/stm32f7xx_hal_dma_ex.c ****   if (hdma->Init.Direction == DMA_MEMORY_TO_MEMORY)
  53              		.loc 1 127 0
  54 0012 FB68     		ldr	r3, [r7, #12]
  55 0014 9B68     		ldr	r3, [r3, #8]
  56 0016 802B     		cmp	r3, #128
  57 0018 06D1     		bne	.L2
 128:Drivers/STM32F7xx_HAL_Driver/Src/stm32f7xx_hal_dma_ex.c ****   {
 129:Drivers/STM32F7xx_HAL_Driver/Src/stm32f7xx_hal_dma_ex.c ****     hdma->ErrorCode = HAL_DMA_ERROR_NOT_SUPPORTED;
  58              		.loc 1 129 0
  59 001a FB68     		ldr	r3, [r7, #12]
  60 001c 4FF48072 		mov	r2, #256
  61 0020 5A65     		str	r2, [r3, #84]
 130:Drivers/STM32F7xx_HAL_Driver/Src/stm32f7xx_hal_dma_ex.c ****     status = HAL_ERROR;
  62              		.loc 1 130 0
  63 0022 0123     		movs	r3, #1
  64 0024 FB75     		strb	r3, [r7, #23]
  65 0026 31E0     		b	.L3
  66              	.L2:
 131:Drivers/STM32F7xx_HAL_Driver/Src/stm32f7xx_hal_dma_ex.c ****   }
 132:Drivers/STM32F7xx_HAL_Driver/Src/stm32f7xx_hal_dma_ex.c ****   else
 133:Drivers/STM32F7xx_HAL_Driver/Src/stm32f7xx_hal_dma_ex.c ****   {
 134:Drivers/STM32F7xx_HAL_Driver/Src/stm32f7xx_hal_dma_ex.c ****     /* Process Locked */
 135:Drivers/STM32F7xx_HAL_Driver/Src/stm32f7xx_hal_dma_ex.c ****     __HAL_LOCK(hdma);
  67              		.loc 1 135 0
  68 0028 FB68     		ldr	r3, [r7, #12]
  69 002a 93F83430 		ldrb	r3, [r3, #52]	@ zero_extendqisi2
  70 002e 012B     		cmp	r3, #1
  71 0030 01D1     		bne	.L4
  72              		.loc 1 135 0 is_stmt 0 discriminator 1
  73 0032 0223     		movs	r3, #2
  74 0034 2BE0     		b	.L5
  75              	.L4:
  76              		.loc 1 135 0 discriminator 2
  77 0036 FB68     		ldr	r3, [r7, #12]
  78 0038 0122     		movs	r2, #1
  79 003a 83F83420 		strb	r2, [r3, #52]
 136:Drivers/STM32F7xx_HAL_Driver/Src/stm32f7xx_hal_dma_ex.c ****     
 137:Drivers/STM32F7xx_HAL_Driver/Src/stm32f7xx_hal_dma_ex.c ****     if(HAL_DMA_STATE_READY == hdma->State)
  80              		.loc 1 137 0 is_stmt 1 discriminator 2
  81 003e FB68     		ldr	r3, [r7, #12]
  82 0040 93F83530 		ldrb	r3, [r3, #53]
  83 0044 DBB2     		uxtb	r3, r3
  84 0046 012B     		cmp	r3, #1
  85 0048 1ED1     		bne	.L6
 138:Drivers/STM32F7xx_HAL_Driver/Src/stm32f7xx_hal_dma_ex.c ****     {
 139:Drivers/STM32F7xx_HAL_Driver/Src/stm32f7xx_hal_dma_ex.c ****       /* Change DMA peripheral state */
 140:Drivers/STM32F7xx_HAL_Driver/Src/stm32f7xx_hal_dma_ex.c ****       hdma->State = HAL_DMA_STATE_BUSY; 
  86              		.loc 1 140 0
  87 004a FB68     		ldr	r3, [r7, #12]
  88 004c 0222     		movs	r2, #2
  89 004e 83F83520 		strb	r2, [r3, #53]
ARM GAS  /tmp/cc8NeEne.s 			page 5


 141:Drivers/STM32F7xx_HAL_Driver/Src/stm32f7xx_hal_dma_ex.c ****       
 142:Drivers/STM32F7xx_HAL_Driver/Src/stm32f7xx_hal_dma_ex.c ****       /* Enable the double buffer mode */
 143:Drivers/STM32F7xx_HAL_Driver/Src/stm32f7xx_hal_dma_ex.c ****       hdma->Instance->CR |= (uint32_t)DMA_SxCR_DBM;
  90              		.loc 1 143 0
  91 0052 FB68     		ldr	r3, [r7, #12]
  92 0054 1B68     		ldr	r3, [r3]
  93 0056 1A68     		ldr	r2, [r3]
  94 0058 FB68     		ldr	r3, [r7, #12]
  95 005a 1B68     		ldr	r3, [r3]
  96 005c 42F48022 		orr	r2, r2, #262144
  97 0060 1A60     		str	r2, [r3]
 144:Drivers/STM32F7xx_HAL_Driver/Src/stm32f7xx_hal_dma_ex.c ****       
 145:Drivers/STM32F7xx_HAL_Driver/Src/stm32f7xx_hal_dma_ex.c ****       /* Configure DMA Stream destination address */
 146:Drivers/STM32F7xx_HAL_Driver/Src/stm32f7xx_hal_dma_ex.c ****       hdma->Instance->M1AR = SecondMemAddress;
  98              		.loc 1 146 0
  99 0062 FB68     		ldr	r3, [r7, #12]
 100 0064 1B68     		ldr	r3, [r3]
 101 0066 3A68     		ldr	r2, [r7]
 102 0068 1A61     		str	r2, [r3, #16]
 147:Drivers/STM32F7xx_HAL_Driver/Src/stm32f7xx_hal_dma_ex.c ****       
 148:Drivers/STM32F7xx_HAL_Driver/Src/stm32f7xx_hal_dma_ex.c ****       /* Configure the source, destination address and the data length */
 149:Drivers/STM32F7xx_HAL_Driver/Src/stm32f7xx_hal_dma_ex.c ****       DMA_MultiBufferSetConfig(hdma, SrcAddress, DstAddress, DataLength);
 103              		.loc 1 149 0
 104 006a 3B6A     		ldr	r3, [r7, #32]
 105 006c 7A68     		ldr	r2, [r7, #4]
 106 006e B968     		ldr	r1, [r7, #8]
 107 0070 F868     		ldr	r0, [r7, #12]
 108 0072 FFF7FEFF 		bl	DMA_MultiBufferSetConfig
 150:Drivers/STM32F7xx_HAL_Driver/Src/stm32f7xx_hal_dma_ex.c ****       
 151:Drivers/STM32F7xx_HAL_Driver/Src/stm32f7xx_hal_dma_ex.c ****       /* Enable the peripheral */
 152:Drivers/STM32F7xx_HAL_Driver/Src/stm32f7xx_hal_dma_ex.c ****       __HAL_DMA_ENABLE(hdma);
 109              		.loc 1 152 0
 110 0076 FB68     		ldr	r3, [r7, #12]
 111 0078 1B68     		ldr	r3, [r3]
 112 007a 1A68     		ldr	r2, [r3]
 113 007c FB68     		ldr	r3, [r7, #12]
 114 007e 1B68     		ldr	r3, [r3]
 115 0080 42F00102 		orr	r2, r2, #1
 116 0084 1A60     		str	r2, [r3]
 117 0086 01E0     		b	.L3
 118              	.L6:
 153:Drivers/STM32F7xx_HAL_Driver/Src/stm32f7xx_hal_dma_ex.c ****     }
 154:Drivers/STM32F7xx_HAL_Driver/Src/stm32f7xx_hal_dma_ex.c ****     else
 155:Drivers/STM32F7xx_HAL_Driver/Src/stm32f7xx_hal_dma_ex.c ****     {
 156:Drivers/STM32F7xx_HAL_Driver/Src/stm32f7xx_hal_dma_ex.c ****       /* Return error status */
 157:Drivers/STM32F7xx_HAL_Driver/Src/stm32f7xx_hal_dma_ex.c ****       status = HAL_BUSY;
 119              		.loc 1 157 0
 120 0088 0223     		movs	r3, #2
 121 008a FB75     		strb	r3, [r7, #23]
 122              	.L3:
 158:Drivers/STM32F7xx_HAL_Driver/Src/stm32f7xx_hal_dma_ex.c ****     }
 159:Drivers/STM32F7xx_HAL_Driver/Src/stm32f7xx_hal_dma_ex.c ****   }
 160:Drivers/STM32F7xx_HAL_Driver/Src/stm32f7xx_hal_dma_ex.c ****   return status;
 123              		.loc 1 160 0
 124 008c FB7D     		ldrb	r3, [r7, #23]	@ zero_extendqisi2
 125              	.L5:
 161:Drivers/STM32F7xx_HAL_Driver/Src/stm32f7xx_hal_dma_ex.c **** }
ARM GAS  /tmp/cc8NeEne.s 			page 6


 126              		.loc 1 161 0
 127 008e 1846     		mov	r0, r3
 128 0090 1837     		adds	r7, r7, #24
 129              	.LCFI3:
 130              		.cfi_def_cfa_offset 8
 131 0092 BD46     		mov	sp, r7
 132              	.LCFI4:
 133              		.cfi_def_cfa_register 13
 134              		@ sp needed
 135 0094 80BD     		pop	{r7, pc}
 136              		.cfi_endproc
 137              	.LFE138:
 139              		.section	.text.HAL_DMAEx_MultiBufferStart_IT,"ax",%progbits
 140              		.align	1
 141              		.global	HAL_DMAEx_MultiBufferStart_IT
 142              		.syntax unified
 143              		.thumb
 144              		.thumb_func
 145              		.fpu fpv4-sp-d16
 147              	HAL_DMAEx_MultiBufferStart_IT:
 148              	.LFB139:
 162:Drivers/STM32F7xx_HAL_Driver/Src/stm32f7xx_hal_dma_ex.c **** 
 163:Drivers/STM32F7xx_HAL_Driver/Src/stm32f7xx_hal_dma_ex.c **** /**
 164:Drivers/STM32F7xx_HAL_Driver/Src/stm32f7xx_hal_dma_ex.c ****   * @brief  Starts the multi_buffer DMA Transfer with interrupt enabled.
 165:Drivers/STM32F7xx_HAL_Driver/Src/stm32f7xx_hal_dma_ex.c ****   * @param  hdma       pointer to a DMA_HandleTypeDef structure that contains
 166:Drivers/STM32F7xx_HAL_Driver/Src/stm32f7xx_hal_dma_ex.c ****   *                     the configuration information for the specified DMA Stream.  
 167:Drivers/STM32F7xx_HAL_Driver/Src/stm32f7xx_hal_dma_ex.c ****   * @param  SrcAddress The source memory Buffer address
 168:Drivers/STM32F7xx_HAL_Driver/Src/stm32f7xx_hal_dma_ex.c ****   * @param  DstAddress The destination memory Buffer address
 169:Drivers/STM32F7xx_HAL_Driver/Src/stm32f7xx_hal_dma_ex.c ****   * @param  SecondMemAddress The second memory Buffer address in case of multi buffer Transfer  
 170:Drivers/STM32F7xx_HAL_Driver/Src/stm32f7xx_hal_dma_ex.c ****   * @param  DataLength The length of data to be transferred from source to destination
 171:Drivers/STM32F7xx_HAL_Driver/Src/stm32f7xx_hal_dma_ex.c ****   * @retval HAL status
 172:Drivers/STM32F7xx_HAL_Driver/Src/stm32f7xx_hal_dma_ex.c ****   */
 173:Drivers/STM32F7xx_HAL_Driver/Src/stm32f7xx_hal_dma_ex.c **** HAL_StatusTypeDef HAL_DMAEx_MultiBufferStart_IT(DMA_HandleTypeDef *hdma, uint32_t SrcAddress, uint3
 174:Drivers/STM32F7xx_HAL_Driver/Src/stm32f7xx_hal_dma_ex.c **** {
 149              		.loc 1 174 0
 150              		.cfi_startproc
 151              		@ args = 4, pretend = 0, frame = 24
 152              		@ frame_needed = 1, uses_anonymous_args = 0
 153 0000 80B5     		push	{r7, lr}
 154              	.LCFI5:
 155              		.cfi_def_cfa_offset 8
 156              		.cfi_offset 7, -8
 157              		.cfi_offset 14, -4
 158 0002 86B0     		sub	sp, sp, #24
 159              	.LCFI6:
 160              		.cfi_def_cfa_offset 32
 161 0004 00AF     		add	r7, sp, #0
 162              	.LCFI7:
 163              		.cfi_def_cfa_register 7
 164 0006 F860     		str	r0, [r7, #12]
 165 0008 B960     		str	r1, [r7, #8]
 166 000a 7A60     		str	r2, [r7, #4]
 167 000c 3B60     		str	r3, [r7]
 175:Drivers/STM32F7xx_HAL_Driver/Src/stm32f7xx_hal_dma_ex.c ****   HAL_StatusTypeDef status = HAL_OK;
 168              		.loc 1 175 0
 169 000e 0023     		movs	r3, #0
 170 0010 FB75     		strb	r3, [r7, #23]
ARM GAS  /tmp/cc8NeEne.s 			page 7


 176:Drivers/STM32F7xx_HAL_Driver/Src/stm32f7xx_hal_dma_ex.c ****   
 177:Drivers/STM32F7xx_HAL_Driver/Src/stm32f7xx_hal_dma_ex.c ****   /* Check the parameters */
 178:Drivers/STM32F7xx_HAL_Driver/Src/stm32f7xx_hal_dma_ex.c ****   assert_param(IS_DMA_BUFFER_SIZE(DataLength));
 179:Drivers/STM32F7xx_HAL_Driver/Src/stm32f7xx_hal_dma_ex.c ****   
 180:Drivers/STM32F7xx_HAL_Driver/Src/stm32f7xx_hal_dma_ex.c ****   /* Memory-to-memory transfer not supported in double buffering mode */
 181:Drivers/STM32F7xx_HAL_Driver/Src/stm32f7xx_hal_dma_ex.c ****   if (hdma->Init.Direction == DMA_MEMORY_TO_MEMORY)
 171              		.loc 1 181 0
 172 0012 FB68     		ldr	r3, [r7, #12]
 173 0014 9B68     		ldr	r3, [r3, #8]
 174 0016 802B     		cmp	r3, #128
 175 0018 06D1     		bne	.L8
 182:Drivers/STM32F7xx_HAL_Driver/Src/stm32f7xx_hal_dma_ex.c ****   {
 183:Drivers/STM32F7xx_HAL_Driver/Src/stm32f7xx_hal_dma_ex.c ****     hdma->ErrorCode = HAL_DMA_ERROR_NOT_SUPPORTED;
 176              		.loc 1 183 0
 177 001a FB68     		ldr	r3, [r7, #12]
 178 001c 4FF48072 		mov	r2, #256
 179 0020 5A65     		str	r2, [r3, #84]
 184:Drivers/STM32F7xx_HAL_Driver/Src/stm32f7xx_hal_dma_ex.c ****     return HAL_ERROR;
 180              		.loc 1 184 0
 181 0022 0123     		movs	r3, #1
 182 0024 01F001B9 		b	.L9
 183              	.L8:
 185:Drivers/STM32F7xx_HAL_Driver/Src/stm32f7xx_hal_dma_ex.c ****   }
 186:Drivers/STM32F7xx_HAL_Driver/Src/stm32f7xx_hal_dma_ex.c ****   
 187:Drivers/STM32F7xx_HAL_Driver/Src/stm32f7xx_hal_dma_ex.c ****   /* Process locked */
 188:Drivers/STM32F7xx_HAL_Driver/Src/stm32f7xx_hal_dma_ex.c ****   __HAL_LOCK(hdma);
 184              		.loc 1 188 0
 185 0028 FB68     		ldr	r3, [r7, #12]
 186 002a 93F83430 		ldrb	r3, [r3, #52]	@ zero_extendqisi2
 187 002e 012B     		cmp	r3, #1
 188 0030 02D1     		bne	.L10
 189              		.loc 1 188 0 is_stmt 0 discriminator 1
 190 0032 0223     		movs	r3, #2
 191 0034 01F0F9B8 		b	.L9
 192              	.L10:
 193              		.loc 1 188 0 discriminator 2
 194 0038 FB68     		ldr	r3, [r7, #12]
 195 003a 0122     		movs	r2, #1
 196 003c 83F83420 		strb	r2, [r3, #52]
 189:Drivers/STM32F7xx_HAL_Driver/Src/stm32f7xx_hal_dma_ex.c ****   
 190:Drivers/STM32F7xx_HAL_Driver/Src/stm32f7xx_hal_dma_ex.c ****   if(HAL_DMA_STATE_READY == hdma->State)
 197              		.loc 1 190 0 is_stmt 1 discriminator 2
 198 0040 FB68     		ldr	r3, [r7, #12]
 199 0042 93F83530 		ldrb	r3, [r3, #53]
 200 0046 DBB2     		uxtb	r3, r3
 201 0048 012B     		cmp	r3, #1
 202 004a 41F0E780 		bne	.L11
 191:Drivers/STM32F7xx_HAL_Driver/Src/stm32f7xx_hal_dma_ex.c ****   {
 192:Drivers/STM32F7xx_HAL_Driver/Src/stm32f7xx_hal_dma_ex.c ****     /* Change DMA peripheral state */
 193:Drivers/STM32F7xx_HAL_Driver/Src/stm32f7xx_hal_dma_ex.c ****     hdma->State = HAL_DMA_STATE_BUSY;
 203              		.loc 1 193 0
 204 004e FB68     		ldr	r3, [r7, #12]
 205 0050 0222     		movs	r2, #2
 206 0052 83F83520 		strb	r2, [r3, #53]
 194:Drivers/STM32F7xx_HAL_Driver/Src/stm32f7xx_hal_dma_ex.c ****     
 195:Drivers/STM32F7xx_HAL_Driver/Src/stm32f7xx_hal_dma_ex.c ****     /* Initialize the error code */
 196:Drivers/STM32F7xx_HAL_Driver/Src/stm32f7xx_hal_dma_ex.c ****     hdma->ErrorCode = HAL_DMA_ERROR_NONE;
ARM GAS  /tmp/cc8NeEne.s 			page 8


 207              		.loc 1 196 0
 208 0056 FB68     		ldr	r3, [r7, #12]
 209 0058 0022     		movs	r2, #0
 210 005a 5A65     		str	r2, [r3, #84]
 197:Drivers/STM32F7xx_HAL_Driver/Src/stm32f7xx_hal_dma_ex.c ****     
 198:Drivers/STM32F7xx_HAL_Driver/Src/stm32f7xx_hal_dma_ex.c ****     /* Enable the Double buffer mode */
 199:Drivers/STM32F7xx_HAL_Driver/Src/stm32f7xx_hal_dma_ex.c ****     hdma->Instance->CR |= (uint32_t)DMA_SxCR_DBM;
 211              		.loc 1 199 0
 212 005c FB68     		ldr	r3, [r7, #12]
 213 005e 1B68     		ldr	r3, [r3]
 214 0060 1A68     		ldr	r2, [r3]
 215 0062 FB68     		ldr	r3, [r7, #12]
 216 0064 1B68     		ldr	r3, [r3]
 217 0066 42F48022 		orr	r2, r2, #262144
 218 006a 1A60     		str	r2, [r3]
 200:Drivers/STM32F7xx_HAL_Driver/Src/stm32f7xx_hal_dma_ex.c ****     
 201:Drivers/STM32F7xx_HAL_Driver/Src/stm32f7xx_hal_dma_ex.c ****     /* Configure DMA Stream destination address */
 202:Drivers/STM32F7xx_HAL_Driver/Src/stm32f7xx_hal_dma_ex.c ****     hdma->Instance->M1AR = SecondMemAddress;
 219              		.loc 1 202 0
 220 006c FB68     		ldr	r3, [r7, #12]
 221 006e 1B68     		ldr	r3, [r3]
 222 0070 3A68     		ldr	r2, [r7]
 223 0072 1A61     		str	r2, [r3, #16]
 203:Drivers/STM32F7xx_HAL_Driver/Src/stm32f7xx_hal_dma_ex.c ****     
 204:Drivers/STM32F7xx_HAL_Driver/Src/stm32f7xx_hal_dma_ex.c ****     /* Configure the source, destination address and the data length */
 205:Drivers/STM32F7xx_HAL_Driver/Src/stm32f7xx_hal_dma_ex.c ****     DMA_MultiBufferSetConfig(hdma, SrcAddress, DstAddress, DataLength); 
 224              		.loc 1 205 0
 225 0074 3B6A     		ldr	r3, [r7, #32]
 226 0076 7A68     		ldr	r2, [r7, #4]
 227 0078 B968     		ldr	r1, [r7, #8]
 228 007a F868     		ldr	r0, [r7, #12]
 229 007c FFF7FEFF 		bl	DMA_MultiBufferSetConfig
 206:Drivers/STM32F7xx_HAL_Driver/Src/stm32f7xx_hal_dma_ex.c ****     
 207:Drivers/STM32F7xx_HAL_Driver/Src/stm32f7xx_hal_dma_ex.c ****     /* Clear all flags */
 208:Drivers/STM32F7xx_HAL_Driver/Src/stm32f7xx_hal_dma_ex.c ****     __HAL_DMA_CLEAR_FLAG (hdma, __HAL_DMA_GET_TC_FLAG_INDEX(hdma));
 230              		.loc 1 208 0
 231 0080 FB68     		ldr	r3, [r7, #12]
 232 0082 1B68     		ldr	r3, [r3]
 233 0084 1A46     		mov	r2, r3
 234 0086 994B     		ldr	r3, .L525
 235 0088 9A42     		cmp	r2, r3
 236 008a 60D9     		bls	.L12
 237              		.loc 1 208 0 is_stmt 0 discriminator 1
 238 008c FB68     		ldr	r3, [r7, #12]
 239 008e 1B68     		ldr	r3, [r3]
 240 0090 974A     		ldr	r2, .L525+4
 241 0092 9342     		cmp	r3, r2
 242 0094 57D0     		beq	.L13
 243              		.loc 1 208 0 discriminator 3
 244 0096 FB68     		ldr	r3, [r7, #12]
 245 0098 1B68     		ldr	r3, [r3]
 246 009a 964A     		ldr	r2, .L525+8
 247 009c 9342     		cmp	r3, r2
 248 009e 50D0     		beq	.L14
 249              		.loc 1 208 0 discriminator 5
 250 00a0 FB68     		ldr	r3, [r7, #12]
 251 00a2 1B68     		ldr	r3, [r3]
ARM GAS  /tmp/cc8NeEne.s 			page 9


 252 00a4 944A     		ldr	r2, .L525+12
 253 00a6 9342     		cmp	r3, r2
 254 00a8 49D0     		beq	.L15
 255              		.loc 1 208 0 discriminator 7
 256 00aa FB68     		ldr	r3, [r7, #12]
 257 00ac 1B68     		ldr	r3, [r3]
 258 00ae 934A     		ldr	r2, .L525+16
 259 00b0 9342     		cmp	r3, r2
 260 00b2 42D0     		beq	.L16
 261              		.loc 1 208 0 discriminator 9
 262 00b4 FB68     		ldr	r3, [r7, #12]
 263 00b6 1B68     		ldr	r3, [r3]
 264 00b8 914A     		ldr	r2, .L525+20
 265 00ba 9342     		cmp	r3, r2
 266 00bc 3AD0     		beq	.L17
 267              		.loc 1 208 0 discriminator 11
 268 00be FB68     		ldr	r3, [r7, #12]
 269 00c0 1B68     		ldr	r3, [r3]
 270 00c2 904A     		ldr	r2, .L525+24
 271 00c4 9342     		cmp	r3, r2
 272 00c6 32D0     		beq	.L18
 273              		.loc 1 208 0 discriminator 13
 274 00c8 FB68     		ldr	r3, [r7, #12]
 275 00ca 1B68     		ldr	r3, [r3]
 276 00cc 8E4A     		ldr	r2, .L525+28
 277 00ce 9342     		cmp	r3, r2
 278 00d0 2AD0     		beq	.L19
 279              		.loc 1 208 0 discriminator 15
 280 00d2 FB68     		ldr	r3, [r7, #12]
 281 00d4 1B68     		ldr	r3, [r3]
 282 00d6 8D4A     		ldr	r2, .L525+32
 283 00d8 9342     		cmp	r3, r2
 284 00da 22D0     		beq	.L20
 285              		.loc 1 208 0 discriminator 17
 286 00dc FB68     		ldr	r3, [r7, #12]
 287 00de 1B68     		ldr	r3, [r3]
 288 00e0 8B4A     		ldr	r2, .L525+36
 289 00e2 9342     		cmp	r3, r2
 290 00e4 1AD0     		beq	.L21
 291              		.loc 1 208 0 discriminator 19
 292 00e6 FB68     		ldr	r3, [r7, #12]
 293 00e8 1B68     		ldr	r3, [r3]
 294 00ea 8A4A     		ldr	r2, .L525+40
 295 00ec 9342     		cmp	r3, r2
 296 00ee 12D0     		beq	.L22
 297              		.loc 1 208 0 discriminator 21
 298 00f0 FB68     		ldr	r3, [r7, #12]
 299 00f2 1B68     		ldr	r3, [r3]
 300 00f4 884A     		ldr	r2, .L525+44
 301 00f6 9342     		cmp	r3, r2
 302 00f8 0AD0     		beq	.L23
 303              		.loc 1 208 0 discriminator 23
 304 00fa FB68     		ldr	r3, [r7, #12]
 305 00fc 1B68     		ldr	r3, [r3]
 306 00fe 874A     		ldr	r2, .L525+48
 307 0100 9342     		cmp	r3, r2
 308 0102 02D1     		bne	.L24
ARM GAS  /tmp/cc8NeEne.s 			page 10


 309              		.loc 1 208 0 discriminator 25
 310 0104 4FF40013 		mov	r3, #2097152
 311 0108 1EE0     		b	.L36
 312              	.L24:
 313              		.loc 1 208 0 discriminator 26
 314 010a 4FF00063 		mov	r3, #134217728
 315 010e 1BE0     		b	.L36
 316              	.L23:
 317              		.loc 1 208 0 discriminator 24
 318 0110 4FF40013 		mov	r3, #2097152
 319 0114 18E0     		b	.L36
 320              	.L22:
 321              		.loc 1 208 0 discriminator 22
 322 0116 4FF40013 		mov	r3, #2097152
 323 011a 15E0     		b	.L36
 324              	.L21:
 325              		.loc 1 208 0 discriminator 20
 326 011c 4FF40013 		mov	r3, #2097152
 327 0120 12E0     		b	.L36
 328              	.L20:
 329              		.loc 1 208 0 discriminator 18
 330 0122 4FF40063 		mov	r3, #2048
 331 0126 0FE0     		b	.L36
 332              	.L19:
 333              		.loc 1 208 0 discriminator 16
 334 0128 4FF40063 		mov	r3, #2048
 335 012c 0CE0     		b	.L36
 336              	.L18:
 337              		.loc 1 208 0 discriminator 14
 338 012e 4FF40063 		mov	r3, #2048
 339 0132 09E0     		b	.L36
 340              	.L17:
 341              		.loc 1 208 0 discriminator 12
 342 0134 4FF40063 		mov	r3, #2048
 343 0138 06E0     		b	.L36
 344              	.L16:
 345              		.loc 1 208 0 discriminator 10
 346 013a 2023     		movs	r3, #32
 347 013c 04E0     		b	.L36
 348              	.L15:
 349              		.loc 1 208 0 discriminator 8
 350 013e 2023     		movs	r3, #32
 351 0140 02E0     		b	.L36
 352              	.L14:
 353              		.loc 1 208 0 discriminator 6
 354 0142 2023     		movs	r3, #32
 355 0144 00E0     		b	.L36
 356              	.L13:
 357              		.loc 1 208 0 discriminator 4
 358 0146 2023     		movs	r3, #32
 359              	.L36:
 360              		.loc 1 208 0 discriminator 50
 361 0148 754A     		ldr	r2, .L525+52
 362 014a D360     		str	r3, [r2, #12]
 363 014c 50E1     		b	.L37
 364              	.L12:
 365              		.loc 1 208 0 discriminator 2
ARM GAS  /tmp/cc8NeEne.s 			page 11


 366 014e FB68     		ldr	r3, [r7, #12]
 367 0150 1B68     		ldr	r3, [r3]
 368 0152 1A46     		mov	r2, r3
 369 0154 734B     		ldr	r3, .L525+56
 370 0156 9A42     		cmp	r2, r3
 371 0158 60D9     		bls	.L38
 372              		.loc 1 208 0 discriminator 51
 373 015a FB68     		ldr	r3, [r7, #12]
 374 015c 1B68     		ldr	r3, [r3]
 375 015e 644A     		ldr	r2, .L525+4
 376 0160 9342     		cmp	r3, r2
 377 0162 57D0     		beq	.L39
 378              		.loc 1 208 0 discriminator 53
 379 0164 FB68     		ldr	r3, [r7, #12]
 380 0166 1B68     		ldr	r3, [r3]
 381 0168 624A     		ldr	r2, .L525+8
 382 016a 9342     		cmp	r3, r2
 383 016c 50D0     		beq	.L40
 384              		.loc 1 208 0 discriminator 55
 385 016e FB68     		ldr	r3, [r7, #12]
 386 0170 1B68     		ldr	r3, [r3]
 387 0172 614A     		ldr	r2, .L525+12
 388 0174 9342     		cmp	r3, r2
 389 0176 49D0     		beq	.L41
 390              		.loc 1 208 0 discriminator 57
 391 0178 FB68     		ldr	r3, [r7, #12]
 392 017a 1B68     		ldr	r3, [r3]
 393 017c 5F4A     		ldr	r2, .L525+16
 394 017e 9342     		cmp	r3, r2
 395 0180 42D0     		beq	.L42
 396              		.loc 1 208 0 discriminator 59
 397 0182 FB68     		ldr	r3, [r7, #12]
 398 0184 1B68     		ldr	r3, [r3]
 399 0186 5E4A     		ldr	r2, .L525+20
 400 0188 9342     		cmp	r3, r2
 401 018a 3AD0     		beq	.L43
 402              		.loc 1 208 0 discriminator 61
 403 018c FB68     		ldr	r3, [r7, #12]
 404 018e 1B68     		ldr	r3, [r3]
 405 0190 5C4A     		ldr	r2, .L525+24
 406 0192 9342     		cmp	r3, r2
 407 0194 32D0     		beq	.L44
 408              		.loc 1 208 0 discriminator 63
 409 0196 FB68     		ldr	r3, [r7, #12]
 410 0198 1B68     		ldr	r3, [r3]
 411 019a 5B4A     		ldr	r2, .L525+28
 412 019c 9342     		cmp	r3, r2
 413 019e 2AD0     		beq	.L45
 414              		.loc 1 208 0 discriminator 65
 415 01a0 FB68     		ldr	r3, [r7, #12]
 416 01a2 1B68     		ldr	r3, [r3]
 417 01a4 594A     		ldr	r2, .L525+32
 418 01a6 9342     		cmp	r3, r2
 419 01a8 22D0     		beq	.L46
 420              		.loc 1 208 0 discriminator 67
 421 01aa FB68     		ldr	r3, [r7, #12]
 422 01ac 1B68     		ldr	r3, [r3]
ARM GAS  /tmp/cc8NeEne.s 			page 12


 423 01ae 584A     		ldr	r2, .L525+36
 424 01b0 9342     		cmp	r3, r2
 425 01b2 1AD0     		beq	.L47
 426              		.loc 1 208 0 discriminator 69
 427 01b4 FB68     		ldr	r3, [r7, #12]
 428 01b6 1B68     		ldr	r3, [r3]
 429 01b8 564A     		ldr	r2, .L525+40
 430 01ba 9342     		cmp	r3, r2
 431 01bc 12D0     		beq	.L48
 432              		.loc 1 208 0 discriminator 71
 433 01be FB68     		ldr	r3, [r7, #12]
 434 01c0 1B68     		ldr	r3, [r3]
 435 01c2 554A     		ldr	r2, .L525+44
 436 01c4 9342     		cmp	r3, r2
 437 01c6 0AD0     		beq	.L49
 438              		.loc 1 208 0 discriminator 73
 439 01c8 FB68     		ldr	r3, [r7, #12]
 440 01ca 1B68     		ldr	r3, [r3]
 441 01cc 534A     		ldr	r2, .L525+48
 442 01ce 9342     		cmp	r3, r2
 443 01d0 02D1     		bne	.L50
 444              		.loc 1 208 0 discriminator 75
 445 01d2 4FF40013 		mov	r3, #2097152
 446 01d6 1EE0     		b	.L62
 447              	.L50:
 448              		.loc 1 208 0 discriminator 76
 449 01d8 4FF00063 		mov	r3, #134217728
 450 01dc 1BE0     		b	.L62
 451              	.L49:
 452              		.loc 1 208 0 discriminator 74
 453 01de 4FF40013 		mov	r3, #2097152
 454 01e2 18E0     		b	.L62
 455              	.L48:
 456              		.loc 1 208 0 discriminator 72
 457 01e4 4FF40013 		mov	r3, #2097152
 458 01e8 15E0     		b	.L62
 459              	.L47:
 460              		.loc 1 208 0 discriminator 70
 461 01ea 4FF40013 		mov	r3, #2097152
 462 01ee 12E0     		b	.L62
 463              	.L46:
 464              		.loc 1 208 0 discriminator 68
 465 01f0 4FF40063 		mov	r3, #2048
 466 01f4 0FE0     		b	.L62
 467              	.L45:
 468              		.loc 1 208 0 discriminator 66
 469 01f6 4FF40063 		mov	r3, #2048
 470 01fa 0CE0     		b	.L62
 471              	.L44:
 472              		.loc 1 208 0 discriminator 64
 473 01fc 4FF40063 		mov	r3, #2048
 474 0200 09E0     		b	.L62
 475              	.L43:
 476              		.loc 1 208 0 discriminator 62
 477 0202 4FF40063 		mov	r3, #2048
 478 0206 06E0     		b	.L62
 479              	.L42:
ARM GAS  /tmp/cc8NeEne.s 			page 13


 480              		.loc 1 208 0 discriminator 60
 481 0208 2023     		movs	r3, #32
 482 020a 04E0     		b	.L62
 483              	.L41:
 484              		.loc 1 208 0 discriminator 58
 485 020c 2023     		movs	r3, #32
 486 020e 02E0     		b	.L62
 487              	.L40:
 488              		.loc 1 208 0 discriminator 56
 489 0210 2023     		movs	r3, #32
 490 0212 00E0     		b	.L62
 491              	.L39:
 492              		.loc 1 208 0 discriminator 54
 493 0214 2023     		movs	r3, #32
 494              	.L62:
 495              		.loc 1 208 0 discriminator 100
 496 0216 424A     		ldr	r2, .L525+52
 497 0218 9360     		str	r3, [r2, #8]
 498 021a E9E0     		b	.L37
 499              	.L38:
 500              		.loc 1 208 0 discriminator 52
 501 021c FB68     		ldr	r3, [r7, #12]
 502 021e 1B68     		ldr	r3, [r3]
 503 0220 1A46     		mov	r2, r3
 504 0222 414B     		ldr	r3, .L525+60
 505 0224 9A42     		cmp	r2, r3
 506 0226 40F28380 		bls	.L64
 507              		.loc 1 208 0 discriminator 102
 508 022a FB68     		ldr	r3, [r7, #12]
 509 022c 1B68     		ldr	r3, [r3]
 510 022e 304A     		ldr	r2, .L525+4
 511 0230 9342     		cmp	r3, r2
 512 0232 57D0     		beq	.L65
 513              		.loc 1 208 0 discriminator 104
 514 0234 FB68     		ldr	r3, [r7, #12]
 515 0236 1B68     		ldr	r3, [r3]
 516 0238 2E4A     		ldr	r2, .L525+8
 517 023a 9342     		cmp	r3, r2
 518 023c 50D0     		beq	.L66
 519              		.loc 1 208 0 discriminator 106
 520 023e FB68     		ldr	r3, [r7, #12]
 521 0240 1B68     		ldr	r3, [r3]
 522 0242 2D4A     		ldr	r2, .L525+12
 523 0244 9342     		cmp	r3, r2
 524 0246 49D0     		beq	.L67
 525              		.loc 1 208 0 discriminator 108
 526 0248 FB68     		ldr	r3, [r7, #12]
 527 024a 1B68     		ldr	r3, [r3]
 528 024c 2B4A     		ldr	r2, .L525+16
 529 024e 9342     		cmp	r3, r2
 530 0250 42D0     		beq	.L68
 531              		.loc 1 208 0 discriminator 110
 532 0252 FB68     		ldr	r3, [r7, #12]
 533 0254 1B68     		ldr	r3, [r3]
 534 0256 2A4A     		ldr	r2, .L525+20
 535 0258 9342     		cmp	r3, r2
 536 025a 3AD0     		beq	.L69
ARM GAS  /tmp/cc8NeEne.s 			page 14


 537              		.loc 1 208 0 discriminator 112
 538 025c FB68     		ldr	r3, [r7, #12]
 539 025e 1B68     		ldr	r3, [r3]
 540 0260 284A     		ldr	r2, .L525+24
 541 0262 9342     		cmp	r3, r2
 542 0264 32D0     		beq	.L70
 543              		.loc 1 208 0 discriminator 114
 544 0266 FB68     		ldr	r3, [r7, #12]
 545 0268 1B68     		ldr	r3, [r3]
 546 026a 274A     		ldr	r2, .L525+28
 547 026c 9342     		cmp	r3, r2
 548 026e 2AD0     		beq	.L71
 549              		.loc 1 208 0 discriminator 116
 550 0270 FB68     		ldr	r3, [r7, #12]
 551 0272 1B68     		ldr	r3, [r3]
 552 0274 254A     		ldr	r2, .L525+32
 553 0276 9342     		cmp	r3, r2
 554 0278 22D0     		beq	.L72
 555              		.loc 1 208 0 discriminator 118
 556 027a FB68     		ldr	r3, [r7, #12]
 557 027c 1B68     		ldr	r3, [r3]
 558 027e 244A     		ldr	r2, .L525+36
 559 0280 9342     		cmp	r3, r2
 560 0282 1AD0     		beq	.L73
 561              		.loc 1 208 0 discriminator 120
 562 0284 FB68     		ldr	r3, [r7, #12]
 563 0286 1B68     		ldr	r3, [r3]
 564 0288 224A     		ldr	r2, .L525+40
 565 028a 9342     		cmp	r3, r2
 566 028c 12D0     		beq	.L74
 567              		.loc 1 208 0 discriminator 122
 568 028e FB68     		ldr	r3, [r7, #12]
 569 0290 1B68     		ldr	r3, [r3]
 570 0292 214A     		ldr	r2, .L525+44
 571 0294 9342     		cmp	r3, r2
 572 0296 0AD0     		beq	.L75
 573              		.loc 1 208 0 discriminator 124
 574 0298 FB68     		ldr	r3, [r7, #12]
 575 029a 1B68     		ldr	r3, [r3]
 576 029c 1F4A     		ldr	r2, .L525+48
 577 029e 9342     		cmp	r3, r2
 578 02a0 02D1     		bne	.L76
 579              		.loc 1 208 0 discriminator 126
 580 02a2 4FF40013 		mov	r3, #2097152
 581 02a6 1EE0     		b	.L88
 582              	.L76:
 583              		.loc 1 208 0 discriminator 127
 584 02a8 4FF00063 		mov	r3, #134217728
 585 02ac 1BE0     		b	.L88
 586              	.L75:
 587              		.loc 1 208 0 discriminator 125
 588 02ae 4FF40013 		mov	r3, #2097152
 589 02b2 18E0     		b	.L88
 590              	.L74:
 591              		.loc 1 208 0 discriminator 123
 592 02b4 4FF40013 		mov	r3, #2097152
 593 02b8 15E0     		b	.L88
ARM GAS  /tmp/cc8NeEne.s 			page 15


 594              	.L73:
 595              		.loc 1 208 0 discriminator 121
 596 02ba 4FF40013 		mov	r3, #2097152
 597 02be 12E0     		b	.L88
 598              	.L72:
 599              		.loc 1 208 0 discriminator 119
 600 02c0 4FF40063 		mov	r3, #2048
 601 02c4 0FE0     		b	.L88
 602              	.L71:
 603              		.loc 1 208 0 discriminator 117
 604 02c6 4FF40063 		mov	r3, #2048
 605 02ca 0CE0     		b	.L88
 606              	.L70:
 607              		.loc 1 208 0 discriminator 115
 608 02cc 4FF40063 		mov	r3, #2048
 609 02d0 09E0     		b	.L88
 610              	.L69:
 611              		.loc 1 208 0 discriminator 113
 612 02d2 4FF40063 		mov	r3, #2048
 613 02d6 06E0     		b	.L88
 614              	.L68:
 615              		.loc 1 208 0 discriminator 111
 616 02d8 2023     		movs	r3, #32
 617 02da 04E0     		b	.L88
 618              	.L67:
 619              		.loc 1 208 0 discriminator 109
 620 02dc 2023     		movs	r3, #32
 621 02de 02E0     		b	.L88
 622              	.L66:
 623              		.loc 1 208 0 discriminator 107
 624 02e0 2023     		movs	r3, #32
 625 02e2 00E0     		b	.L88
 626              	.L65:
 627              		.loc 1 208 0 discriminator 105
 628 02e4 2023     		movs	r3, #32
 629              	.L88:
 630              		.loc 1 208 0 discriminator 151
 631 02e6 114A     		ldr	r2, .L525+64
 632 02e8 D360     		str	r3, [r2, #12]
 633 02ea 81E0     		b	.L37
 634              	.L526:
 635              		.align	2
 636              	.L525:
 637 02ec 58640240 		.word	1073898584
 638 02f0 10600240 		.word	1073897488
 639 02f4 10640240 		.word	1073898512
 640 02f8 70600240 		.word	1073897584
 641 02fc 70640240 		.word	1073898608
 642 0300 28600240 		.word	1073897512
 643 0304 28640240 		.word	1073898536
 644 0308 88600240 		.word	1073897608
 645 030c 88640240 		.word	1073898632
 646 0310 40600240 		.word	1073897536
 647 0314 40640240 		.word	1073898560
 648 0318 A0600240 		.word	1073897632
 649 031c A0640240 		.word	1073898656
 650 0320 00640240 		.word	1073898496
ARM GAS  /tmp/cc8NeEne.s 			page 16


 651 0324 B8600240 		.word	1073897656
 652 0328 58600240 		.word	1073897560
 653 032c 00600240 		.word	1073897472
 654              	.L64:
 655              		.loc 1 208 0 discriminator 103
 656 0330 FB68     		ldr	r3, [r7, #12]
 657 0332 1B68     		ldr	r3, [r3]
 658 0334 964A     		ldr	r2, .L527
 659 0336 9342     		cmp	r3, r2
 660 0338 57D0     		beq	.L90
 661              		.loc 1 208 0 discriminator 153
 662 033a FB68     		ldr	r3, [r7, #12]
 663 033c 1B68     		ldr	r3, [r3]
 664 033e 954A     		ldr	r2, .L527+4
 665 0340 9342     		cmp	r3, r2
 666 0342 50D0     		beq	.L91
 667              		.loc 1 208 0 discriminator 155
 668 0344 FB68     		ldr	r3, [r7, #12]
 669 0346 1B68     		ldr	r3, [r3]
 670 0348 934A     		ldr	r2, .L527+8
 671 034a 9342     		cmp	r3, r2
 672 034c 49D0     		beq	.L92
 673              		.loc 1 208 0 discriminator 157
 674 034e FB68     		ldr	r3, [r7, #12]
 675 0350 1B68     		ldr	r3, [r3]
 676 0352 924A     		ldr	r2, .L527+12
 677 0354 9342     		cmp	r3, r2
 678 0356 42D0     		beq	.L93
 679              		.loc 1 208 0 discriminator 159
 680 0358 FB68     		ldr	r3, [r7, #12]
 681 035a 1B68     		ldr	r3, [r3]
 682 035c 904A     		ldr	r2, .L527+16
 683 035e 9342     		cmp	r3, r2
 684 0360 3AD0     		beq	.L94
 685              		.loc 1 208 0 discriminator 161
 686 0362 FB68     		ldr	r3, [r7, #12]
 687 0364 1B68     		ldr	r3, [r3]
 688 0366 8F4A     		ldr	r2, .L527+20
 689 0368 9342     		cmp	r3, r2
 690 036a 32D0     		beq	.L95
 691              		.loc 1 208 0 discriminator 163
 692 036c FB68     		ldr	r3, [r7, #12]
 693 036e 1B68     		ldr	r3, [r3]
 694 0370 8D4A     		ldr	r2, .L527+24
 695 0372 9342     		cmp	r3, r2
 696 0374 2AD0     		beq	.L96
 697              		.loc 1 208 0 discriminator 165
 698 0376 FB68     		ldr	r3, [r7, #12]
 699 0378 1B68     		ldr	r3, [r3]
 700 037a 8C4A     		ldr	r2, .L527+28
 701 037c 9342     		cmp	r3, r2
 702 037e 22D0     		beq	.L97
 703              		.loc 1 208 0 discriminator 167
 704 0380 FB68     		ldr	r3, [r7, #12]
 705 0382 1B68     		ldr	r3, [r3]
 706 0384 8A4A     		ldr	r2, .L527+32
 707 0386 9342     		cmp	r3, r2
ARM GAS  /tmp/cc8NeEne.s 			page 17


 708 0388 1AD0     		beq	.L98
 709              		.loc 1 208 0 discriminator 169
 710 038a FB68     		ldr	r3, [r7, #12]
 711 038c 1B68     		ldr	r3, [r3]
 712 038e 894A     		ldr	r2, .L527+36
 713 0390 9342     		cmp	r3, r2
 714 0392 12D0     		beq	.L99
 715              		.loc 1 208 0 discriminator 171
 716 0394 FB68     		ldr	r3, [r7, #12]
 717 0396 1B68     		ldr	r3, [r3]
 718 0398 874A     		ldr	r2, .L527+40
 719 039a 9342     		cmp	r3, r2
 720 039c 0AD0     		beq	.L100
 721              		.loc 1 208 0 discriminator 173
 722 039e FB68     		ldr	r3, [r7, #12]
 723 03a0 1B68     		ldr	r3, [r3]
 724 03a2 864A     		ldr	r2, .L527+44
 725 03a4 9342     		cmp	r3, r2
 726 03a6 02D1     		bne	.L101
 727              		.loc 1 208 0 discriminator 175
 728 03a8 4FF40013 		mov	r3, #2097152
 729 03ac 1EE0     		b	.L113
 730              	.L101:
 731              		.loc 1 208 0 discriminator 176
 732 03ae 4FF00063 		mov	r3, #134217728
 733 03b2 1BE0     		b	.L113
 734              	.L100:
 735              		.loc 1 208 0 discriminator 174
 736 03b4 4FF40013 		mov	r3, #2097152
 737 03b8 18E0     		b	.L113
 738              	.L99:
 739              		.loc 1 208 0 discriminator 172
 740 03ba 4FF40013 		mov	r3, #2097152
 741 03be 15E0     		b	.L113
 742              	.L98:
 743              		.loc 1 208 0 discriminator 170
 744 03c0 4FF40013 		mov	r3, #2097152
 745 03c4 12E0     		b	.L113
 746              	.L97:
 747              		.loc 1 208 0 discriminator 168
 748 03c6 4FF40063 		mov	r3, #2048
 749 03ca 0FE0     		b	.L113
 750              	.L96:
 751              		.loc 1 208 0 discriminator 166
 752 03cc 4FF40063 		mov	r3, #2048
 753 03d0 0CE0     		b	.L113
 754              	.L95:
 755              		.loc 1 208 0 discriminator 164
 756 03d2 4FF40063 		mov	r3, #2048
 757 03d6 09E0     		b	.L113
 758              	.L94:
 759              		.loc 1 208 0 discriminator 162
 760 03d8 4FF40063 		mov	r3, #2048
 761 03dc 06E0     		b	.L113
 762              	.L93:
 763              		.loc 1 208 0 discriminator 160
 764 03de 2023     		movs	r3, #32
ARM GAS  /tmp/cc8NeEne.s 			page 18


 765 03e0 04E0     		b	.L113
 766              	.L92:
 767              		.loc 1 208 0 discriminator 158
 768 03e2 2023     		movs	r3, #32
 769 03e4 02E0     		b	.L113
 770              	.L91:
 771              		.loc 1 208 0 discriminator 156
 772 03e6 2023     		movs	r3, #32
 773 03e8 00E0     		b	.L113
 774              	.L90:
 775              		.loc 1 208 0 discriminator 154
 776 03ea 2023     		movs	r3, #32
 777              	.L113:
 778              		.loc 1 208 0 discriminator 200
 779 03ec 744A     		ldr	r2, .L527+48
 780 03ee 9360     		str	r3, [r2, #8]
 781              	.L37:
 209:Drivers/STM32F7xx_HAL_Driver/Src/stm32f7xx_hal_dma_ex.c ****     __HAL_DMA_CLEAR_FLAG (hdma, __HAL_DMA_GET_HT_FLAG_INDEX(hdma));
 782              		.loc 1 209 0 is_stmt 1
 783 03f0 FB68     		ldr	r3, [r7, #12]
 784 03f2 1B68     		ldr	r3, [r3]
 785 03f4 1A46     		mov	r2, r3
 786 03f6 734B     		ldr	r3, .L527+52
 787 03f8 9A42     		cmp	r2, r3
 788 03fa 60D9     		bls	.L114
 789              		.loc 1 209 0 is_stmt 0 discriminator 1
 790 03fc FB68     		ldr	r3, [r7, #12]
 791 03fe 1B68     		ldr	r3, [r3]
 792 0400 634A     		ldr	r2, .L527
 793 0402 9342     		cmp	r3, r2
 794 0404 57D0     		beq	.L115
 795              		.loc 1 209 0 discriminator 3
 796 0406 FB68     		ldr	r3, [r7, #12]
 797 0408 1B68     		ldr	r3, [r3]
 798 040a 624A     		ldr	r2, .L527+4
 799 040c 9342     		cmp	r3, r2
 800 040e 50D0     		beq	.L116
 801              		.loc 1 209 0 discriminator 5
 802 0410 FB68     		ldr	r3, [r7, #12]
 803 0412 1B68     		ldr	r3, [r3]
 804 0414 604A     		ldr	r2, .L527+8
 805 0416 9342     		cmp	r3, r2
 806 0418 49D0     		beq	.L117
 807              		.loc 1 209 0 discriminator 7
 808 041a FB68     		ldr	r3, [r7, #12]
 809 041c 1B68     		ldr	r3, [r3]
 810 041e 5F4A     		ldr	r2, .L527+12
 811 0420 9342     		cmp	r3, r2
 812 0422 42D0     		beq	.L118
 813              		.loc 1 209 0 discriminator 9
 814 0424 FB68     		ldr	r3, [r7, #12]
 815 0426 1B68     		ldr	r3, [r3]
 816 0428 5D4A     		ldr	r2, .L527+16
 817 042a 9342     		cmp	r3, r2
 818 042c 3AD0     		beq	.L119
 819              		.loc 1 209 0 discriminator 11
 820 042e FB68     		ldr	r3, [r7, #12]
ARM GAS  /tmp/cc8NeEne.s 			page 19


 821 0430 1B68     		ldr	r3, [r3]
 822 0432 5C4A     		ldr	r2, .L527+20
 823 0434 9342     		cmp	r3, r2
 824 0436 32D0     		beq	.L120
 825              		.loc 1 209 0 discriminator 13
 826 0438 FB68     		ldr	r3, [r7, #12]
 827 043a 1B68     		ldr	r3, [r3]
 828 043c 5A4A     		ldr	r2, .L527+24
 829 043e 9342     		cmp	r3, r2
 830 0440 2AD0     		beq	.L121
 831              		.loc 1 209 0 discriminator 15
 832 0442 FB68     		ldr	r3, [r7, #12]
 833 0444 1B68     		ldr	r3, [r3]
 834 0446 594A     		ldr	r2, .L527+28
 835 0448 9342     		cmp	r3, r2
 836 044a 22D0     		beq	.L122
 837              		.loc 1 209 0 discriminator 17
 838 044c FB68     		ldr	r3, [r7, #12]
 839 044e 1B68     		ldr	r3, [r3]
 840 0450 574A     		ldr	r2, .L527+32
 841 0452 9342     		cmp	r3, r2
 842 0454 1AD0     		beq	.L123
 843              		.loc 1 209 0 discriminator 19
 844 0456 FB68     		ldr	r3, [r7, #12]
 845 0458 1B68     		ldr	r3, [r3]
 846 045a 564A     		ldr	r2, .L527+36
 847 045c 9342     		cmp	r3, r2
 848 045e 12D0     		beq	.L124
 849              		.loc 1 209 0 discriminator 21
 850 0460 FB68     		ldr	r3, [r7, #12]
 851 0462 1B68     		ldr	r3, [r3]
 852 0464 544A     		ldr	r2, .L527+40
 853 0466 9342     		cmp	r3, r2
 854 0468 0AD0     		beq	.L125
 855              		.loc 1 209 0 discriminator 23
 856 046a FB68     		ldr	r3, [r7, #12]
 857 046c 1B68     		ldr	r3, [r3]
 858 046e 534A     		ldr	r2, .L527+44
 859 0470 9342     		cmp	r3, r2
 860 0472 02D1     		bne	.L126
 861              		.loc 1 209 0 discriminator 25
 862 0474 4FF48013 		mov	r3, #1048576
 863 0478 1EE0     		b	.L138
 864              	.L126:
 865              		.loc 1 209 0 discriminator 26
 866 047a 4FF08063 		mov	r3, #67108864
 867 047e 1BE0     		b	.L138
 868              	.L125:
 869              		.loc 1 209 0 discriminator 24
 870 0480 4FF48013 		mov	r3, #1048576
 871 0484 18E0     		b	.L138
 872              	.L124:
 873              		.loc 1 209 0 discriminator 22
 874 0486 4FF48013 		mov	r3, #1048576
 875 048a 15E0     		b	.L138
 876              	.L123:
 877              		.loc 1 209 0 discriminator 20
ARM GAS  /tmp/cc8NeEne.s 			page 20


 878 048c 4FF48013 		mov	r3, #1048576
 879 0490 12E0     		b	.L138
 880              	.L122:
 881              		.loc 1 209 0 discriminator 18
 882 0492 4FF48063 		mov	r3, #1024
 883 0496 0FE0     		b	.L138
 884              	.L121:
 885              		.loc 1 209 0 discriminator 16
 886 0498 4FF48063 		mov	r3, #1024
 887 049c 0CE0     		b	.L138
 888              	.L120:
 889              		.loc 1 209 0 discriminator 14
 890 049e 4FF48063 		mov	r3, #1024
 891 04a2 09E0     		b	.L138
 892              	.L119:
 893              		.loc 1 209 0 discriminator 12
 894 04a4 4FF48063 		mov	r3, #1024
 895 04a8 06E0     		b	.L138
 896              	.L118:
 897              		.loc 1 209 0 discriminator 10
 898 04aa 1023     		movs	r3, #16
 899 04ac 04E0     		b	.L138
 900              	.L117:
 901              		.loc 1 209 0 discriminator 8
 902 04ae 1023     		movs	r3, #16
 903 04b0 02E0     		b	.L138
 904              	.L116:
 905              		.loc 1 209 0 discriminator 6
 906 04b2 1023     		movs	r3, #16
 907 04b4 00E0     		b	.L138
 908              	.L115:
 909              		.loc 1 209 0 discriminator 4
 910 04b6 1023     		movs	r3, #16
 911              	.L138:
 912              		.loc 1 209 0 discriminator 50
 913 04b8 434A     		ldr	r2, .L527+56
 914 04ba D360     		str	r3, [r2, #12]
 915 04bc 4FE1     		b	.L139
 916              	.L114:
 917              		.loc 1 209 0 discriminator 2
 918 04be FB68     		ldr	r3, [r7, #12]
 919 04c0 1B68     		ldr	r3, [r3]
 920 04c2 1A46     		mov	r2, r3
 921 04c4 414B     		ldr	r3, .L527+60
 922 04c6 9A42     		cmp	r2, r3
 923 04c8 40F28280 		bls	.L140
 924              		.loc 1 209 0 discriminator 51
 925 04cc FB68     		ldr	r3, [r7, #12]
 926 04ce 1B68     		ldr	r3, [r3]
 927 04d0 2F4A     		ldr	r2, .L527
 928 04d2 9342     		cmp	r3, r2
 929 04d4 57D0     		beq	.L141
 930              		.loc 1 209 0 discriminator 53
 931 04d6 FB68     		ldr	r3, [r7, #12]
 932 04d8 1B68     		ldr	r3, [r3]
 933 04da 2E4A     		ldr	r2, .L527+4
 934 04dc 9342     		cmp	r3, r2
ARM GAS  /tmp/cc8NeEne.s 			page 21


 935 04de 50D0     		beq	.L142
 936              		.loc 1 209 0 discriminator 55
 937 04e0 FB68     		ldr	r3, [r7, #12]
 938 04e2 1B68     		ldr	r3, [r3]
 939 04e4 2C4A     		ldr	r2, .L527+8
 940 04e6 9342     		cmp	r3, r2
 941 04e8 49D0     		beq	.L143
 942              		.loc 1 209 0 discriminator 57
 943 04ea FB68     		ldr	r3, [r7, #12]
 944 04ec 1B68     		ldr	r3, [r3]
 945 04ee 2B4A     		ldr	r2, .L527+12
 946 04f0 9342     		cmp	r3, r2
 947 04f2 42D0     		beq	.L144
 948              		.loc 1 209 0 discriminator 59
 949 04f4 FB68     		ldr	r3, [r7, #12]
 950 04f6 1B68     		ldr	r3, [r3]
 951 04f8 294A     		ldr	r2, .L527+16
 952 04fa 9342     		cmp	r3, r2
 953 04fc 3AD0     		beq	.L145
 954              		.loc 1 209 0 discriminator 61
 955 04fe FB68     		ldr	r3, [r7, #12]
 956 0500 1B68     		ldr	r3, [r3]
 957 0502 284A     		ldr	r2, .L527+20
 958 0504 9342     		cmp	r3, r2
 959 0506 32D0     		beq	.L146
 960              		.loc 1 209 0 discriminator 63
 961 0508 FB68     		ldr	r3, [r7, #12]
 962 050a 1B68     		ldr	r3, [r3]
 963 050c 264A     		ldr	r2, .L527+24
 964 050e 9342     		cmp	r3, r2
 965 0510 2AD0     		beq	.L147
 966              		.loc 1 209 0 discriminator 65
 967 0512 FB68     		ldr	r3, [r7, #12]
 968 0514 1B68     		ldr	r3, [r3]
 969 0516 254A     		ldr	r2, .L527+28
 970 0518 9342     		cmp	r3, r2
 971 051a 22D0     		beq	.L148
 972              		.loc 1 209 0 discriminator 67
 973 051c FB68     		ldr	r3, [r7, #12]
 974 051e 1B68     		ldr	r3, [r3]
 975 0520 234A     		ldr	r2, .L527+32
 976 0522 9342     		cmp	r3, r2
 977 0524 1AD0     		beq	.L149
 978              		.loc 1 209 0 discriminator 69
 979 0526 FB68     		ldr	r3, [r7, #12]
 980 0528 1B68     		ldr	r3, [r3]
 981 052a 224A     		ldr	r2, .L527+36
 982 052c 9342     		cmp	r3, r2
 983 052e 12D0     		beq	.L150
 984              		.loc 1 209 0 discriminator 71
 985 0530 FB68     		ldr	r3, [r7, #12]
 986 0532 1B68     		ldr	r3, [r3]
 987 0534 204A     		ldr	r2, .L527+40
 988 0536 9342     		cmp	r3, r2
 989 0538 0AD0     		beq	.L151
 990              		.loc 1 209 0 discriminator 73
 991 053a FB68     		ldr	r3, [r7, #12]
ARM GAS  /tmp/cc8NeEne.s 			page 22


 992 053c 1B68     		ldr	r3, [r3]
 993 053e 1F4A     		ldr	r2, .L527+44
 994 0540 9342     		cmp	r3, r2
 995 0542 02D1     		bne	.L152
 996              		.loc 1 209 0 discriminator 75
 997 0544 4FF48013 		mov	r3, #1048576
 998 0548 1EE0     		b	.L164
 999              	.L152:
 1000              		.loc 1 209 0 discriminator 76
 1001 054a 4FF08063 		mov	r3, #67108864
 1002 054e 1BE0     		b	.L164
 1003              	.L151:
 1004              		.loc 1 209 0 discriminator 74
 1005 0550 4FF48013 		mov	r3, #1048576
 1006 0554 18E0     		b	.L164
 1007              	.L150:
 1008              		.loc 1 209 0 discriminator 72
 1009 0556 4FF48013 		mov	r3, #1048576
 1010 055a 15E0     		b	.L164
 1011              	.L149:
 1012              		.loc 1 209 0 discriminator 70
 1013 055c 4FF48013 		mov	r3, #1048576
 1014 0560 12E0     		b	.L164
 1015              	.L148:
 1016              		.loc 1 209 0 discriminator 68
 1017 0562 4FF48063 		mov	r3, #1024
 1018 0566 0FE0     		b	.L164
 1019              	.L147:
 1020              		.loc 1 209 0 discriminator 66
 1021 0568 4FF48063 		mov	r3, #1024
 1022 056c 0CE0     		b	.L164
 1023              	.L146:
 1024              		.loc 1 209 0 discriminator 64
 1025 056e 4FF48063 		mov	r3, #1024
 1026 0572 09E0     		b	.L164
 1027              	.L145:
 1028              		.loc 1 209 0 discriminator 62
 1029 0574 4FF48063 		mov	r3, #1024
 1030 0578 06E0     		b	.L164
 1031              	.L144:
 1032              		.loc 1 209 0 discriminator 60
 1033 057a 1023     		movs	r3, #16
 1034 057c 04E0     		b	.L164
 1035              	.L143:
 1036              		.loc 1 209 0 discriminator 58
 1037 057e 1023     		movs	r3, #16
 1038 0580 02E0     		b	.L164
 1039              	.L142:
 1040              		.loc 1 209 0 discriminator 56
 1041 0582 1023     		movs	r3, #16
 1042 0584 00E0     		b	.L164
 1043              	.L141:
 1044              		.loc 1 209 0 discriminator 54
 1045 0586 1023     		movs	r3, #16
 1046              	.L164:
 1047              		.loc 1 209 0 discriminator 100
 1048 0588 0F4A     		ldr	r2, .L527+56
ARM GAS  /tmp/cc8NeEne.s 			page 23


 1049 058a 9360     		str	r3, [r2, #8]
 1050 058c E7E0     		b	.L139
 1051              	.L528:
 1052 058e 00BF     		.align	2
 1053              	.L527:
 1054 0590 10600240 		.word	1073897488
 1055 0594 10640240 		.word	1073898512
 1056 0598 70600240 		.word	1073897584
 1057 059c 70640240 		.word	1073898608
 1058 05a0 28600240 		.word	1073897512
 1059 05a4 28640240 		.word	1073898536
 1060 05a8 88600240 		.word	1073897608
 1061 05ac 88640240 		.word	1073898632
 1062 05b0 40600240 		.word	1073897536
 1063 05b4 40640240 		.word	1073898560
 1064 05b8 A0600240 		.word	1073897632
 1065 05bc A0640240 		.word	1073898656
 1066 05c0 00600240 		.word	1073897472
 1067 05c4 58640240 		.word	1073898584
 1068 05c8 00640240 		.word	1073898496
 1069 05cc B8600240 		.word	1073897656
 1070              	.L140:
 1071              		.loc 1 209 0 discriminator 52
 1072 05d0 FB68     		ldr	r3, [r7, #12]
 1073 05d2 1B68     		ldr	r3, [r3]
 1074 05d4 1A46     		mov	r2, r3
 1075 05d6 964B     		ldr	r3, .L529
 1076 05d8 9A42     		cmp	r2, r3
 1077 05da 60D9     		bls	.L166
 1078              		.loc 1 209 0 discriminator 102
 1079 05dc FB68     		ldr	r3, [r7, #12]
 1080 05de 1B68     		ldr	r3, [r3]
 1081 05e0 944A     		ldr	r2, .L529+4
 1082 05e2 9342     		cmp	r3, r2
 1083 05e4 57D0     		beq	.L167
 1084              		.loc 1 209 0 discriminator 104
 1085 05e6 FB68     		ldr	r3, [r7, #12]
 1086 05e8 1B68     		ldr	r3, [r3]
 1087 05ea 934A     		ldr	r2, .L529+8
 1088 05ec 9342     		cmp	r3, r2
 1089 05ee 50D0     		beq	.L168
 1090              		.loc 1 209 0 discriminator 106
 1091 05f0 FB68     		ldr	r3, [r7, #12]
 1092 05f2 1B68     		ldr	r3, [r3]
 1093 05f4 914A     		ldr	r2, .L529+12
 1094 05f6 9342     		cmp	r3, r2
 1095 05f8 49D0     		beq	.L169
 1096              		.loc 1 209 0 discriminator 108
 1097 05fa FB68     		ldr	r3, [r7, #12]
 1098 05fc 1B68     		ldr	r3, [r3]
 1099 05fe 904A     		ldr	r2, .L529+16
 1100 0600 9342     		cmp	r3, r2
 1101 0602 42D0     		beq	.L170
 1102              		.loc 1 209 0 discriminator 110
 1103 0604 FB68     		ldr	r3, [r7, #12]
 1104 0606 1B68     		ldr	r3, [r3]
 1105 0608 8E4A     		ldr	r2, .L529+20
ARM GAS  /tmp/cc8NeEne.s 			page 24


 1106 060a 9342     		cmp	r3, r2
 1107 060c 3AD0     		beq	.L171
 1108              		.loc 1 209 0 discriminator 112
 1109 060e FB68     		ldr	r3, [r7, #12]
 1110 0610 1B68     		ldr	r3, [r3]
 1111 0612 8D4A     		ldr	r2, .L529+24
 1112 0614 9342     		cmp	r3, r2
 1113 0616 32D0     		beq	.L172
 1114              		.loc 1 209 0 discriminator 114
 1115 0618 FB68     		ldr	r3, [r7, #12]
 1116 061a 1B68     		ldr	r3, [r3]
 1117 061c 8B4A     		ldr	r2, .L529+28
 1118 061e 9342     		cmp	r3, r2
 1119 0620 2AD0     		beq	.L173
 1120              		.loc 1 209 0 discriminator 116
 1121 0622 FB68     		ldr	r3, [r7, #12]
 1122 0624 1B68     		ldr	r3, [r3]
 1123 0626 8A4A     		ldr	r2, .L529+32
 1124 0628 9342     		cmp	r3, r2
 1125 062a 22D0     		beq	.L174
 1126              		.loc 1 209 0 discriminator 118
 1127 062c FB68     		ldr	r3, [r7, #12]
 1128 062e 1B68     		ldr	r3, [r3]
 1129 0630 884A     		ldr	r2, .L529+36
 1130 0632 9342     		cmp	r3, r2
 1131 0634 1AD0     		beq	.L175
 1132              		.loc 1 209 0 discriminator 120
 1133 0636 FB68     		ldr	r3, [r7, #12]
 1134 0638 1B68     		ldr	r3, [r3]
 1135 063a 874A     		ldr	r2, .L529+40
 1136 063c 9342     		cmp	r3, r2
 1137 063e 12D0     		beq	.L176
 1138              		.loc 1 209 0 discriminator 122
 1139 0640 FB68     		ldr	r3, [r7, #12]
 1140 0642 1B68     		ldr	r3, [r3]
 1141 0644 854A     		ldr	r2, .L529+44
 1142 0646 9342     		cmp	r3, r2
 1143 0648 0AD0     		beq	.L177
 1144              		.loc 1 209 0 discriminator 124
 1145 064a FB68     		ldr	r3, [r7, #12]
 1146 064c 1B68     		ldr	r3, [r3]
 1147 064e 844A     		ldr	r2, .L529+48
 1148 0650 9342     		cmp	r3, r2
 1149 0652 02D1     		bne	.L178
 1150              		.loc 1 209 0 discriminator 126
 1151 0654 4FF48013 		mov	r3, #1048576
 1152 0658 1EE0     		b	.L190
 1153              	.L178:
 1154              		.loc 1 209 0 discriminator 127
 1155 065a 4FF08063 		mov	r3, #67108864
 1156 065e 1BE0     		b	.L190
 1157              	.L177:
 1158              		.loc 1 209 0 discriminator 125
 1159 0660 4FF48013 		mov	r3, #1048576
 1160 0664 18E0     		b	.L190
 1161              	.L176:
 1162              		.loc 1 209 0 discriminator 123
ARM GAS  /tmp/cc8NeEne.s 			page 25


 1163 0666 4FF48013 		mov	r3, #1048576
 1164 066a 15E0     		b	.L190
 1165              	.L175:
 1166              		.loc 1 209 0 discriminator 121
 1167 066c 4FF48013 		mov	r3, #1048576
 1168 0670 12E0     		b	.L190
 1169              	.L174:
 1170              		.loc 1 209 0 discriminator 119
 1171 0672 4FF48063 		mov	r3, #1024
 1172 0676 0FE0     		b	.L190
 1173              	.L173:
 1174              		.loc 1 209 0 discriminator 117
 1175 0678 4FF48063 		mov	r3, #1024
 1176 067c 0CE0     		b	.L190
 1177              	.L172:
 1178              		.loc 1 209 0 discriminator 115
 1179 067e 4FF48063 		mov	r3, #1024
 1180 0682 09E0     		b	.L190
 1181              	.L171:
 1182              		.loc 1 209 0 discriminator 113
 1183 0684 4FF48063 		mov	r3, #1024
 1184 0688 06E0     		b	.L190
 1185              	.L170:
 1186              		.loc 1 209 0 discriminator 111
 1187 068a 1023     		movs	r3, #16
 1188 068c 04E0     		b	.L190
 1189              	.L169:
 1190              		.loc 1 209 0 discriminator 109
 1191 068e 1023     		movs	r3, #16
 1192 0690 02E0     		b	.L190
 1193              	.L168:
 1194              		.loc 1 209 0 discriminator 107
 1195 0692 1023     		movs	r3, #16
 1196 0694 00E0     		b	.L190
 1197              	.L167:
 1198              		.loc 1 209 0 discriminator 105
 1199 0696 1023     		movs	r3, #16
 1200              	.L190:
 1201              		.loc 1 209 0 discriminator 151
 1202 0698 724A     		ldr	r2, .L529+52
 1203 069a D360     		str	r3, [r2, #12]
 1204 069c 5FE0     		b	.L139
 1205              	.L166:
 1206              		.loc 1 209 0 discriminator 103
 1207 069e FB68     		ldr	r3, [r7, #12]
 1208 06a0 1B68     		ldr	r3, [r3]
 1209 06a2 644A     		ldr	r2, .L529+4
 1210 06a4 9342     		cmp	r3, r2
 1211 06a6 57D0     		beq	.L192
 1212              		.loc 1 209 0 discriminator 153
 1213 06a8 FB68     		ldr	r3, [r7, #12]
 1214 06aa 1B68     		ldr	r3, [r3]
 1215 06ac 624A     		ldr	r2, .L529+8
 1216 06ae 9342     		cmp	r3, r2
 1217 06b0 50D0     		beq	.L193
 1218              		.loc 1 209 0 discriminator 155
 1219 06b2 FB68     		ldr	r3, [r7, #12]
ARM GAS  /tmp/cc8NeEne.s 			page 26


 1220 06b4 1B68     		ldr	r3, [r3]
 1221 06b6 614A     		ldr	r2, .L529+12
 1222 06b8 9342     		cmp	r3, r2
 1223 06ba 49D0     		beq	.L194
 1224              		.loc 1 209 0 discriminator 157
 1225 06bc FB68     		ldr	r3, [r7, #12]
 1226 06be 1B68     		ldr	r3, [r3]
 1227 06c0 5F4A     		ldr	r2, .L529+16
 1228 06c2 9342     		cmp	r3, r2
 1229 06c4 42D0     		beq	.L195
 1230              		.loc 1 209 0 discriminator 159
 1231 06c6 FB68     		ldr	r3, [r7, #12]
 1232 06c8 1B68     		ldr	r3, [r3]
 1233 06ca 5E4A     		ldr	r2, .L529+20
 1234 06cc 9342     		cmp	r3, r2
 1235 06ce 3AD0     		beq	.L196
 1236              		.loc 1 209 0 discriminator 161
 1237 06d0 FB68     		ldr	r3, [r7, #12]
 1238 06d2 1B68     		ldr	r3, [r3]
 1239 06d4 5C4A     		ldr	r2, .L529+24
 1240 06d6 9342     		cmp	r3, r2
 1241 06d8 32D0     		beq	.L197
 1242              		.loc 1 209 0 discriminator 163
 1243 06da FB68     		ldr	r3, [r7, #12]
 1244 06dc 1B68     		ldr	r3, [r3]
 1245 06de 5B4A     		ldr	r2, .L529+28
 1246 06e0 9342     		cmp	r3, r2
 1247 06e2 2AD0     		beq	.L198
 1248              		.loc 1 209 0 discriminator 165
 1249 06e4 FB68     		ldr	r3, [r7, #12]
 1250 06e6 1B68     		ldr	r3, [r3]
 1251 06e8 594A     		ldr	r2, .L529+32
 1252 06ea 9342     		cmp	r3, r2
 1253 06ec 22D0     		beq	.L199
 1254              		.loc 1 209 0 discriminator 167
 1255 06ee FB68     		ldr	r3, [r7, #12]
 1256 06f0 1B68     		ldr	r3, [r3]
 1257 06f2 584A     		ldr	r2, .L529+36
 1258 06f4 9342     		cmp	r3, r2
 1259 06f6 1AD0     		beq	.L200
 1260              		.loc 1 209 0 discriminator 169
 1261 06f8 FB68     		ldr	r3, [r7, #12]
 1262 06fa 1B68     		ldr	r3, [r3]
 1263 06fc 564A     		ldr	r2, .L529+40
 1264 06fe 9342     		cmp	r3, r2
 1265 0700 12D0     		beq	.L201
 1266              		.loc 1 209 0 discriminator 171
 1267 0702 FB68     		ldr	r3, [r7, #12]
 1268 0704 1B68     		ldr	r3, [r3]
 1269 0706 554A     		ldr	r2, .L529+44
 1270 0708 9342     		cmp	r3, r2
 1271 070a 0AD0     		beq	.L202
 1272              		.loc 1 209 0 discriminator 173
 1273 070c FB68     		ldr	r3, [r7, #12]
 1274 070e 1B68     		ldr	r3, [r3]
 1275 0710 534A     		ldr	r2, .L529+48
 1276 0712 9342     		cmp	r3, r2
ARM GAS  /tmp/cc8NeEne.s 			page 27


 1277 0714 02D1     		bne	.L203
 1278              		.loc 1 209 0 discriminator 175
 1279 0716 4FF48013 		mov	r3, #1048576
 1280 071a 1EE0     		b	.L215
 1281              	.L203:
 1282              		.loc 1 209 0 discriminator 176
 1283 071c 4FF08063 		mov	r3, #67108864
 1284 0720 1BE0     		b	.L215
 1285              	.L202:
 1286              		.loc 1 209 0 discriminator 174
 1287 0722 4FF48013 		mov	r3, #1048576
 1288 0726 18E0     		b	.L215
 1289              	.L201:
 1290              		.loc 1 209 0 discriminator 172
 1291 0728 4FF48013 		mov	r3, #1048576
 1292 072c 15E0     		b	.L215
 1293              	.L200:
 1294              		.loc 1 209 0 discriminator 170
 1295 072e 4FF48013 		mov	r3, #1048576
 1296 0732 12E0     		b	.L215
 1297              	.L199:
 1298              		.loc 1 209 0 discriminator 168
 1299 0734 4FF48063 		mov	r3, #1024
 1300 0738 0FE0     		b	.L215
 1301              	.L198:
 1302              		.loc 1 209 0 discriminator 166
 1303 073a 4FF48063 		mov	r3, #1024
 1304 073e 0CE0     		b	.L215
 1305              	.L197:
 1306              		.loc 1 209 0 discriminator 164
 1307 0740 4FF48063 		mov	r3, #1024
 1308 0744 09E0     		b	.L215
 1309              	.L196:
 1310              		.loc 1 209 0 discriminator 162
 1311 0746 4FF48063 		mov	r3, #1024
 1312 074a 06E0     		b	.L215
 1313              	.L195:
 1314              		.loc 1 209 0 discriminator 160
 1315 074c 1023     		movs	r3, #16
 1316 074e 04E0     		b	.L215
 1317              	.L194:
 1318              		.loc 1 209 0 discriminator 158
 1319 0750 1023     		movs	r3, #16
 1320 0752 02E0     		b	.L215
 1321              	.L193:
 1322              		.loc 1 209 0 discriminator 156
 1323 0754 1023     		movs	r3, #16
 1324 0756 00E0     		b	.L215
 1325              	.L192:
 1326              		.loc 1 209 0 discriminator 154
 1327 0758 1023     		movs	r3, #16
 1328              	.L215:
 1329              		.loc 1 209 0 discriminator 200
 1330 075a 424A     		ldr	r2, .L529+52
 1331 075c 9360     		str	r3, [r2, #8]
 1332              	.L139:
 210:Drivers/STM32F7xx_HAL_Driver/Src/stm32f7xx_hal_dma_ex.c ****     __HAL_DMA_CLEAR_FLAG (hdma, __HAL_DMA_GET_TE_FLAG_INDEX(hdma));
ARM GAS  /tmp/cc8NeEne.s 			page 28


 1333              		.loc 1 210 0 is_stmt 1
 1334 075e FB68     		ldr	r3, [r7, #12]
 1335 0760 1B68     		ldr	r3, [r3]
 1336 0762 1A46     		mov	r2, r3
 1337 0764 404B     		ldr	r3, .L529+56
 1338 0766 9A42     		cmp	r2, r3
 1339 0768 40F28280 		bls	.L216
 1340              		.loc 1 210 0 is_stmt 0 discriminator 1
 1341 076c FB68     		ldr	r3, [r7, #12]
 1342 076e 1B68     		ldr	r3, [r3]
 1343 0770 304A     		ldr	r2, .L529+4
 1344 0772 9342     		cmp	r3, r2
 1345 0774 57D0     		beq	.L217
 1346              		.loc 1 210 0 discriminator 3
 1347 0776 FB68     		ldr	r3, [r7, #12]
 1348 0778 1B68     		ldr	r3, [r3]
 1349 077a 2F4A     		ldr	r2, .L529+8
 1350 077c 9342     		cmp	r3, r2
 1351 077e 50D0     		beq	.L218
 1352              		.loc 1 210 0 discriminator 5
 1353 0780 FB68     		ldr	r3, [r7, #12]
 1354 0782 1B68     		ldr	r3, [r3]
 1355 0784 2D4A     		ldr	r2, .L529+12
 1356 0786 9342     		cmp	r3, r2
 1357 0788 49D0     		beq	.L219
 1358              		.loc 1 210 0 discriminator 7
 1359 078a FB68     		ldr	r3, [r7, #12]
 1360 078c 1B68     		ldr	r3, [r3]
 1361 078e 2C4A     		ldr	r2, .L529+16
 1362 0790 9342     		cmp	r3, r2
 1363 0792 42D0     		beq	.L220
 1364              		.loc 1 210 0 discriminator 9
 1365 0794 FB68     		ldr	r3, [r7, #12]
 1366 0796 1B68     		ldr	r3, [r3]
 1367 0798 2A4A     		ldr	r2, .L529+20
 1368 079a 9342     		cmp	r3, r2
 1369 079c 3AD0     		beq	.L221
 1370              		.loc 1 210 0 discriminator 11
 1371 079e FB68     		ldr	r3, [r7, #12]
 1372 07a0 1B68     		ldr	r3, [r3]
 1373 07a2 294A     		ldr	r2, .L529+24
 1374 07a4 9342     		cmp	r3, r2
 1375 07a6 32D0     		beq	.L222
 1376              		.loc 1 210 0 discriminator 13
 1377 07a8 FB68     		ldr	r3, [r7, #12]
 1378 07aa 1B68     		ldr	r3, [r3]
 1379 07ac 274A     		ldr	r2, .L529+28
 1380 07ae 9342     		cmp	r3, r2
 1381 07b0 2AD0     		beq	.L223
 1382              		.loc 1 210 0 discriminator 15
 1383 07b2 FB68     		ldr	r3, [r7, #12]
 1384 07b4 1B68     		ldr	r3, [r3]
 1385 07b6 264A     		ldr	r2, .L529+32
 1386 07b8 9342     		cmp	r3, r2
 1387 07ba 22D0     		beq	.L224
 1388              		.loc 1 210 0 discriminator 17
 1389 07bc FB68     		ldr	r3, [r7, #12]
ARM GAS  /tmp/cc8NeEne.s 			page 29


 1390 07be 1B68     		ldr	r3, [r3]
 1391 07c0 244A     		ldr	r2, .L529+36
 1392 07c2 9342     		cmp	r3, r2
 1393 07c4 1AD0     		beq	.L225
 1394              		.loc 1 210 0 discriminator 19
 1395 07c6 FB68     		ldr	r3, [r7, #12]
 1396 07c8 1B68     		ldr	r3, [r3]
 1397 07ca 234A     		ldr	r2, .L529+40
 1398 07cc 9342     		cmp	r3, r2
 1399 07ce 12D0     		beq	.L226
 1400              		.loc 1 210 0 discriminator 21
 1401 07d0 FB68     		ldr	r3, [r7, #12]
 1402 07d2 1B68     		ldr	r3, [r3]
 1403 07d4 214A     		ldr	r2, .L529+44
 1404 07d6 9342     		cmp	r3, r2
 1405 07d8 0AD0     		beq	.L227
 1406              		.loc 1 210 0 discriminator 23
 1407 07da FB68     		ldr	r3, [r7, #12]
 1408 07dc 1B68     		ldr	r3, [r3]
 1409 07de 204A     		ldr	r2, .L529+48
 1410 07e0 9342     		cmp	r3, r2
 1411 07e2 02D1     		bne	.L228
 1412              		.loc 1 210 0 discriminator 25
 1413 07e4 4FF40023 		mov	r3, #524288
 1414 07e8 1EE0     		b	.L240
 1415              	.L228:
 1416              		.loc 1 210 0 discriminator 26
 1417 07ea 4FF00073 		mov	r3, #33554432
 1418 07ee 1BE0     		b	.L240
 1419              	.L227:
 1420              		.loc 1 210 0 discriminator 24
 1421 07f0 4FF40023 		mov	r3, #524288
 1422 07f4 18E0     		b	.L240
 1423              	.L226:
 1424              		.loc 1 210 0 discriminator 22
 1425 07f6 4FF40023 		mov	r3, #524288
 1426 07fa 15E0     		b	.L240
 1427              	.L225:
 1428              		.loc 1 210 0 discriminator 20
 1429 07fc 4FF40023 		mov	r3, #524288
 1430 0800 12E0     		b	.L240
 1431              	.L224:
 1432              		.loc 1 210 0 discriminator 18
 1433 0802 4FF40073 		mov	r3, #512
 1434 0806 0FE0     		b	.L240
 1435              	.L223:
 1436              		.loc 1 210 0 discriminator 16
 1437 0808 4FF40073 		mov	r3, #512
 1438 080c 0CE0     		b	.L240
 1439              	.L222:
 1440              		.loc 1 210 0 discriminator 14
 1441 080e 4FF40073 		mov	r3, #512
 1442 0812 09E0     		b	.L240
 1443              	.L221:
 1444              		.loc 1 210 0 discriminator 12
 1445 0814 4FF40073 		mov	r3, #512
 1446 0818 06E0     		b	.L240
ARM GAS  /tmp/cc8NeEne.s 			page 30


 1447              	.L220:
 1448              		.loc 1 210 0 discriminator 10
 1449 081a 0823     		movs	r3, #8
 1450 081c 04E0     		b	.L240
 1451              	.L219:
 1452              		.loc 1 210 0 discriminator 8
 1453 081e 0823     		movs	r3, #8
 1454 0820 02E0     		b	.L240
 1455              	.L218:
 1456              		.loc 1 210 0 discriminator 6
 1457 0822 0823     		movs	r3, #8
 1458 0824 00E0     		b	.L240
 1459              	.L217:
 1460              		.loc 1 210 0 discriminator 4
 1461 0826 0823     		movs	r3, #8
 1462              	.L240:
 1463              		.loc 1 210 0 discriminator 50
 1464 0828 104A     		ldr	r2, .L529+60
 1465 082a D360     		str	r3, [r2, #12]
 1466 082c 6FE1     		b	.L241
 1467              	.L530:
 1468 082e 00BF     		.align	2
 1469              	.L529:
 1470 0830 58600240 		.word	1073897560
 1471 0834 10600240 		.word	1073897488
 1472 0838 10640240 		.word	1073898512
 1473 083c 70600240 		.word	1073897584
 1474 0840 70640240 		.word	1073898608
 1475 0844 28600240 		.word	1073897512
 1476 0848 28640240 		.word	1073898536
 1477 084c 88600240 		.word	1073897608
 1478 0850 88640240 		.word	1073898632
 1479 0854 40600240 		.word	1073897536
 1480 0858 40640240 		.word	1073898560
 1481 085c A0600240 		.word	1073897632
 1482 0860 A0640240 		.word	1073898656
 1483 0864 00600240 		.word	1073897472
 1484 0868 58640240 		.word	1073898584
 1485 086c 00640240 		.word	1073898496
 1486              	.L216:
 1487              		.loc 1 210 0 discriminator 2
 1488 0870 FB68     		ldr	r3, [r7, #12]
 1489 0872 1B68     		ldr	r3, [r3]
 1490 0874 1A46     		mov	r2, r3
 1491 0876 944B     		ldr	r3, .L531
 1492 0878 9A42     		cmp	r2, r3
 1493 087a 60D9     		bls	.L242
 1494              		.loc 1 210 0 discriminator 51
 1495 087c FB68     		ldr	r3, [r7, #12]
 1496 087e 1B68     		ldr	r3, [r3]
 1497 0880 924A     		ldr	r2, .L531+4
 1498 0882 9342     		cmp	r3, r2
 1499 0884 57D0     		beq	.L243
 1500              		.loc 1 210 0 discriminator 53
 1501 0886 FB68     		ldr	r3, [r7, #12]
 1502 0888 1B68     		ldr	r3, [r3]
 1503 088a 914A     		ldr	r2, .L531+8
ARM GAS  /tmp/cc8NeEne.s 			page 31


 1504 088c 9342     		cmp	r3, r2
 1505 088e 50D0     		beq	.L244
 1506              		.loc 1 210 0 discriminator 55
 1507 0890 FB68     		ldr	r3, [r7, #12]
 1508 0892 1B68     		ldr	r3, [r3]
 1509 0894 8F4A     		ldr	r2, .L531+12
 1510 0896 9342     		cmp	r3, r2
 1511 0898 49D0     		beq	.L245
 1512              		.loc 1 210 0 discriminator 57
 1513 089a FB68     		ldr	r3, [r7, #12]
 1514 089c 1B68     		ldr	r3, [r3]
 1515 089e 8E4A     		ldr	r2, .L531+16
 1516 08a0 9342     		cmp	r3, r2
 1517 08a2 42D0     		beq	.L246
 1518              		.loc 1 210 0 discriminator 59
 1519 08a4 FB68     		ldr	r3, [r7, #12]
 1520 08a6 1B68     		ldr	r3, [r3]
 1521 08a8 8C4A     		ldr	r2, .L531+20
 1522 08aa 9342     		cmp	r3, r2
 1523 08ac 3AD0     		beq	.L247
 1524              		.loc 1 210 0 discriminator 61
 1525 08ae FB68     		ldr	r3, [r7, #12]
 1526 08b0 1B68     		ldr	r3, [r3]
 1527 08b2 8B4A     		ldr	r2, .L531+24
 1528 08b4 9342     		cmp	r3, r2
 1529 08b6 32D0     		beq	.L248
 1530              		.loc 1 210 0 discriminator 63
 1531 08b8 FB68     		ldr	r3, [r7, #12]
 1532 08ba 1B68     		ldr	r3, [r3]
 1533 08bc 894A     		ldr	r2, .L531+28
 1534 08be 9342     		cmp	r3, r2
 1535 08c0 2AD0     		beq	.L249
 1536              		.loc 1 210 0 discriminator 65
 1537 08c2 FB68     		ldr	r3, [r7, #12]
 1538 08c4 1B68     		ldr	r3, [r3]
 1539 08c6 884A     		ldr	r2, .L531+32
 1540 08c8 9342     		cmp	r3, r2
 1541 08ca 22D0     		beq	.L250
 1542              		.loc 1 210 0 discriminator 67
 1543 08cc FB68     		ldr	r3, [r7, #12]
 1544 08ce 1B68     		ldr	r3, [r3]
 1545 08d0 864A     		ldr	r2, .L531+36
 1546 08d2 9342     		cmp	r3, r2
 1547 08d4 1AD0     		beq	.L251
 1548              		.loc 1 210 0 discriminator 69
 1549 08d6 FB68     		ldr	r3, [r7, #12]
 1550 08d8 1B68     		ldr	r3, [r3]
 1551 08da 854A     		ldr	r2, .L531+40
 1552 08dc 9342     		cmp	r3, r2
 1553 08de 12D0     		beq	.L252
 1554              		.loc 1 210 0 discriminator 71
 1555 08e0 FB68     		ldr	r3, [r7, #12]
 1556 08e2 1B68     		ldr	r3, [r3]
 1557 08e4 834A     		ldr	r2, .L531+44
 1558 08e6 9342     		cmp	r3, r2
 1559 08e8 0AD0     		beq	.L253
 1560              		.loc 1 210 0 discriminator 73
ARM GAS  /tmp/cc8NeEne.s 			page 32


 1561 08ea FB68     		ldr	r3, [r7, #12]
 1562 08ec 1B68     		ldr	r3, [r3]
 1563 08ee 824A     		ldr	r2, .L531+48
 1564 08f0 9342     		cmp	r3, r2
 1565 08f2 02D1     		bne	.L254
 1566              		.loc 1 210 0 discriminator 75
 1567 08f4 4FF40023 		mov	r3, #524288
 1568 08f8 1EE0     		b	.L266
 1569              	.L254:
 1570              		.loc 1 210 0 discriminator 76
 1571 08fa 4FF00073 		mov	r3, #33554432
 1572 08fe 1BE0     		b	.L266
 1573              	.L253:
 1574              		.loc 1 210 0 discriminator 74
 1575 0900 4FF40023 		mov	r3, #524288
 1576 0904 18E0     		b	.L266
 1577              	.L252:
 1578              		.loc 1 210 0 discriminator 72
 1579 0906 4FF40023 		mov	r3, #524288
 1580 090a 15E0     		b	.L266
 1581              	.L251:
 1582              		.loc 1 210 0 discriminator 70
 1583 090c 4FF40023 		mov	r3, #524288
 1584 0910 12E0     		b	.L266
 1585              	.L250:
 1586              		.loc 1 210 0 discriminator 68
 1587 0912 4FF40073 		mov	r3, #512
 1588 0916 0FE0     		b	.L266
 1589              	.L249:
 1590              		.loc 1 210 0 discriminator 66
 1591 0918 4FF40073 		mov	r3, #512
 1592 091c 0CE0     		b	.L266
 1593              	.L248:
 1594              		.loc 1 210 0 discriminator 64
 1595 091e 4FF40073 		mov	r3, #512
 1596 0922 09E0     		b	.L266
 1597              	.L247:
 1598              		.loc 1 210 0 discriminator 62
 1599 0924 4FF40073 		mov	r3, #512
 1600 0928 06E0     		b	.L266
 1601              	.L246:
 1602              		.loc 1 210 0 discriminator 60
 1603 092a 0823     		movs	r3, #8
 1604 092c 04E0     		b	.L266
 1605              	.L245:
 1606              		.loc 1 210 0 discriminator 58
 1607 092e 0823     		movs	r3, #8
 1608 0930 02E0     		b	.L266
 1609              	.L244:
 1610              		.loc 1 210 0 discriminator 56
 1611 0932 0823     		movs	r3, #8
 1612 0934 00E0     		b	.L266
 1613              	.L243:
 1614              		.loc 1 210 0 discriminator 54
 1615 0936 0823     		movs	r3, #8
 1616              	.L266:
 1617              		.loc 1 210 0 discriminator 100
ARM GAS  /tmp/cc8NeEne.s 			page 33


 1618 0938 704A     		ldr	r2, .L531+52
 1619 093a 9360     		str	r3, [r2, #8]
 1620 093c E7E0     		b	.L241
 1621              	.L242:
 1622              		.loc 1 210 0 discriminator 52
 1623 093e FB68     		ldr	r3, [r7, #12]
 1624 0940 1B68     		ldr	r3, [r3]
 1625 0942 1A46     		mov	r2, r3
 1626 0944 6E4B     		ldr	r3, .L531+56
 1627 0946 9A42     		cmp	r2, r3
 1628 0948 60D9     		bls	.L268
 1629              		.loc 1 210 0 discriminator 102
 1630 094a FB68     		ldr	r3, [r7, #12]
 1631 094c 1B68     		ldr	r3, [r3]
 1632 094e 5F4A     		ldr	r2, .L531+4
 1633 0950 9342     		cmp	r3, r2
 1634 0952 57D0     		beq	.L269
 1635              		.loc 1 210 0 discriminator 104
 1636 0954 FB68     		ldr	r3, [r7, #12]
 1637 0956 1B68     		ldr	r3, [r3]
 1638 0958 5D4A     		ldr	r2, .L531+8
 1639 095a 9342     		cmp	r3, r2
 1640 095c 50D0     		beq	.L270
 1641              		.loc 1 210 0 discriminator 106
 1642 095e FB68     		ldr	r3, [r7, #12]
 1643 0960 1B68     		ldr	r3, [r3]
 1644 0962 5C4A     		ldr	r2, .L531+12
 1645 0964 9342     		cmp	r3, r2
 1646 0966 49D0     		beq	.L271
 1647              		.loc 1 210 0 discriminator 108
 1648 0968 FB68     		ldr	r3, [r7, #12]
 1649 096a 1B68     		ldr	r3, [r3]
 1650 096c 5A4A     		ldr	r2, .L531+16
 1651 096e 9342     		cmp	r3, r2
 1652 0970 42D0     		beq	.L272
 1653              		.loc 1 210 0 discriminator 110
 1654 0972 FB68     		ldr	r3, [r7, #12]
 1655 0974 1B68     		ldr	r3, [r3]
 1656 0976 594A     		ldr	r2, .L531+20
 1657 0978 9342     		cmp	r3, r2
 1658 097a 3AD0     		beq	.L273
 1659              		.loc 1 210 0 discriminator 112
 1660 097c FB68     		ldr	r3, [r7, #12]
 1661 097e 1B68     		ldr	r3, [r3]
 1662 0980 574A     		ldr	r2, .L531+24
 1663 0982 9342     		cmp	r3, r2
 1664 0984 32D0     		beq	.L274
 1665              		.loc 1 210 0 discriminator 114
 1666 0986 FB68     		ldr	r3, [r7, #12]
 1667 0988 1B68     		ldr	r3, [r3]
 1668 098a 564A     		ldr	r2, .L531+28
 1669 098c 9342     		cmp	r3, r2
 1670 098e 2AD0     		beq	.L275
 1671              		.loc 1 210 0 discriminator 116
 1672 0990 FB68     		ldr	r3, [r7, #12]
 1673 0992 1B68     		ldr	r3, [r3]
 1674 0994 544A     		ldr	r2, .L531+32
ARM GAS  /tmp/cc8NeEne.s 			page 34


 1675 0996 9342     		cmp	r3, r2
 1676 0998 22D0     		beq	.L276
 1677              		.loc 1 210 0 discriminator 118
 1678 099a FB68     		ldr	r3, [r7, #12]
 1679 099c 1B68     		ldr	r3, [r3]
 1680 099e 534A     		ldr	r2, .L531+36
 1681 09a0 9342     		cmp	r3, r2
 1682 09a2 1AD0     		beq	.L277
 1683              		.loc 1 210 0 discriminator 120
 1684 09a4 FB68     		ldr	r3, [r7, #12]
 1685 09a6 1B68     		ldr	r3, [r3]
 1686 09a8 514A     		ldr	r2, .L531+40
 1687 09aa 9342     		cmp	r3, r2
 1688 09ac 12D0     		beq	.L278
 1689              		.loc 1 210 0 discriminator 122
 1690 09ae FB68     		ldr	r3, [r7, #12]
 1691 09b0 1B68     		ldr	r3, [r3]
 1692 09b2 504A     		ldr	r2, .L531+44
 1693 09b4 9342     		cmp	r3, r2
 1694 09b6 0AD0     		beq	.L279
 1695              		.loc 1 210 0 discriminator 124
 1696 09b8 FB68     		ldr	r3, [r7, #12]
 1697 09ba 1B68     		ldr	r3, [r3]
 1698 09bc 4E4A     		ldr	r2, .L531+48
 1699 09be 9342     		cmp	r3, r2
 1700 09c0 02D1     		bne	.L280
 1701              		.loc 1 210 0 discriminator 126
 1702 09c2 4FF40023 		mov	r3, #524288
 1703 09c6 1EE0     		b	.L292
 1704              	.L280:
 1705              		.loc 1 210 0 discriminator 127
 1706 09c8 4FF00073 		mov	r3, #33554432
 1707 09cc 1BE0     		b	.L292
 1708              	.L279:
 1709              		.loc 1 210 0 discriminator 125
 1710 09ce 4FF40023 		mov	r3, #524288
 1711 09d2 18E0     		b	.L292
 1712              	.L278:
 1713              		.loc 1 210 0 discriminator 123
 1714 09d4 4FF40023 		mov	r3, #524288
 1715 09d8 15E0     		b	.L292
 1716              	.L277:
 1717              		.loc 1 210 0 discriminator 121
 1718 09da 4FF40023 		mov	r3, #524288
 1719 09de 12E0     		b	.L292
 1720              	.L276:
 1721              		.loc 1 210 0 discriminator 119
 1722 09e0 4FF40073 		mov	r3, #512
 1723 09e4 0FE0     		b	.L292
 1724              	.L275:
 1725              		.loc 1 210 0 discriminator 117
 1726 09e6 4FF40073 		mov	r3, #512
 1727 09ea 0CE0     		b	.L292
 1728              	.L274:
 1729              		.loc 1 210 0 discriminator 115
 1730 09ec 4FF40073 		mov	r3, #512
 1731 09f0 09E0     		b	.L292
ARM GAS  /tmp/cc8NeEne.s 			page 35


 1732              	.L273:
 1733              		.loc 1 210 0 discriminator 113
 1734 09f2 4FF40073 		mov	r3, #512
 1735 09f6 06E0     		b	.L292
 1736              	.L272:
 1737              		.loc 1 210 0 discriminator 111
 1738 09f8 0823     		movs	r3, #8
 1739 09fa 04E0     		b	.L292
 1740              	.L271:
 1741              		.loc 1 210 0 discriminator 109
 1742 09fc 0823     		movs	r3, #8
 1743 09fe 02E0     		b	.L292
 1744              	.L270:
 1745              		.loc 1 210 0 discriminator 107
 1746 0a00 0823     		movs	r3, #8
 1747 0a02 00E0     		b	.L292
 1748              	.L269:
 1749              		.loc 1 210 0 discriminator 105
 1750 0a04 0823     		movs	r3, #8
 1751              	.L292:
 1752              		.loc 1 210 0 discriminator 151
 1753 0a06 3F4A     		ldr	r2, .L531+60
 1754 0a08 D360     		str	r3, [r2, #12]
 1755 0a0a 80E0     		b	.L241
 1756              	.L268:
 1757              		.loc 1 210 0 discriminator 103
 1758 0a0c FB68     		ldr	r3, [r7, #12]
 1759 0a0e 1B68     		ldr	r3, [r3]
 1760 0a10 2E4A     		ldr	r2, .L531+4
 1761 0a12 9342     		cmp	r3, r2
 1762 0a14 78D0     		beq	.L294
 1763              		.loc 1 210 0 discriminator 153
 1764 0a16 FB68     		ldr	r3, [r7, #12]
 1765 0a18 1B68     		ldr	r3, [r3]
 1766 0a1a 2D4A     		ldr	r2, .L531+8
 1767 0a1c 9342     		cmp	r3, r2
 1768 0a1e 50D0     		beq	.L295
 1769              		.loc 1 210 0 discriminator 155
 1770 0a20 FB68     		ldr	r3, [r7, #12]
 1771 0a22 1B68     		ldr	r3, [r3]
 1772 0a24 2B4A     		ldr	r2, .L531+12
 1773 0a26 9342     		cmp	r3, r2
 1774 0a28 49D0     		beq	.L296
 1775              		.loc 1 210 0 discriminator 157
 1776 0a2a FB68     		ldr	r3, [r7, #12]
 1777 0a2c 1B68     		ldr	r3, [r3]
 1778 0a2e 2A4A     		ldr	r2, .L531+16
 1779 0a30 9342     		cmp	r3, r2
 1780 0a32 42D0     		beq	.L297
 1781              		.loc 1 210 0 discriminator 159
 1782 0a34 FB68     		ldr	r3, [r7, #12]
 1783 0a36 1B68     		ldr	r3, [r3]
 1784 0a38 284A     		ldr	r2, .L531+20
 1785 0a3a 9342     		cmp	r3, r2
 1786 0a3c 3AD0     		beq	.L298
 1787              		.loc 1 210 0 discriminator 161
 1788 0a3e FB68     		ldr	r3, [r7, #12]
ARM GAS  /tmp/cc8NeEne.s 			page 36


 1789 0a40 1B68     		ldr	r3, [r3]
 1790 0a42 274A     		ldr	r2, .L531+24
 1791 0a44 9342     		cmp	r3, r2
 1792 0a46 32D0     		beq	.L299
 1793              		.loc 1 210 0 discriminator 163
 1794 0a48 FB68     		ldr	r3, [r7, #12]
 1795 0a4a 1B68     		ldr	r3, [r3]
 1796 0a4c 254A     		ldr	r2, .L531+28
 1797 0a4e 9342     		cmp	r3, r2
 1798 0a50 2AD0     		beq	.L300
 1799              		.loc 1 210 0 discriminator 165
 1800 0a52 FB68     		ldr	r3, [r7, #12]
 1801 0a54 1B68     		ldr	r3, [r3]
 1802 0a56 244A     		ldr	r2, .L531+32
 1803 0a58 9342     		cmp	r3, r2
 1804 0a5a 22D0     		beq	.L301
 1805              		.loc 1 210 0 discriminator 167
 1806 0a5c FB68     		ldr	r3, [r7, #12]
 1807 0a5e 1B68     		ldr	r3, [r3]
 1808 0a60 224A     		ldr	r2, .L531+36
 1809 0a62 9342     		cmp	r3, r2
 1810 0a64 1AD0     		beq	.L302
 1811              		.loc 1 210 0 discriminator 169
 1812 0a66 FB68     		ldr	r3, [r7, #12]
 1813 0a68 1B68     		ldr	r3, [r3]
 1814 0a6a 214A     		ldr	r2, .L531+40
 1815 0a6c 9342     		cmp	r3, r2
 1816 0a6e 12D0     		beq	.L303
 1817              		.loc 1 210 0 discriminator 171
 1818 0a70 FB68     		ldr	r3, [r7, #12]
 1819 0a72 1B68     		ldr	r3, [r3]
 1820 0a74 1F4A     		ldr	r2, .L531+44
 1821 0a76 9342     		cmp	r3, r2
 1822 0a78 0AD0     		beq	.L304
 1823              		.loc 1 210 0 discriminator 173
 1824 0a7a FB68     		ldr	r3, [r7, #12]
 1825 0a7c 1B68     		ldr	r3, [r3]
 1826 0a7e 1E4A     		ldr	r2, .L531+48
 1827 0a80 9342     		cmp	r3, r2
 1828 0a82 02D1     		bne	.L305
 1829              		.loc 1 210 0 discriminator 175
 1830 0a84 4FF40023 		mov	r3, #524288
 1831 0a88 3FE0     		b	.L317
 1832              	.L305:
 1833              		.loc 1 210 0 discriminator 176
 1834 0a8a 4FF00073 		mov	r3, #33554432
 1835 0a8e 3CE0     		b	.L317
 1836              	.L304:
 1837              		.loc 1 210 0 discriminator 174
 1838 0a90 4FF40023 		mov	r3, #524288
 1839 0a94 39E0     		b	.L317
 1840              	.L303:
 1841              		.loc 1 210 0 discriminator 172
 1842 0a96 4FF40023 		mov	r3, #524288
 1843 0a9a 36E0     		b	.L317
 1844              	.L302:
 1845              		.loc 1 210 0 discriminator 170
ARM GAS  /tmp/cc8NeEne.s 			page 37


 1846 0a9c 4FF40023 		mov	r3, #524288
 1847 0aa0 33E0     		b	.L317
 1848              	.L301:
 1849              		.loc 1 210 0 discriminator 168
 1850 0aa2 4FF40073 		mov	r3, #512
 1851 0aa6 30E0     		b	.L317
 1852              	.L300:
 1853              		.loc 1 210 0 discriminator 166
 1854 0aa8 4FF40073 		mov	r3, #512
 1855 0aac 2DE0     		b	.L317
 1856              	.L299:
 1857              		.loc 1 210 0 discriminator 164
 1858 0aae 4FF40073 		mov	r3, #512
 1859 0ab2 2AE0     		b	.L317
 1860              	.L298:
 1861              		.loc 1 210 0 discriminator 162
 1862 0ab4 4FF40073 		mov	r3, #512
 1863 0ab8 27E0     		b	.L317
 1864              	.L297:
 1865              		.loc 1 210 0 discriminator 160
 1866 0aba 0823     		movs	r3, #8
 1867 0abc 25E0     		b	.L317
 1868              	.L296:
 1869              		.loc 1 210 0 discriminator 158
 1870 0abe 0823     		movs	r3, #8
 1871 0ac0 23E0     		b	.L317
 1872              	.L295:
 1873              		.loc 1 210 0 discriminator 156
 1874 0ac2 0823     		movs	r3, #8
 1875 0ac4 21E0     		b	.L317
 1876              	.L532:
 1877 0ac6 00BF     		.align	2
 1878              	.L531:
 1879 0ac8 B8600240 		.word	1073897656
 1880 0acc 10600240 		.word	1073897488
 1881 0ad0 10640240 		.word	1073898512
 1882 0ad4 70600240 		.word	1073897584
 1883 0ad8 70640240 		.word	1073898608
 1884 0adc 28600240 		.word	1073897512
 1885 0ae0 28640240 		.word	1073898536
 1886 0ae4 88600240 		.word	1073897608
 1887 0ae8 88640240 		.word	1073898632
 1888 0aec 40600240 		.word	1073897536
 1889 0af0 40640240 		.word	1073898560
 1890 0af4 A0600240 		.word	1073897632
 1891 0af8 A0640240 		.word	1073898656
 1892 0afc 00640240 		.word	1073898496
 1893 0b00 58600240 		.word	1073897560
 1894 0b04 00600240 		.word	1073897472
 1895              	.L294:
 1896              		.loc 1 210 0 discriminator 154
 1897 0b08 0823     		movs	r3, #8
 1898              	.L317:
 1899              		.loc 1 210 0 discriminator 200
 1900 0b0a 9A4A     		ldr	r2, .L533
 1901 0b0c 9360     		str	r3, [r2, #8]
 1902              	.L241:
ARM GAS  /tmp/cc8NeEne.s 			page 38


 211:Drivers/STM32F7xx_HAL_Driver/Src/stm32f7xx_hal_dma_ex.c ****     __HAL_DMA_CLEAR_FLAG (hdma, __HAL_DMA_GET_DME_FLAG_INDEX(hdma));
 1903              		.loc 1 211 0 is_stmt 1
 1904 0b0e FB68     		ldr	r3, [r7, #12]
 1905 0b10 1B68     		ldr	r3, [r3]
 1906 0b12 1A46     		mov	r2, r3
 1907 0b14 984B     		ldr	r3, .L533+4
 1908 0b16 9A42     		cmp	r2, r3
 1909 0b18 60D9     		bls	.L318
 1910              		.loc 1 211 0 is_stmt 0 discriminator 1
 1911 0b1a FB68     		ldr	r3, [r7, #12]
 1912 0b1c 1B68     		ldr	r3, [r3]
 1913 0b1e 974A     		ldr	r2, .L533+8
 1914 0b20 9342     		cmp	r3, r2
 1915 0b22 57D0     		beq	.L319
 1916              		.loc 1 211 0 discriminator 3
 1917 0b24 FB68     		ldr	r3, [r7, #12]
 1918 0b26 1B68     		ldr	r3, [r3]
 1919 0b28 954A     		ldr	r2, .L533+12
 1920 0b2a 9342     		cmp	r3, r2
 1921 0b2c 50D0     		beq	.L320
 1922              		.loc 1 211 0 discriminator 5
 1923 0b2e FB68     		ldr	r3, [r7, #12]
 1924 0b30 1B68     		ldr	r3, [r3]
 1925 0b32 944A     		ldr	r2, .L533+16
 1926 0b34 9342     		cmp	r3, r2
 1927 0b36 49D0     		beq	.L321
 1928              		.loc 1 211 0 discriminator 7
 1929 0b38 FB68     		ldr	r3, [r7, #12]
 1930 0b3a 1B68     		ldr	r3, [r3]
 1931 0b3c 924A     		ldr	r2, .L533+20
 1932 0b3e 9342     		cmp	r3, r2
 1933 0b40 42D0     		beq	.L322
 1934              		.loc 1 211 0 discriminator 9
 1935 0b42 FB68     		ldr	r3, [r7, #12]
 1936 0b44 1B68     		ldr	r3, [r3]
 1937 0b46 914A     		ldr	r2, .L533+24
 1938 0b48 9342     		cmp	r3, r2
 1939 0b4a 3AD0     		beq	.L323
 1940              		.loc 1 211 0 discriminator 11
 1941 0b4c FB68     		ldr	r3, [r7, #12]
 1942 0b4e 1B68     		ldr	r3, [r3]
 1943 0b50 8F4A     		ldr	r2, .L533+28
 1944 0b52 9342     		cmp	r3, r2
 1945 0b54 32D0     		beq	.L324
 1946              		.loc 1 211 0 discriminator 13
 1947 0b56 FB68     		ldr	r3, [r7, #12]
 1948 0b58 1B68     		ldr	r3, [r3]
 1949 0b5a 8E4A     		ldr	r2, .L533+32
 1950 0b5c 9342     		cmp	r3, r2
 1951 0b5e 2AD0     		beq	.L325
 1952              		.loc 1 211 0 discriminator 15
 1953 0b60 FB68     		ldr	r3, [r7, #12]
 1954 0b62 1B68     		ldr	r3, [r3]
 1955 0b64 8C4A     		ldr	r2, .L533+36
 1956 0b66 9342     		cmp	r3, r2
 1957 0b68 22D0     		beq	.L326
 1958              		.loc 1 211 0 discriminator 17
ARM GAS  /tmp/cc8NeEne.s 			page 39


 1959 0b6a FB68     		ldr	r3, [r7, #12]
 1960 0b6c 1B68     		ldr	r3, [r3]
 1961 0b6e 8B4A     		ldr	r2, .L533+40
 1962 0b70 9342     		cmp	r3, r2
 1963 0b72 1AD0     		beq	.L327
 1964              		.loc 1 211 0 discriminator 19
 1965 0b74 FB68     		ldr	r3, [r7, #12]
 1966 0b76 1B68     		ldr	r3, [r3]
 1967 0b78 894A     		ldr	r2, .L533+44
 1968 0b7a 9342     		cmp	r3, r2
 1969 0b7c 12D0     		beq	.L328
 1970              		.loc 1 211 0 discriminator 21
 1971 0b7e FB68     		ldr	r3, [r7, #12]
 1972 0b80 1B68     		ldr	r3, [r3]
 1973 0b82 884A     		ldr	r2, .L533+48
 1974 0b84 9342     		cmp	r3, r2
 1975 0b86 0AD0     		beq	.L329
 1976              		.loc 1 211 0 discriminator 23
 1977 0b88 FB68     		ldr	r3, [r7, #12]
 1978 0b8a 1B68     		ldr	r3, [r3]
 1979 0b8c 864A     		ldr	r2, .L533+52
 1980 0b8e 9342     		cmp	r3, r2
 1981 0b90 02D1     		bne	.L330
 1982              		.loc 1 211 0 discriminator 25
 1983 0b92 4FF48023 		mov	r3, #262144
 1984 0b96 1EE0     		b	.L342
 1985              	.L330:
 1986              		.loc 1 211 0 discriminator 26
 1987 0b98 4FF08073 		mov	r3, #16777216
 1988 0b9c 1BE0     		b	.L342
 1989              	.L329:
 1990              		.loc 1 211 0 discriminator 24
 1991 0b9e 4FF48023 		mov	r3, #262144
 1992 0ba2 18E0     		b	.L342
 1993              	.L328:
 1994              		.loc 1 211 0 discriminator 22
 1995 0ba4 4FF48023 		mov	r3, #262144
 1996 0ba8 15E0     		b	.L342
 1997              	.L327:
 1998              		.loc 1 211 0 discriminator 20
 1999 0baa 4FF48023 		mov	r3, #262144
 2000 0bae 12E0     		b	.L342
 2001              	.L326:
 2002              		.loc 1 211 0 discriminator 18
 2003 0bb0 4FF48073 		mov	r3, #256
 2004 0bb4 0FE0     		b	.L342
 2005              	.L325:
 2006              		.loc 1 211 0 discriminator 16
 2007 0bb6 4FF48073 		mov	r3, #256
 2008 0bba 0CE0     		b	.L342
 2009              	.L324:
 2010              		.loc 1 211 0 discriminator 14
 2011 0bbc 4FF48073 		mov	r3, #256
 2012 0bc0 09E0     		b	.L342
 2013              	.L323:
 2014              		.loc 1 211 0 discriminator 12
 2015 0bc2 4FF48073 		mov	r3, #256
ARM GAS  /tmp/cc8NeEne.s 			page 40


 2016 0bc6 06E0     		b	.L342
 2017              	.L322:
 2018              		.loc 1 211 0 discriminator 10
 2019 0bc8 0423     		movs	r3, #4
 2020 0bca 04E0     		b	.L342
 2021              	.L321:
 2022              		.loc 1 211 0 discriminator 8
 2023 0bcc 0423     		movs	r3, #4
 2024 0bce 02E0     		b	.L342
 2025              	.L320:
 2026              		.loc 1 211 0 discriminator 6
 2027 0bd0 0423     		movs	r3, #4
 2028 0bd2 00E0     		b	.L342
 2029              	.L319:
 2030              		.loc 1 211 0 discriminator 4
 2031 0bd4 0423     		movs	r3, #4
 2032              	.L342:
 2033              		.loc 1 211 0 discriminator 50
 2034 0bd6 754A     		ldr	r2, .L533+56
 2035 0bd8 D360     		str	r3, [r2, #12]
 2036 0bda 51E1     		b	.L343
 2037              	.L318:
 2038              		.loc 1 211 0 discriminator 2
 2039 0bdc FB68     		ldr	r3, [r7, #12]
 2040 0bde 1B68     		ldr	r3, [r3]
 2041 0be0 1A46     		mov	r2, r3
 2042 0be2 734B     		ldr	r3, .L533+60
 2043 0be4 9A42     		cmp	r2, r3
 2044 0be6 60D9     		bls	.L344
 2045              		.loc 1 211 0 discriminator 51
 2046 0be8 FB68     		ldr	r3, [r7, #12]
 2047 0bea 1B68     		ldr	r3, [r3]
 2048 0bec 634A     		ldr	r2, .L533+8
 2049 0bee 9342     		cmp	r3, r2
 2050 0bf0 57D0     		beq	.L345
 2051              		.loc 1 211 0 discriminator 53
 2052 0bf2 FB68     		ldr	r3, [r7, #12]
 2053 0bf4 1B68     		ldr	r3, [r3]
 2054 0bf6 624A     		ldr	r2, .L533+12
 2055 0bf8 9342     		cmp	r3, r2
 2056 0bfa 50D0     		beq	.L346
 2057              		.loc 1 211 0 discriminator 55
 2058 0bfc FB68     		ldr	r3, [r7, #12]
 2059 0bfe 1B68     		ldr	r3, [r3]
 2060 0c00 604A     		ldr	r2, .L533+16
 2061 0c02 9342     		cmp	r3, r2
 2062 0c04 49D0     		beq	.L347
 2063              		.loc 1 211 0 discriminator 57
 2064 0c06 FB68     		ldr	r3, [r7, #12]
 2065 0c08 1B68     		ldr	r3, [r3]
 2066 0c0a 5F4A     		ldr	r2, .L533+20
 2067 0c0c 9342     		cmp	r3, r2
 2068 0c0e 42D0     		beq	.L348
 2069              		.loc 1 211 0 discriminator 59
 2070 0c10 FB68     		ldr	r3, [r7, #12]
 2071 0c12 1B68     		ldr	r3, [r3]
 2072 0c14 5D4A     		ldr	r2, .L533+24
ARM GAS  /tmp/cc8NeEne.s 			page 41


 2073 0c16 9342     		cmp	r3, r2
 2074 0c18 3AD0     		beq	.L349
 2075              		.loc 1 211 0 discriminator 61
 2076 0c1a FB68     		ldr	r3, [r7, #12]
 2077 0c1c 1B68     		ldr	r3, [r3]
 2078 0c1e 5C4A     		ldr	r2, .L533+28
 2079 0c20 9342     		cmp	r3, r2
 2080 0c22 32D0     		beq	.L350
 2081              		.loc 1 211 0 discriminator 63
 2082 0c24 FB68     		ldr	r3, [r7, #12]
 2083 0c26 1B68     		ldr	r3, [r3]
 2084 0c28 5A4A     		ldr	r2, .L533+32
 2085 0c2a 9342     		cmp	r3, r2
 2086 0c2c 2AD0     		beq	.L351
 2087              		.loc 1 211 0 discriminator 65
 2088 0c2e FB68     		ldr	r3, [r7, #12]
 2089 0c30 1B68     		ldr	r3, [r3]
 2090 0c32 594A     		ldr	r2, .L533+36
 2091 0c34 9342     		cmp	r3, r2
 2092 0c36 22D0     		beq	.L352
 2093              		.loc 1 211 0 discriminator 67
 2094 0c38 FB68     		ldr	r3, [r7, #12]
 2095 0c3a 1B68     		ldr	r3, [r3]
 2096 0c3c 574A     		ldr	r2, .L533+40
 2097 0c3e 9342     		cmp	r3, r2
 2098 0c40 1AD0     		beq	.L353
 2099              		.loc 1 211 0 discriminator 69
 2100 0c42 FB68     		ldr	r3, [r7, #12]
 2101 0c44 1B68     		ldr	r3, [r3]
 2102 0c46 564A     		ldr	r2, .L533+44
 2103 0c48 9342     		cmp	r3, r2
 2104 0c4a 12D0     		beq	.L354
 2105              		.loc 1 211 0 discriminator 71
 2106 0c4c FB68     		ldr	r3, [r7, #12]
 2107 0c4e 1B68     		ldr	r3, [r3]
 2108 0c50 544A     		ldr	r2, .L533+48
 2109 0c52 9342     		cmp	r3, r2
 2110 0c54 0AD0     		beq	.L355
 2111              		.loc 1 211 0 discriminator 73
 2112 0c56 FB68     		ldr	r3, [r7, #12]
 2113 0c58 1B68     		ldr	r3, [r3]
 2114 0c5a 534A     		ldr	r2, .L533+52
 2115 0c5c 9342     		cmp	r3, r2
 2116 0c5e 02D1     		bne	.L356
 2117              		.loc 1 211 0 discriminator 75
 2118 0c60 4FF48023 		mov	r3, #262144
 2119 0c64 1EE0     		b	.L368
 2120              	.L356:
 2121              		.loc 1 211 0 discriminator 76
 2122 0c66 4FF08073 		mov	r3, #16777216
 2123 0c6a 1BE0     		b	.L368
 2124              	.L355:
 2125              		.loc 1 211 0 discriminator 74
 2126 0c6c 4FF48023 		mov	r3, #262144
 2127 0c70 18E0     		b	.L368
 2128              	.L354:
 2129              		.loc 1 211 0 discriminator 72
ARM GAS  /tmp/cc8NeEne.s 			page 42


 2130 0c72 4FF48023 		mov	r3, #262144
 2131 0c76 15E0     		b	.L368
 2132              	.L353:
 2133              		.loc 1 211 0 discriminator 70
 2134 0c78 4FF48023 		mov	r3, #262144
 2135 0c7c 12E0     		b	.L368
 2136              	.L352:
 2137              		.loc 1 211 0 discriminator 68
 2138 0c7e 4FF48073 		mov	r3, #256
 2139 0c82 0FE0     		b	.L368
 2140              	.L351:
 2141              		.loc 1 211 0 discriminator 66
 2142 0c84 4FF48073 		mov	r3, #256
 2143 0c88 0CE0     		b	.L368
 2144              	.L350:
 2145              		.loc 1 211 0 discriminator 64
 2146 0c8a 4FF48073 		mov	r3, #256
 2147 0c8e 09E0     		b	.L368
 2148              	.L349:
 2149              		.loc 1 211 0 discriminator 62
 2150 0c90 4FF48073 		mov	r3, #256
 2151 0c94 06E0     		b	.L368
 2152              	.L348:
 2153              		.loc 1 211 0 discriminator 60
 2154 0c96 0423     		movs	r3, #4
 2155 0c98 04E0     		b	.L368
 2156              	.L347:
 2157              		.loc 1 211 0 discriminator 58
 2158 0c9a 0423     		movs	r3, #4
 2159 0c9c 02E0     		b	.L368
 2160              	.L346:
 2161              		.loc 1 211 0 discriminator 56
 2162 0c9e 0423     		movs	r3, #4
 2163 0ca0 00E0     		b	.L368
 2164              	.L345:
 2165              		.loc 1 211 0 discriminator 54
 2166 0ca2 0423     		movs	r3, #4
 2167              	.L368:
 2168              		.loc 1 211 0 discriminator 100
 2169 0ca4 414A     		ldr	r2, .L533+56
 2170 0ca6 9360     		str	r3, [r2, #8]
 2171 0ca8 EAE0     		b	.L343
 2172              	.L344:
 2173              		.loc 1 211 0 discriminator 52
 2174 0caa FB68     		ldr	r3, [r7, #12]
 2175 0cac 1B68     		ldr	r3, [r3]
 2176 0cae 1A46     		mov	r2, r3
 2177 0cb0 404B     		ldr	r3, .L533+64
 2178 0cb2 9A42     		cmp	r2, r3
 2179 0cb4 40F28480 		bls	.L370
 2180              		.loc 1 211 0 discriminator 102
 2181 0cb8 FB68     		ldr	r3, [r7, #12]
 2182 0cba 1B68     		ldr	r3, [r3]
 2183 0cbc 2F4A     		ldr	r2, .L533+8
 2184 0cbe 9342     		cmp	r3, r2
 2185 0cc0 7AD0     		beq	.L371
 2186              		.loc 1 211 0 discriminator 104
ARM GAS  /tmp/cc8NeEne.s 			page 43


 2187 0cc2 FB68     		ldr	r3, [r7, #12]
 2188 0cc4 1B68     		ldr	r3, [r3]
 2189 0cc6 2E4A     		ldr	r2, .L533+12
 2190 0cc8 9342     		cmp	r3, r2
 2191 0cca 50D0     		beq	.L372
 2192              		.loc 1 211 0 discriminator 106
 2193 0ccc FB68     		ldr	r3, [r7, #12]
 2194 0cce 1B68     		ldr	r3, [r3]
 2195 0cd0 2C4A     		ldr	r2, .L533+16
 2196 0cd2 9342     		cmp	r3, r2
 2197 0cd4 49D0     		beq	.L373
 2198              		.loc 1 211 0 discriminator 108
 2199 0cd6 FB68     		ldr	r3, [r7, #12]
 2200 0cd8 1B68     		ldr	r3, [r3]
 2201 0cda 2B4A     		ldr	r2, .L533+20
 2202 0cdc 9342     		cmp	r3, r2
 2203 0cde 42D0     		beq	.L374
 2204              		.loc 1 211 0 discriminator 110
 2205 0ce0 FB68     		ldr	r3, [r7, #12]
 2206 0ce2 1B68     		ldr	r3, [r3]
 2207 0ce4 294A     		ldr	r2, .L533+24
 2208 0ce6 9342     		cmp	r3, r2
 2209 0ce8 3AD0     		beq	.L375
 2210              		.loc 1 211 0 discriminator 112
 2211 0cea FB68     		ldr	r3, [r7, #12]
 2212 0cec 1B68     		ldr	r3, [r3]
 2213 0cee 284A     		ldr	r2, .L533+28
 2214 0cf0 9342     		cmp	r3, r2
 2215 0cf2 32D0     		beq	.L376
 2216              		.loc 1 211 0 discriminator 114
 2217 0cf4 FB68     		ldr	r3, [r7, #12]
 2218 0cf6 1B68     		ldr	r3, [r3]
 2219 0cf8 264A     		ldr	r2, .L533+32
 2220 0cfa 9342     		cmp	r3, r2
 2221 0cfc 2AD0     		beq	.L377
 2222              		.loc 1 211 0 discriminator 116
 2223 0cfe FB68     		ldr	r3, [r7, #12]
 2224 0d00 1B68     		ldr	r3, [r3]
 2225 0d02 254A     		ldr	r2, .L533+36
 2226 0d04 9342     		cmp	r3, r2
 2227 0d06 22D0     		beq	.L378
 2228              		.loc 1 211 0 discriminator 118
 2229 0d08 FB68     		ldr	r3, [r7, #12]
 2230 0d0a 1B68     		ldr	r3, [r3]
 2231 0d0c 234A     		ldr	r2, .L533+40
 2232 0d0e 9342     		cmp	r3, r2
 2233 0d10 1AD0     		beq	.L379
 2234              		.loc 1 211 0 discriminator 120
 2235 0d12 FB68     		ldr	r3, [r7, #12]
 2236 0d14 1B68     		ldr	r3, [r3]
 2237 0d16 224A     		ldr	r2, .L533+44
 2238 0d18 9342     		cmp	r3, r2
 2239 0d1a 12D0     		beq	.L380
 2240              		.loc 1 211 0 discriminator 122
 2241 0d1c FB68     		ldr	r3, [r7, #12]
 2242 0d1e 1B68     		ldr	r3, [r3]
 2243 0d20 204A     		ldr	r2, .L533+48
ARM GAS  /tmp/cc8NeEne.s 			page 44


 2244 0d22 9342     		cmp	r3, r2
 2245 0d24 0AD0     		beq	.L381
 2246              		.loc 1 211 0 discriminator 124
 2247 0d26 FB68     		ldr	r3, [r7, #12]
 2248 0d28 1B68     		ldr	r3, [r3]
 2249 0d2a 1F4A     		ldr	r2, .L533+52
 2250 0d2c 9342     		cmp	r3, r2
 2251 0d2e 02D1     		bne	.L382
 2252              		.loc 1 211 0 discriminator 126
 2253 0d30 4FF48023 		mov	r3, #262144
 2254 0d34 41E0     		b	.L394
 2255              	.L382:
 2256              		.loc 1 211 0 discriminator 127
 2257 0d36 4FF08073 		mov	r3, #16777216
 2258 0d3a 3EE0     		b	.L394
 2259              	.L381:
 2260              		.loc 1 211 0 discriminator 125
 2261 0d3c 4FF48023 		mov	r3, #262144
 2262 0d40 3BE0     		b	.L394
 2263              	.L380:
 2264              		.loc 1 211 0 discriminator 123
 2265 0d42 4FF48023 		mov	r3, #262144
 2266 0d46 38E0     		b	.L394
 2267              	.L379:
 2268              		.loc 1 211 0 discriminator 121
 2269 0d48 4FF48023 		mov	r3, #262144
 2270 0d4c 35E0     		b	.L394
 2271              	.L378:
 2272              		.loc 1 211 0 discriminator 119
 2273 0d4e 4FF48073 		mov	r3, #256
 2274 0d52 32E0     		b	.L394
 2275              	.L377:
 2276              		.loc 1 211 0 discriminator 117
 2277 0d54 4FF48073 		mov	r3, #256
 2278 0d58 2FE0     		b	.L394
 2279              	.L376:
 2280              		.loc 1 211 0 discriminator 115
 2281 0d5a 4FF48073 		mov	r3, #256
 2282 0d5e 2CE0     		b	.L394
 2283              	.L375:
 2284              		.loc 1 211 0 discriminator 113
 2285 0d60 4FF48073 		mov	r3, #256
 2286 0d64 29E0     		b	.L394
 2287              	.L374:
 2288              		.loc 1 211 0 discriminator 111
 2289 0d66 0423     		movs	r3, #4
 2290 0d68 27E0     		b	.L394
 2291              	.L373:
 2292              		.loc 1 211 0 discriminator 109
 2293 0d6a 0423     		movs	r3, #4
 2294 0d6c 25E0     		b	.L394
 2295              	.L372:
 2296              		.loc 1 211 0 discriminator 107
 2297 0d6e 0423     		movs	r3, #4
 2298 0d70 23E0     		b	.L394
 2299              	.L534:
 2300 0d72 00BF     		.align	2
ARM GAS  /tmp/cc8NeEne.s 			page 45


 2301              	.L533:
 2302 0d74 00600240 		.word	1073897472
 2303 0d78 58640240 		.word	1073898584
 2304 0d7c 10600240 		.word	1073897488
 2305 0d80 10640240 		.word	1073898512
 2306 0d84 70600240 		.word	1073897584
 2307 0d88 70640240 		.word	1073898608
 2308 0d8c 28600240 		.word	1073897512
 2309 0d90 28640240 		.word	1073898536
 2310 0d94 88600240 		.word	1073897608
 2311 0d98 88640240 		.word	1073898632
 2312 0d9c 40600240 		.word	1073897536
 2313 0da0 40640240 		.word	1073898560
 2314 0da4 A0600240 		.word	1073897632
 2315 0da8 A0640240 		.word	1073898656
 2316 0dac 00640240 		.word	1073898496
 2317 0db0 B8600240 		.word	1073897656
 2318 0db4 58600240 		.word	1073897560
 2319              	.L371:
 2320              		.loc 1 211 0 discriminator 105
 2321 0db8 0423     		movs	r3, #4
 2322              	.L394:
 2323              		.loc 1 211 0 discriminator 151
 2324 0dba 944A     		ldr	r2, .L535
 2325 0dbc D360     		str	r3, [r2, #12]
 2326 0dbe 5FE0     		b	.L343
 2327              	.L370:
 2328              		.loc 1 211 0 discriminator 103
 2329 0dc0 FB68     		ldr	r3, [r7, #12]
 2330 0dc2 1B68     		ldr	r3, [r3]
 2331 0dc4 924A     		ldr	r2, .L535+4
 2332 0dc6 9342     		cmp	r3, r2
 2333 0dc8 57D0     		beq	.L396
 2334              		.loc 1 211 0 discriminator 153
 2335 0dca FB68     		ldr	r3, [r7, #12]
 2336 0dcc 1B68     		ldr	r3, [r3]
 2337 0dce 914A     		ldr	r2, .L535+8
 2338 0dd0 9342     		cmp	r3, r2
 2339 0dd2 50D0     		beq	.L397
 2340              		.loc 1 211 0 discriminator 155
 2341 0dd4 FB68     		ldr	r3, [r7, #12]
 2342 0dd6 1B68     		ldr	r3, [r3]
 2343 0dd8 8F4A     		ldr	r2, .L535+12
 2344 0dda 9342     		cmp	r3, r2
 2345 0ddc 49D0     		beq	.L398
 2346              		.loc 1 211 0 discriminator 157
 2347 0dde FB68     		ldr	r3, [r7, #12]
 2348 0de0 1B68     		ldr	r3, [r3]
 2349 0de2 8E4A     		ldr	r2, .L535+16
 2350 0de4 9342     		cmp	r3, r2
 2351 0de6 42D0     		beq	.L399
 2352              		.loc 1 211 0 discriminator 159
 2353 0de8 FB68     		ldr	r3, [r7, #12]
 2354 0dea 1B68     		ldr	r3, [r3]
 2355 0dec 8C4A     		ldr	r2, .L535+20
 2356 0dee 9342     		cmp	r3, r2
 2357 0df0 3AD0     		beq	.L400
ARM GAS  /tmp/cc8NeEne.s 			page 46


 2358              		.loc 1 211 0 discriminator 161
 2359 0df2 FB68     		ldr	r3, [r7, #12]
 2360 0df4 1B68     		ldr	r3, [r3]
 2361 0df6 8B4A     		ldr	r2, .L535+24
 2362 0df8 9342     		cmp	r3, r2
 2363 0dfa 32D0     		beq	.L401
 2364              		.loc 1 211 0 discriminator 163
 2365 0dfc FB68     		ldr	r3, [r7, #12]
 2366 0dfe 1B68     		ldr	r3, [r3]
 2367 0e00 894A     		ldr	r2, .L535+28
 2368 0e02 9342     		cmp	r3, r2
 2369 0e04 2AD0     		beq	.L402
 2370              		.loc 1 211 0 discriminator 165
 2371 0e06 FB68     		ldr	r3, [r7, #12]
 2372 0e08 1B68     		ldr	r3, [r3]
 2373 0e0a 884A     		ldr	r2, .L535+32
 2374 0e0c 9342     		cmp	r3, r2
 2375 0e0e 22D0     		beq	.L403
 2376              		.loc 1 211 0 discriminator 167
 2377 0e10 FB68     		ldr	r3, [r7, #12]
 2378 0e12 1B68     		ldr	r3, [r3]
 2379 0e14 864A     		ldr	r2, .L535+36
 2380 0e16 9342     		cmp	r3, r2
 2381 0e18 1AD0     		beq	.L404
 2382              		.loc 1 211 0 discriminator 169
 2383 0e1a FB68     		ldr	r3, [r7, #12]
 2384 0e1c 1B68     		ldr	r3, [r3]
 2385 0e1e 854A     		ldr	r2, .L535+40
 2386 0e20 9342     		cmp	r3, r2
 2387 0e22 12D0     		beq	.L405
 2388              		.loc 1 211 0 discriminator 171
 2389 0e24 FB68     		ldr	r3, [r7, #12]
 2390 0e26 1B68     		ldr	r3, [r3]
 2391 0e28 834A     		ldr	r2, .L535+44
 2392 0e2a 9342     		cmp	r3, r2
 2393 0e2c 0AD0     		beq	.L406
 2394              		.loc 1 211 0 discriminator 173
 2395 0e2e FB68     		ldr	r3, [r7, #12]
 2396 0e30 1B68     		ldr	r3, [r3]
 2397 0e32 824A     		ldr	r2, .L535+48
 2398 0e34 9342     		cmp	r3, r2
 2399 0e36 02D1     		bne	.L407
 2400              		.loc 1 211 0 discriminator 175
 2401 0e38 4FF48023 		mov	r3, #262144
 2402 0e3c 1EE0     		b	.L419
 2403              	.L407:
 2404              		.loc 1 211 0 discriminator 176
 2405 0e3e 4FF08073 		mov	r3, #16777216
 2406 0e42 1BE0     		b	.L419
 2407              	.L406:
 2408              		.loc 1 211 0 discriminator 174
 2409 0e44 4FF48023 		mov	r3, #262144
 2410 0e48 18E0     		b	.L419
 2411              	.L405:
 2412              		.loc 1 211 0 discriminator 172
 2413 0e4a 4FF48023 		mov	r3, #262144
 2414 0e4e 15E0     		b	.L419
ARM GAS  /tmp/cc8NeEne.s 			page 47


 2415              	.L404:
 2416              		.loc 1 211 0 discriminator 170
 2417 0e50 4FF48023 		mov	r3, #262144
 2418 0e54 12E0     		b	.L419
 2419              	.L403:
 2420              		.loc 1 211 0 discriminator 168
 2421 0e56 4FF48073 		mov	r3, #256
 2422 0e5a 0FE0     		b	.L419
 2423              	.L402:
 2424              		.loc 1 211 0 discriminator 166
 2425 0e5c 4FF48073 		mov	r3, #256
 2426 0e60 0CE0     		b	.L419
 2427              	.L401:
 2428              		.loc 1 211 0 discriminator 164
 2429 0e62 4FF48073 		mov	r3, #256
 2430 0e66 09E0     		b	.L419
 2431              	.L400:
 2432              		.loc 1 211 0 discriminator 162
 2433 0e68 4FF48073 		mov	r3, #256
 2434 0e6c 06E0     		b	.L419
 2435              	.L399:
 2436              		.loc 1 211 0 discriminator 160
 2437 0e6e 0423     		movs	r3, #4
 2438 0e70 04E0     		b	.L419
 2439              	.L398:
 2440              		.loc 1 211 0 discriminator 158
 2441 0e72 0423     		movs	r3, #4
 2442 0e74 02E0     		b	.L419
 2443              	.L397:
 2444              		.loc 1 211 0 discriminator 156
 2445 0e76 0423     		movs	r3, #4
 2446 0e78 00E0     		b	.L419
 2447              	.L396:
 2448              		.loc 1 211 0 discriminator 154
 2449 0e7a 0423     		movs	r3, #4
 2450              	.L419:
 2451              		.loc 1 211 0 discriminator 200
 2452 0e7c 634A     		ldr	r2, .L535
 2453 0e7e 9360     		str	r3, [r2, #8]
 2454              	.L343:
 212:Drivers/STM32F7xx_HAL_Driver/Src/stm32f7xx_hal_dma_ex.c ****     __HAL_DMA_CLEAR_FLAG (hdma, __HAL_DMA_GET_FE_FLAG_INDEX(hdma));
 2455              		.loc 1 212 0 is_stmt 1
 2456 0e80 FB68     		ldr	r3, [r7, #12]
 2457 0e82 1B68     		ldr	r3, [r3]
 2458 0e84 1A46     		mov	r2, r3
 2459 0e86 6E4B     		ldr	r3, .L535+52
 2460 0e88 9A42     		cmp	r2, r3
 2461 0e8a 5CD9     		bls	.L420
 2462              		.loc 1 212 0 is_stmt 0 discriminator 1
 2463 0e8c FB68     		ldr	r3, [r7, #12]
 2464 0e8e 1B68     		ldr	r3, [r3]
 2465 0e90 5F4A     		ldr	r2, .L535+4
 2466 0e92 9342     		cmp	r3, r2
 2467 0e94 53D0     		beq	.L421
 2468              		.loc 1 212 0 discriminator 3
 2469 0e96 FB68     		ldr	r3, [r7, #12]
 2470 0e98 1B68     		ldr	r3, [r3]
ARM GAS  /tmp/cc8NeEne.s 			page 48


 2471 0e9a 5E4A     		ldr	r2, .L535+8
 2472 0e9c 9342     		cmp	r3, r2
 2473 0e9e 4CD0     		beq	.L422
 2474              		.loc 1 212 0 discriminator 5
 2475 0ea0 FB68     		ldr	r3, [r7, #12]
 2476 0ea2 1B68     		ldr	r3, [r3]
 2477 0ea4 5C4A     		ldr	r2, .L535+12
 2478 0ea6 9342     		cmp	r3, r2
 2479 0ea8 45D0     		beq	.L423
 2480              		.loc 1 212 0 discriminator 7
 2481 0eaa FB68     		ldr	r3, [r7, #12]
 2482 0eac 1B68     		ldr	r3, [r3]
 2483 0eae 5B4A     		ldr	r2, .L535+16
 2484 0eb0 9342     		cmp	r3, r2
 2485 0eb2 3ED0     		beq	.L424
 2486              		.loc 1 212 0 discriminator 9
 2487 0eb4 FB68     		ldr	r3, [r7, #12]
 2488 0eb6 1B68     		ldr	r3, [r3]
 2489 0eb8 594A     		ldr	r2, .L535+20
 2490 0eba 9342     		cmp	r3, r2
 2491 0ebc 37D0     		beq	.L425
 2492              		.loc 1 212 0 discriminator 11
 2493 0ebe FB68     		ldr	r3, [r7, #12]
 2494 0ec0 1B68     		ldr	r3, [r3]
 2495 0ec2 584A     		ldr	r2, .L535+24
 2496 0ec4 9342     		cmp	r3, r2
 2497 0ec6 30D0     		beq	.L426
 2498              		.loc 1 212 0 discriminator 13
 2499 0ec8 FB68     		ldr	r3, [r7, #12]
 2500 0eca 1B68     		ldr	r3, [r3]
 2501 0ecc 564A     		ldr	r2, .L535+28
 2502 0ece 9342     		cmp	r3, r2
 2503 0ed0 29D0     		beq	.L427
 2504              		.loc 1 212 0 discriminator 15
 2505 0ed2 FB68     		ldr	r3, [r7, #12]
 2506 0ed4 1B68     		ldr	r3, [r3]
 2507 0ed6 554A     		ldr	r2, .L535+32
 2508 0ed8 9342     		cmp	r3, r2
 2509 0eda 22D0     		beq	.L428
 2510              		.loc 1 212 0 discriminator 17
 2511 0edc FB68     		ldr	r3, [r7, #12]
 2512 0ede 1B68     		ldr	r3, [r3]
 2513 0ee0 534A     		ldr	r2, .L535+36
 2514 0ee2 9342     		cmp	r3, r2
 2515 0ee4 1AD0     		beq	.L429
 2516              		.loc 1 212 0 discriminator 19
 2517 0ee6 FB68     		ldr	r3, [r7, #12]
 2518 0ee8 1B68     		ldr	r3, [r3]
 2519 0eea 524A     		ldr	r2, .L535+40
 2520 0eec 9342     		cmp	r3, r2
 2521 0eee 12D0     		beq	.L430
 2522              		.loc 1 212 0 discriminator 21
 2523 0ef0 FB68     		ldr	r3, [r7, #12]
 2524 0ef2 1B68     		ldr	r3, [r3]
 2525 0ef4 504A     		ldr	r2, .L535+44
 2526 0ef6 9342     		cmp	r3, r2
 2527 0ef8 0AD0     		beq	.L431
ARM GAS  /tmp/cc8NeEne.s 			page 49


 2528              		.loc 1 212 0 discriminator 23
 2529 0efa FB68     		ldr	r3, [r7, #12]
 2530 0efc 1B68     		ldr	r3, [r3]
 2531 0efe 4F4A     		ldr	r2, .L535+48
 2532 0f00 9342     		cmp	r3, r2
 2533 0f02 02D1     		bne	.L432
 2534              		.loc 1 212 0 discriminator 25
 2535 0f04 4FF48033 		mov	r3, #65536
 2536 0f08 1AE0     		b	.L444
 2537              	.L432:
 2538              		.loc 1 212 0 discriminator 26
 2539 0f0a 4FF48003 		mov	r3, #4194304
 2540 0f0e 17E0     		b	.L444
 2541              	.L431:
 2542              		.loc 1 212 0 discriminator 24
 2543 0f10 4FF48033 		mov	r3, #65536
 2544 0f14 14E0     		b	.L444
 2545              	.L430:
 2546              		.loc 1 212 0 discriminator 22
 2547 0f16 4FF48033 		mov	r3, #65536
 2548 0f1a 11E0     		b	.L444
 2549              	.L429:
 2550              		.loc 1 212 0 discriminator 20
 2551 0f1c 4FF48033 		mov	r3, #65536
 2552 0f20 0EE0     		b	.L444
 2553              	.L428:
 2554              		.loc 1 212 0 discriminator 18
 2555 0f22 4023     		movs	r3, #64
 2556 0f24 0CE0     		b	.L444
 2557              	.L427:
 2558              		.loc 1 212 0 discriminator 16
 2559 0f26 4023     		movs	r3, #64
 2560 0f28 0AE0     		b	.L444
 2561              	.L426:
 2562              		.loc 1 212 0 discriminator 14
 2563 0f2a 4023     		movs	r3, #64
 2564 0f2c 08E0     		b	.L444
 2565              	.L425:
 2566              		.loc 1 212 0 discriminator 12
 2567 0f2e 4023     		movs	r3, #64
 2568 0f30 06E0     		b	.L444
 2569              	.L424:
 2570              		.loc 1 212 0 discriminator 10
 2571 0f32 0123     		movs	r3, #1
 2572 0f34 04E0     		b	.L444
 2573              	.L423:
 2574              		.loc 1 212 0 discriminator 8
 2575 0f36 0123     		movs	r3, #1
 2576 0f38 02E0     		b	.L444
 2577              	.L422:
 2578              		.loc 1 212 0 discriminator 6
 2579 0f3a 0123     		movs	r3, #1
 2580 0f3c 00E0     		b	.L444
 2581              	.L421:
 2582              		.loc 1 212 0 discriminator 4
 2583 0f3e 0123     		movs	r3, #1
 2584              	.L444:
ARM GAS  /tmp/cc8NeEne.s 			page 50


 2585              		.loc 1 212 0 discriminator 50
 2586 0f40 404A     		ldr	r2, .L535+56
 2587 0f42 D360     		str	r3, [r2, #12]
 2588 0f44 41E1     		b	.L445
 2589              	.L420:
 2590              		.loc 1 212 0 discriminator 2
 2591 0f46 FB68     		ldr	r3, [r7, #12]
 2592 0f48 1B68     		ldr	r3, [r3]
 2593 0f4a 1A46     		mov	r2, r3
 2594 0f4c 3E4B     		ldr	r3, .L535+60
 2595 0f4e 9A42     		cmp	r2, r3
 2596 0f50 7CD9     		bls	.L446
 2597              		.loc 1 212 0 discriminator 51
 2598 0f52 FB68     		ldr	r3, [r7, #12]
 2599 0f54 1B68     		ldr	r3, [r3]
 2600 0f56 2E4A     		ldr	r2, .L535+4
 2601 0f58 9342     		cmp	r3, r2
 2602 0f5a 53D0     		beq	.L447
 2603              		.loc 1 212 0 discriminator 53
 2604 0f5c FB68     		ldr	r3, [r7, #12]
 2605 0f5e 1B68     		ldr	r3, [r3]
 2606 0f60 2C4A     		ldr	r2, .L535+8
 2607 0f62 9342     		cmp	r3, r2
 2608 0f64 4CD0     		beq	.L448
 2609              		.loc 1 212 0 discriminator 55
 2610 0f66 FB68     		ldr	r3, [r7, #12]
 2611 0f68 1B68     		ldr	r3, [r3]
 2612 0f6a 2B4A     		ldr	r2, .L535+12
 2613 0f6c 9342     		cmp	r3, r2
 2614 0f6e 45D0     		beq	.L449
 2615              		.loc 1 212 0 discriminator 57
 2616 0f70 FB68     		ldr	r3, [r7, #12]
 2617 0f72 1B68     		ldr	r3, [r3]
 2618 0f74 294A     		ldr	r2, .L535+16
 2619 0f76 9342     		cmp	r3, r2
 2620 0f78 3ED0     		beq	.L450
 2621              		.loc 1 212 0 discriminator 59
 2622 0f7a FB68     		ldr	r3, [r7, #12]
 2623 0f7c 1B68     		ldr	r3, [r3]
 2624 0f7e 284A     		ldr	r2, .L535+20
 2625 0f80 9342     		cmp	r3, r2
 2626 0f82 37D0     		beq	.L451
 2627              		.loc 1 212 0 discriminator 61
 2628 0f84 FB68     		ldr	r3, [r7, #12]
 2629 0f86 1B68     		ldr	r3, [r3]
 2630 0f88 264A     		ldr	r2, .L535+24
 2631 0f8a 9342     		cmp	r3, r2
 2632 0f8c 30D0     		beq	.L452
 2633              		.loc 1 212 0 discriminator 63
 2634 0f8e FB68     		ldr	r3, [r7, #12]
 2635 0f90 1B68     		ldr	r3, [r3]
 2636 0f92 254A     		ldr	r2, .L535+28
 2637 0f94 9342     		cmp	r3, r2
 2638 0f96 29D0     		beq	.L453
 2639              		.loc 1 212 0 discriminator 65
 2640 0f98 FB68     		ldr	r3, [r7, #12]
 2641 0f9a 1B68     		ldr	r3, [r3]
ARM GAS  /tmp/cc8NeEne.s 			page 51


 2642 0f9c 234A     		ldr	r2, .L535+32
 2643 0f9e 9342     		cmp	r3, r2
 2644 0fa0 22D0     		beq	.L454
 2645              		.loc 1 212 0 discriminator 67
 2646 0fa2 FB68     		ldr	r3, [r7, #12]
 2647 0fa4 1B68     		ldr	r3, [r3]
 2648 0fa6 224A     		ldr	r2, .L535+36
 2649 0fa8 9342     		cmp	r3, r2
 2650 0faa 1AD0     		beq	.L455
 2651              		.loc 1 212 0 discriminator 69
 2652 0fac FB68     		ldr	r3, [r7, #12]
 2653 0fae 1B68     		ldr	r3, [r3]
 2654 0fb0 204A     		ldr	r2, .L535+40
 2655 0fb2 9342     		cmp	r3, r2
 2656 0fb4 12D0     		beq	.L456
 2657              		.loc 1 212 0 discriminator 71
 2658 0fb6 FB68     		ldr	r3, [r7, #12]
 2659 0fb8 1B68     		ldr	r3, [r3]
 2660 0fba 1F4A     		ldr	r2, .L535+44
 2661 0fbc 9342     		cmp	r3, r2
 2662 0fbe 0AD0     		beq	.L457
 2663              		.loc 1 212 0 discriminator 73
 2664 0fc0 FB68     		ldr	r3, [r7, #12]
 2665 0fc2 1B68     		ldr	r3, [r3]
 2666 0fc4 1D4A     		ldr	r2, .L535+48
 2667 0fc6 9342     		cmp	r3, r2
 2668 0fc8 02D1     		bne	.L458
 2669              		.loc 1 212 0 discriminator 75
 2670 0fca 4FF48033 		mov	r3, #65536
 2671 0fce 1AE0     		b	.L470
 2672              	.L458:
 2673              		.loc 1 212 0 discriminator 76
 2674 0fd0 4FF48003 		mov	r3, #4194304
 2675 0fd4 17E0     		b	.L470
 2676              	.L457:
 2677              		.loc 1 212 0 discriminator 74
 2678 0fd6 4FF48033 		mov	r3, #65536
 2679 0fda 14E0     		b	.L470
 2680              	.L456:
 2681              		.loc 1 212 0 discriminator 72
 2682 0fdc 4FF48033 		mov	r3, #65536
 2683 0fe0 11E0     		b	.L470
 2684              	.L455:
 2685              		.loc 1 212 0 discriminator 70
 2686 0fe2 4FF48033 		mov	r3, #65536
 2687 0fe6 0EE0     		b	.L470
 2688              	.L454:
 2689              		.loc 1 212 0 discriminator 68
 2690 0fe8 4023     		movs	r3, #64
 2691 0fea 0CE0     		b	.L470
 2692              	.L453:
 2693              		.loc 1 212 0 discriminator 66
 2694 0fec 4023     		movs	r3, #64
 2695 0fee 0AE0     		b	.L470
 2696              	.L452:
 2697              		.loc 1 212 0 discriminator 64
 2698 0ff0 4023     		movs	r3, #64
ARM GAS  /tmp/cc8NeEne.s 			page 52


 2699 0ff2 08E0     		b	.L470
 2700              	.L451:
 2701              		.loc 1 212 0 discriminator 62
 2702 0ff4 4023     		movs	r3, #64
 2703 0ff6 06E0     		b	.L470
 2704              	.L450:
 2705              		.loc 1 212 0 discriminator 60
 2706 0ff8 0123     		movs	r3, #1
 2707 0ffa 04E0     		b	.L470
 2708              	.L449:
 2709              		.loc 1 212 0 discriminator 58
 2710 0ffc 0123     		movs	r3, #1
 2711 0ffe 02E0     		b	.L470
 2712              	.L448:
 2713              		.loc 1 212 0 discriminator 56
 2714 1000 0123     		movs	r3, #1
 2715 1002 00E0     		b	.L470
 2716              	.L447:
 2717              		.loc 1 212 0 discriminator 54
 2718 1004 0123     		movs	r3, #1
 2719              	.L470:
 2720              		.loc 1 212 0 discriminator 100
 2721 1006 0F4A     		ldr	r2, .L535+56
 2722 1008 9360     		str	r3, [r2, #8]
 2723 100a DEE0     		b	.L445
 2724              	.L536:
 2725              		.align	2
 2726              	.L535:
 2727 100c 00600240 		.word	1073897472
 2728 1010 10600240 		.word	1073897488
 2729 1014 10640240 		.word	1073898512
 2730 1018 70600240 		.word	1073897584
 2731 101c 70640240 		.word	1073898608
 2732 1020 28600240 		.word	1073897512
 2733 1024 28640240 		.word	1073898536
 2734 1028 88600240 		.word	1073897608
 2735 102c 88640240 		.word	1073898632
 2736 1030 40600240 		.word	1073897536
 2737 1034 40640240 		.word	1073898560
 2738 1038 A0600240 		.word	1073897632
 2739 103c A0640240 		.word	1073898656
 2740 1040 58640240 		.word	1073898584
 2741 1044 00640240 		.word	1073898496
 2742 1048 B8600240 		.word	1073897656
 2743              	.L446:
 2744              		.loc 1 212 0 discriminator 52
 2745 104c FB68     		ldr	r3, [r7, #12]
 2746 104e 1B68     		ldr	r3, [r3]
 2747 1050 1A46     		mov	r2, r3
 2748 1052 784B     		ldr	r3, .L537
 2749 1054 9A42     		cmp	r2, r3
 2750 1056 5CD9     		bls	.L472
 2751              		.loc 1 212 0 discriminator 102
 2752 1058 FB68     		ldr	r3, [r7, #12]
 2753 105a 1B68     		ldr	r3, [r3]
 2754 105c 764A     		ldr	r2, .L537+4
 2755 105e 9342     		cmp	r3, r2
ARM GAS  /tmp/cc8NeEne.s 			page 53


 2756 1060 53D0     		beq	.L473
 2757              		.loc 1 212 0 discriminator 104
 2758 1062 FB68     		ldr	r3, [r7, #12]
 2759 1064 1B68     		ldr	r3, [r3]
 2760 1066 754A     		ldr	r2, .L537+8
 2761 1068 9342     		cmp	r3, r2
 2762 106a 4CD0     		beq	.L474
 2763              		.loc 1 212 0 discriminator 106
 2764 106c FB68     		ldr	r3, [r7, #12]
 2765 106e 1B68     		ldr	r3, [r3]
 2766 1070 734A     		ldr	r2, .L537+12
 2767 1072 9342     		cmp	r3, r2
 2768 1074 45D0     		beq	.L475
 2769              		.loc 1 212 0 discriminator 108
 2770 1076 FB68     		ldr	r3, [r7, #12]
 2771 1078 1B68     		ldr	r3, [r3]
 2772 107a 724A     		ldr	r2, .L537+16
 2773 107c 9342     		cmp	r3, r2
 2774 107e 3ED0     		beq	.L476
 2775              		.loc 1 212 0 discriminator 110
 2776 1080 FB68     		ldr	r3, [r7, #12]
 2777 1082 1B68     		ldr	r3, [r3]
 2778 1084 704A     		ldr	r2, .L537+20
 2779 1086 9342     		cmp	r3, r2
 2780 1088 37D0     		beq	.L477
 2781              		.loc 1 212 0 discriminator 112
 2782 108a FB68     		ldr	r3, [r7, #12]
 2783 108c 1B68     		ldr	r3, [r3]
 2784 108e 6F4A     		ldr	r2, .L537+24
 2785 1090 9342     		cmp	r3, r2
 2786 1092 30D0     		beq	.L478
 2787              		.loc 1 212 0 discriminator 114
 2788 1094 FB68     		ldr	r3, [r7, #12]
 2789 1096 1B68     		ldr	r3, [r3]
 2790 1098 6D4A     		ldr	r2, .L537+28
 2791 109a 9342     		cmp	r3, r2
 2792 109c 29D0     		beq	.L479
 2793              		.loc 1 212 0 discriminator 116
 2794 109e FB68     		ldr	r3, [r7, #12]
 2795 10a0 1B68     		ldr	r3, [r3]
 2796 10a2 6C4A     		ldr	r2, .L537+32
 2797 10a4 9342     		cmp	r3, r2
 2798 10a6 22D0     		beq	.L480
 2799              		.loc 1 212 0 discriminator 118
 2800 10a8 FB68     		ldr	r3, [r7, #12]
 2801 10aa 1B68     		ldr	r3, [r3]
 2802 10ac 6A4A     		ldr	r2, .L537+36
 2803 10ae 9342     		cmp	r3, r2
 2804 10b0 1AD0     		beq	.L481
 2805              		.loc 1 212 0 discriminator 120
 2806 10b2 FB68     		ldr	r3, [r7, #12]
 2807 10b4 1B68     		ldr	r3, [r3]
 2808 10b6 694A     		ldr	r2, .L537+40
 2809 10b8 9342     		cmp	r3, r2
 2810 10ba 12D0     		beq	.L482
 2811              		.loc 1 212 0 discriminator 122
 2812 10bc FB68     		ldr	r3, [r7, #12]
ARM GAS  /tmp/cc8NeEne.s 			page 54


 2813 10be 1B68     		ldr	r3, [r3]
 2814 10c0 674A     		ldr	r2, .L537+44
 2815 10c2 9342     		cmp	r3, r2
 2816 10c4 0AD0     		beq	.L483
 2817              		.loc 1 212 0 discriminator 124
 2818 10c6 FB68     		ldr	r3, [r7, #12]
 2819 10c8 1B68     		ldr	r3, [r3]
 2820 10ca 664A     		ldr	r2, .L537+48
 2821 10cc 9342     		cmp	r3, r2
 2822 10ce 02D1     		bne	.L484
 2823              		.loc 1 212 0 discriminator 126
 2824 10d0 4FF48033 		mov	r3, #65536
 2825 10d4 1AE0     		b	.L496
 2826              	.L484:
 2827              		.loc 1 212 0 discriminator 127
 2828 10d6 4FF48003 		mov	r3, #4194304
 2829 10da 17E0     		b	.L496
 2830              	.L483:
 2831              		.loc 1 212 0 discriminator 125
 2832 10dc 4FF48033 		mov	r3, #65536
 2833 10e0 14E0     		b	.L496
 2834              	.L482:
 2835              		.loc 1 212 0 discriminator 123
 2836 10e2 4FF48033 		mov	r3, #65536
 2837 10e6 11E0     		b	.L496
 2838              	.L481:
 2839              		.loc 1 212 0 discriminator 121
 2840 10e8 4FF48033 		mov	r3, #65536
 2841 10ec 0EE0     		b	.L496
 2842              	.L480:
 2843              		.loc 1 212 0 discriminator 119
 2844 10ee 4023     		movs	r3, #64
 2845 10f0 0CE0     		b	.L496
 2846              	.L479:
 2847              		.loc 1 212 0 discriminator 117
 2848 10f2 4023     		movs	r3, #64
 2849 10f4 0AE0     		b	.L496
 2850              	.L478:
 2851              		.loc 1 212 0 discriminator 115
 2852 10f6 4023     		movs	r3, #64
 2853 10f8 08E0     		b	.L496
 2854              	.L477:
 2855              		.loc 1 212 0 discriminator 113
 2856 10fa 4023     		movs	r3, #64
 2857 10fc 06E0     		b	.L496
 2858              	.L476:
 2859              		.loc 1 212 0 discriminator 111
 2860 10fe 0123     		movs	r3, #1
 2861 1100 04E0     		b	.L496
 2862              	.L475:
 2863              		.loc 1 212 0 discriminator 109
 2864 1102 0123     		movs	r3, #1
 2865 1104 02E0     		b	.L496
 2866              	.L474:
 2867              		.loc 1 212 0 discriminator 107
 2868 1106 0123     		movs	r3, #1
 2869 1108 00E0     		b	.L496
ARM GAS  /tmp/cc8NeEne.s 			page 55


 2870              	.L473:
 2871              		.loc 1 212 0 discriminator 105
 2872 110a 0123     		movs	r3, #1
 2873              	.L496:
 2874              		.loc 1 212 0 discriminator 151
 2875 110c 564A     		ldr	r2, .L537+52
 2876 110e D360     		str	r3, [r2, #12]
 2877 1110 5BE0     		b	.L445
 2878              	.L472:
 2879              		.loc 1 212 0 discriminator 103
 2880 1112 FB68     		ldr	r3, [r7, #12]
 2881 1114 1B68     		ldr	r3, [r3]
 2882 1116 484A     		ldr	r2, .L537+4
 2883 1118 9342     		cmp	r3, r2
 2884 111a 53D0     		beq	.L498
 2885              		.loc 1 212 0 discriminator 153
 2886 111c FB68     		ldr	r3, [r7, #12]
 2887 111e 1B68     		ldr	r3, [r3]
 2888 1120 464A     		ldr	r2, .L537+8
 2889 1122 9342     		cmp	r3, r2
 2890 1124 4CD0     		beq	.L499
 2891              		.loc 1 212 0 discriminator 155
 2892 1126 FB68     		ldr	r3, [r7, #12]
 2893 1128 1B68     		ldr	r3, [r3]
 2894 112a 454A     		ldr	r2, .L537+12
 2895 112c 9342     		cmp	r3, r2
 2896 112e 45D0     		beq	.L500
 2897              		.loc 1 212 0 discriminator 157
 2898 1130 FB68     		ldr	r3, [r7, #12]
 2899 1132 1B68     		ldr	r3, [r3]
 2900 1134 434A     		ldr	r2, .L537+16
 2901 1136 9342     		cmp	r3, r2
 2902 1138 3ED0     		beq	.L501
 2903              		.loc 1 212 0 discriminator 159
 2904 113a FB68     		ldr	r3, [r7, #12]
 2905 113c 1B68     		ldr	r3, [r3]
 2906 113e 424A     		ldr	r2, .L537+20
 2907 1140 9342     		cmp	r3, r2
 2908 1142 37D0     		beq	.L502
 2909              		.loc 1 212 0 discriminator 161
 2910 1144 FB68     		ldr	r3, [r7, #12]
 2911 1146 1B68     		ldr	r3, [r3]
 2912 1148 404A     		ldr	r2, .L537+24
 2913 114a 9342     		cmp	r3, r2
 2914 114c 30D0     		beq	.L503
 2915              		.loc 1 212 0 discriminator 163
 2916 114e FB68     		ldr	r3, [r7, #12]
 2917 1150 1B68     		ldr	r3, [r3]
 2918 1152 3F4A     		ldr	r2, .L537+28
 2919 1154 9342     		cmp	r3, r2
 2920 1156 29D0     		beq	.L504
 2921              		.loc 1 212 0 discriminator 165
 2922 1158 FB68     		ldr	r3, [r7, #12]
 2923 115a 1B68     		ldr	r3, [r3]
 2924 115c 3D4A     		ldr	r2, .L537+32
 2925 115e 9342     		cmp	r3, r2
 2926 1160 22D0     		beq	.L505
ARM GAS  /tmp/cc8NeEne.s 			page 56


 2927              		.loc 1 212 0 discriminator 167
 2928 1162 FB68     		ldr	r3, [r7, #12]
 2929 1164 1B68     		ldr	r3, [r3]
 2930 1166 3C4A     		ldr	r2, .L537+36
 2931 1168 9342     		cmp	r3, r2
 2932 116a 1AD0     		beq	.L506
 2933              		.loc 1 212 0 discriminator 169
 2934 116c FB68     		ldr	r3, [r7, #12]
 2935 116e 1B68     		ldr	r3, [r3]
 2936 1170 3A4A     		ldr	r2, .L537+40
 2937 1172 9342     		cmp	r3, r2
 2938 1174 12D0     		beq	.L507
 2939              		.loc 1 212 0 discriminator 171
 2940 1176 FB68     		ldr	r3, [r7, #12]
 2941 1178 1B68     		ldr	r3, [r3]
 2942 117a 394A     		ldr	r2, .L537+44
 2943 117c 9342     		cmp	r3, r2
 2944 117e 0AD0     		beq	.L508
 2945              		.loc 1 212 0 discriminator 173
 2946 1180 FB68     		ldr	r3, [r7, #12]
 2947 1182 1B68     		ldr	r3, [r3]
 2948 1184 374A     		ldr	r2, .L537+48
 2949 1186 9342     		cmp	r3, r2
 2950 1188 02D1     		bne	.L509
 2951              		.loc 1 212 0 discriminator 175
 2952 118a 4FF48033 		mov	r3, #65536
 2953 118e 1AE0     		b	.L521
 2954              	.L509:
 2955              		.loc 1 212 0 discriminator 176
 2956 1190 4FF48003 		mov	r3, #4194304
 2957 1194 17E0     		b	.L521
 2958              	.L508:
 2959              		.loc 1 212 0 discriminator 174
 2960 1196 4FF48033 		mov	r3, #65536
 2961 119a 14E0     		b	.L521
 2962              	.L507:
 2963              		.loc 1 212 0 discriminator 172
 2964 119c 4FF48033 		mov	r3, #65536
 2965 11a0 11E0     		b	.L521
 2966              	.L506:
 2967              		.loc 1 212 0 discriminator 170
 2968 11a2 4FF48033 		mov	r3, #65536
 2969 11a6 0EE0     		b	.L521
 2970              	.L505:
 2971              		.loc 1 212 0 discriminator 168
 2972 11a8 4023     		movs	r3, #64
 2973 11aa 0CE0     		b	.L521
 2974              	.L504:
 2975              		.loc 1 212 0 discriminator 166
 2976 11ac 4023     		movs	r3, #64
 2977 11ae 0AE0     		b	.L521
 2978              	.L503:
 2979              		.loc 1 212 0 discriminator 164
 2980 11b0 4023     		movs	r3, #64
 2981 11b2 08E0     		b	.L521
 2982              	.L502:
 2983              		.loc 1 212 0 discriminator 162
ARM GAS  /tmp/cc8NeEne.s 			page 57


 2984 11b4 4023     		movs	r3, #64
 2985 11b6 06E0     		b	.L521
 2986              	.L501:
 2987              		.loc 1 212 0 discriminator 160
 2988 11b8 0123     		movs	r3, #1
 2989 11ba 04E0     		b	.L521
 2990              	.L500:
 2991              		.loc 1 212 0 discriminator 158
 2992 11bc 0123     		movs	r3, #1
 2993 11be 02E0     		b	.L521
 2994              	.L499:
 2995              		.loc 1 212 0 discriminator 156
 2996 11c0 0123     		movs	r3, #1
 2997 11c2 00E0     		b	.L521
 2998              	.L498:
 2999              		.loc 1 212 0 discriminator 154
 3000 11c4 0123     		movs	r3, #1
 3001              	.L521:
 3002              		.loc 1 212 0 discriminator 200
 3003 11c6 284A     		ldr	r2, .L537+52
 3004 11c8 9360     		str	r3, [r2, #8]
 3005              	.L445:
 213:Drivers/STM32F7xx_HAL_Driver/Src/stm32f7xx_hal_dma_ex.c ****     
 214:Drivers/STM32F7xx_HAL_Driver/Src/stm32f7xx_hal_dma_ex.c ****     /* Enable Common interrupts*/
 215:Drivers/STM32F7xx_HAL_Driver/Src/stm32f7xx_hal_dma_ex.c ****     hdma->Instance->CR  |= DMA_IT_TC | DMA_IT_TE | DMA_IT_DME;
 3006              		.loc 1 215 0 is_stmt 1
 3007 11ca FB68     		ldr	r3, [r7, #12]
 3008 11cc 1B68     		ldr	r3, [r3]
 3009 11ce 1A68     		ldr	r2, [r3]
 3010 11d0 FB68     		ldr	r3, [r7, #12]
 3011 11d2 1B68     		ldr	r3, [r3]
 3012 11d4 42F01602 		orr	r2, r2, #22
 3013 11d8 1A60     		str	r2, [r3]
 216:Drivers/STM32F7xx_HAL_Driver/Src/stm32f7xx_hal_dma_ex.c ****     hdma->Instance->FCR |= DMA_IT_FE;
 3014              		.loc 1 216 0
 3015 11da FB68     		ldr	r3, [r7, #12]
 3016 11dc 1B68     		ldr	r3, [r3]
 3017 11de 5A69     		ldr	r2, [r3, #20]
 3018 11e0 FB68     		ldr	r3, [r7, #12]
 3019 11e2 1B68     		ldr	r3, [r3]
 3020 11e4 42F08002 		orr	r2, r2, #128
 3021 11e8 5A61     		str	r2, [r3, #20]
 217:Drivers/STM32F7xx_HAL_Driver/Src/stm32f7xx_hal_dma_ex.c ****     
 218:Drivers/STM32F7xx_HAL_Driver/Src/stm32f7xx_hal_dma_ex.c ****     if((hdma->XferHalfCpltCallback != NULL) || (hdma->XferM1HalfCpltCallback != NULL))
 3022              		.loc 1 218 0
 3023 11ea FB68     		ldr	r3, [r7, #12]
 3024 11ec 1B6C     		ldr	r3, [r3, #64]
 3025 11ee 002B     		cmp	r3, #0
 3026 11f0 03D1     		bne	.L522
 3027              		.loc 1 218 0 is_stmt 0 discriminator 1
 3028 11f2 FB68     		ldr	r3, [r7, #12]
 3029 11f4 9B6C     		ldr	r3, [r3, #72]
 3030 11f6 002B     		cmp	r3, #0
 3031 11f8 07D0     		beq	.L523
 3032              	.L522:
 219:Drivers/STM32F7xx_HAL_Driver/Src/stm32f7xx_hal_dma_ex.c ****     {
 220:Drivers/STM32F7xx_HAL_Driver/Src/stm32f7xx_hal_dma_ex.c ****       hdma->Instance->CR  |= DMA_IT_HT;
ARM GAS  /tmp/cc8NeEne.s 			page 58


 3033              		.loc 1 220 0 is_stmt 1
 3034 11fa FB68     		ldr	r3, [r7, #12]
 3035 11fc 1B68     		ldr	r3, [r3]
 3036 11fe 1A68     		ldr	r2, [r3]
 3037 1200 FB68     		ldr	r3, [r7, #12]
 3038 1202 1B68     		ldr	r3, [r3]
 3039 1204 42F00802 		orr	r2, r2, #8
 3040 1208 1A60     		str	r2, [r3]
 3041              	.L523:
 221:Drivers/STM32F7xx_HAL_Driver/Src/stm32f7xx_hal_dma_ex.c ****     }
 222:Drivers/STM32F7xx_HAL_Driver/Src/stm32f7xx_hal_dma_ex.c ****     
 223:Drivers/STM32F7xx_HAL_Driver/Src/stm32f7xx_hal_dma_ex.c ****     /* Enable the peripheral */
 224:Drivers/STM32F7xx_HAL_Driver/Src/stm32f7xx_hal_dma_ex.c ****     __HAL_DMA_ENABLE(hdma); 
 3042              		.loc 1 224 0
 3043 120a FB68     		ldr	r3, [r7, #12]
 3044 120c 1B68     		ldr	r3, [r3]
 3045 120e 1A68     		ldr	r2, [r3]
 3046 1210 FB68     		ldr	r3, [r7, #12]
 3047 1212 1B68     		ldr	r3, [r3]
 3048 1214 42F00102 		orr	r2, r2, #1
 3049 1218 1A60     		str	r2, [r3]
 3050 121a 05E0     		b	.L524
 3051              	.L11:
 225:Drivers/STM32F7xx_HAL_Driver/Src/stm32f7xx_hal_dma_ex.c ****   }
 226:Drivers/STM32F7xx_HAL_Driver/Src/stm32f7xx_hal_dma_ex.c ****   else
 227:Drivers/STM32F7xx_HAL_Driver/Src/stm32f7xx_hal_dma_ex.c ****   {     
 228:Drivers/STM32F7xx_HAL_Driver/Src/stm32f7xx_hal_dma_ex.c ****     /* Process unlocked */
 229:Drivers/STM32F7xx_HAL_Driver/Src/stm32f7xx_hal_dma_ex.c ****     __HAL_UNLOCK(hdma);	  
 3052              		.loc 1 229 0
 3053 121c FB68     		ldr	r3, [r7, #12]
 3054 121e 0022     		movs	r2, #0
 3055 1220 83F83420 		strb	r2, [r3, #52]
 230:Drivers/STM32F7xx_HAL_Driver/Src/stm32f7xx_hal_dma_ex.c ****     
 231:Drivers/STM32F7xx_HAL_Driver/Src/stm32f7xx_hal_dma_ex.c ****     /* Return error status */
 232:Drivers/STM32F7xx_HAL_Driver/Src/stm32f7xx_hal_dma_ex.c ****     status = HAL_BUSY;
 3056              		.loc 1 232 0
 3057 1224 0223     		movs	r3, #2
 3058 1226 FB75     		strb	r3, [r7, #23]
 3059              	.L524:
 233:Drivers/STM32F7xx_HAL_Driver/Src/stm32f7xx_hal_dma_ex.c ****   }  
 234:Drivers/STM32F7xx_HAL_Driver/Src/stm32f7xx_hal_dma_ex.c ****   return status; 
 3060              		.loc 1 234 0
 3061 1228 FB7D     		ldrb	r3, [r7, #23]	@ zero_extendqisi2
 3062              	.L9:
 235:Drivers/STM32F7xx_HAL_Driver/Src/stm32f7xx_hal_dma_ex.c **** }
 3063              		.loc 1 235 0
 3064 122a 1846     		mov	r0, r3
 3065 122c 1837     		adds	r7, r7, #24
 3066              	.LCFI8:
 3067              		.cfi_def_cfa_offset 8
 3068 122e BD46     		mov	sp, r7
 3069              	.LCFI9:
 3070              		.cfi_def_cfa_register 13
 3071              		@ sp needed
 3072 1230 80BD     		pop	{r7, pc}
 3073              	.L538:
 3074 1232 00BF     		.align	2
ARM GAS  /tmp/cc8NeEne.s 			page 59


 3075              	.L537:
 3076 1234 58600240 		.word	1073897560
 3077 1238 10600240 		.word	1073897488
 3078 123c 10640240 		.word	1073898512
 3079 1240 70600240 		.word	1073897584
 3080 1244 70640240 		.word	1073898608
 3081 1248 28600240 		.word	1073897512
 3082 124c 28640240 		.word	1073898536
 3083 1250 88600240 		.word	1073897608
 3084 1254 88640240 		.word	1073898632
 3085 1258 40600240 		.word	1073897536
 3086 125c 40640240 		.word	1073898560
 3087 1260 A0600240 		.word	1073897632
 3088 1264 A0640240 		.word	1073898656
 3089 1268 00600240 		.word	1073897472
 3090              		.cfi_endproc
 3091              	.LFE139:
 3093              		.section	.text.HAL_DMAEx_ChangeMemory,"ax",%progbits
 3094              		.align	1
 3095              		.global	HAL_DMAEx_ChangeMemory
 3096              		.syntax unified
 3097              		.thumb
 3098              		.thumb_func
 3099              		.fpu fpv4-sp-d16
 3101              	HAL_DMAEx_ChangeMemory:
 3102              	.LFB140:
 236:Drivers/STM32F7xx_HAL_Driver/Src/stm32f7xx_hal_dma_ex.c **** 
 237:Drivers/STM32F7xx_HAL_Driver/Src/stm32f7xx_hal_dma_ex.c **** /**
 238:Drivers/STM32F7xx_HAL_Driver/Src/stm32f7xx_hal_dma_ex.c ****   * @brief  Change the memory0 or memory1 address on the fly.
 239:Drivers/STM32F7xx_HAL_Driver/Src/stm32f7xx_hal_dma_ex.c ****   * @param  hdma       pointer to a DMA_HandleTypeDef structure that contains
 240:Drivers/STM32F7xx_HAL_Driver/Src/stm32f7xx_hal_dma_ex.c ****   *                     the configuration information for the specified DMA Stream.  
 241:Drivers/STM32F7xx_HAL_Driver/Src/stm32f7xx_hal_dma_ex.c ****   * @param  Address    The new address
 242:Drivers/STM32F7xx_HAL_Driver/Src/stm32f7xx_hal_dma_ex.c ****   * @param  memory     the memory to be changed, This parameter can be one of 
 243:Drivers/STM32F7xx_HAL_Driver/Src/stm32f7xx_hal_dma_ex.c ****   *                     the following values:
 244:Drivers/STM32F7xx_HAL_Driver/Src/stm32f7xx_hal_dma_ex.c ****   *                      MEMORY0 /
 245:Drivers/STM32F7xx_HAL_Driver/Src/stm32f7xx_hal_dma_ex.c ****   *                      MEMORY1
 246:Drivers/STM32F7xx_HAL_Driver/Src/stm32f7xx_hal_dma_ex.c ****   * @note   The MEMORY0 address can be changed only when the current transfer use
 247:Drivers/STM32F7xx_HAL_Driver/Src/stm32f7xx_hal_dma_ex.c ****   *         MEMORY1 and the MEMORY1 address can be changed only when the current 
 248:Drivers/STM32F7xx_HAL_Driver/Src/stm32f7xx_hal_dma_ex.c ****   *         transfer use MEMORY0.
 249:Drivers/STM32F7xx_HAL_Driver/Src/stm32f7xx_hal_dma_ex.c ****   * @retval HAL status
 250:Drivers/STM32F7xx_HAL_Driver/Src/stm32f7xx_hal_dma_ex.c ****   */
 251:Drivers/STM32F7xx_HAL_Driver/Src/stm32f7xx_hal_dma_ex.c **** HAL_StatusTypeDef HAL_DMAEx_ChangeMemory(DMA_HandleTypeDef *hdma, uint32_t Address, HAL_DMA_MemoryT
 252:Drivers/STM32F7xx_HAL_Driver/Src/stm32f7xx_hal_dma_ex.c **** {
 3103              		.loc 1 252 0
 3104              		.cfi_startproc
 3105              		@ args = 0, pretend = 0, frame = 16
 3106              		@ frame_needed = 1, uses_anonymous_args = 0
 3107              		@ link register save eliminated.
 3108 0000 80B4     		push	{r7}
 3109              	.LCFI10:
 3110              		.cfi_def_cfa_offset 4
 3111              		.cfi_offset 7, -4
 3112 0002 85B0     		sub	sp, sp, #20
 3113              	.LCFI11:
 3114              		.cfi_def_cfa_offset 24
 3115 0004 00AF     		add	r7, sp, #0
 3116              	.LCFI12:
ARM GAS  /tmp/cc8NeEne.s 			page 60


 3117              		.cfi_def_cfa_register 7
 3118 0006 F860     		str	r0, [r7, #12]
 3119 0008 B960     		str	r1, [r7, #8]
 3120 000a 1346     		mov	r3, r2
 3121 000c FB71     		strb	r3, [r7, #7]
 253:Drivers/STM32F7xx_HAL_Driver/Src/stm32f7xx_hal_dma_ex.c ****   if(memory == MEMORY0)
 3122              		.loc 1 253 0
 3123 000e FB79     		ldrb	r3, [r7, #7]	@ zero_extendqisi2
 3124 0010 002B     		cmp	r3, #0
 3125 0012 04D1     		bne	.L540
 254:Drivers/STM32F7xx_HAL_Driver/Src/stm32f7xx_hal_dma_ex.c ****   {
 255:Drivers/STM32F7xx_HAL_Driver/Src/stm32f7xx_hal_dma_ex.c ****     /* change the memory0 address */
 256:Drivers/STM32F7xx_HAL_Driver/Src/stm32f7xx_hal_dma_ex.c ****     hdma->Instance->M0AR = Address;
 3126              		.loc 1 256 0
 3127 0014 FB68     		ldr	r3, [r7, #12]
 3128 0016 1B68     		ldr	r3, [r3]
 3129 0018 BA68     		ldr	r2, [r7, #8]
 3130 001a DA60     		str	r2, [r3, #12]
 3131 001c 03E0     		b	.L541
 3132              	.L540:
 257:Drivers/STM32F7xx_HAL_Driver/Src/stm32f7xx_hal_dma_ex.c ****   }
 258:Drivers/STM32F7xx_HAL_Driver/Src/stm32f7xx_hal_dma_ex.c ****   else
 259:Drivers/STM32F7xx_HAL_Driver/Src/stm32f7xx_hal_dma_ex.c ****   {
 260:Drivers/STM32F7xx_HAL_Driver/Src/stm32f7xx_hal_dma_ex.c ****     /* change the memory1 address */
 261:Drivers/STM32F7xx_HAL_Driver/Src/stm32f7xx_hal_dma_ex.c ****     hdma->Instance->M1AR = Address;
 3133              		.loc 1 261 0
 3134 001e FB68     		ldr	r3, [r7, #12]
 3135 0020 1B68     		ldr	r3, [r3]
 3136 0022 BA68     		ldr	r2, [r7, #8]
 3137 0024 1A61     		str	r2, [r3, #16]
 3138              	.L541:
 262:Drivers/STM32F7xx_HAL_Driver/Src/stm32f7xx_hal_dma_ex.c ****   }
 263:Drivers/STM32F7xx_HAL_Driver/Src/stm32f7xx_hal_dma_ex.c ****   
 264:Drivers/STM32F7xx_HAL_Driver/Src/stm32f7xx_hal_dma_ex.c ****   return HAL_OK;
 3139              		.loc 1 264 0
 3140 0026 0023     		movs	r3, #0
 265:Drivers/STM32F7xx_HAL_Driver/Src/stm32f7xx_hal_dma_ex.c **** }
 3141              		.loc 1 265 0
 3142 0028 1846     		mov	r0, r3
 3143 002a 1437     		adds	r7, r7, #20
 3144              	.LCFI13:
 3145              		.cfi_def_cfa_offset 4
 3146 002c BD46     		mov	sp, r7
 3147              	.LCFI14:
 3148              		.cfi_def_cfa_register 13
 3149              		@ sp needed
 3150 002e 5DF8047B 		ldr	r7, [sp], #4
 3151              	.LCFI15:
 3152              		.cfi_restore 7
 3153              		.cfi_def_cfa_offset 0
 3154 0032 7047     		bx	lr
 3155              		.cfi_endproc
 3156              	.LFE140:
 3158              		.section	.text.DMA_MultiBufferSetConfig,"ax",%progbits
 3159              		.align	1
 3160              		.syntax unified
 3161              		.thumb
ARM GAS  /tmp/cc8NeEne.s 			page 61


 3162              		.thumb_func
 3163              		.fpu fpv4-sp-d16
 3165              	DMA_MultiBufferSetConfig:
 3166              	.LFB141:
 266:Drivers/STM32F7xx_HAL_Driver/Src/stm32f7xx_hal_dma_ex.c **** 
 267:Drivers/STM32F7xx_HAL_Driver/Src/stm32f7xx_hal_dma_ex.c **** /**
 268:Drivers/STM32F7xx_HAL_Driver/Src/stm32f7xx_hal_dma_ex.c ****   * @}
 269:Drivers/STM32F7xx_HAL_Driver/Src/stm32f7xx_hal_dma_ex.c ****   */
 270:Drivers/STM32F7xx_HAL_Driver/Src/stm32f7xx_hal_dma_ex.c **** 
 271:Drivers/STM32F7xx_HAL_Driver/Src/stm32f7xx_hal_dma_ex.c **** /**
 272:Drivers/STM32F7xx_HAL_Driver/Src/stm32f7xx_hal_dma_ex.c ****   * @}
 273:Drivers/STM32F7xx_HAL_Driver/Src/stm32f7xx_hal_dma_ex.c ****   */
 274:Drivers/STM32F7xx_HAL_Driver/Src/stm32f7xx_hal_dma_ex.c **** 
 275:Drivers/STM32F7xx_HAL_Driver/Src/stm32f7xx_hal_dma_ex.c **** /** @addtogroup DMAEx_Private_Functions
 276:Drivers/STM32F7xx_HAL_Driver/Src/stm32f7xx_hal_dma_ex.c ****   * @{
 277:Drivers/STM32F7xx_HAL_Driver/Src/stm32f7xx_hal_dma_ex.c ****   */
 278:Drivers/STM32F7xx_HAL_Driver/Src/stm32f7xx_hal_dma_ex.c **** 
 279:Drivers/STM32F7xx_HAL_Driver/Src/stm32f7xx_hal_dma_ex.c **** /**
 280:Drivers/STM32F7xx_HAL_Driver/Src/stm32f7xx_hal_dma_ex.c ****   * @brief  Set the DMA Transfer parameter.
 281:Drivers/STM32F7xx_HAL_Driver/Src/stm32f7xx_hal_dma_ex.c ****   * @param  hdma       pointer to a DMA_HandleTypeDef structure that contains
 282:Drivers/STM32F7xx_HAL_Driver/Src/stm32f7xx_hal_dma_ex.c ****   *                     the configuration information for the specified DMA Stream.  
 283:Drivers/STM32F7xx_HAL_Driver/Src/stm32f7xx_hal_dma_ex.c ****   * @param  SrcAddress The source memory Buffer address
 284:Drivers/STM32F7xx_HAL_Driver/Src/stm32f7xx_hal_dma_ex.c ****   * @param  DstAddress The destination memory Buffer address
 285:Drivers/STM32F7xx_HAL_Driver/Src/stm32f7xx_hal_dma_ex.c ****   * @param  DataLength The length of data to be transferred from source to destination
 286:Drivers/STM32F7xx_HAL_Driver/Src/stm32f7xx_hal_dma_ex.c ****   * @retval HAL status
 287:Drivers/STM32F7xx_HAL_Driver/Src/stm32f7xx_hal_dma_ex.c ****   */
 288:Drivers/STM32F7xx_HAL_Driver/Src/stm32f7xx_hal_dma_ex.c **** static void DMA_MultiBufferSetConfig(DMA_HandleTypeDef *hdma, uint32_t SrcAddress, uint32_t DstAddr
 289:Drivers/STM32F7xx_HAL_Driver/Src/stm32f7xx_hal_dma_ex.c **** {
 3167              		.loc 1 289 0
 3168              		.cfi_startproc
 3169              		@ args = 0, pretend = 0, frame = 16
 3170              		@ frame_needed = 1, uses_anonymous_args = 0
 3171              		@ link register save eliminated.
 3172 0000 80B4     		push	{r7}
 3173              	.LCFI16:
 3174              		.cfi_def_cfa_offset 4
 3175              		.cfi_offset 7, -4
 3176 0002 85B0     		sub	sp, sp, #20
 3177              	.LCFI17:
 3178              		.cfi_def_cfa_offset 24
 3179 0004 00AF     		add	r7, sp, #0
 3180              	.LCFI18:
 3181              		.cfi_def_cfa_register 7
 3182 0006 F860     		str	r0, [r7, #12]
 3183 0008 B960     		str	r1, [r7, #8]
 3184 000a 7A60     		str	r2, [r7, #4]
 3185 000c 3B60     		str	r3, [r7]
 290:Drivers/STM32F7xx_HAL_Driver/Src/stm32f7xx_hal_dma_ex.c ****   /* Configure DMA Stream data length */
 291:Drivers/STM32F7xx_HAL_Driver/Src/stm32f7xx_hal_dma_ex.c ****   hdma->Instance->NDTR = DataLength;
 3186              		.loc 1 291 0
 3187 000e FB68     		ldr	r3, [r7, #12]
 3188 0010 1B68     		ldr	r3, [r3]
 3189 0012 3A68     		ldr	r2, [r7]
 3190 0014 5A60     		str	r2, [r3, #4]
 292:Drivers/STM32F7xx_HAL_Driver/Src/stm32f7xx_hal_dma_ex.c ****   
 293:Drivers/STM32F7xx_HAL_Driver/Src/stm32f7xx_hal_dma_ex.c ****   /* Peripheral to Memory */
 294:Drivers/STM32F7xx_HAL_Driver/Src/stm32f7xx_hal_dma_ex.c ****   if((hdma->Init.Direction) == DMA_MEMORY_TO_PERIPH)
ARM GAS  /tmp/cc8NeEne.s 			page 62


 3191              		.loc 1 294 0
 3192 0016 FB68     		ldr	r3, [r7, #12]
 3193 0018 9B68     		ldr	r3, [r3, #8]
 3194 001a 402B     		cmp	r3, #64
 3195 001c 08D1     		bne	.L544
 295:Drivers/STM32F7xx_HAL_Driver/Src/stm32f7xx_hal_dma_ex.c ****   {
 296:Drivers/STM32F7xx_HAL_Driver/Src/stm32f7xx_hal_dma_ex.c ****     /* Configure DMA Stream destination address */
 297:Drivers/STM32F7xx_HAL_Driver/Src/stm32f7xx_hal_dma_ex.c ****     hdma->Instance->PAR = DstAddress;
 3196              		.loc 1 297 0
 3197 001e FB68     		ldr	r3, [r7, #12]
 3198 0020 1B68     		ldr	r3, [r3]
 3199 0022 7A68     		ldr	r2, [r7, #4]
 3200 0024 9A60     		str	r2, [r3, #8]
 298:Drivers/STM32F7xx_HAL_Driver/Src/stm32f7xx_hal_dma_ex.c ****     
 299:Drivers/STM32F7xx_HAL_Driver/Src/stm32f7xx_hal_dma_ex.c ****     /* Configure DMA Stream source address */
 300:Drivers/STM32F7xx_HAL_Driver/Src/stm32f7xx_hal_dma_ex.c ****     hdma->Instance->M0AR = SrcAddress;
 3201              		.loc 1 300 0
 3202 0026 FB68     		ldr	r3, [r7, #12]
 3203 0028 1B68     		ldr	r3, [r3]
 3204 002a BA68     		ldr	r2, [r7, #8]
 3205 002c DA60     		str	r2, [r3, #12]
 301:Drivers/STM32F7xx_HAL_Driver/Src/stm32f7xx_hal_dma_ex.c ****   }
 302:Drivers/STM32F7xx_HAL_Driver/Src/stm32f7xx_hal_dma_ex.c ****   /* Memory to Peripheral */
 303:Drivers/STM32F7xx_HAL_Driver/Src/stm32f7xx_hal_dma_ex.c ****   else
 304:Drivers/STM32F7xx_HAL_Driver/Src/stm32f7xx_hal_dma_ex.c ****   {
 305:Drivers/STM32F7xx_HAL_Driver/Src/stm32f7xx_hal_dma_ex.c ****     /* Configure DMA Stream source address */
 306:Drivers/STM32F7xx_HAL_Driver/Src/stm32f7xx_hal_dma_ex.c ****     hdma->Instance->PAR = SrcAddress;
 307:Drivers/STM32F7xx_HAL_Driver/Src/stm32f7xx_hal_dma_ex.c ****     
 308:Drivers/STM32F7xx_HAL_Driver/Src/stm32f7xx_hal_dma_ex.c ****     /* Configure DMA Stream destination address */
 309:Drivers/STM32F7xx_HAL_Driver/Src/stm32f7xx_hal_dma_ex.c ****     hdma->Instance->M0AR = DstAddress;
 310:Drivers/STM32F7xx_HAL_Driver/Src/stm32f7xx_hal_dma_ex.c ****   }
 311:Drivers/STM32F7xx_HAL_Driver/Src/stm32f7xx_hal_dma_ex.c **** }
 3206              		.loc 1 311 0
 3207 002e 07E0     		b	.L546
 3208              	.L544:
 306:Drivers/STM32F7xx_HAL_Driver/Src/stm32f7xx_hal_dma_ex.c ****     
 3209              		.loc 1 306 0
 3210 0030 FB68     		ldr	r3, [r7, #12]
 3211 0032 1B68     		ldr	r3, [r3]
 3212 0034 BA68     		ldr	r2, [r7, #8]
 3213 0036 9A60     		str	r2, [r3, #8]
 309:Drivers/STM32F7xx_HAL_Driver/Src/stm32f7xx_hal_dma_ex.c ****   }
 3214              		.loc 1 309 0
 3215 0038 FB68     		ldr	r3, [r7, #12]
 3216 003a 1B68     		ldr	r3, [r3]
 3217 003c 7A68     		ldr	r2, [r7, #4]
 3218 003e DA60     		str	r2, [r3, #12]
 3219              	.L546:
 3220              		.loc 1 311 0
 3221 0040 00BF     		nop
 3222 0042 1437     		adds	r7, r7, #20
 3223              	.LCFI19:
 3224              		.cfi_def_cfa_offset 4
 3225 0044 BD46     		mov	sp, r7
 3226              	.LCFI20:
 3227              		.cfi_def_cfa_register 13
 3228              		@ sp needed
ARM GAS  /tmp/cc8NeEne.s 			page 63


 3229 0046 5DF8047B 		ldr	r7, [sp], #4
 3230              	.LCFI21:
 3231              		.cfi_restore 7
 3232              		.cfi_def_cfa_offset 0
 3233 004a 7047     		bx	lr
 3234              		.cfi_endproc
 3235              	.LFE141:
 3237              		.text
 3238              	.Letext0:
 3239              		.file 2 "/usr/include/newlib/machine/_default_types.h"
 3240              		.file 3 "/usr/include/newlib/sys/lock.h"
 3241              		.file 4 "/usr/include/newlib/sys/_types.h"
 3242              		.file 5 "/usr/lib/gcc/arm-none-eabi/7.3.1/include/stddef.h"
 3243              		.file 6 "/usr/include/newlib/sys/reent.h"
 3244              		.file 7 "/usr/include/newlib/sys/_stdint.h"
 3245              		.file 8 "Inc/main.h"
 3246              		.file 9 "Drivers/CMSIS/Include/core_cm7.h"
 3247              		.file 10 "Drivers/CMSIS/Device/ST/STM32F7xx/Include/system_stm32f7xx.h"
 3248              		.file 11 "Drivers/CMSIS/Device/ST/STM32F7xx/Include/stm32f746xx.h"
 3249              		.file 12 "Drivers/STM32F7xx_HAL_Driver/Inc/stm32f7xx_hal_def.h"
 3250              		.file 13 "Drivers/STM32F7xx_HAL_Driver/Inc/stm32f7xx_hal_dma.h"
 3251              		.file 14 "Drivers/STM32F7xx_HAL_Driver/Inc/stm32f7xx_hal_dma_ex.h"
ARM GAS  /tmp/cc8NeEne.s 			page 64

