ARM GAS  /tmp/ccOWtDgG.s 			page 1


   1              		.cpu cortex-m7
   2              		.eabi_attribute 27, 1
   3              		.eabi_attribute 28, 1
   4              		.eabi_attribute 20, 1
   5              		.eabi_attribute 21, 1
   6              		.eabi_attribute 23, 3
   7              		.eabi_attribute 24, 1
   8              		.eabi_attribute 25, 1
   9              		.eabi_attribute 26, 1
  10              		.eabi_attribute 30, 6
  11              		.eabi_attribute 34, 1
  12              		.eabi_attribute 18, 4
  13              		.file	"stm32f7xx_hal_flash_ex.c"
  14              		.text
  15              	.Ltext0:
  16              		.cfi_sections	.debug_frame
  17              		.comm	SpiTxData,4,4
  18              		.comm	SpiRxData,4,4
  19              		.comm	UpdateFile,4,4
  20              		.section	.text.HAL_FLASHEx_Erase,"ax",%progbits
  21              		.align	1
  22              		.global	HAL_FLASHEx_Erase
  23              		.syntax unified
  24              		.thumb
  25              		.thumb_func
  26              		.fpu fpv4-sp-d16
  28              	HAL_FLASHEx_Erase:
  29              	.LFB138:
  30              		.file 1 "Drivers/STM32F7xx_HAL_Driver/Src/stm32f7xx_hal_flash_ex.c"
   1:Drivers/STM32F7xx_HAL_Driver/Src/stm32f7xx_hal_flash_ex.c **** /**
   2:Drivers/STM32F7xx_HAL_Driver/Src/stm32f7xx_hal_flash_ex.c ****   ******************************************************************************
   3:Drivers/STM32F7xx_HAL_Driver/Src/stm32f7xx_hal_flash_ex.c ****   * @file    stm32f7xx_hal_flash_ex.c
   4:Drivers/STM32F7xx_HAL_Driver/Src/stm32f7xx_hal_flash_ex.c ****   * @author  MCD Application Team
   5:Drivers/STM32F7xx_HAL_Driver/Src/stm32f7xx_hal_flash_ex.c ****   * @brief   Extended FLASH HAL module driver.
   6:Drivers/STM32F7xx_HAL_Driver/Src/stm32f7xx_hal_flash_ex.c ****   *          This file provides firmware functions to manage the following 
   7:Drivers/STM32F7xx_HAL_Driver/Src/stm32f7xx_hal_flash_ex.c ****   *          functionalities of the FLASH extension peripheral:
   8:Drivers/STM32F7xx_HAL_Driver/Src/stm32f7xx_hal_flash_ex.c ****   *           + Extended programming operations functions
   9:Drivers/STM32F7xx_HAL_Driver/Src/stm32f7xx_hal_flash_ex.c ****   *  
  10:Drivers/STM32F7xx_HAL_Driver/Src/stm32f7xx_hal_flash_ex.c ****   @verbatim
  11:Drivers/STM32F7xx_HAL_Driver/Src/stm32f7xx_hal_flash_ex.c ****   ==============================================================================
  12:Drivers/STM32F7xx_HAL_Driver/Src/stm32f7xx_hal_flash_ex.c ****                    ##### Flash Extension features #####
  13:Drivers/STM32F7xx_HAL_Driver/Src/stm32f7xx_hal_flash_ex.c ****   ==============================================================================
  14:Drivers/STM32F7xx_HAL_Driver/Src/stm32f7xx_hal_flash_ex.c ****            
  15:Drivers/STM32F7xx_HAL_Driver/Src/stm32f7xx_hal_flash_ex.c ****   [..] Comparing to other previous devices, the FLASH interface for STM32F76xx/STM32F77xx 
  16:Drivers/STM32F7xx_HAL_Driver/Src/stm32f7xx_hal_flash_ex.c ****        devices contains the following additional features 
  17:Drivers/STM32F7xx_HAL_Driver/Src/stm32f7xx_hal_flash_ex.c ****        
  18:Drivers/STM32F7xx_HAL_Driver/Src/stm32f7xx_hal_flash_ex.c ****        (+) Capacity up to 2 Mbyte with dual bank architecture supporting read-while-write
  19:Drivers/STM32F7xx_HAL_Driver/Src/stm32f7xx_hal_flash_ex.c ****            capability (RWW)
  20:Drivers/STM32F7xx_HAL_Driver/Src/stm32f7xx_hal_flash_ex.c ****        (+) Dual bank memory organization       
  21:Drivers/STM32F7xx_HAL_Driver/Src/stm32f7xx_hal_flash_ex.c ****        (+) Dual boot mode
  22:Drivers/STM32F7xx_HAL_Driver/Src/stm32f7xx_hal_flash_ex.c ****    
  23:Drivers/STM32F7xx_HAL_Driver/Src/stm32f7xx_hal_flash_ex.c ****                       ##### How to use this driver #####
  24:Drivers/STM32F7xx_HAL_Driver/Src/stm32f7xx_hal_flash_ex.c ****   ==============================================================================
  25:Drivers/STM32F7xx_HAL_Driver/Src/stm32f7xx_hal_flash_ex.c ****   [..] This driver provides functions to configure and program the FLASH memory 
  26:Drivers/STM32F7xx_HAL_Driver/Src/stm32f7xx_hal_flash_ex.c ****        of all STM32F7xx devices. It includes
  27:Drivers/STM32F7xx_HAL_Driver/Src/stm32f7xx_hal_flash_ex.c ****       (#) FLASH Memory Erase functions: 
  28:Drivers/STM32F7xx_HAL_Driver/Src/stm32f7xx_hal_flash_ex.c ****            (++) Lock and Unlock the FLASH interface using HAL_FLASH_Unlock() and 
ARM GAS  /tmp/ccOWtDgG.s 			page 2


  29:Drivers/STM32F7xx_HAL_Driver/Src/stm32f7xx_hal_flash_ex.c ****                 HAL_FLASH_Lock() functions
  30:Drivers/STM32F7xx_HAL_Driver/Src/stm32f7xx_hal_flash_ex.c ****            (++) Erase function: Erase sector, erase all sectors
  31:Drivers/STM32F7xx_HAL_Driver/Src/stm32f7xx_hal_flash_ex.c ****            (++) There are two modes of erase :
  32:Drivers/STM32F7xx_HAL_Driver/Src/stm32f7xx_hal_flash_ex.c ****              (+++) Polling Mode using HAL_FLASHEx_Erase()
  33:Drivers/STM32F7xx_HAL_Driver/Src/stm32f7xx_hal_flash_ex.c ****              (+++) Interrupt Mode using HAL_FLASHEx_Erase_IT()
  34:Drivers/STM32F7xx_HAL_Driver/Src/stm32f7xx_hal_flash_ex.c ****              
  35:Drivers/STM32F7xx_HAL_Driver/Src/stm32f7xx_hal_flash_ex.c ****       (#) Option Bytes Programming functions: Use HAL_FLASHEx_OBProgram() to :
  36:Drivers/STM32F7xx_HAL_Driver/Src/stm32f7xx_hal_flash_ex.c ****            (++) Set/Reset the write protection
  37:Drivers/STM32F7xx_HAL_Driver/Src/stm32f7xx_hal_flash_ex.c ****            (++) Set the Read protection Level
  38:Drivers/STM32F7xx_HAL_Driver/Src/stm32f7xx_hal_flash_ex.c ****            (++) Set the BOR level
  39:Drivers/STM32F7xx_HAL_Driver/Src/stm32f7xx_hal_flash_ex.c ****            (++) Program the user Option Bytes
  40:Drivers/STM32F7xx_HAL_Driver/Src/stm32f7xx_hal_flash_ex.c ****   
  41:Drivers/STM32F7xx_HAL_Driver/Src/stm32f7xx_hal_flash_ex.c ****   @endverbatim
  42:Drivers/STM32F7xx_HAL_Driver/Src/stm32f7xx_hal_flash_ex.c ****   ******************************************************************************
  43:Drivers/STM32F7xx_HAL_Driver/Src/stm32f7xx_hal_flash_ex.c ****   * @attention
  44:Drivers/STM32F7xx_HAL_Driver/Src/stm32f7xx_hal_flash_ex.c ****   *
  45:Drivers/STM32F7xx_HAL_Driver/Src/stm32f7xx_hal_flash_ex.c ****   * <h2><center>&copy; COPYRIGHT(c) 2017 STMicroelectronics</center></h2>
  46:Drivers/STM32F7xx_HAL_Driver/Src/stm32f7xx_hal_flash_ex.c ****   *
  47:Drivers/STM32F7xx_HAL_Driver/Src/stm32f7xx_hal_flash_ex.c ****   * Redistribution and use in source and binary forms, with or without modification,
  48:Drivers/STM32F7xx_HAL_Driver/Src/stm32f7xx_hal_flash_ex.c ****   * are permitted provided that the following conditions are met:
  49:Drivers/STM32F7xx_HAL_Driver/Src/stm32f7xx_hal_flash_ex.c ****   *   1. Redistributions of source code must retain the above copyright notice,
  50:Drivers/STM32F7xx_HAL_Driver/Src/stm32f7xx_hal_flash_ex.c ****   *      this list of conditions and the following disclaimer.
  51:Drivers/STM32F7xx_HAL_Driver/Src/stm32f7xx_hal_flash_ex.c ****   *   2. Redistributions in binary form must reproduce the above copyright notice,
  52:Drivers/STM32F7xx_HAL_Driver/Src/stm32f7xx_hal_flash_ex.c ****   *      this list of conditions and the following disclaimer in the documentation
  53:Drivers/STM32F7xx_HAL_Driver/Src/stm32f7xx_hal_flash_ex.c ****   *      and/or other materials provided with the distribution.
  54:Drivers/STM32F7xx_HAL_Driver/Src/stm32f7xx_hal_flash_ex.c ****   *   3. Neither the name of STMicroelectronics nor the names of its contributors
  55:Drivers/STM32F7xx_HAL_Driver/Src/stm32f7xx_hal_flash_ex.c ****   *      may be used to endorse or promote products derived from this software
  56:Drivers/STM32F7xx_HAL_Driver/Src/stm32f7xx_hal_flash_ex.c ****   *      without specific prior written permission.
  57:Drivers/STM32F7xx_HAL_Driver/Src/stm32f7xx_hal_flash_ex.c ****   *
  58:Drivers/STM32F7xx_HAL_Driver/Src/stm32f7xx_hal_flash_ex.c ****   * THIS SOFTWARE IS PROVIDED BY THE COPYRIGHT HOLDERS AND CONTRIBUTORS "AS IS"
  59:Drivers/STM32F7xx_HAL_Driver/Src/stm32f7xx_hal_flash_ex.c ****   * AND ANY EXPRESS OR IMPLIED WARRANTIES, INCLUDING, BUT NOT LIMITED TO, THE
  60:Drivers/STM32F7xx_HAL_Driver/Src/stm32f7xx_hal_flash_ex.c ****   * IMPLIED WARRANTIES OF MERCHANTABILITY AND FITNESS FOR A PARTICULAR PURPOSE ARE
  61:Drivers/STM32F7xx_HAL_Driver/Src/stm32f7xx_hal_flash_ex.c ****   * DISCLAIMED. IN NO EVENT SHALL THE COPYRIGHT HOLDER OR CONTRIBUTORS BE LIABLE
  62:Drivers/STM32F7xx_HAL_Driver/Src/stm32f7xx_hal_flash_ex.c ****   * FOR ANY DIRECT, INDIRECT, INCIDENTAL, SPECIAL, EXEMPLARY, OR CONSEQUENTIAL
  63:Drivers/STM32F7xx_HAL_Driver/Src/stm32f7xx_hal_flash_ex.c ****   * DAMAGES (INCLUDING, BUT NOT LIMITED TO, PROCUREMENT OF SUBSTITUTE GOODS OR
  64:Drivers/STM32F7xx_HAL_Driver/Src/stm32f7xx_hal_flash_ex.c ****   * SERVICES; LOSS OF USE, DATA, OR PROFITS; OR BUSINESS INTERRUPTION) HOWEVER
  65:Drivers/STM32F7xx_HAL_Driver/Src/stm32f7xx_hal_flash_ex.c ****   * CAUSED AND ON ANY THEORY OF LIABILITY, WHETHER IN CONTRACT, STRICT LIABILITY,
  66:Drivers/STM32F7xx_HAL_Driver/Src/stm32f7xx_hal_flash_ex.c ****   * OR TORT (INCLUDING NEGLIGENCE OR OTHERWISE) ARISING IN ANY WAY OUT OF THE USE
  67:Drivers/STM32F7xx_HAL_Driver/Src/stm32f7xx_hal_flash_ex.c ****   * OF THIS SOFTWARE, EVEN IF ADVISED OF THE POSSIBILITY OF SUCH DAMAGE.
  68:Drivers/STM32F7xx_HAL_Driver/Src/stm32f7xx_hal_flash_ex.c ****   *
  69:Drivers/STM32F7xx_HAL_Driver/Src/stm32f7xx_hal_flash_ex.c ****   ******************************************************************************
  70:Drivers/STM32F7xx_HAL_Driver/Src/stm32f7xx_hal_flash_ex.c ****   */ 
  71:Drivers/STM32F7xx_HAL_Driver/Src/stm32f7xx_hal_flash_ex.c **** 
  72:Drivers/STM32F7xx_HAL_Driver/Src/stm32f7xx_hal_flash_ex.c **** /* Includes ------------------------------------------------------------------*/
  73:Drivers/STM32F7xx_HAL_Driver/Src/stm32f7xx_hal_flash_ex.c **** #include "stm32f7xx_hal.h"
  74:Drivers/STM32F7xx_HAL_Driver/Src/stm32f7xx_hal_flash_ex.c **** 
  75:Drivers/STM32F7xx_HAL_Driver/Src/stm32f7xx_hal_flash_ex.c **** /** @addtogroup STM32F7xx_HAL_Driver
  76:Drivers/STM32F7xx_HAL_Driver/Src/stm32f7xx_hal_flash_ex.c ****   * @{
  77:Drivers/STM32F7xx_HAL_Driver/Src/stm32f7xx_hal_flash_ex.c ****   */
  78:Drivers/STM32F7xx_HAL_Driver/Src/stm32f7xx_hal_flash_ex.c **** 
  79:Drivers/STM32F7xx_HAL_Driver/Src/stm32f7xx_hal_flash_ex.c **** /** @defgroup FLASHEx FLASHEx
  80:Drivers/STM32F7xx_HAL_Driver/Src/stm32f7xx_hal_flash_ex.c ****   * @brief FLASH HAL Extension module driver
  81:Drivers/STM32F7xx_HAL_Driver/Src/stm32f7xx_hal_flash_ex.c ****   * @{
  82:Drivers/STM32F7xx_HAL_Driver/Src/stm32f7xx_hal_flash_ex.c ****   */
  83:Drivers/STM32F7xx_HAL_Driver/Src/stm32f7xx_hal_flash_ex.c **** 
  84:Drivers/STM32F7xx_HAL_Driver/Src/stm32f7xx_hal_flash_ex.c **** #ifdef HAL_FLASH_MODULE_ENABLED
  85:Drivers/STM32F7xx_HAL_Driver/Src/stm32f7xx_hal_flash_ex.c **** 
ARM GAS  /tmp/ccOWtDgG.s 			page 3


  86:Drivers/STM32F7xx_HAL_Driver/Src/stm32f7xx_hal_flash_ex.c **** /* Private typedef -----------------------------------------------------------*/
  87:Drivers/STM32F7xx_HAL_Driver/Src/stm32f7xx_hal_flash_ex.c **** /* Private define ------------------------------------------------------------*/
  88:Drivers/STM32F7xx_HAL_Driver/Src/stm32f7xx_hal_flash_ex.c **** /** @addtogroup FLASHEx_Private_Constants
  89:Drivers/STM32F7xx_HAL_Driver/Src/stm32f7xx_hal_flash_ex.c ****   * @{
  90:Drivers/STM32F7xx_HAL_Driver/Src/stm32f7xx_hal_flash_ex.c ****   */    
  91:Drivers/STM32F7xx_HAL_Driver/Src/stm32f7xx_hal_flash_ex.c **** #define SECTOR_MASK               0xFFFFFF07U
  92:Drivers/STM32F7xx_HAL_Driver/Src/stm32f7xx_hal_flash_ex.c **** #define FLASH_TIMEOUT_VALUE       50000U/* 50 s */
  93:Drivers/STM32F7xx_HAL_Driver/Src/stm32f7xx_hal_flash_ex.c **** /**
  94:Drivers/STM32F7xx_HAL_Driver/Src/stm32f7xx_hal_flash_ex.c ****   * @}
  95:Drivers/STM32F7xx_HAL_Driver/Src/stm32f7xx_hal_flash_ex.c ****   */
  96:Drivers/STM32F7xx_HAL_Driver/Src/stm32f7xx_hal_flash_ex.c ****     
  97:Drivers/STM32F7xx_HAL_Driver/Src/stm32f7xx_hal_flash_ex.c **** /* Private macro -------------------------------------------------------------*/
  98:Drivers/STM32F7xx_HAL_Driver/Src/stm32f7xx_hal_flash_ex.c **** /* Private variables ---------------------------------------------------------*/
  99:Drivers/STM32F7xx_HAL_Driver/Src/stm32f7xx_hal_flash_ex.c **** /** @addtogroup FLASHEx_Private_Variables
 100:Drivers/STM32F7xx_HAL_Driver/Src/stm32f7xx_hal_flash_ex.c ****   * @{
 101:Drivers/STM32F7xx_HAL_Driver/Src/stm32f7xx_hal_flash_ex.c ****   */    
 102:Drivers/STM32F7xx_HAL_Driver/Src/stm32f7xx_hal_flash_ex.c **** extern FLASH_ProcessTypeDef pFlash;
 103:Drivers/STM32F7xx_HAL_Driver/Src/stm32f7xx_hal_flash_ex.c **** /**
 104:Drivers/STM32F7xx_HAL_Driver/Src/stm32f7xx_hal_flash_ex.c ****   * @}
 105:Drivers/STM32F7xx_HAL_Driver/Src/stm32f7xx_hal_flash_ex.c ****   */
 106:Drivers/STM32F7xx_HAL_Driver/Src/stm32f7xx_hal_flash_ex.c **** 
 107:Drivers/STM32F7xx_HAL_Driver/Src/stm32f7xx_hal_flash_ex.c **** /* Private function prototypes -----------------------------------------------*/
 108:Drivers/STM32F7xx_HAL_Driver/Src/stm32f7xx_hal_flash_ex.c **** /** @addtogroup FLASHEx_Private_Functions
 109:Drivers/STM32F7xx_HAL_Driver/Src/stm32f7xx_hal_flash_ex.c ****   * @{
 110:Drivers/STM32F7xx_HAL_Driver/Src/stm32f7xx_hal_flash_ex.c ****   */
 111:Drivers/STM32F7xx_HAL_Driver/Src/stm32f7xx_hal_flash_ex.c **** /* Option bytes control */
 112:Drivers/STM32F7xx_HAL_Driver/Src/stm32f7xx_hal_flash_ex.c **** static HAL_StatusTypeDef  FLASH_OB_EnableWRP(uint32_t WRPSector);
 113:Drivers/STM32F7xx_HAL_Driver/Src/stm32f7xx_hal_flash_ex.c **** static HAL_StatusTypeDef  FLASH_OB_DisableWRP(uint32_t WRPSector);
 114:Drivers/STM32F7xx_HAL_Driver/Src/stm32f7xx_hal_flash_ex.c **** static HAL_StatusTypeDef  FLASH_OB_RDP_LevelConfig(uint8_t Level);
 115:Drivers/STM32F7xx_HAL_Driver/Src/stm32f7xx_hal_flash_ex.c **** static HAL_StatusTypeDef  FLASH_OB_BOR_LevelConfig(uint8_t Level);
 116:Drivers/STM32F7xx_HAL_Driver/Src/stm32f7xx_hal_flash_ex.c **** static HAL_StatusTypeDef  FLASH_OB_BootAddressConfig(uint32_t BootOption, uint32_t Address);
 117:Drivers/STM32F7xx_HAL_Driver/Src/stm32f7xx_hal_flash_ex.c **** static uint32_t           FLASH_OB_GetUser(void);
 118:Drivers/STM32F7xx_HAL_Driver/Src/stm32f7xx_hal_flash_ex.c **** static uint32_t           FLASH_OB_GetWRP(void);
 119:Drivers/STM32F7xx_HAL_Driver/Src/stm32f7xx_hal_flash_ex.c **** static uint8_t            FLASH_OB_GetRDP(void);
 120:Drivers/STM32F7xx_HAL_Driver/Src/stm32f7xx_hal_flash_ex.c **** static uint32_t           FLASH_OB_GetBOR(void);
 121:Drivers/STM32F7xx_HAL_Driver/Src/stm32f7xx_hal_flash_ex.c **** static uint32_t           FLASH_OB_GetBootAddress(uint32_t BootOption);
 122:Drivers/STM32F7xx_HAL_Driver/Src/stm32f7xx_hal_flash_ex.c **** 
 123:Drivers/STM32F7xx_HAL_Driver/Src/stm32f7xx_hal_flash_ex.c **** #if defined (FLASH_OPTCR_nDBANK)
 124:Drivers/STM32F7xx_HAL_Driver/Src/stm32f7xx_hal_flash_ex.c **** static void               FLASH_MassErase(uint8_t VoltageRange, uint32_t Banks);
 125:Drivers/STM32F7xx_HAL_Driver/Src/stm32f7xx_hal_flash_ex.c **** static HAL_StatusTypeDef  FLASH_OB_UserConfig(uint32_t Wwdg, uint32_t Iwdg, uint32_t Stop, uint32_t
 126:Drivers/STM32F7xx_HAL_Driver/Src/stm32f7xx_hal_flash_ex.c ****                                               uint32_t Iwdgstdby, uint32_t NDBank, uint32_t NDBoot)
 127:Drivers/STM32F7xx_HAL_Driver/Src/stm32f7xx_hal_flash_ex.c **** #else
 128:Drivers/STM32F7xx_HAL_Driver/Src/stm32f7xx_hal_flash_ex.c **** static void               FLASH_MassErase(uint8_t VoltageRange);
 129:Drivers/STM32F7xx_HAL_Driver/Src/stm32f7xx_hal_flash_ex.c **** static HAL_StatusTypeDef  FLASH_OB_UserConfig(uint32_t Wwdg, uint32_t Iwdg, uint32_t Stop, uint32_t
 130:Drivers/STM32F7xx_HAL_Driver/Src/stm32f7xx_hal_flash_ex.c **** #endif /* FLASH_OPTCR_nDBANK */
 131:Drivers/STM32F7xx_HAL_Driver/Src/stm32f7xx_hal_flash_ex.c **** 
 132:Drivers/STM32F7xx_HAL_Driver/Src/stm32f7xx_hal_flash_ex.c **** #if defined (FLASH_OPTCR2_PCROP)
 133:Drivers/STM32F7xx_HAL_Driver/Src/stm32f7xx_hal_flash_ex.c **** static HAL_StatusTypeDef  FLASH_OB_PCROP_Config(uint32_t PCROPSector);
 134:Drivers/STM32F7xx_HAL_Driver/Src/stm32f7xx_hal_flash_ex.c **** static HAL_StatusTypeDef  FLASH_OB_PCROP_RDP_Config(uint32_t Pcrop_Rdp);
 135:Drivers/STM32F7xx_HAL_Driver/Src/stm32f7xx_hal_flash_ex.c **** static uint32_t           FLASH_OB_GetPCROP(void);
 136:Drivers/STM32F7xx_HAL_Driver/Src/stm32f7xx_hal_flash_ex.c **** static uint32_t           FLASH_OB_GetPCROPRDP(void);
 137:Drivers/STM32F7xx_HAL_Driver/Src/stm32f7xx_hal_flash_ex.c **** #endif /* FLASH_OPTCR2_PCROP */
 138:Drivers/STM32F7xx_HAL_Driver/Src/stm32f7xx_hal_flash_ex.c **** 
 139:Drivers/STM32F7xx_HAL_Driver/Src/stm32f7xx_hal_flash_ex.c **** extern HAL_StatusTypeDef  FLASH_WaitForLastOperation(uint32_t Timeout);
 140:Drivers/STM32F7xx_HAL_Driver/Src/stm32f7xx_hal_flash_ex.c **** /**
 141:Drivers/STM32F7xx_HAL_Driver/Src/stm32f7xx_hal_flash_ex.c ****   * @}
 142:Drivers/STM32F7xx_HAL_Driver/Src/stm32f7xx_hal_flash_ex.c ****   */
ARM GAS  /tmp/ccOWtDgG.s 			page 4


 143:Drivers/STM32F7xx_HAL_Driver/Src/stm32f7xx_hal_flash_ex.c **** 
 144:Drivers/STM32F7xx_HAL_Driver/Src/stm32f7xx_hal_flash_ex.c **** /* Exported functions --------------------------------------------------------*/
 145:Drivers/STM32F7xx_HAL_Driver/Src/stm32f7xx_hal_flash_ex.c **** /** @defgroup FLASHEx_Exported_Functions FLASHEx Exported Functions
 146:Drivers/STM32F7xx_HAL_Driver/Src/stm32f7xx_hal_flash_ex.c ****   * @{
 147:Drivers/STM32F7xx_HAL_Driver/Src/stm32f7xx_hal_flash_ex.c ****   */
 148:Drivers/STM32F7xx_HAL_Driver/Src/stm32f7xx_hal_flash_ex.c **** 
 149:Drivers/STM32F7xx_HAL_Driver/Src/stm32f7xx_hal_flash_ex.c **** /** @defgroup FLASHEx_Exported_Functions_Group1 Extended IO operation functions
 150:Drivers/STM32F7xx_HAL_Driver/Src/stm32f7xx_hal_flash_ex.c ****  *  @brief   Extended IO operation functions 
 151:Drivers/STM32F7xx_HAL_Driver/Src/stm32f7xx_hal_flash_ex.c ****  *
 152:Drivers/STM32F7xx_HAL_Driver/Src/stm32f7xx_hal_flash_ex.c **** @verbatim   
 153:Drivers/STM32F7xx_HAL_Driver/Src/stm32f7xx_hal_flash_ex.c ****  ===============================================================================
 154:Drivers/STM32F7xx_HAL_Driver/Src/stm32f7xx_hal_flash_ex.c ****                 ##### Extended programming operation functions #####
 155:Drivers/STM32F7xx_HAL_Driver/Src/stm32f7xx_hal_flash_ex.c ****  ===============================================================================  
 156:Drivers/STM32F7xx_HAL_Driver/Src/stm32f7xx_hal_flash_ex.c ****     [..]
 157:Drivers/STM32F7xx_HAL_Driver/Src/stm32f7xx_hal_flash_ex.c ****     This subsection provides a set of functions allowing to manage the Extension FLASH 
 158:Drivers/STM32F7xx_HAL_Driver/Src/stm32f7xx_hal_flash_ex.c ****     programming operations Operations.
 159:Drivers/STM32F7xx_HAL_Driver/Src/stm32f7xx_hal_flash_ex.c **** 
 160:Drivers/STM32F7xx_HAL_Driver/Src/stm32f7xx_hal_flash_ex.c **** @endverbatim
 161:Drivers/STM32F7xx_HAL_Driver/Src/stm32f7xx_hal_flash_ex.c ****   * @{
 162:Drivers/STM32F7xx_HAL_Driver/Src/stm32f7xx_hal_flash_ex.c ****   */
 163:Drivers/STM32F7xx_HAL_Driver/Src/stm32f7xx_hal_flash_ex.c **** /**
 164:Drivers/STM32F7xx_HAL_Driver/Src/stm32f7xx_hal_flash_ex.c ****   * @brief  Perform a mass erase or erase the specified FLASH memory sectors 
 165:Drivers/STM32F7xx_HAL_Driver/Src/stm32f7xx_hal_flash_ex.c ****   * @param[in]  pEraseInit pointer to an FLASH_EraseInitTypeDef structure that
 166:Drivers/STM32F7xx_HAL_Driver/Src/stm32f7xx_hal_flash_ex.c ****   *         contains the configuration information for the erasing.
 167:Drivers/STM32F7xx_HAL_Driver/Src/stm32f7xx_hal_flash_ex.c ****   * 
 168:Drivers/STM32F7xx_HAL_Driver/Src/stm32f7xx_hal_flash_ex.c ****   * @param[out]  SectorError pointer to variable  that
 169:Drivers/STM32F7xx_HAL_Driver/Src/stm32f7xx_hal_flash_ex.c ****   *         contains the configuration information on faulty sector in case of error 
 170:Drivers/STM32F7xx_HAL_Driver/Src/stm32f7xx_hal_flash_ex.c ****   *         (0xFFFFFFFF means that all the sectors have been correctly erased)
 171:Drivers/STM32F7xx_HAL_Driver/Src/stm32f7xx_hal_flash_ex.c ****   * 
 172:Drivers/STM32F7xx_HAL_Driver/Src/stm32f7xx_hal_flash_ex.c ****   * @retval HAL Status
 173:Drivers/STM32F7xx_HAL_Driver/Src/stm32f7xx_hal_flash_ex.c ****   */
 174:Drivers/STM32F7xx_HAL_Driver/Src/stm32f7xx_hal_flash_ex.c **** HAL_StatusTypeDef HAL_FLASHEx_Erase(FLASH_EraseInitTypeDef *pEraseInit, uint32_t *SectorError)
 175:Drivers/STM32F7xx_HAL_Driver/Src/stm32f7xx_hal_flash_ex.c **** {
  31              		.loc 1 175 0
  32              		.cfi_startproc
  33              		@ args = 0, pretend = 0, frame = 16
  34              		@ frame_needed = 1, uses_anonymous_args = 0
  35 0000 80B5     		push	{r7, lr}
  36              	.LCFI0:
  37              		.cfi_def_cfa_offset 8
  38              		.cfi_offset 7, -8
  39              		.cfi_offset 14, -4
  40 0002 84B0     		sub	sp, sp, #16
  41              	.LCFI1:
  42              		.cfi_def_cfa_offset 24
  43 0004 00AF     		add	r7, sp, #0
  44              	.LCFI2:
  45              		.cfi_def_cfa_register 7
  46 0006 7860     		str	r0, [r7, #4]
  47 0008 3960     		str	r1, [r7]
 176:Drivers/STM32F7xx_HAL_Driver/Src/stm32f7xx_hal_flash_ex.c ****   HAL_StatusTypeDef status = HAL_ERROR;
  48              		.loc 1 176 0
  49 000a 0123     		movs	r3, #1
  50 000c FB73     		strb	r3, [r7, #15]
 177:Drivers/STM32F7xx_HAL_Driver/Src/stm32f7xx_hal_flash_ex.c ****   uint32_t index = 0;
  51              		.loc 1 177 0
  52 000e 0023     		movs	r3, #0
ARM GAS  /tmp/ccOWtDgG.s 			page 5


  53 0010 BB60     		str	r3, [r7, #8]
 178:Drivers/STM32F7xx_HAL_Driver/Src/stm32f7xx_hal_flash_ex.c ****   
 179:Drivers/STM32F7xx_HAL_Driver/Src/stm32f7xx_hal_flash_ex.c ****   /* Process Locked */
 180:Drivers/STM32F7xx_HAL_Driver/Src/stm32f7xx_hal_flash_ex.c ****   __HAL_LOCK(&pFlash);
  54              		.loc 1 180 0
  55 0012 2F4B     		ldr	r3, .L9
  56 0014 1B7D     		ldrb	r3, [r3, #20]	@ zero_extendqisi2
  57 0016 012B     		cmp	r3, #1
  58 0018 01D1     		bne	.L2
  59              		.loc 1 180 0 is_stmt 0 discriminator 1
  60 001a 0223     		movs	r3, #2
  61 001c 53E0     		b	.L3
  62              	.L2:
  63              		.loc 1 180 0 discriminator 2
  64 001e 2C4B     		ldr	r3, .L9
  65 0020 0122     		movs	r2, #1
  66 0022 1A75     		strb	r2, [r3, #20]
 181:Drivers/STM32F7xx_HAL_Driver/Src/stm32f7xx_hal_flash_ex.c **** 
 182:Drivers/STM32F7xx_HAL_Driver/Src/stm32f7xx_hal_flash_ex.c ****   /* Check the parameters */
 183:Drivers/STM32F7xx_HAL_Driver/Src/stm32f7xx_hal_flash_ex.c ****   assert_param(IS_FLASH_TYPEERASE(pEraseInit->TypeErase));
 184:Drivers/STM32F7xx_HAL_Driver/Src/stm32f7xx_hal_flash_ex.c **** 
 185:Drivers/STM32F7xx_HAL_Driver/Src/stm32f7xx_hal_flash_ex.c ****   /* Wait for last operation to be completed */
 186:Drivers/STM32F7xx_HAL_Driver/Src/stm32f7xx_hal_flash_ex.c ****   status = FLASH_WaitForLastOperation((uint32_t)FLASH_TIMEOUT_VALUE);
  67              		.loc 1 186 0 is_stmt 1 discriminator 2
  68 0024 4CF25030 		movw	r0, #50000
  69 0028 FFF7FEFF 		bl	FLASH_WaitForLastOperation
  70 002c 0346     		mov	r3, r0
  71 002e FB73     		strb	r3, [r7, #15]
 187:Drivers/STM32F7xx_HAL_Driver/Src/stm32f7xx_hal_flash_ex.c **** 
 188:Drivers/STM32F7xx_HAL_Driver/Src/stm32f7xx_hal_flash_ex.c ****   if(status == HAL_OK)
  72              		.loc 1 188 0 discriminator 2
  73 0030 FB7B     		ldrb	r3, [r7, #15]	@ zero_extendqisi2
  74 0032 002B     		cmp	r3, #0
  75 0034 43D1     		bne	.L4
 189:Drivers/STM32F7xx_HAL_Driver/Src/stm32f7xx_hal_flash_ex.c ****   {
 190:Drivers/STM32F7xx_HAL_Driver/Src/stm32f7xx_hal_flash_ex.c ****     /*Initialization of SectorError variable*/
 191:Drivers/STM32F7xx_HAL_Driver/Src/stm32f7xx_hal_flash_ex.c ****     *SectorError = 0xFFFFFFFFU;
  76              		.loc 1 191 0
  77 0036 3B68     		ldr	r3, [r7]
  78 0038 4FF0FF32 		mov	r2, #-1
  79 003c 1A60     		str	r2, [r3]
 192:Drivers/STM32F7xx_HAL_Driver/Src/stm32f7xx_hal_flash_ex.c ****     
 193:Drivers/STM32F7xx_HAL_Driver/Src/stm32f7xx_hal_flash_ex.c ****     if(pEraseInit->TypeErase == FLASH_TYPEERASE_MASSERASE)
  80              		.loc 1 193 0
  81 003e 7B68     		ldr	r3, [r7, #4]
  82 0040 1B68     		ldr	r3, [r3]
  83 0042 012B     		cmp	r3, #1
  84 0044 12D1     		bne	.L5
 194:Drivers/STM32F7xx_HAL_Driver/Src/stm32f7xx_hal_flash_ex.c ****     {
 195:Drivers/STM32F7xx_HAL_Driver/Src/stm32f7xx_hal_flash_ex.c ****       /*Mass erase to be done*/
 196:Drivers/STM32F7xx_HAL_Driver/Src/stm32f7xx_hal_flash_ex.c **** #if defined (FLASH_OPTCR_nDBANK)      
 197:Drivers/STM32F7xx_HAL_Driver/Src/stm32f7xx_hal_flash_ex.c ****       FLASH_MassErase((uint8_t) pEraseInit->VoltageRange, pEraseInit->Banks);
 198:Drivers/STM32F7xx_HAL_Driver/Src/stm32f7xx_hal_flash_ex.c **** #else
 199:Drivers/STM32F7xx_HAL_Driver/Src/stm32f7xx_hal_flash_ex.c ****       FLASH_MassErase((uint8_t) pEraseInit->VoltageRange);      
  85              		.loc 1 199 0
  86 0046 7B68     		ldr	r3, [r7, #4]
  87 0048 DB68     		ldr	r3, [r3, #12]
ARM GAS  /tmp/ccOWtDgG.s 			page 6


  88 004a DBB2     		uxtb	r3, r3
  89 004c 1846     		mov	r0, r3
  90 004e FFF7FEFF 		bl	FLASH_MassErase
 200:Drivers/STM32F7xx_HAL_Driver/Src/stm32f7xx_hal_flash_ex.c **** #endif /* FLASH_OPTCR_nDBANK */
 201:Drivers/STM32F7xx_HAL_Driver/Src/stm32f7xx_hal_flash_ex.c ****                       
 202:Drivers/STM32F7xx_HAL_Driver/Src/stm32f7xx_hal_flash_ex.c ****       /* Wait for last operation to be completed */
 203:Drivers/STM32F7xx_HAL_Driver/Src/stm32f7xx_hal_flash_ex.c ****       status = FLASH_WaitForLastOperation((uint32_t)FLASH_TIMEOUT_VALUE);
  91              		.loc 1 203 0
  92 0052 4CF25030 		movw	r0, #50000
  93 0056 FFF7FEFF 		bl	FLASH_WaitForLastOperation
  94 005a 0346     		mov	r3, r0
  95 005c FB73     		strb	r3, [r7, #15]
 204:Drivers/STM32F7xx_HAL_Driver/Src/stm32f7xx_hal_flash_ex.c ****       
 205:Drivers/STM32F7xx_HAL_Driver/Src/stm32f7xx_hal_flash_ex.c ****       /* if the erase operation is completed, disable the MER Bit */
 206:Drivers/STM32F7xx_HAL_Driver/Src/stm32f7xx_hal_flash_ex.c ****       FLASH->CR &= (~FLASH_MER_BIT);
  96              		.loc 1 206 0
  97 005e 1D4B     		ldr	r3, .L9+4
  98 0060 1B69     		ldr	r3, [r3, #16]
  99 0062 1C4A     		ldr	r2, .L9+4
 100 0064 23F00403 		bic	r3, r3, #4
 101 0068 1361     		str	r3, [r2, #16]
 102 006a 28E0     		b	.L4
 103              	.L5:
 207:Drivers/STM32F7xx_HAL_Driver/Src/stm32f7xx_hal_flash_ex.c ****     }
 208:Drivers/STM32F7xx_HAL_Driver/Src/stm32f7xx_hal_flash_ex.c ****     else
 209:Drivers/STM32F7xx_HAL_Driver/Src/stm32f7xx_hal_flash_ex.c ****     {
 210:Drivers/STM32F7xx_HAL_Driver/Src/stm32f7xx_hal_flash_ex.c ****       /* Check the parameters */
 211:Drivers/STM32F7xx_HAL_Driver/Src/stm32f7xx_hal_flash_ex.c ****       assert_param(IS_FLASH_NBSECTORS(pEraseInit->NbSectors + pEraseInit->Sector));
 212:Drivers/STM32F7xx_HAL_Driver/Src/stm32f7xx_hal_flash_ex.c **** 
 213:Drivers/STM32F7xx_HAL_Driver/Src/stm32f7xx_hal_flash_ex.c ****       /* Erase by sector by sector to be done*/
 214:Drivers/STM32F7xx_HAL_Driver/Src/stm32f7xx_hal_flash_ex.c ****       for(index = pEraseInit->Sector; index < (pEraseInit->NbSectors + pEraseInit->Sector); index++
 104              		.loc 1 214 0
 105 006c 7B68     		ldr	r3, [r7, #4]
 106 006e 5B68     		ldr	r3, [r3, #4]
 107 0070 BB60     		str	r3, [r7, #8]
 108 0072 1CE0     		b	.L6
 109              	.L8:
 215:Drivers/STM32F7xx_HAL_Driver/Src/stm32f7xx_hal_flash_ex.c ****       {
 216:Drivers/STM32F7xx_HAL_Driver/Src/stm32f7xx_hal_flash_ex.c ****         FLASH_Erase_Sector(index, (uint8_t) pEraseInit->VoltageRange);
 110              		.loc 1 216 0
 111 0074 7B68     		ldr	r3, [r7, #4]
 112 0076 DB68     		ldr	r3, [r3, #12]
 113 0078 DBB2     		uxtb	r3, r3
 114 007a 1946     		mov	r1, r3
 115 007c B868     		ldr	r0, [r7, #8]
 116 007e FFF7FEFF 		bl	FLASH_Erase_Sector
 217:Drivers/STM32F7xx_HAL_Driver/Src/stm32f7xx_hal_flash_ex.c **** 
 218:Drivers/STM32F7xx_HAL_Driver/Src/stm32f7xx_hal_flash_ex.c ****         /* Wait for last operation to be completed */
 219:Drivers/STM32F7xx_HAL_Driver/Src/stm32f7xx_hal_flash_ex.c ****         status = FLASH_WaitForLastOperation((uint32_t)FLASH_TIMEOUT_VALUE);
 117              		.loc 1 219 0
 118 0082 4CF25030 		movw	r0, #50000
 119 0086 FFF7FEFF 		bl	FLASH_WaitForLastOperation
 120 008a 0346     		mov	r3, r0
 121 008c FB73     		strb	r3, [r7, #15]
 220:Drivers/STM32F7xx_HAL_Driver/Src/stm32f7xx_hal_flash_ex.c ****         
 221:Drivers/STM32F7xx_HAL_Driver/Src/stm32f7xx_hal_flash_ex.c ****         /* If the erase operation is completed, disable the SER Bit and SNB Bits */
 222:Drivers/STM32F7xx_HAL_Driver/Src/stm32f7xx_hal_flash_ex.c ****         CLEAR_BIT(FLASH->CR, (FLASH_CR_SER | FLASH_CR_SNB)); 
ARM GAS  /tmp/ccOWtDgG.s 			page 7


 122              		.loc 1 222 0
 123 008e 114B     		ldr	r3, .L9+4
 124 0090 1B69     		ldr	r3, [r3, #16]
 125 0092 104A     		ldr	r2, .L9+4
 126 0094 23F07A03 		bic	r3, r3, #122
 127 0098 1361     		str	r3, [r2, #16]
 223:Drivers/STM32F7xx_HAL_Driver/Src/stm32f7xx_hal_flash_ex.c **** 
 224:Drivers/STM32F7xx_HAL_Driver/Src/stm32f7xx_hal_flash_ex.c ****         if(status != HAL_OK) 
 128              		.loc 1 224 0
 129 009a FB7B     		ldrb	r3, [r7, #15]	@ zero_extendqisi2
 130 009c 002B     		cmp	r3, #0
 131 009e 03D0     		beq	.L7
 225:Drivers/STM32F7xx_HAL_Driver/Src/stm32f7xx_hal_flash_ex.c ****         {
 226:Drivers/STM32F7xx_HAL_Driver/Src/stm32f7xx_hal_flash_ex.c ****           /* In case of error, stop erase procedure and return the faulty sector*/
 227:Drivers/STM32F7xx_HAL_Driver/Src/stm32f7xx_hal_flash_ex.c ****           *SectorError = index;
 132              		.loc 1 227 0
 133 00a0 3B68     		ldr	r3, [r7]
 134 00a2 BA68     		ldr	r2, [r7, #8]
 135 00a4 1A60     		str	r2, [r3]
 228:Drivers/STM32F7xx_HAL_Driver/Src/stm32f7xx_hal_flash_ex.c ****           break;
 136              		.loc 1 228 0
 137 00a6 0AE0     		b	.L4
 138              	.L7:
 214:Drivers/STM32F7xx_HAL_Driver/Src/stm32f7xx_hal_flash_ex.c ****       {
 139              		.loc 1 214 0 discriminator 2
 140 00a8 BB68     		ldr	r3, [r7, #8]
 141 00aa 0133     		adds	r3, r3, #1
 142 00ac BB60     		str	r3, [r7, #8]
 143              	.L6:
 214:Drivers/STM32F7xx_HAL_Driver/Src/stm32f7xx_hal_flash_ex.c ****       {
 144              		.loc 1 214 0 is_stmt 0 discriminator 1
 145 00ae 7B68     		ldr	r3, [r7, #4]
 146 00b0 9A68     		ldr	r2, [r3, #8]
 147 00b2 7B68     		ldr	r3, [r7, #4]
 148 00b4 5B68     		ldr	r3, [r3, #4]
 149 00b6 1344     		add	r3, r3, r2
 150 00b8 BA68     		ldr	r2, [r7, #8]
 151 00ba 9A42     		cmp	r2, r3
 152 00bc DAD3     		bcc	.L8
 153              	.L4:
 229:Drivers/STM32F7xx_HAL_Driver/Src/stm32f7xx_hal_flash_ex.c ****         }
 230:Drivers/STM32F7xx_HAL_Driver/Src/stm32f7xx_hal_flash_ex.c ****       }
 231:Drivers/STM32F7xx_HAL_Driver/Src/stm32f7xx_hal_flash_ex.c ****     }
 232:Drivers/STM32F7xx_HAL_Driver/Src/stm32f7xx_hal_flash_ex.c ****   }
 233:Drivers/STM32F7xx_HAL_Driver/Src/stm32f7xx_hal_flash_ex.c **** 
 234:Drivers/STM32F7xx_HAL_Driver/Src/stm32f7xx_hal_flash_ex.c ****   /* Process Unlocked */
 235:Drivers/STM32F7xx_HAL_Driver/Src/stm32f7xx_hal_flash_ex.c ****   __HAL_UNLOCK(&pFlash);
 154              		.loc 1 235 0 is_stmt 1
 155 00be 044B     		ldr	r3, .L9
 156 00c0 0022     		movs	r2, #0
 157 00c2 1A75     		strb	r2, [r3, #20]
 236:Drivers/STM32F7xx_HAL_Driver/Src/stm32f7xx_hal_flash_ex.c **** 
 237:Drivers/STM32F7xx_HAL_Driver/Src/stm32f7xx_hal_flash_ex.c ****   return status;
 158              		.loc 1 237 0
 159 00c4 FB7B     		ldrb	r3, [r7, #15]	@ zero_extendqisi2
 160              	.L3:
 238:Drivers/STM32F7xx_HAL_Driver/Src/stm32f7xx_hal_flash_ex.c **** }
ARM GAS  /tmp/ccOWtDgG.s 			page 8


 161              		.loc 1 238 0
 162 00c6 1846     		mov	r0, r3
 163 00c8 1037     		adds	r7, r7, #16
 164              	.LCFI3:
 165              		.cfi_def_cfa_offset 8
 166 00ca BD46     		mov	sp, r7
 167              	.LCFI4:
 168              		.cfi_def_cfa_register 13
 169              		@ sp needed
 170 00cc 80BD     		pop	{r7, pc}
 171              	.L10:
 172 00ce 00BF     		.align	2
 173              	.L9:
 174 00d0 00000000 		.word	pFlash
 175 00d4 003C0240 		.word	1073888256
 176              		.cfi_endproc
 177              	.LFE138:
 179              		.section	.text.HAL_FLASHEx_Erase_IT,"ax",%progbits
 180              		.align	1
 181              		.global	HAL_FLASHEx_Erase_IT
 182              		.syntax unified
 183              		.thumb
 184              		.thumb_func
 185              		.fpu fpv4-sp-d16
 187              	HAL_FLASHEx_Erase_IT:
 188              	.LFB139:
 239:Drivers/STM32F7xx_HAL_Driver/Src/stm32f7xx_hal_flash_ex.c **** 
 240:Drivers/STM32F7xx_HAL_Driver/Src/stm32f7xx_hal_flash_ex.c **** /**
 241:Drivers/STM32F7xx_HAL_Driver/Src/stm32f7xx_hal_flash_ex.c ****   * @brief  Perform a mass erase or erase the specified FLASH memory sectors  with interrupt enable
 242:Drivers/STM32F7xx_HAL_Driver/Src/stm32f7xx_hal_flash_ex.c ****   * @param  pEraseInit pointer to an FLASH_EraseInitTypeDef structure that
 243:Drivers/STM32F7xx_HAL_Driver/Src/stm32f7xx_hal_flash_ex.c ****   *         contains the configuration information for the erasing.
 244:Drivers/STM32F7xx_HAL_Driver/Src/stm32f7xx_hal_flash_ex.c ****   * 
 245:Drivers/STM32F7xx_HAL_Driver/Src/stm32f7xx_hal_flash_ex.c ****   * @retval HAL Status
 246:Drivers/STM32F7xx_HAL_Driver/Src/stm32f7xx_hal_flash_ex.c ****   */
 247:Drivers/STM32F7xx_HAL_Driver/Src/stm32f7xx_hal_flash_ex.c **** HAL_StatusTypeDef HAL_FLASHEx_Erase_IT(FLASH_EraseInitTypeDef *pEraseInit)
 248:Drivers/STM32F7xx_HAL_Driver/Src/stm32f7xx_hal_flash_ex.c **** {
 189              		.loc 1 248 0
 190              		.cfi_startproc
 191              		@ args = 0, pretend = 0, frame = 16
 192              		@ frame_needed = 1, uses_anonymous_args = 0
 193 0000 80B5     		push	{r7, lr}
 194              	.LCFI5:
 195              		.cfi_def_cfa_offset 8
 196              		.cfi_offset 7, -8
 197              		.cfi_offset 14, -4
 198 0002 84B0     		sub	sp, sp, #16
 199              	.LCFI6:
 200              		.cfi_def_cfa_offset 24
 201 0004 00AF     		add	r7, sp, #0
 202              	.LCFI7:
 203              		.cfi_def_cfa_register 7
 204 0006 7860     		str	r0, [r7, #4]
 249:Drivers/STM32F7xx_HAL_Driver/Src/stm32f7xx_hal_flash_ex.c ****   HAL_StatusTypeDef status = HAL_OK;
 205              		.loc 1 249 0
 206 0008 0023     		movs	r3, #0
 207 000a FB73     		strb	r3, [r7, #15]
 250:Drivers/STM32F7xx_HAL_Driver/Src/stm32f7xx_hal_flash_ex.c **** 
ARM GAS  /tmp/ccOWtDgG.s 			page 9


 251:Drivers/STM32F7xx_HAL_Driver/Src/stm32f7xx_hal_flash_ex.c ****   /* Process Locked */
 252:Drivers/STM32F7xx_HAL_Driver/Src/stm32f7xx_hal_flash_ex.c ****   __HAL_LOCK(&pFlash);
 208              		.loc 1 252 0
 209 000c 214B     		ldr	r3, .L16
 210 000e 1B7D     		ldrb	r3, [r3, #20]	@ zero_extendqisi2
 211 0010 012B     		cmp	r3, #1
 212 0012 01D1     		bne	.L12
 213              		.loc 1 252 0 is_stmt 0 discriminator 1
 214 0014 0223     		movs	r3, #2
 215 0016 39E0     		b	.L13
 216              	.L12:
 217              		.loc 1 252 0 discriminator 2
 218 0018 1E4B     		ldr	r3, .L16
 219 001a 0122     		movs	r2, #1
 220 001c 1A75     		strb	r2, [r3, #20]
 253:Drivers/STM32F7xx_HAL_Driver/Src/stm32f7xx_hal_flash_ex.c **** 
 254:Drivers/STM32F7xx_HAL_Driver/Src/stm32f7xx_hal_flash_ex.c ****   /* Check the parameters */
 255:Drivers/STM32F7xx_HAL_Driver/Src/stm32f7xx_hal_flash_ex.c ****   assert_param(IS_FLASH_TYPEERASE(pEraseInit->TypeErase));
 256:Drivers/STM32F7xx_HAL_Driver/Src/stm32f7xx_hal_flash_ex.c **** 
 257:Drivers/STM32F7xx_HAL_Driver/Src/stm32f7xx_hal_flash_ex.c ****   /* Enable End of FLASH Operation interrupt */
 258:Drivers/STM32F7xx_HAL_Driver/Src/stm32f7xx_hal_flash_ex.c ****   __HAL_FLASH_ENABLE_IT(FLASH_IT_EOP);
 221              		.loc 1 258 0 is_stmt 1 discriminator 2
 222 001e 1E4B     		ldr	r3, .L16+4
 223 0020 1B69     		ldr	r3, [r3, #16]
 224 0022 1D4A     		ldr	r2, .L16+4
 225 0024 43F08073 		orr	r3, r3, #16777216
 226 0028 1361     		str	r3, [r2, #16]
 259:Drivers/STM32F7xx_HAL_Driver/Src/stm32f7xx_hal_flash_ex.c ****   
 260:Drivers/STM32F7xx_HAL_Driver/Src/stm32f7xx_hal_flash_ex.c ****   /* Enable Error source interrupt */
 261:Drivers/STM32F7xx_HAL_Driver/Src/stm32f7xx_hal_flash_ex.c ****   __HAL_FLASH_ENABLE_IT(FLASH_IT_ERR);
 227              		.loc 1 261 0 discriminator 2
 228 002a 1B4B     		ldr	r3, .L16+4
 229 002c 1B69     		ldr	r3, [r3, #16]
 230 002e 1A4A     		ldr	r2, .L16+4
 231 0030 43F00073 		orr	r3, r3, #33554432
 232 0034 1361     		str	r3, [r2, #16]
 262:Drivers/STM32F7xx_HAL_Driver/Src/stm32f7xx_hal_flash_ex.c ****   
 263:Drivers/STM32F7xx_HAL_Driver/Src/stm32f7xx_hal_flash_ex.c ****   /* Clear pending flags (if any) */  
 264:Drivers/STM32F7xx_HAL_Driver/Src/stm32f7xx_hal_flash_ex.c ****   __HAL_FLASH_CLEAR_FLAG(FLASH_FLAG_EOP    | FLASH_FLAG_OPERR | FLASH_FLAG_WRPERR |\
 233              		.loc 1 264 0 discriminator 2
 234 0036 184B     		ldr	r3, .L16+4
 235 0038 F322     		movs	r2, #243
 236 003a DA60     		str	r2, [r3, #12]
 265:Drivers/STM32F7xx_HAL_Driver/Src/stm32f7xx_hal_flash_ex.c ****                          FLASH_FLAG_PGAERR | FLASH_FLAG_PGPERR| FLASH_FLAG_ERSERR);  
 266:Drivers/STM32F7xx_HAL_Driver/Src/stm32f7xx_hal_flash_ex.c ****   
 267:Drivers/STM32F7xx_HAL_Driver/Src/stm32f7xx_hal_flash_ex.c ****   if(pEraseInit->TypeErase == FLASH_TYPEERASE_MASSERASE)
 237              		.loc 1 267 0 discriminator 2
 238 003c 7B68     		ldr	r3, [r7, #4]
 239 003e 1B68     		ldr	r3, [r3]
 240 0040 012B     		cmp	r3, #1
 241 0042 09D1     		bne	.L14
 268:Drivers/STM32F7xx_HAL_Driver/Src/stm32f7xx_hal_flash_ex.c ****   {
 269:Drivers/STM32F7xx_HAL_Driver/Src/stm32f7xx_hal_flash_ex.c ****     /*Mass erase to be done*/
 270:Drivers/STM32F7xx_HAL_Driver/Src/stm32f7xx_hal_flash_ex.c ****     pFlash.ProcedureOnGoing = FLASH_PROC_MASSERASE;
 242              		.loc 1 270 0
 243 0044 134B     		ldr	r3, .L16
 244 0046 0222     		movs	r2, #2
ARM GAS  /tmp/ccOWtDgG.s 			page 10


 245 0048 1A70     		strb	r2, [r3]
 271:Drivers/STM32F7xx_HAL_Driver/Src/stm32f7xx_hal_flash_ex.c **** #if defined (FLASH_OPTCR_nDBANK)    
 272:Drivers/STM32F7xx_HAL_Driver/Src/stm32f7xx_hal_flash_ex.c ****     FLASH_MassErase((uint8_t) pEraseInit->VoltageRange, pEraseInit->Banks);
 273:Drivers/STM32F7xx_HAL_Driver/Src/stm32f7xx_hal_flash_ex.c **** #else
 274:Drivers/STM32F7xx_HAL_Driver/Src/stm32f7xx_hal_flash_ex.c ****     FLASH_MassErase((uint8_t) pEraseInit->VoltageRange);      
 246              		.loc 1 274 0
 247 004a 7B68     		ldr	r3, [r7, #4]
 248 004c DB68     		ldr	r3, [r3, #12]
 249 004e DBB2     		uxtb	r3, r3
 250 0050 1846     		mov	r0, r3
 251 0052 FFF7FEFF 		bl	FLASH_MassErase
 252 0056 18E0     		b	.L15
 253              	.L14:
 275:Drivers/STM32F7xx_HAL_Driver/Src/stm32f7xx_hal_flash_ex.c **** #endif /* FLASH_OPTCR_nDBANK */    
 276:Drivers/STM32F7xx_HAL_Driver/Src/stm32f7xx_hal_flash_ex.c ****   }
 277:Drivers/STM32F7xx_HAL_Driver/Src/stm32f7xx_hal_flash_ex.c ****   else
 278:Drivers/STM32F7xx_HAL_Driver/Src/stm32f7xx_hal_flash_ex.c ****   {
 279:Drivers/STM32F7xx_HAL_Driver/Src/stm32f7xx_hal_flash_ex.c ****     /* Erase by sector to be done*/
 280:Drivers/STM32F7xx_HAL_Driver/Src/stm32f7xx_hal_flash_ex.c **** 
 281:Drivers/STM32F7xx_HAL_Driver/Src/stm32f7xx_hal_flash_ex.c ****     /* Check the parameters */
 282:Drivers/STM32F7xx_HAL_Driver/Src/stm32f7xx_hal_flash_ex.c ****     assert_param(IS_FLASH_NBSECTORS(pEraseInit->NbSectors + pEraseInit->Sector));
 283:Drivers/STM32F7xx_HAL_Driver/Src/stm32f7xx_hal_flash_ex.c **** 
 284:Drivers/STM32F7xx_HAL_Driver/Src/stm32f7xx_hal_flash_ex.c ****     pFlash.ProcedureOnGoing = FLASH_PROC_SECTERASE;
 254              		.loc 1 284 0
 255 0058 0E4B     		ldr	r3, .L16
 256 005a 0122     		movs	r2, #1
 257 005c 1A70     		strb	r2, [r3]
 285:Drivers/STM32F7xx_HAL_Driver/Src/stm32f7xx_hal_flash_ex.c ****     pFlash.NbSectorsToErase = pEraseInit->NbSectors;
 258              		.loc 1 285 0
 259 005e 7B68     		ldr	r3, [r7, #4]
 260 0060 9B68     		ldr	r3, [r3, #8]
 261 0062 0C4A     		ldr	r2, .L16
 262 0064 5360     		str	r3, [r2, #4]
 286:Drivers/STM32F7xx_HAL_Driver/Src/stm32f7xx_hal_flash_ex.c ****     pFlash.Sector = pEraseInit->Sector;
 263              		.loc 1 286 0
 264 0066 7B68     		ldr	r3, [r7, #4]
 265 0068 5B68     		ldr	r3, [r3, #4]
 266 006a 0A4A     		ldr	r2, .L16
 267 006c D360     		str	r3, [r2, #12]
 287:Drivers/STM32F7xx_HAL_Driver/Src/stm32f7xx_hal_flash_ex.c ****     pFlash.VoltageForErase = (uint8_t)pEraseInit->VoltageRange;
 268              		.loc 1 287 0
 269 006e 7B68     		ldr	r3, [r7, #4]
 270 0070 DB68     		ldr	r3, [r3, #12]
 271 0072 DAB2     		uxtb	r2, r3
 272 0074 074B     		ldr	r3, .L16
 273 0076 1A72     		strb	r2, [r3, #8]
 288:Drivers/STM32F7xx_HAL_Driver/Src/stm32f7xx_hal_flash_ex.c **** 
 289:Drivers/STM32F7xx_HAL_Driver/Src/stm32f7xx_hal_flash_ex.c ****     /*Erase 1st sector and wait for IT*/
 290:Drivers/STM32F7xx_HAL_Driver/Src/stm32f7xx_hal_flash_ex.c ****     FLASH_Erase_Sector(pEraseInit->Sector, pEraseInit->VoltageRange);
 274              		.loc 1 290 0
 275 0078 7B68     		ldr	r3, [r7, #4]
 276 007a 5A68     		ldr	r2, [r3, #4]
 277 007c 7B68     		ldr	r3, [r7, #4]
 278 007e DB68     		ldr	r3, [r3, #12]
 279 0080 DBB2     		uxtb	r3, r3
 280 0082 1946     		mov	r1, r3
 281 0084 1046     		mov	r0, r2
ARM GAS  /tmp/ccOWtDgG.s 			page 11


 282 0086 FFF7FEFF 		bl	FLASH_Erase_Sector
 283              	.L15:
 291:Drivers/STM32F7xx_HAL_Driver/Src/stm32f7xx_hal_flash_ex.c ****   }
 292:Drivers/STM32F7xx_HAL_Driver/Src/stm32f7xx_hal_flash_ex.c **** 
 293:Drivers/STM32F7xx_HAL_Driver/Src/stm32f7xx_hal_flash_ex.c ****   return status;
 284              		.loc 1 293 0
 285 008a FB7B     		ldrb	r3, [r7, #15]	@ zero_extendqisi2
 286              	.L13:
 294:Drivers/STM32F7xx_HAL_Driver/Src/stm32f7xx_hal_flash_ex.c **** }
 287              		.loc 1 294 0
 288 008c 1846     		mov	r0, r3
 289 008e 1037     		adds	r7, r7, #16
 290              	.LCFI8:
 291              		.cfi_def_cfa_offset 8
 292 0090 BD46     		mov	sp, r7
 293              	.LCFI9:
 294              		.cfi_def_cfa_register 13
 295              		@ sp needed
 296 0092 80BD     		pop	{r7, pc}
 297              	.L17:
 298              		.align	2
 299              	.L16:
 300 0094 00000000 		.word	pFlash
 301 0098 003C0240 		.word	1073888256
 302              		.cfi_endproc
 303              	.LFE139:
 305              		.section	.text.HAL_FLASHEx_OBProgram,"ax",%progbits
 306              		.align	1
 307              		.global	HAL_FLASHEx_OBProgram
 308              		.syntax unified
 309              		.thumb
 310              		.thumb_func
 311              		.fpu fpv4-sp-d16
 313              	HAL_FLASHEx_OBProgram:
 314              	.LFB140:
 295:Drivers/STM32F7xx_HAL_Driver/Src/stm32f7xx_hal_flash_ex.c **** 
 296:Drivers/STM32F7xx_HAL_Driver/Src/stm32f7xx_hal_flash_ex.c **** /**
 297:Drivers/STM32F7xx_HAL_Driver/Src/stm32f7xx_hal_flash_ex.c ****   * @brief  Program option bytes
 298:Drivers/STM32F7xx_HAL_Driver/Src/stm32f7xx_hal_flash_ex.c ****   * @param  pOBInit pointer to an FLASH_OBInitStruct structure that
 299:Drivers/STM32F7xx_HAL_Driver/Src/stm32f7xx_hal_flash_ex.c ****   *         contains the configuration information for the programming.
 300:Drivers/STM32F7xx_HAL_Driver/Src/stm32f7xx_hal_flash_ex.c ****   * 
 301:Drivers/STM32F7xx_HAL_Driver/Src/stm32f7xx_hal_flash_ex.c ****   * @retval HAL Status
 302:Drivers/STM32F7xx_HAL_Driver/Src/stm32f7xx_hal_flash_ex.c ****   */
 303:Drivers/STM32F7xx_HAL_Driver/Src/stm32f7xx_hal_flash_ex.c **** HAL_StatusTypeDef HAL_FLASHEx_OBProgram(FLASH_OBProgramInitTypeDef *pOBInit)
 304:Drivers/STM32F7xx_HAL_Driver/Src/stm32f7xx_hal_flash_ex.c **** {
 315              		.loc 1 304 0
 316              		.cfi_startproc
 317              		@ args = 0, pretend = 0, frame = 16
 318              		@ frame_needed = 1, uses_anonymous_args = 0
 319 0000 B0B5     		push	{r4, r5, r7, lr}
 320              	.LCFI10:
 321              		.cfi_def_cfa_offset 16
 322              		.cfi_offset 4, -16
 323              		.cfi_offset 5, -12
 324              		.cfi_offset 7, -8
 325              		.cfi_offset 14, -4
 326 0002 86B0     		sub	sp, sp, #24
ARM GAS  /tmp/ccOWtDgG.s 			page 12


 327              	.LCFI11:
 328              		.cfi_def_cfa_offset 40
 329 0004 02AF     		add	r7, sp, #8
 330              	.LCFI12:
 331              		.cfi_def_cfa 7, 32
 332 0006 7860     		str	r0, [r7, #4]
 305:Drivers/STM32F7xx_HAL_Driver/Src/stm32f7xx_hal_flash_ex.c ****   HAL_StatusTypeDef status = HAL_ERROR;
 333              		.loc 1 305 0
 334 0008 0123     		movs	r3, #1
 335 000a FB73     		strb	r3, [r7, #15]
 306:Drivers/STM32F7xx_HAL_Driver/Src/stm32f7xx_hal_flash_ex.c ****   
 307:Drivers/STM32F7xx_HAL_Driver/Src/stm32f7xx_hal_flash_ex.c ****   /* Process Locked */
 308:Drivers/STM32F7xx_HAL_Driver/Src/stm32f7xx_hal_flash_ex.c ****   __HAL_LOCK(&pFlash);
 336              		.loc 1 308 0
 337 000c 434B     		ldr	r3, .L28
 338 000e 1B7D     		ldrb	r3, [r3, #20]	@ zero_extendqisi2
 339 0010 012B     		cmp	r3, #1
 340 0012 01D1     		bne	.L19
 341              		.loc 1 308 0 is_stmt 0 discriminator 1
 342 0014 0223     		movs	r3, #2
 343 0016 7DE0     		b	.L20
 344              	.L19:
 345              		.loc 1 308 0 discriminator 2
 346 0018 404B     		ldr	r3, .L28
 347 001a 0122     		movs	r2, #1
 348 001c 1A75     		strb	r2, [r3, #20]
 309:Drivers/STM32F7xx_HAL_Driver/Src/stm32f7xx_hal_flash_ex.c **** 
 310:Drivers/STM32F7xx_HAL_Driver/Src/stm32f7xx_hal_flash_ex.c ****   /* Check the parameters */
 311:Drivers/STM32F7xx_HAL_Driver/Src/stm32f7xx_hal_flash_ex.c ****   assert_param(IS_OPTIONBYTE(pOBInit->OptionType));
 312:Drivers/STM32F7xx_HAL_Driver/Src/stm32f7xx_hal_flash_ex.c **** 
 313:Drivers/STM32F7xx_HAL_Driver/Src/stm32f7xx_hal_flash_ex.c ****   /* Write protection configuration */
 314:Drivers/STM32F7xx_HAL_Driver/Src/stm32f7xx_hal_flash_ex.c ****   if((pOBInit->OptionType & OPTIONBYTE_WRP) == OPTIONBYTE_WRP)
 349              		.loc 1 314 0 is_stmt 1 discriminator 2
 350 001e 7B68     		ldr	r3, [r7, #4]
 351 0020 1B68     		ldr	r3, [r3]
 352 0022 03F00103 		and	r3, r3, #1
 353 0026 002B     		cmp	r3, #0
 354 0028 12D0     		beq	.L21
 315:Drivers/STM32F7xx_HAL_Driver/Src/stm32f7xx_hal_flash_ex.c ****   {
 316:Drivers/STM32F7xx_HAL_Driver/Src/stm32f7xx_hal_flash_ex.c ****     assert_param(IS_WRPSTATE(pOBInit->WRPState));
 317:Drivers/STM32F7xx_HAL_Driver/Src/stm32f7xx_hal_flash_ex.c ****     if(pOBInit->WRPState == OB_WRPSTATE_ENABLE)
 355              		.loc 1 317 0
 356 002a 7B68     		ldr	r3, [r7, #4]
 357 002c 5B68     		ldr	r3, [r3, #4]
 358 002e 012B     		cmp	r3, #1
 359 0030 07D1     		bne	.L22
 318:Drivers/STM32F7xx_HAL_Driver/Src/stm32f7xx_hal_flash_ex.c ****     {
 319:Drivers/STM32F7xx_HAL_Driver/Src/stm32f7xx_hal_flash_ex.c ****       /*Enable of Write protection on the selected Sector*/
 320:Drivers/STM32F7xx_HAL_Driver/Src/stm32f7xx_hal_flash_ex.c ****       status = FLASH_OB_EnableWRP(pOBInit->WRPSector);
 360              		.loc 1 320 0
 361 0032 7B68     		ldr	r3, [r7, #4]
 362 0034 9B68     		ldr	r3, [r3, #8]
 363 0036 1846     		mov	r0, r3
 364 0038 FFF7FEFF 		bl	FLASH_OB_EnableWRP
 365 003c 0346     		mov	r3, r0
 366 003e FB73     		strb	r3, [r7, #15]
 367 0040 06E0     		b	.L21
ARM GAS  /tmp/ccOWtDgG.s 			page 13


 368              	.L22:
 321:Drivers/STM32F7xx_HAL_Driver/Src/stm32f7xx_hal_flash_ex.c ****     }
 322:Drivers/STM32F7xx_HAL_Driver/Src/stm32f7xx_hal_flash_ex.c ****     else
 323:Drivers/STM32F7xx_HAL_Driver/Src/stm32f7xx_hal_flash_ex.c ****     {
 324:Drivers/STM32F7xx_HAL_Driver/Src/stm32f7xx_hal_flash_ex.c ****       /*Disable of Write protection on the selected Sector*/
 325:Drivers/STM32F7xx_HAL_Driver/Src/stm32f7xx_hal_flash_ex.c ****       status = FLASH_OB_DisableWRP(pOBInit->WRPSector);
 369              		.loc 1 325 0
 370 0042 7B68     		ldr	r3, [r7, #4]
 371 0044 9B68     		ldr	r3, [r3, #8]
 372 0046 1846     		mov	r0, r3
 373 0048 FFF7FEFF 		bl	FLASH_OB_DisableWRP
 374 004c 0346     		mov	r3, r0
 375 004e FB73     		strb	r3, [r7, #15]
 376              	.L21:
 326:Drivers/STM32F7xx_HAL_Driver/Src/stm32f7xx_hal_flash_ex.c ****     }
 327:Drivers/STM32F7xx_HAL_Driver/Src/stm32f7xx_hal_flash_ex.c ****   }
 328:Drivers/STM32F7xx_HAL_Driver/Src/stm32f7xx_hal_flash_ex.c **** 
 329:Drivers/STM32F7xx_HAL_Driver/Src/stm32f7xx_hal_flash_ex.c ****   /* Read protection configuration */
 330:Drivers/STM32F7xx_HAL_Driver/Src/stm32f7xx_hal_flash_ex.c ****   if((pOBInit->OptionType & OPTIONBYTE_RDP) == OPTIONBYTE_RDP)
 377              		.loc 1 330 0
 378 0050 7B68     		ldr	r3, [r7, #4]
 379 0052 1B68     		ldr	r3, [r3]
 380 0054 03F00203 		and	r3, r3, #2
 381 0058 002B     		cmp	r3, #0
 382 005a 07D0     		beq	.L23
 331:Drivers/STM32F7xx_HAL_Driver/Src/stm32f7xx_hal_flash_ex.c ****   {
 332:Drivers/STM32F7xx_HAL_Driver/Src/stm32f7xx_hal_flash_ex.c ****     status = FLASH_OB_RDP_LevelConfig(pOBInit->RDPLevel);
 383              		.loc 1 332 0
 384 005c 7B68     		ldr	r3, [r7, #4]
 385 005e DB68     		ldr	r3, [r3, #12]
 386 0060 DBB2     		uxtb	r3, r3
 387 0062 1846     		mov	r0, r3
 388 0064 FFF7FEFF 		bl	FLASH_OB_RDP_LevelConfig
 389 0068 0346     		mov	r3, r0
 390 006a FB73     		strb	r3, [r7, #15]
 391              	.L23:
 333:Drivers/STM32F7xx_HAL_Driver/Src/stm32f7xx_hal_flash_ex.c ****   }
 334:Drivers/STM32F7xx_HAL_Driver/Src/stm32f7xx_hal_flash_ex.c **** 
 335:Drivers/STM32F7xx_HAL_Driver/Src/stm32f7xx_hal_flash_ex.c ****   /* USER  configuration */
 336:Drivers/STM32F7xx_HAL_Driver/Src/stm32f7xx_hal_flash_ex.c ****   if((pOBInit->OptionType & OPTIONBYTE_USER) == OPTIONBYTE_USER)
 392              		.loc 1 336 0
 393 006c 7B68     		ldr	r3, [r7, #4]
 394 006e 1B68     		ldr	r3, [r3]
 395 0070 03F00403 		and	r3, r3, #4
 396 0074 002B     		cmp	r3, #0
 397 0076 1FD0     		beq	.L24
 337:Drivers/STM32F7xx_HAL_Driver/Src/stm32f7xx_hal_flash_ex.c ****   {
 338:Drivers/STM32F7xx_HAL_Driver/Src/stm32f7xx_hal_flash_ex.c **** #if defined (FLASH_OPTCR_nDBANK)
 339:Drivers/STM32F7xx_HAL_Driver/Src/stm32f7xx_hal_flash_ex.c ****     status = FLASH_OB_UserConfig(pOBInit->USERConfig & OB_WWDG_SW, 
 340:Drivers/STM32F7xx_HAL_Driver/Src/stm32f7xx_hal_flash_ex.c ****                                  pOBInit->USERConfig & OB_IWDG_SW,
 341:Drivers/STM32F7xx_HAL_Driver/Src/stm32f7xx_hal_flash_ex.c ****                                  pOBInit->USERConfig & OB_STOP_NO_RST,
 342:Drivers/STM32F7xx_HAL_Driver/Src/stm32f7xx_hal_flash_ex.c ****                                  pOBInit->USERConfig & OB_STDBY_NO_RST, 
 343:Drivers/STM32F7xx_HAL_Driver/Src/stm32f7xx_hal_flash_ex.c ****                                  pOBInit->USERConfig & OB_IWDG_STOP_ACTIVE,
 344:Drivers/STM32F7xx_HAL_Driver/Src/stm32f7xx_hal_flash_ex.c ****                                  pOBInit->USERConfig & OB_IWDG_STDBY_ACTIVE,
 345:Drivers/STM32F7xx_HAL_Driver/Src/stm32f7xx_hal_flash_ex.c ****                                  pOBInit->USERConfig & OB_NDBANK_SINGLE_BANK,
 346:Drivers/STM32F7xx_HAL_Driver/Src/stm32f7xx_hal_flash_ex.c ****                                  pOBInit->USERConfig & OB_DUAL_BOOT_DISABLE);
 347:Drivers/STM32F7xx_HAL_Driver/Src/stm32f7xx_hal_flash_ex.c **** #else
ARM GAS  /tmp/ccOWtDgG.s 			page 14


 348:Drivers/STM32F7xx_HAL_Driver/Src/stm32f7xx_hal_flash_ex.c ****     status = FLASH_OB_UserConfig(pOBInit->USERConfig & OB_WWDG_SW, 
 398              		.loc 1 348 0
 399 0078 7B68     		ldr	r3, [r7, #4]
 400 007a 5B69     		ldr	r3, [r3, #20]
 401 007c 03F01000 		and	r0, r3, #16
 349:Drivers/STM32F7xx_HAL_Driver/Src/stm32f7xx_hal_flash_ex.c ****                                  pOBInit->USERConfig & OB_IWDG_SW,
 402              		.loc 1 349 0
 403 0080 7B68     		ldr	r3, [r7, #4]
 404 0082 5B69     		ldr	r3, [r3, #20]
 348:Drivers/STM32F7xx_HAL_Driver/Src/stm32f7xx_hal_flash_ex.c ****                                  pOBInit->USERConfig & OB_IWDG_SW,
 405              		.loc 1 348 0
 406 0084 03F02001 		and	r1, r3, #32
 350:Drivers/STM32F7xx_HAL_Driver/Src/stm32f7xx_hal_flash_ex.c ****                                  pOBInit->USERConfig & OB_STOP_NO_RST,
 407              		.loc 1 350 0
 408 0088 7B68     		ldr	r3, [r7, #4]
 409 008a 5B69     		ldr	r3, [r3, #20]
 348:Drivers/STM32F7xx_HAL_Driver/Src/stm32f7xx_hal_flash_ex.c ****                                  pOBInit->USERConfig & OB_IWDG_SW,
 410              		.loc 1 348 0
 411 008c 03F04004 		and	r4, r3, #64
 351:Drivers/STM32F7xx_HAL_Driver/Src/stm32f7xx_hal_flash_ex.c ****                                  pOBInit->USERConfig & OB_STDBY_NO_RST, 
 412              		.loc 1 351 0
 413 0090 7B68     		ldr	r3, [r7, #4]
 414 0092 5B69     		ldr	r3, [r3, #20]
 348:Drivers/STM32F7xx_HAL_Driver/Src/stm32f7xx_hal_flash_ex.c ****                                  pOBInit->USERConfig & OB_IWDG_SW,
 415              		.loc 1 348 0
 416 0094 03F08005 		and	r5, r3, #128
 352:Drivers/STM32F7xx_HAL_Driver/Src/stm32f7xx_hal_flash_ex.c ****                                  pOBInit->USERConfig & OB_IWDG_STOP_ACTIVE,
 417              		.loc 1 352 0
 418 0098 7B68     		ldr	r3, [r7, #4]
 419 009a 5B69     		ldr	r3, [r3, #20]
 348:Drivers/STM32F7xx_HAL_Driver/Src/stm32f7xx_hal_flash_ex.c ****                                  pOBInit->USERConfig & OB_IWDG_SW,
 420              		.loc 1 348 0
 421 009c 03F00043 		and	r3, r3, #-2147483648
 353:Drivers/STM32F7xx_HAL_Driver/Src/stm32f7xx_hal_flash_ex.c ****                                  pOBInit->USERConfig & OB_IWDG_STDBY_ACTIVE);    
 422              		.loc 1 353 0
 423 00a0 7A68     		ldr	r2, [r7, #4]
 424 00a2 5269     		ldr	r2, [r2, #20]
 348:Drivers/STM32F7xx_HAL_Driver/Src/stm32f7xx_hal_flash_ex.c ****                                  pOBInit->USERConfig & OB_IWDG_SW,
 425              		.loc 1 348 0
 426 00a4 02F08042 		and	r2, r2, #1073741824
 427 00a8 0192     		str	r2, [sp, #4]
 428 00aa 0093     		str	r3, [sp]
 429 00ac 2B46     		mov	r3, r5
 430 00ae 2246     		mov	r2, r4
 431 00b0 FFF7FEFF 		bl	FLASH_OB_UserConfig
 432 00b4 0346     		mov	r3, r0
 433 00b6 FB73     		strb	r3, [r7, #15]
 434              	.L24:
 354:Drivers/STM32F7xx_HAL_Driver/Src/stm32f7xx_hal_flash_ex.c **** #endif /* FLASH_OPTCR_nDBANK */
 355:Drivers/STM32F7xx_HAL_Driver/Src/stm32f7xx_hal_flash_ex.c ****   }
 356:Drivers/STM32F7xx_HAL_Driver/Src/stm32f7xx_hal_flash_ex.c ****   
 357:Drivers/STM32F7xx_HAL_Driver/Src/stm32f7xx_hal_flash_ex.c ****   /* BOR Level  configuration */
 358:Drivers/STM32F7xx_HAL_Driver/Src/stm32f7xx_hal_flash_ex.c ****   if((pOBInit->OptionType & OPTIONBYTE_BOR) == OPTIONBYTE_BOR)
 435              		.loc 1 358 0
 436 00b8 7B68     		ldr	r3, [r7, #4]
 437 00ba 1B68     		ldr	r3, [r3]
 438 00bc 03F00803 		and	r3, r3, #8
ARM GAS  /tmp/ccOWtDgG.s 			page 15


 439 00c0 002B     		cmp	r3, #0
 440 00c2 07D0     		beq	.L25
 359:Drivers/STM32F7xx_HAL_Driver/Src/stm32f7xx_hal_flash_ex.c ****   {
 360:Drivers/STM32F7xx_HAL_Driver/Src/stm32f7xx_hal_flash_ex.c ****     status = FLASH_OB_BOR_LevelConfig(pOBInit->BORLevel);
 441              		.loc 1 360 0
 442 00c4 7B68     		ldr	r3, [r7, #4]
 443 00c6 1B69     		ldr	r3, [r3, #16]
 444 00c8 DBB2     		uxtb	r3, r3
 445 00ca 1846     		mov	r0, r3
 446 00cc FFF7FEFF 		bl	FLASH_OB_BOR_LevelConfig
 447 00d0 0346     		mov	r3, r0
 448 00d2 FB73     		strb	r3, [r7, #15]
 449              	.L25:
 361:Drivers/STM32F7xx_HAL_Driver/Src/stm32f7xx_hal_flash_ex.c ****   }
 362:Drivers/STM32F7xx_HAL_Driver/Src/stm32f7xx_hal_flash_ex.c ****   
 363:Drivers/STM32F7xx_HAL_Driver/Src/stm32f7xx_hal_flash_ex.c ****   /* Boot 0 Address configuration */
 364:Drivers/STM32F7xx_HAL_Driver/Src/stm32f7xx_hal_flash_ex.c ****   if((pOBInit->OptionType & OPTIONBYTE_BOOTADDR_0) == OPTIONBYTE_BOOTADDR_0)
 450              		.loc 1 364 0
 451 00d4 7B68     		ldr	r3, [r7, #4]
 452 00d6 1B68     		ldr	r3, [r3]
 453 00d8 03F01003 		and	r3, r3, #16
 454 00dc 002B     		cmp	r3, #0
 455 00de 07D0     		beq	.L26
 365:Drivers/STM32F7xx_HAL_Driver/Src/stm32f7xx_hal_flash_ex.c ****   {
 366:Drivers/STM32F7xx_HAL_Driver/Src/stm32f7xx_hal_flash_ex.c ****     status = FLASH_OB_BootAddressConfig(OPTIONBYTE_BOOTADDR_0, pOBInit->BootAddr0);
 456              		.loc 1 366 0
 457 00e0 7B68     		ldr	r3, [r7, #4]
 458 00e2 9B69     		ldr	r3, [r3, #24]
 459 00e4 1946     		mov	r1, r3
 460 00e6 1020     		movs	r0, #16
 461 00e8 FFF7FEFF 		bl	FLASH_OB_BootAddressConfig
 462 00ec 0346     		mov	r3, r0
 463 00ee FB73     		strb	r3, [r7, #15]
 464              	.L26:
 367:Drivers/STM32F7xx_HAL_Driver/Src/stm32f7xx_hal_flash_ex.c ****   }
 368:Drivers/STM32F7xx_HAL_Driver/Src/stm32f7xx_hal_flash_ex.c ****   
 369:Drivers/STM32F7xx_HAL_Driver/Src/stm32f7xx_hal_flash_ex.c ****   /* Boot 1 Address configuration */
 370:Drivers/STM32F7xx_HAL_Driver/Src/stm32f7xx_hal_flash_ex.c ****   if((pOBInit->OptionType & OPTIONBYTE_BOOTADDR_1) == OPTIONBYTE_BOOTADDR_1)
 465              		.loc 1 370 0
 466 00f0 7B68     		ldr	r3, [r7, #4]
 467 00f2 1B68     		ldr	r3, [r3]
 468 00f4 03F02003 		and	r3, r3, #32
 469 00f8 002B     		cmp	r3, #0
 470 00fa 07D0     		beq	.L27
 371:Drivers/STM32F7xx_HAL_Driver/Src/stm32f7xx_hal_flash_ex.c ****   {
 372:Drivers/STM32F7xx_HAL_Driver/Src/stm32f7xx_hal_flash_ex.c ****     status = FLASH_OB_BootAddressConfig(OPTIONBYTE_BOOTADDR_1, pOBInit->BootAddr1);
 471              		.loc 1 372 0
 472 00fc 7B68     		ldr	r3, [r7, #4]
 473 00fe DB69     		ldr	r3, [r3, #28]
 474 0100 1946     		mov	r1, r3
 475 0102 2020     		movs	r0, #32
 476 0104 FFF7FEFF 		bl	FLASH_OB_BootAddressConfig
 477 0108 0346     		mov	r3, r0
 478 010a FB73     		strb	r3, [r7, #15]
 479              	.L27:
 373:Drivers/STM32F7xx_HAL_Driver/Src/stm32f7xx_hal_flash_ex.c ****   }
 374:Drivers/STM32F7xx_HAL_Driver/Src/stm32f7xx_hal_flash_ex.c ****   
ARM GAS  /tmp/ccOWtDgG.s 			page 16


 375:Drivers/STM32F7xx_HAL_Driver/Src/stm32f7xx_hal_flash_ex.c **** #if defined (FLASH_OPTCR2_PCROP)
 376:Drivers/STM32F7xx_HAL_Driver/Src/stm32f7xx_hal_flash_ex.c ****   /* PCROP configuration */
 377:Drivers/STM32F7xx_HAL_Driver/Src/stm32f7xx_hal_flash_ex.c ****   if((pOBInit->OptionType & OPTIONBYTE_PCROP) == OPTIONBYTE_PCROP)
 378:Drivers/STM32F7xx_HAL_Driver/Src/stm32f7xx_hal_flash_ex.c ****   {
 379:Drivers/STM32F7xx_HAL_Driver/Src/stm32f7xx_hal_flash_ex.c ****     status = FLASH_OB_PCROP_Config(pOBInit->PCROPSector);
 380:Drivers/STM32F7xx_HAL_Driver/Src/stm32f7xx_hal_flash_ex.c ****   }
 381:Drivers/STM32F7xx_HAL_Driver/Src/stm32f7xx_hal_flash_ex.c ****   
 382:Drivers/STM32F7xx_HAL_Driver/Src/stm32f7xx_hal_flash_ex.c ****   /* PCROP_RDP configuration */
 383:Drivers/STM32F7xx_HAL_Driver/Src/stm32f7xx_hal_flash_ex.c ****   if((pOBInit->OptionType & OPTIONBYTE_PCROP_RDP) == OPTIONBYTE_PCROP_RDP)
 384:Drivers/STM32F7xx_HAL_Driver/Src/stm32f7xx_hal_flash_ex.c ****   {
 385:Drivers/STM32F7xx_HAL_Driver/Src/stm32f7xx_hal_flash_ex.c ****     status = FLASH_OB_PCROP_RDP_Config(pOBInit->PCROPRdp);
 386:Drivers/STM32F7xx_HAL_Driver/Src/stm32f7xx_hal_flash_ex.c ****   }
 387:Drivers/STM32F7xx_HAL_Driver/Src/stm32f7xx_hal_flash_ex.c **** #endif /* FLASH_OPTCR2_PCROP */
 388:Drivers/STM32F7xx_HAL_Driver/Src/stm32f7xx_hal_flash_ex.c **** 
 389:Drivers/STM32F7xx_HAL_Driver/Src/stm32f7xx_hal_flash_ex.c ****   /* Process Unlocked */
 390:Drivers/STM32F7xx_HAL_Driver/Src/stm32f7xx_hal_flash_ex.c ****   __HAL_UNLOCK(&pFlash);
 480              		.loc 1 390 0
 481 010c 034B     		ldr	r3, .L28
 482 010e 0022     		movs	r2, #0
 483 0110 1A75     		strb	r2, [r3, #20]
 391:Drivers/STM32F7xx_HAL_Driver/Src/stm32f7xx_hal_flash_ex.c **** 
 392:Drivers/STM32F7xx_HAL_Driver/Src/stm32f7xx_hal_flash_ex.c ****   return status;
 484              		.loc 1 392 0
 485 0112 FB7B     		ldrb	r3, [r7, #15]	@ zero_extendqisi2
 486              	.L20:
 393:Drivers/STM32F7xx_HAL_Driver/Src/stm32f7xx_hal_flash_ex.c **** }
 487              		.loc 1 393 0
 488 0114 1846     		mov	r0, r3
 489 0116 1037     		adds	r7, r7, #16
 490              	.LCFI13:
 491              		.cfi_def_cfa_offset 16
 492 0118 BD46     		mov	sp, r7
 493              	.LCFI14:
 494              		.cfi_def_cfa_register 13
 495              		@ sp needed
 496 011a B0BD     		pop	{r4, r5, r7, pc}
 497              	.L29:
 498              		.align	2
 499              	.L28:
 500 011c 00000000 		.word	pFlash
 501              		.cfi_endproc
 502              	.LFE140:
 504              		.section	.text.HAL_FLASHEx_OBGetConfig,"ax",%progbits
 505              		.align	1
 506              		.global	HAL_FLASHEx_OBGetConfig
 507              		.syntax unified
 508              		.thumb
 509              		.thumb_func
 510              		.fpu fpv4-sp-d16
 512              	HAL_FLASHEx_OBGetConfig:
 513              	.LFB141:
 394:Drivers/STM32F7xx_HAL_Driver/Src/stm32f7xx_hal_flash_ex.c **** 
 395:Drivers/STM32F7xx_HAL_Driver/Src/stm32f7xx_hal_flash_ex.c **** /**
 396:Drivers/STM32F7xx_HAL_Driver/Src/stm32f7xx_hal_flash_ex.c ****   * @brief  Get the Option byte configuration
 397:Drivers/STM32F7xx_HAL_Driver/Src/stm32f7xx_hal_flash_ex.c ****   * @param  pOBInit pointer to an FLASH_OBInitStruct structure that
 398:Drivers/STM32F7xx_HAL_Driver/Src/stm32f7xx_hal_flash_ex.c ****   *         contains the configuration information for the programming.
 399:Drivers/STM32F7xx_HAL_Driver/Src/stm32f7xx_hal_flash_ex.c ****   * 
ARM GAS  /tmp/ccOWtDgG.s 			page 17


 400:Drivers/STM32F7xx_HAL_Driver/Src/stm32f7xx_hal_flash_ex.c ****   * @retval None
 401:Drivers/STM32F7xx_HAL_Driver/Src/stm32f7xx_hal_flash_ex.c ****   */
 402:Drivers/STM32F7xx_HAL_Driver/Src/stm32f7xx_hal_flash_ex.c **** void HAL_FLASHEx_OBGetConfig(FLASH_OBProgramInitTypeDef *pOBInit)
 403:Drivers/STM32F7xx_HAL_Driver/Src/stm32f7xx_hal_flash_ex.c **** {
 514              		.loc 1 403 0
 515              		.cfi_startproc
 516              		@ args = 0, pretend = 0, frame = 8
 517              		@ frame_needed = 1, uses_anonymous_args = 0
 518 0000 80B5     		push	{r7, lr}
 519              	.LCFI15:
 520              		.cfi_def_cfa_offset 8
 521              		.cfi_offset 7, -8
 522              		.cfi_offset 14, -4
 523 0002 82B0     		sub	sp, sp, #8
 524              	.LCFI16:
 525              		.cfi_def_cfa_offset 16
 526 0004 00AF     		add	r7, sp, #0
 527              	.LCFI17:
 528              		.cfi_def_cfa_register 7
 529 0006 7860     		str	r0, [r7, #4]
 404:Drivers/STM32F7xx_HAL_Driver/Src/stm32f7xx_hal_flash_ex.c ****   pOBInit->OptionType = OPTIONBYTE_WRP | OPTIONBYTE_RDP | OPTIONBYTE_USER |\
 530              		.loc 1 404 0
 531 0008 7B68     		ldr	r3, [r7, #4]
 532 000a 3F22     		movs	r2, #63
 533 000c 1A60     		str	r2, [r3]
 405:Drivers/STM32F7xx_HAL_Driver/Src/stm32f7xx_hal_flash_ex.c **** 	                OPTIONBYTE_BOR | OPTIONBYTE_BOOTADDR_0 | OPTIONBYTE_BOOTADDR_1;
 406:Drivers/STM32F7xx_HAL_Driver/Src/stm32f7xx_hal_flash_ex.c **** 
 407:Drivers/STM32F7xx_HAL_Driver/Src/stm32f7xx_hal_flash_ex.c ****   /*Get WRP*/
 408:Drivers/STM32F7xx_HAL_Driver/Src/stm32f7xx_hal_flash_ex.c ****   pOBInit->WRPSector = FLASH_OB_GetWRP();
 534              		.loc 1 408 0
 535 000e FFF7FEFF 		bl	FLASH_OB_GetWRP
 536 0012 0246     		mov	r2, r0
 537 0014 7B68     		ldr	r3, [r7, #4]
 538 0016 9A60     		str	r2, [r3, #8]
 409:Drivers/STM32F7xx_HAL_Driver/Src/stm32f7xx_hal_flash_ex.c **** 
 410:Drivers/STM32F7xx_HAL_Driver/Src/stm32f7xx_hal_flash_ex.c ****   /*Get RDP Level*/
 411:Drivers/STM32F7xx_HAL_Driver/Src/stm32f7xx_hal_flash_ex.c ****   pOBInit->RDPLevel = FLASH_OB_GetRDP();
 539              		.loc 1 411 0
 540 0018 FFF7FEFF 		bl	FLASH_OB_GetRDP
 541 001c 0346     		mov	r3, r0
 542 001e 1A46     		mov	r2, r3
 543 0020 7B68     		ldr	r3, [r7, #4]
 544 0022 DA60     		str	r2, [r3, #12]
 412:Drivers/STM32F7xx_HAL_Driver/Src/stm32f7xx_hal_flash_ex.c **** 
 413:Drivers/STM32F7xx_HAL_Driver/Src/stm32f7xx_hal_flash_ex.c ****   /*Get USER*/
 414:Drivers/STM32F7xx_HAL_Driver/Src/stm32f7xx_hal_flash_ex.c ****   pOBInit->USERConfig = FLASH_OB_GetUser();
 545              		.loc 1 414 0
 546 0024 FFF7FEFF 		bl	FLASH_OB_GetUser
 547 0028 0246     		mov	r2, r0
 548 002a 7B68     		ldr	r3, [r7, #4]
 549 002c 5A61     		str	r2, [r3, #20]
 415:Drivers/STM32F7xx_HAL_Driver/Src/stm32f7xx_hal_flash_ex.c **** 
 416:Drivers/STM32F7xx_HAL_Driver/Src/stm32f7xx_hal_flash_ex.c ****   /*Get BOR Level*/
 417:Drivers/STM32F7xx_HAL_Driver/Src/stm32f7xx_hal_flash_ex.c ****   pOBInit->BORLevel = FLASH_OB_GetBOR();
 550              		.loc 1 417 0
 551 002e FFF7FEFF 		bl	FLASH_OB_GetBOR
 552 0032 0246     		mov	r2, r0
ARM GAS  /tmp/ccOWtDgG.s 			page 18


 553 0034 7B68     		ldr	r3, [r7, #4]
 554 0036 1A61     		str	r2, [r3, #16]
 418:Drivers/STM32F7xx_HAL_Driver/Src/stm32f7xx_hal_flash_ex.c ****   
 419:Drivers/STM32F7xx_HAL_Driver/Src/stm32f7xx_hal_flash_ex.c ****   /*Get Boot Address when Boot pin = 0 */
 420:Drivers/STM32F7xx_HAL_Driver/Src/stm32f7xx_hal_flash_ex.c ****   pOBInit->BootAddr0 = FLASH_OB_GetBootAddress(OPTIONBYTE_BOOTADDR_0);
 555              		.loc 1 420 0
 556 0038 1020     		movs	r0, #16
 557 003a FFF7FEFF 		bl	FLASH_OB_GetBootAddress
 558 003e 0246     		mov	r2, r0
 559 0040 7B68     		ldr	r3, [r7, #4]
 560 0042 9A61     		str	r2, [r3, #24]
 421:Drivers/STM32F7xx_HAL_Driver/Src/stm32f7xx_hal_flash_ex.c ****   
 422:Drivers/STM32F7xx_HAL_Driver/Src/stm32f7xx_hal_flash_ex.c ****   /*Get Boot Address when Boot pin = 1 */
 423:Drivers/STM32F7xx_HAL_Driver/Src/stm32f7xx_hal_flash_ex.c ****   pOBInit->BootAddr1 = FLASH_OB_GetBootAddress(OPTIONBYTE_BOOTADDR_1);
 561              		.loc 1 423 0
 562 0044 2020     		movs	r0, #32
 563 0046 FFF7FEFF 		bl	FLASH_OB_GetBootAddress
 564 004a 0246     		mov	r2, r0
 565 004c 7B68     		ldr	r3, [r7, #4]
 566 004e DA61     		str	r2, [r3, #28]
 424:Drivers/STM32F7xx_HAL_Driver/Src/stm32f7xx_hal_flash_ex.c **** 
 425:Drivers/STM32F7xx_HAL_Driver/Src/stm32f7xx_hal_flash_ex.c **** #if defined (FLASH_OPTCR2_PCROP)
 426:Drivers/STM32F7xx_HAL_Driver/Src/stm32f7xx_hal_flash_ex.c ****   /*Get PCROP Sectors */
 427:Drivers/STM32F7xx_HAL_Driver/Src/stm32f7xx_hal_flash_ex.c ****   pOBInit->PCROPSector = FLASH_OB_GetPCROP();
 428:Drivers/STM32F7xx_HAL_Driver/Src/stm32f7xx_hal_flash_ex.c ****   
 429:Drivers/STM32F7xx_HAL_Driver/Src/stm32f7xx_hal_flash_ex.c ****   /*Get PCROP_RDP Value */
 430:Drivers/STM32F7xx_HAL_Driver/Src/stm32f7xx_hal_flash_ex.c ****   pOBInit->PCROPRdp = FLASH_OB_GetPCROPRDP();
 431:Drivers/STM32F7xx_HAL_Driver/Src/stm32f7xx_hal_flash_ex.c **** #endif /* FLASH_OPTCR2_PCROP */
 432:Drivers/STM32F7xx_HAL_Driver/Src/stm32f7xx_hal_flash_ex.c **** }
 567              		.loc 1 432 0
 568 0050 00BF     		nop
 569 0052 0837     		adds	r7, r7, #8
 570              	.LCFI18:
 571              		.cfi_def_cfa_offset 8
 572 0054 BD46     		mov	sp, r7
 573              	.LCFI19:
 574              		.cfi_def_cfa_register 13
 575              		@ sp needed
 576 0056 80BD     		pop	{r7, pc}
 577              		.cfi_endproc
 578              	.LFE141:
 580              		.section	.text.FLASH_MassErase,"ax",%progbits
 581              		.align	1
 582              		.syntax unified
 583              		.thumb
 584              		.thumb_func
 585              		.fpu fpv4-sp-d16
 587              	FLASH_MassErase:
 588              	.LFB142:
 433:Drivers/STM32F7xx_HAL_Driver/Src/stm32f7xx_hal_flash_ex.c **** /**
 434:Drivers/STM32F7xx_HAL_Driver/Src/stm32f7xx_hal_flash_ex.c ****   * @}
 435:Drivers/STM32F7xx_HAL_Driver/Src/stm32f7xx_hal_flash_ex.c ****   */
 436:Drivers/STM32F7xx_HAL_Driver/Src/stm32f7xx_hal_flash_ex.c **** 
 437:Drivers/STM32F7xx_HAL_Driver/Src/stm32f7xx_hal_flash_ex.c **** #if defined (FLASH_OPTCR_nDBANK)
 438:Drivers/STM32F7xx_HAL_Driver/Src/stm32f7xx_hal_flash_ex.c **** /**
 439:Drivers/STM32F7xx_HAL_Driver/Src/stm32f7xx_hal_flash_ex.c ****   * @brief  Full erase of FLASH memory sectors 
 440:Drivers/STM32F7xx_HAL_Driver/Src/stm32f7xx_hal_flash_ex.c ****   * @param  VoltageRange The device voltage range which defines the erase parallelism.  
ARM GAS  /tmp/ccOWtDgG.s 			page 19


 441:Drivers/STM32F7xx_HAL_Driver/Src/stm32f7xx_hal_flash_ex.c ****   *          This parameter can be one of the following values:
 442:Drivers/STM32F7xx_HAL_Driver/Src/stm32f7xx_hal_flash_ex.c ****   *            @arg VOLTAGE_RANGE_1: when the device voltage range is 1.8V to 2.1V, 
 443:Drivers/STM32F7xx_HAL_Driver/Src/stm32f7xx_hal_flash_ex.c ****   *                                  the operation will be done by byte (8-bit) 
 444:Drivers/STM32F7xx_HAL_Driver/Src/stm32f7xx_hal_flash_ex.c ****   *            @arg VOLTAGE_RANGE_2: when the device voltage range is 2.1V to 2.7V,
 445:Drivers/STM32F7xx_HAL_Driver/Src/stm32f7xx_hal_flash_ex.c ****   *                                  the operation will be done by half word (16-bit)
 446:Drivers/STM32F7xx_HAL_Driver/Src/stm32f7xx_hal_flash_ex.c ****   *            @arg VOLTAGE_RANGE_3: when the device voltage range is 2.7V to 3.6V,
 447:Drivers/STM32F7xx_HAL_Driver/Src/stm32f7xx_hal_flash_ex.c ****   *                                  the operation will be done by word (32-bit)
 448:Drivers/STM32F7xx_HAL_Driver/Src/stm32f7xx_hal_flash_ex.c ****   *            @arg VOLTAGE_RANGE_4: when the device voltage range is 2.7V to 3.6V + External Vpp, 
 449:Drivers/STM32F7xx_HAL_Driver/Src/stm32f7xx_hal_flash_ex.c ****   *                                  the operation will be done by double word (64-bit)
 450:Drivers/STM32F7xx_HAL_Driver/Src/stm32f7xx_hal_flash_ex.c ****   * @param  Banks Banks to be erased
 451:Drivers/STM32F7xx_HAL_Driver/Src/stm32f7xx_hal_flash_ex.c ****   *          This parameter can be one of the following values:
 452:Drivers/STM32F7xx_HAL_Driver/Src/stm32f7xx_hal_flash_ex.c ****   *            @arg FLASH_BANK_1: Bank1 to be erased
 453:Drivers/STM32F7xx_HAL_Driver/Src/stm32f7xx_hal_flash_ex.c ****   *            @arg FLASH_BANK_2: Bank2 to be erased
 454:Drivers/STM32F7xx_HAL_Driver/Src/stm32f7xx_hal_flash_ex.c ****   *            @arg FLASH_BANK_BOTH: Bank1 and Bank2 to be erased
 455:Drivers/STM32F7xx_HAL_Driver/Src/stm32f7xx_hal_flash_ex.c ****   *
 456:Drivers/STM32F7xx_HAL_Driver/Src/stm32f7xx_hal_flash_ex.c ****   * @retval HAL Status
 457:Drivers/STM32F7xx_HAL_Driver/Src/stm32f7xx_hal_flash_ex.c ****   */
 458:Drivers/STM32F7xx_HAL_Driver/Src/stm32f7xx_hal_flash_ex.c **** static void FLASH_MassErase(uint8_t VoltageRange, uint32_t Banks)
 459:Drivers/STM32F7xx_HAL_Driver/Src/stm32f7xx_hal_flash_ex.c **** {
 460:Drivers/STM32F7xx_HAL_Driver/Src/stm32f7xx_hal_flash_ex.c ****   /* Check the parameters */
 461:Drivers/STM32F7xx_HAL_Driver/Src/stm32f7xx_hal_flash_ex.c ****   assert_param(IS_VOLTAGERANGE(VoltageRange));
 462:Drivers/STM32F7xx_HAL_Driver/Src/stm32f7xx_hal_flash_ex.c ****   assert_param(IS_FLASH_BANK(Banks));
 463:Drivers/STM32F7xx_HAL_Driver/Src/stm32f7xx_hal_flash_ex.c **** 
 464:Drivers/STM32F7xx_HAL_Driver/Src/stm32f7xx_hal_flash_ex.c ****   /* if the previous operation is completed, proceed to erase all sectors */
 465:Drivers/STM32F7xx_HAL_Driver/Src/stm32f7xx_hal_flash_ex.c ****   FLASH->CR &= CR_PSIZE_MASK;
 466:Drivers/STM32F7xx_HAL_Driver/Src/stm32f7xx_hal_flash_ex.c ****   if(Banks == FLASH_BANK_BOTH)
 467:Drivers/STM32F7xx_HAL_Driver/Src/stm32f7xx_hal_flash_ex.c ****   {
 468:Drivers/STM32F7xx_HAL_Driver/Src/stm32f7xx_hal_flash_ex.c ****     /* bank1 & bank2 will be erased*/
 469:Drivers/STM32F7xx_HAL_Driver/Src/stm32f7xx_hal_flash_ex.c ****     FLASH->CR |= FLASH_MER_BIT;
 470:Drivers/STM32F7xx_HAL_Driver/Src/stm32f7xx_hal_flash_ex.c ****   }
 471:Drivers/STM32F7xx_HAL_Driver/Src/stm32f7xx_hal_flash_ex.c ****   else if(Banks == FLASH_BANK_2)
 472:Drivers/STM32F7xx_HAL_Driver/Src/stm32f7xx_hal_flash_ex.c ****   {
 473:Drivers/STM32F7xx_HAL_Driver/Src/stm32f7xx_hal_flash_ex.c ****     /*Only bank2 will be erased*/
 474:Drivers/STM32F7xx_HAL_Driver/Src/stm32f7xx_hal_flash_ex.c ****     FLASH->CR |= FLASH_CR_MER2;
 475:Drivers/STM32F7xx_HAL_Driver/Src/stm32f7xx_hal_flash_ex.c ****   }
 476:Drivers/STM32F7xx_HAL_Driver/Src/stm32f7xx_hal_flash_ex.c ****   else
 477:Drivers/STM32F7xx_HAL_Driver/Src/stm32f7xx_hal_flash_ex.c ****   {
 478:Drivers/STM32F7xx_HAL_Driver/Src/stm32f7xx_hal_flash_ex.c ****     /*Only bank1 will be erased*/
 479:Drivers/STM32F7xx_HAL_Driver/Src/stm32f7xx_hal_flash_ex.c ****     FLASH->CR |= FLASH_CR_MER1;    
 480:Drivers/STM32F7xx_HAL_Driver/Src/stm32f7xx_hal_flash_ex.c ****   }
 481:Drivers/STM32F7xx_HAL_Driver/Src/stm32f7xx_hal_flash_ex.c ****   FLASH->CR |= FLASH_CR_STRT | ((uint32_t)VoltageRange <<8);
 482:Drivers/STM32F7xx_HAL_Driver/Src/stm32f7xx_hal_flash_ex.c ****   /* Data synchronous Barrier (DSB) Just after the write operation
 483:Drivers/STM32F7xx_HAL_Driver/Src/stm32f7xx_hal_flash_ex.c ****      This will force the CPU to respect the sequence of instruction (no optimization).*/
 484:Drivers/STM32F7xx_HAL_Driver/Src/stm32f7xx_hal_flash_ex.c ****   __DSB();
 485:Drivers/STM32F7xx_HAL_Driver/Src/stm32f7xx_hal_flash_ex.c **** }
 486:Drivers/STM32F7xx_HAL_Driver/Src/stm32f7xx_hal_flash_ex.c **** 
 487:Drivers/STM32F7xx_HAL_Driver/Src/stm32f7xx_hal_flash_ex.c **** /**
 488:Drivers/STM32F7xx_HAL_Driver/Src/stm32f7xx_hal_flash_ex.c ****   * @brief  Erase the specified FLASH memory sector
 489:Drivers/STM32F7xx_HAL_Driver/Src/stm32f7xx_hal_flash_ex.c ****   * @param  Sector FLASH sector to erase
 490:Drivers/STM32F7xx_HAL_Driver/Src/stm32f7xx_hal_flash_ex.c ****   *         The value of this parameter depend on device used within the same series      
 491:Drivers/STM32F7xx_HAL_Driver/Src/stm32f7xx_hal_flash_ex.c ****   * @param  VoltageRange The device voltage range which defines the erase parallelism.  
 492:Drivers/STM32F7xx_HAL_Driver/Src/stm32f7xx_hal_flash_ex.c ****   *          This parameter can be one of the following values:
 493:Drivers/STM32F7xx_HAL_Driver/Src/stm32f7xx_hal_flash_ex.c ****   *            @arg FLASH_VOLTAGE_RANGE_1: when the device voltage range is 1.8V to 2.1V, 
 494:Drivers/STM32F7xx_HAL_Driver/Src/stm32f7xx_hal_flash_ex.c ****   *                                  the operation will be done by byte (8-bit) 
 495:Drivers/STM32F7xx_HAL_Driver/Src/stm32f7xx_hal_flash_ex.c ****   *            @arg FLASH_VOLTAGE_RANGE_2: when the device voltage range is 2.1V to 2.7V,
 496:Drivers/STM32F7xx_HAL_Driver/Src/stm32f7xx_hal_flash_ex.c ****   *                                  the operation will be done by half word (16-bit)
 497:Drivers/STM32F7xx_HAL_Driver/Src/stm32f7xx_hal_flash_ex.c ****   *            @arg FLASH_VOLTAGE_RANGE_3: when the device voltage range is 2.7V to 3.6V,
ARM GAS  /tmp/ccOWtDgG.s 			page 20


 498:Drivers/STM32F7xx_HAL_Driver/Src/stm32f7xx_hal_flash_ex.c ****   *                                  the operation will be done by word (32-bit)
 499:Drivers/STM32F7xx_HAL_Driver/Src/stm32f7xx_hal_flash_ex.c ****   *            @arg FLASH_VOLTAGE_RANGE_4: when the device voltage range is 2.7V to 3.6V + External
 500:Drivers/STM32F7xx_HAL_Driver/Src/stm32f7xx_hal_flash_ex.c ****   *                                  the operation will be done by double word (64-bit)
 501:Drivers/STM32F7xx_HAL_Driver/Src/stm32f7xx_hal_flash_ex.c ****   * 
 502:Drivers/STM32F7xx_HAL_Driver/Src/stm32f7xx_hal_flash_ex.c ****   * @retval None
 503:Drivers/STM32F7xx_HAL_Driver/Src/stm32f7xx_hal_flash_ex.c ****   */
 504:Drivers/STM32F7xx_HAL_Driver/Src/stm32f7xx_hal_flash_ex.c **** void FLASH_Erase_Sector(uint32_t Sector, uint8_t VoltageRange)
 505:Drivers/STM32F7xx_HAL_Driver/Src/stm32f7xx_hal_flash_ex.c **** {
 506:Drivers/STM32F7xx_HAL_Driver/Src/stm32f7xx_hal_flash_ex.c ****   uint32_t tmp_psize = 0;
 507:Drivers/STM32F7xx_HAL_Driver/Src/stm32f7xx_hal_flash_ex.c **** 
 508:Drivers/STM32F7xx_HAL_Driver/Src/stm32f7xx_hal_flash_ex.c ****   /* Check the parameters */
 509:Drivers/STM32F7xx_HAL_Driver/Src/stm32f7xx_hal_flash_ex.c ****   assert_param(IS_FLASH_SECTOR(Sector));
 510:Drivers/STM32F7xx_HAL_Driver/Src/stm32f7xx_hal_flash_ex.c ****   assert_param(IS_VOLTAGERANGE(VoltageRange));
 511:Drivers/STM32F7xx_HAL_Driver/Src/stm32f7xx_hal_flash_ex.c ****   
 512:Drivers/STM32F7xx_HAL_Driver/Src/stm32f7xx_hal_flash_ex.c ****   if(VoltageRange == FLASH_VOLTAGE_RANGE_1)
 513:Drivers/STM32F7xx_HAL_Driver/Src/stm32f7xx_hal_flash_ex.c ****   {
 514:Drivers/STM32F7xx_HAL_Driver/Src/stm32f7xx_hal_flash_ex.c ****      tmp_psize = FLASH_PSIZE_BYTE;
 515:Drivers/STM32F7xx_HAL_Driver/Src/stm32f7xx_hal_flash_ex.c ****   }
 516:Drivers/STM32F7xx_HAL_Driver/Src/stm32f7xx_hal_flash_ex.c ****   else if(VoltageRange == FLASH_VOLTAGE_RANGE_2)
 517:Drivers/STM32F7xx_HAL_Driver/Src/stm32f7xx_hal_flash_ex.c ****   {
 518:Drivers/STM32F7xx_HAL_Driver/Src/stm32f7xx_hal_flash_ex.c ****     tmp_psize = FLASH_PSIZE_HALF_WORD;
 519:Drivers/STM32F7xx_HAL_Driver/Src/stm32f7xx_hal_flash_ex.c ****   }
 520:Drivers/STM32F7xx_HAL_Driver/Src/stm32f7xx_hal_flash_ex.c ****   else if(VoltageRange == FLASH_VOLTAGE_RANGE_3)
 521:Drivers/STM32F7xx_HAL_Driver/Src/stm32f7xx_hal_flash_ex.c ****   {
 522:Drivers/STM32F7xx_HAL_Driver/Src/stm32f7xx_hal_flash_ex.c ****     tmp_psize = FLASH_PSIZE_WORD;
 523:Drivers/STM32F7xx_HAL_Driver/Src/stm32f7xx_hal_flash_ex.c ****   }
 524:Drivers/STM32F7xx_HAL_Driver/Src/stm32f7xx_hal_flash_ex.c ****   else
 525:Drivers/STM32F7xx_HAL_Driver/Src/stm32f7xx_hal_flash_ex.c ****   {
 526:Drivers/STM32F7xx_HAL_Driver/Src/stm32f7xx_hal_flash_ex.c ****     tmp_psize = FLASH_PSIZE_DOUBLE_WORD;
 527:Drivers/STM32F7xx_HAL_Driver/Src/stm32f7xx_hal_flash_ex.c ****   }
 528:Drivers/STM32F7xx_HAL_Driver/Src/stm32f7xx_hal_flash_ex.c ****   
 529:Drivers/STM32F7xx_HAL_Driver/Src/stm32f7xx_hal_flash_ex.c ****   /* Need to add offset of 4 when sector higher than FLASH_SECTOR_11 */
 530:Drivers/STM32F7xx_HAL_Driver/Src/stm32f7xx_hal_flash_ex.c ****   if(Sector > FLASH_SECTOR_11) 
 531:Drivers/STM32F7xx_HAL_Driver/Src/stm32f7xx_hal_flash_ex.c ****   {
 532:Drivers/STM32F7xx_HAL_Driver/Src/stm32f7xx_hal_flash_ex.c ****     Sector += 4;
 533:Drivers/STM32F7xx_HAL_Driver/Src/stm32f7xx_hal_flash_ex.c ****   }  
 534:Drivers/STM32F7xx_HAL_Driver/Src/stm32f7xx_hal_flash_ex.c **** 
 535:Drivers/STM32F7xx_HAL_Driver/Src/stm32f7xx_hal_flash_ex.c ****   /* If the previous operation is completed, proceed to erase the sector */
 536:Drivers/STM32F7xx_HAL_Driver/Src/stm32f7xx_hal_flash_ex.c ****   FLASH->CR &= CR_PSIZE_MASK;
 537:Drivers/STM32F7xx_HAL_Driver/Src/stm32f7xx_hal_flash_ex.c ****   FLASH->CR |= tmp_psize;
 538:Drivers/STM32F7xx_HAL_Driver/Src/stm32f7xx_hal_flash_ex.c ****   CLEAR_BIT(FLASH->CR, FLASH_CR_SNB);
 539:Drivers/STM32F7xx_HAL_Driver/Src/stm32f7xx_hal_flash_ex.c ****   FLASH->CR |= FLASH_CR_SER | (Sector << FLASH_CR_SNB_Pos);
 540:Drivers/STM32F7xx_HAL_Driver/Src/stm32f7xx_hal_flash_ex.c ****   FLASH->CR |= FLASH_CR_STRT;
 541:Drivers/STM32F7xx_HAL_Driver/Src/stm32f7xx_hal_flash_ex.c ****   
 542:Drivers/STM32F7xx_HAL_Driver/Src/stm32f7xx_hal_flash_ex.c ****   /* Data synchronous Barrier (DSB) Just after the write operation
 543:Drivers/STM32F7xx_HAL_Driver/Src/stm32f7xx_hal_flash_ex.c ****      This will force the CPU to respect the sequence of instruction (no optimization).*/
 544:Drivers/STM32F7xx_HAL_Driver/Src/stm32f7xx_hal_flash_ex.c ****   __DSB();
 545:Drivers/STM32F7xx_HAL_Driver/Src/stm32f7xx_hal_flash_ex.c **** }
 546:Drivers/STM32F7xx_HAL_Driver/Src/stm32f7xx_hal_flash_ex.c **** 
 547:Drivers/STM32F7xx_HAL_Driver/Src/stm32f7xx_hal_flash_ex.c **** /**
 548:Drivers/STM32F7xx_HAL_Driver/Src/stm32f7xx_hal_flash_ex.c ****   * @brief  Return the FLASH Write Protection Option Bytes value.
 549:Drivers/STM32F7xx_HAL_Driver/Src/stm32f7xx_hal_flash_ex.c ****   * @retval uint32_t FLASH Write Protection Option Bytes value
 550:Drivers/STM32F7xx_HAL_Driver/Src/stm32f7xx_hal_flash_ex.c ****   */
 551:Drivers/STM32F7xx_HAL_Driver/Src/stm32f7xx_hal_flash_ex.c **** static uint32_t FLASH_OB_GetWRP(void)
 552:Drivers/STM32F7xx_HAL_Driver/Src/stm32f7xx_hal_flash_ex.c **** {
 553:Drivers/STM32F7xx_HAL_Driver/Src/stm32f7xx_hal_flash_ex.c ****   /* Return the FLASH write protection Register value */
 554:Drivers/STM32F7xx_HAL_Driver/Src/stm32f7xx_hal_flash_ex.c ****   return ((uint32_t)(FLASH->OPTCR & 0x0FFF0000));
ARM GAS  /tmp/ccOWtDgG.s 			page 21


 555:Drivers/STM32F7xx_HAL_Driver/Src/stm32f7xx_hal_flash_ex.c **** }
 556:Drivers/STM32F7xx_HAL_Driver/Src/stm32f7xx_hal_flash_ex.c **** 
 557:Drivers/STM32F7xx_HAL_Driver/Src/stm32f7xx_hal_flash_ex.c **** /**
 558:Drivers/STM32F7xx_HAL_Driver/Src/stm32f7xx_hal_flash_ex.c ****   * @brief  Program the FLASH User Option Byte: IWDG_SW / RST_STOP / RST_STDBY.    
 559:Drivers/STM32F7xx_HAL_Driver/Src/stm32f7xx_hal_flash_ex.c ****   * @param  Wwdg Selects the IWDG mode
 560:Drivers/STM32F7xx_HAL_Driver/Src/stm32f7xx_hal_flash_ex.c ****   *          This parameter can be one of the following values:
 561:Drivers/STM32F7xx_HAL_Driver/Src/stm32f7xx_hal_flash_ex.c ****   *            @arg OB_WWDG_SW: Software WWDG selected
 562:Drivers/STM32F7xx_HAL_Driver/Src/stm32f7xx_hal_flash_ex.c ****   *            @arg OB_WWDG_HW: Hardware WWDG selected
 563:Drivers/STM32F7xx_HAL_Driver/Src/stm32f7xx_hal_flash_ex.c ****   * @param  Iwdg Selects the WWDG mode
 564:Drivers/STM32F7xx_HAL_Driver/Src/stm32f7xx_hal_flash_ex.c ****   *          This parameter can be one of the following values:
 565:Drivers/STM32F7xx_HAL_Driver/Src/stm32f7xx_hal_flash_ex.c ****   *            @arg OB_IWDG_SW: Software IWDG selected
 566:Drivers/STM32F7xx_HAL_Driver/Src/stm32f7xx_hal_flash_ex.c ****   *            @arg OB_IWDG_HW: Hardware IWDG selected
 567:Drivers/STM32F7xx_HAL_Driver/Src/stm32f7xx_hal_flash_ex.c ****   * @param  Stop Reset event when entering STOP mode.
 568:Drivers/STM32F7xx_HAL_Driver/Src/stm32f7xx_hal_flash_ex.c ****   *          This parameter  can be one of the following values:
 569:Drivers/STM32F7xx_HAL_Driver/Src/stm32f7xx_hal_flash_ex.c ****   *            @arg OB_STOP_NO_RST: No reset generated when entering in STOP
 570:Drivers/STM32F7xx_HAL_Driver/Src/stm32f7xx_hal_flash_ex.c ****   *            @arg OB_STOP_RST: Reset generated when entering in STOP
 571:Drivers/STM32F7xx_HAL_Driver/Src/stm32f7xx_hal_flash_ex.c ****   * @param  Stdby Reset event when entering Standby mode.
 572:Drivers/STM32F7xx_HAL_Driver/Src/stm32f7xx_hal_flash_ex.c ****   *          This parameter  can be one of the following values:
 573:Drivers/STM32F7xx_HAL_Driver/Src/stm32f7xx_hal_flash_ex.c ****   *            @arg OB_STDBY_NO_RST: No reset generated when entering in STANDBY
 574:Drivers/STM32F7xx_HAL_Driver/Src/stm32f7xx_hal_flash_ex.c ****   *            @arg OB_STDBY_RST: Reset generated when entering in STANDBY
 575:Drivers/STM32F7xx_HAL_Driver/Src/stm32f7xx_hal_flash_ex.c ****   * @param  Iwdgstop Independent watchdog counter freeze in Stop mode.
 576:Drivers/STM32F7xx_HAL_Driver/Src/stm32f7xx_hal_flash_ex.c ****   *          This parameter  can be one of the following values:
 577:Drivers/STM32F7xx_HAL_Driver/Src/stm32f7xx_hal_flash_ex.c ****   *            @arg OB_IWDG_STOP_FREEZE: Freeze IWDG counter in STOP
 578:Drivers/STM32F7xx_HAL_Driver/Src/stm32f7xx_hal_flash_ex.c ****   *            @arg OB_IWDG_STOP_ACTIVE: IWDG counter active in STOP
 579:Drivers/STM32F7xx_HAL_Driver/Src/stm32f7xx_hal_flash_ex.c ****   * @param  Iwdgstdby Independent watchdog counter freeze in standby mode.
 580:Drivers/STM32F7xx_HAL_Driver/Src/stm32f7xx_hal_flash_ex.c ****   *          This parameter  can be one of the following values:
 581:Drivers/STM32F7xx_HAL_Driver/Src/stm32f7xx_hal_flash_ex.c ****   *            @arg OB_IWDG_STDBY_FREEZE: Freeze IWDG counter in STANDBY
 582:Drivers/STM32F7xx_HAL_Driver/Src/stm32f7xx_hal_flash_ex.c ****   *            @arg OB_IWDG_STDBY_ACTIVE: IWDG counter active in STANDBY
 583:Drivers/STM32F7xx_HAL_Driver/Src/stm32f7xx_hal_flash_ex.c ****   * @param  NDBank Flash Single Bank mode enabled.
 584:Drivers/STM32F7xx_HAL_Driver/Src/stm32f7xx_hal_flash_ex.c ****   *          This parameter  can be one of the following values:
 585:Drivers/STM32F7xx_HAL_Driver/Src/stm32f7xx_hal_flash_ex.c ****   *            @arg OB_NDBANK_SINGLE_BANK: enable 256 bits mode (Flash is a single bank)
 586:Drivers/STM32F7xx_HAL_Driver/Src/stm32f7xx_hal_flash_ex.c ****   *            @arg OB_NDBANK_DUAL_BANK: disable 256 bits mode (Flash is a dual bank in 128 bits mo
 587:Drivers/STM32F7xx_HAL_Driver/Src/stm32f7xx_hal_flash_ex.c ****   * @param  NDBoot Flash Dual boot mode disable.
 588:Drivers/STM32F7xx_HAL_Driver/Src/stm32f7xx_hal_flash_ex.c ****   *          This parameter  can be one of the following values:
 589:Drivers/STM32F7xx_HAL_Driver/Src/stm32f7xx_hal_flash_ex.c ****   *            @arg OB_DUAL_BOOT_DISABLE: Disable Dual Boot
 590:Drivers/STM32F7xx_HAL_Driver/Src/stm32f7xx_hal_flash_ex.c ****   *            @arg OB_DUAL_BOOT_ENABLE: Enable Dual Boot
 591:Drivers/STM32F7xx_HAL_Driver/Src/stm32f7xx_hal_flash_ex.c **** 
 592:Drivers/STM32F7xx_HAL_Driver/Src/stm32f7xx_hal_flash_ex.c ****   * @retval HAL Status
 593:Drivers/STM32F7xx_HAL_Driver/Src/stm32f7xx_hal_flash_ex.c ****   */
 594:Drivers/STM32F7xx_HAL_Driver/Src/stm32f7xx_hal_flash_ex.c **** static HAL_StatusTypeDef FLASH_OB_UserConfig(uint32_t Wwdg, uint32_t Iwdg, uint32_t Stop, uint32_t 
 595:Drivers/STM32F7xx_HAL_Driver/Src/stm32f7xx_hal_flash_ex.c ****                                              uint32_t Iwdgstdby, uint32_t NDBank, uint32_t NDBoot)
 596:Drivers/STM32F7xx_HAL_Driver/Src/stm32f7xx_hal_flash_ex.c **** {
 597:Drivers/STM32F7xx_HAL_Driver/Src/stm32f7xx_hal_flash_ex.c ****   uint32_t useroptionmask = 0x00;
 598:Drivers/STM32F7xx_HAL_Driver/Src/stm32f7xx_hal_flash_ex.c ****   uint32_t useroptionvalue = 0x00;
 599:Drivers/STM32F7xx_HAL_Driver/Src/stm32f7xx_hal_flash_ex.c **** 
 600:Drivers/STM32F7xx_HAL_Driver/Src/stm32f7xx_hal_flash_ex.c ****   HAL_StatusTypeDef status = HAL_OK;
 601:Drivers/STM32F7xx_HAL_Driver/Src/stm32f7xx_hal_flash_ex.c **** 
 602:Drivers/STM32F7xx_HAL_Driver/Src/stm32f7xx_hal_flash_ex.c ****   /* Check the parameters */
 603:Drivers/STM32F7xx_HAL_Driver/Src/stm32f7xx_hal_flash_ex.c ****   assert_param(IS_OB_WWDG_SOURCE(Wwdg));
 604:Drivers/STM32F7xx_HAL_Driver/Src/stm32f7xx_hal_flash_ex.c ****   assert_param(IS_OB_IWDG_SOURCE(Iwdg));
 605:Drivers/STM32F7xx_HAL_Driver/Src/stm32f7xx_hal_flash_ex.c ****   assert_param(IS_OB_STOP_SOURCE(Stop));
 606:Drivers/STM32F7xx_HAL_Driver/Src/stm32f7xx_hal_flash_ex.c ****   assert_param(IS_OB_STDBY_SOURCE(Stdby));
 607:Drivers/STM32F7xx_HAL_Driver/Src/stm32f7xx_hal_flash_ex.c ****   assert_param(IS_OB_IWDG_STOP_FREEZE(Iwdgstop));
 608:Drivers/STM32F7xx_HAL_Driver/Src/stm32f7xx_hal_flash_ex.c ****   assert_param(IS_OB_IWDG_STDBY_FREEZE(Iwdgstdby));
 609:Drivers/STM32F7xx_HAL_Driver/Src/stm32f7xx_hal_flash_ex.c ****   assert_param(IS_OB_NDBANK(NDBank));
 610:Drivers/STM32F7xx_HAL_Driver/Src/stm32f7xx_hal_flash_ex.c ****   assert_param(IS_OB_NDBOOT(NDBoot));
 611:Drivers/STM32F7xx_HAL_Driver/Src/stm32f7xx_hal_flash_ex.c ****   
ARM GAS  /tmp/ccOWtDgG.s 			page 22


 612:Drivers/STM32F7xx_HAL_Driver/Src/stm32f7xx_hal_flash_ex.c ****   /* Wait for last operation to be completed */
 613:Drivers/STM32F7xx_HAL_Driver/Src/stm32f7xx_hal_flash_ex.c ****   status = FLASH_WaitForLastOperation((uint32_t)FLASH_TIMEOUT_VALUE);
 614:Drivers/STM32F7xx_HAL_Driver/Src/stm32f7xx_hal_flash_ex.c ****   
 615:Drivers/STM32F7xx_HAL_Driver/Src/stm32f7xx_hal_flash_ex.c ****   if(status == HAL_OK)
 616:Drivers/STM32F7xx_HAL_Driver/Src/stm32f7xx_hal_flash_ex.c ****   {
 617:Drivers/STM32F7xx_HAL_Driver/Src/stm32f7xx_hal_flash_ex.c ****     useroptionmask = (FLASH_OPTCR_WWDG_SW | FLASH_OPTCR_IWDG_SW | FLASH_OPTCR_nRST_STOP | \
 618:Drivers/STM32F7xx_HAL_Driver/Src/stm32f7xx_hal_flash_ex.c ****                       FLASH_OPTCR_nRST_STDBY | FLASH_OPTCR_IWDG_STOP | FLASH_OPTCR_IWDG_STDBY | \
 619:Drivers/STM32F7xx_HAL_Driver/Src/stm32f7xx_hal_flash_ex.c ****                       FLASH_OPTCR_nDBOOT | FLASH_OPTCR_nDBANK);
 620:Drivers/STM32F7xx_HAL_Driver/Src/stm32f7xx_hal_flash_ex.c ****                       
 621:Drivers/STM32F7xx_HAL_Driver/Src/stm32f7xx_hal_flash_ex.c ****     useroptionvalue = (Iwdg | Wwdg | Stop | Stdby | Iwdgstop | Iwdgstdby | NDBoot | NDBank);
 622:Drivers/STM32F7xx_HAL_Driver/Src/stm32f7xx_hal_flash_ex.c ****         
 623:Drivers/STM32F7xx_HAL_Driver/Src/stm32f7xx_hal_flash_ex.c ****     /* Update User Option Byte */               
 624:Drivers/STM32F7xx_HAL_Driver/Src/stm32f7xx_hal_flash_ex.c ****     MODIFY_REG(FLASH->OPTCR, useroptionmask, useroptionvalue);
 625:Drivers/STM32F7xx_HAL_Driver/Src/stm32f7xx_hal_flash_ex.c ****   }
 626:Drivers/STM32F7xx_HAL_Driver/Src/stm32f7xx_hal_flash_ex.c ****   
 627:Drivers/STM32F7xx_HAL_Driver/Src/stm32f7xx_hal_flash_ex.c ****   return status; 
 628:Drivers/STM32F7xx_HAL_Driver/Src/stm32f7xx_hal_flash_ex.c **** }
 629:Drivers/STM32F7xx_HAL_Driver/Src/stm32f7xx_hal_flash_ex.c **** 
 630:Drivers/STM32F7xx_HAL_Driver/Src/stm32f7xx_hal_flash_ex.c **** /**
 631:Drivers/STM32F7xx_HAL_Driver/Src/stm32f7xx_hal_flash_ex.c ****   * @brief  Return the FLASH User Option Byte value.
 632:Drivers/STM32F7xx_HAL_Driver/Src/stm32f7xx_hal_flash_ex.c ****   * @retval uint32_t FLASH User Option Bytes values: WWDG_SW(Bit4), IWDG_SW(Bit5), nRST_STOP(Bit6),
 633:Drivers/STM32F7xx_HAL_Driver/Src/stm32f7xx_hal_flash_ex.c ****   *         nRST_STDBY(Bit7), nDBOOT(Bit28), nDBANK(Bit29), IWDG_STDBY(Bit30) and IWDG_STOP(Bit31).
 634:Drivers/STM32F7xx_HAL_Driver/Src/stm32f7xx_hal_flash_ex.c ****   */
 635:Drivers/STM32F7xx_HAL_Driver/Src/stm32f7xx_hal_flash_ex.c **** static uint32_t FLASH_OB_GetUser(void)
 636:Drivers/STM32F7xx_HAL_Driver/Src/stm32f7xx_hal_flash_ex.c **** {
 637:Drivers/STM32F7xx_HAL_Driver/Src/stm32f7xx_hal_flash_ex.c ****   /* Return the User Option Byte */
 638:Drivers/STM32F7xx_HAL_Driver/Src/stm32f7xx_hal_flash_ex.c ****   return ((uint32_t)(FLASH->OPTCR & 0xF00000F0U));
 639:Drivers/STM32F7xx_HAL_Driver/Src/stm32f7xx_hal_flash_ex.c **** }
 640:Drivers/STM32F7xx_HAL_Driver/Src/stm32f7xx_hal_flash_ex.c **** #else
 641:Drivers/STM32F7xx_HAL_Driver/Src/stm32f7xx_hal_flash_ex.c **** 
 642:Drivers/STM32F7xx_HAL_Driver/Src/stm32f7xx_hal_flash_ex.c **** /**
 643:Drivers/STM32F7xx_HAL_Driver/Src/stm32f7xx_hal_flash_ex.c ****   * @brief  Full erase of FLASH memory sectors 
 644:Drivers/STM32F7xx_HAL_Driver/Src/stm32f7xx_hal_flash_ex.c ****   * @param  VoltageRange The device voltage range which defines the erase parallelism.  
 645:Drivers/STM32F7xx_HAL_Driver/Src/stm32f7xx_hal_flash_ex.c ****   *          This parameter can be one of the following values:
 646:Drivers/STM32F7xx_HAL_Driver/Src/stm32f7xx_hal_flash_ex.c ****   *            @arg VOLTAGE_RANGE_1: when the device voltage range is 1.8V to 2.1V, 
 647:Drivers/STM32F7xx_HAL_Driver/Src/stm32f7xx_hal_flash_ex.c ****   *                                  the operation will be done by byte (8-bit) 
 648:Drivers/STM32F7xx_HAL_Driver/Src/stm32f7xx_hal_flash_ex.c ****   *            @arg VOLTAGE_RANGE_2: when the device voltage range is 2.1V to 2.7V,
 649:Drivers/STM32F7xx_HAL_Driver/Src/stm32f7xx_hal_flash_ex.c ****   *                                  the operation will be done by half word (16-bit)
 650:Drivers/STM32F7xx_HAL_Driver/Src/stm32f7xx_hal_flash_ex.c ****   *            @arg VOLTAGE_RANGE_3: when the device voltage range is 2.7V to 3.6V,
 651:Drivers/STM32F7xx_HAL_Driver/Src/stm32f7xx_hal_flash_ex.c ****   *                                  the operation will be done by word (32-bit)
 652:Drivers/STM32F7xx_HAL_Driver/Src/stm32f7xx_hal_flash_ex.c ****   *            @arg VOLTAGE_RANGE_4: when the device voltage range is 2.7V to 3.6V + External Vpp, 
 653:Drivers/STM32F7xx_HAL_Driver/Src/stm32f7xx_hal_flash_ex.c ****   *                                  the operation will be done by double word (64-bit)
 654:Drivers/STM32F7xx_HAL_Driver/Src/stm32f7xx_hal_flash_ex.c ****   *
 655:Drivers/STM32F7xx_HAL_Driver/Src/stm32f7xx_hal_flash_ex.c ****   * @retval HAL Status
 656:Drivers/STM32F7xx_HAL_Driver/Src/stm32f7xx_hal_flash_ex.c ****   */
 657:Drivers/STM32F7xx_HAL_Driver/Src/stm32f7xx_hal_flash_ex.c **** static void FLASH_MassErase(uint8_t VoltageRange)
 658:Drivers/STM32F7xx_HAL_Driver/Src/stm32f7xx_hal_flash_ex.c **** {
 589              		.loc 1 658 0
 590              		.cfi_startproc
 591              		@ args = 0, pretend = 0, frame = 8
 592              		@ frame_needed = 1, uses_anonymous_args = 0
 593              		@ link register save eliminated.
 594 0000 80B4     		push	{r7}
 595              	.LCFI20:
 596              		.cfi_def_cfa_offset 4
 597              		.cfi_offset 7, -4
 598 0002 83B0     		sub	sp, sp, #12
ARM GAS  /tmp/ccOWtDgG.s 			page 23


 599              	.LCFI21:
 600              		.cfi_def_cfa_offset 16
 601 0004 00AF     		add	r7, sp, #0
 602              	.LCFI22:
 603              		.cfi_def_cfa_register 7
 604 0006 0346     		mov	r3, r0
 605 0008 FB71     		strb	r3, [r7, #7]
 659:Drivers/STM32F7xx_HAL_Driver/Src/stm32f7xx_hal_flash_ex.c ****   /* Check the parameters */
 660:Drivers/STM32F7xx_HAL_Driver/Src/stm32f7xx_hal_flash_ex.c ****   assert_param(IS_VOLTAGERANGE(VoltageRange));
 661:Drivers/STM32F7xx_HAL_Driver/Src/stm32f7xx_hal_flash_ex.c **** 
 662:Drivers/STM32F7xx_HAL_Driver/Src/stm32f7xx_hal_flash_ex.c ****   /* if the previous operation is completed, proceed to erase all sectors */
 663:Drivers/STM32F7xx_HAL_Driver/Src/stm32f7xx_hal_flash_ex.c ****   FLASH->CR &= CR_PSIZE_MASK;
 606              		.loc 1 663 0
 607 000a 0E4B     		ldr	r3, .L32
 608 000c 1B69     		ldr	r3, [r3, #16]
 609 000e 0D4A     		ldr	r2, .L32
 610 0010 23F44073 		bic	r3, r3, #768
 611 0014 1361     		str	r3, [r2, #16]
 664:Drivers/STM32F7xx_HAL_Driver/Src/stm32f7xx_hal_flash_ex.c ****   FLASH->CR |= FLASH_CR_MER;
 612              		.loc 1 664 0
 613 0016 0B4B     		ldr	r3, .L32
 614 0018 1B69     		ldr	r3, [r3, #16]
 615 001a 0A4A     		ldr	r2, .L32
 616 001c 43F00403 		orr	r3, r3, #4
 617 0020 1361     		str	r3, [r2, #16]
 665:Drivers/STM32F7xx_HAL_Driver/Src/stm32f7xx_hal_flash_ex.c ****   FLASH->CR |= FLASH_CR_STRT | ((uint32_t)VoltageRange <<8);
 618              		.loc 1 665 0
 619 0022 084B     		ldr	r3, .L32
 620 0024 1A69     		ldr	r2, [r3, #16]
 621 0026 FB79     		ldrb	r3, [r7, #7]	@ zero_extendqisi2
 622 0028 1B02     		lsls	r3, r3, #8
 623 002a 1343     		orrs	r3, r3, r2
 624 002c 054A     		ldr	r2, .L32
 625 002e 43F48033 		orr	r3, r3, #65536
 626 0032 1361     		str	r3, [r2, #16]
 627              	.LBB6:
 628              	.LBB7:
 629              		.file 2 "Drivers/CMSIS/Include/cmsis_gcc.h"
   1:Drivers/CMSIS/Include/cmsis_gcc.h **** /**************************************************************************//**
   2:Drivers/CMSIS/Include/cmsis_gcc.h ****  * @file     cmsis_gcc.h
   3:Drivers/CMSIS/Include/cmsis_gcc.h ****  * @brief    CMSIS Cortex-M Core Function/Instruction Header File
   4:Drivers/CMSIS/Include/cmsis_gcc.h ****  * @version  V4.30
   5:Drivers/CMSIS/Include/cmsis_gcc.h ****  * @date     20. October 2015
   6:Drivers/CMSIS/Include/cmsis_gcc.h ****  ******************************************************************************/
   7:Drivers/CMSIS/Include/cmsis_gcc.h **** /* Copyright (c) 2009 - 2015 ARM LIMITED
   8:Drivers/CMSIS/Include/cmsis_gcc.h **** 
   9:Drivers/CMSIS/Include/cmsis_gcc.h ****    All rights reserved.
  10:Drivers/CMSIS/Include/cmsis_gcc.h ****    Redistribution and use in source and binary forms, with or without
  11:Drivers/CMSIS/Include/cmsis_gcc.h ****    modification, are permitted provided that the following conditions are met:
  12:Drivers/CMSIS/Include/cmsis_gcc.h ****    - Redistributions of source code must retain the above copyright
  13:Drivers/CMSIS/Include/cmsis_gcc.h ****      notice, this list of conditions and the following disclaimer.
  14:Drivers/CMSIS/Include/cmsis_gcc.h ****    - Redistributions in binary form must reproduce the above copyright
  15:Drivers/CMSIS/Include/cmsis_gcc.h ****      notice, this list of conditions and the following disclaimer in the
  16:Drivers/CMSIS/Include/cmsis_gcc.h ****      documentation and/or other materials provided with the distribution.
  17:Drivers/CMSIS/Include/cmsis_gcc.h ****    - Neither the name of ARM nor the names of its contributors may be used
  18:Drivers/CMSIS/Include/cmsis_gcc.h ****      to endorse or promote products derived from this software without
  19:Drivers/CMSIS/Include/cmsis_gcc.h ****      specific prior written permission.
ARM GAS  /tmp/ccOWtDgG.s 			page 24


  20:Drivers/CMSIS/Include/cmsis_gcc.h ****    *
  21:Drivers/CMSIS/Include/cmsis_gcc.h ****    THIS SOFTWARE IS PROVIDED BY THE COPYRIGHT HOLDERS AND CONTRIBUTORS "AS IS"
  22:Drivers/CMSIS/Include/cmsis_gcc.h ****    AND ANY EXPRESS OR IMPLIED WARRANTIES, INCLUDING, BUT NOT LIMITED TO, THE
  23:Drivers/CMSIS/Include/cmsis_gcc.h ****    IMPLIED WARRANTIES OF MERCHANTABILITY AND FITNESS FOR A PARTICULAR PURPOSE
  24:Drivers/CMSIS/Include/cmsis_gcc.h ****    ARE DISCLAIMED. IN NO EVENT SHALL COPYRIGHT HOLDERS AND CONTRIBUTORS BE
  25:Drivers/CMSIS/Include/cmsis_gcc.h ****    LIABLE FOR ANY DIRECT, INDIRECT, INCIDENTAL, SPECIAL, EXEMPLARY, OR
  26:Drivers/CMSIS/Include/cmsis_gcc.h ****    CONSEQUENTIAL DAMAGES (INCLUDING, BUT NOT LIMITED TO, PROCUREMENT OF
  27:Drivers/CMSIS/Include/cmsis_gcc.h ****    SUBSTITUTE GOODS OR SERVICES; LOSS OF USE, DATA, OR PROFITS; OR BUSINESS
  28:Drivers/CMSIS/Include/cmsis_gcc.h ****    INTERRUPTION) HOWEVER CAUSED AND ON ANY THEORY OF LIABILITY, WHETHER IN
  29:Drivers/CMSIS/Include/cmsis_gcc.h ****    CONTRACT, STRICT LIABILITY, OR TORT (INCLUDING NEGLIGENCE OR OTHERWISE)
  30:Drivers/CMSIS/Include/cmsis_gcc.h ****    ARISING IN ANY WAY OUT OF THE USE OF THIS SOFTWARE, EVEN IF ADVISED OF THE
  31:Drivers/CMSIS/Include/cmsis_gcc.h ****    POSSIBILITY OF SUCH DAMAGE.
  32:Drivers/CMSIS/Include/cmsis_gcc.h ****    ---------------------------------------------------------------------------*/
  33:Drivers/CMSIS/Include/cmsis_gcc.h **** 
  34:Drivers/CMSIS/Include/cmsis_gcc.h **** 
  35:Drivers/CMSIS/Include/cmsis_gcc.h **** #ifndef __CMSIS_GCC_H
  36:Drivers/CMSIS/Include/cmsis_gcc.h **** #define __CMSIS_GCC_H
  37:Drivers/CMSIS/Include/cmsis_gcc.h **** 
  38:Drivers/CMSIS/Include/cmsis_gcc.h **** /* ignore some GCC warnings */
  39:Drivers/CMSIS/Include/cmsis_gcc.h **** #if defined ( __GNUC__ )
  40:Drivers/CMSIS/Include/cmsis_gcc.h **** #pragma GCC diagnostic push
  41:Drivers/CMSIS/Include/cmsis_gcc.h **** #pragma GCC diagnostic ignored "-Wsign-conversion"
  42:Drivers/CMSIS/Include/cmsis_gcc.h **** #pragma GCC diagnostic ignored "-Wconversion"
  43:Drivers/CMSIS/Include/cmsis_gcc.h **** #pragma GCC diagnostic ignored "-Wunused-parameter"
  44:Drivers/CMSIS/Include/cmsis_gcc.h **** #endif
  45:Drivers/CMSIS/Include/cmsis_gcc.h **** 
  46:Drivers/CMSIS/Include/cmsis_gcc.h **** 
  47:Drivers/CMSIS/Include/cmsis_gcc.h **** /* ###########################  Core Function Access  ########################### */
  48:Drivers/CMSIS/Include/cmsis_gcc.h **** /** \ingroup  CMSIS_Core_FunctionInterface
  49:Drivers/CMSIS/Include/cmsis_gcc.h ****     \defgroup CMSIS_Core_RegAccFunctions CMSIS Core Register Access Functions
  50:Drivers/CMSIS/Include/cmsis_gcc.h ****   @{
  51:Drivers/CMSIS/Include/cmsis_gcc.h ****  */
  52:Drivers/CMSIS/Include/cmsis_gcc.h **** 
  53:Drivers/CMSIS/Include/cmsis_gcc.h **** /**
  54:Drivers/CMSIS/Include/cmsis_gcc.h ****   \brief   Enable IRQ Interrupts
  55:Drivers/CMSIS/Include/cmsis_gcc.h ****   \details Enables IRQ interrupts by clearing the I-bit in the CPSR.
  56:Drivers/CMSIS/Include/cmsis_gcc.h ****            Can only be executed in Privileged modes.
  57:Drivers/CMSIS/Include/cmsis_gcc.h ****  */
  58:Drivers/CMSIS/Include/cmsis_gcc.h **** __attribute__( ( always_inline ) ) __STATIC_INLINE void __enable_irq(void)
  59:Drivers/CMSIS/Include/cmsis_gcc.h **** {
  60:Drivers/CMSIS/Include/cmsis_gcc.h ****   __ASM volatile ("cpsie i" : : : "memory");
  61:Drivers/CMSIS/Include/cmsis_gcc.h **** }
  62:Drivers/CMSIS/Include/cmsis_gcc.h **** 
  63:Drivers/CMSIS/Include/cmsis_gcc.h **** 
  64:Drivers/CMSIS/Include/cmsis_gcc.h **** /**
  65:Drivers/CMSIS/Include/cmsis_gcc.h ****   \brief   Disable IRQ Interrupts
  66:Drivers/CMSIS/Include/cmsis_gcc.h ****   \details Disables IRQ interrupts by setting the I-bit in the CPSR.
  67:Drivers/CMSIS/Include/cmsis_gcc.h ****   Can only be executed in Privileged modes.
  68:Drivers/CMSIS/Include/cmsis_gcc.h ****  */
  69:Drivers/CMSIS/Include/cmsis_gcc.h **** __attribute__( ( always_inline ) ) __STATIC_INLINE void __disable_irq(void)
  70:Drivers/CMSIS/Include/cmsis_gcc.h **** {
  71:Drivers/CMSIS/Include/cmsis_gcc.h ****   __ASM volatile ("cpsid i" : : : "memory");
  72:Drivers/CMSIS/Include/cmsis_gcc.h **** }
  73:Drivers/CMSIS/Include/cmsis_gcc.h **** 
  74:Drivers/CMSIS/Include/cmsis_gcc.h **** 
  75:Drivers/CMSIS/Include/cmsis_gcc.h **** /**
  76:Drivers/CMSIS/Include/cmsis_gcc.h ****   \brief   Get Control Register
ARM GAS  /tmp/ccOWtDgG.s 			page 25


  77:Drivers/CMSIS/Include/cmsis_gcc.h ****   \details Returns the content of the Control Register.
  78:Drivers/CMSIS/Include/cmsis_gcc.h ****   \return               Control Register value
  79:Drivers/CMSIS/Include/cmsis_gcc.h ****  */
  80:Drivers/CMSIS/Include/cmsis_gcc.h **** __attribute__( ( always_inline ) ) __STATIC_INLINE uint32_t __get_CONTROL(void)
  81:Drivers/CMSIS/Include/cmsis_gcc.h **** {
  82:Drivers/CMSIS/Include/cmsis_gcc.h ****   uint32_t result;
  83:Drivers/CMSIS/Include/cmsis_gcc.h **** 
  84:Drivers/CMSIS/Include/cmsis_gcc.h ****   __ASM volatile ("MRS %0, control" : "=r" (result) );
  85:Drivers/CMSIS/Include/cmsis_gcc.h ****   return(result);
  86:Drivers/CMSIS/Include/cmsis_gcc.h **** }
  87:Drivers/CMSIS/Include/cmsis_gcc.h **** 
  88:Drivers/CMSIS/Include/cmsis_gcc.h **** 
  89:Drivers/CMSIS/Include/cmsis_gcc.h **** /**
  90:Drivers/CMSIS/Include/cmsis_gcc.h ****   \brief   Set Control Register
  91:Drivers/CMSIS/Include/cmsis_gcc.h ****   \details Writes the given value to the Control Register.
  92:Drivers/CMSIS/Include/cmsis_gcc.h ****   \param [in]    control  Control Register value to set
  93:Drivers/CMSIS/Include/cmsis_gcc.h ****  */
  94:Drivers/CMSIS/Include/cmsis_gcc.h **** __attribute__( ( always_inline ) ) __STATIC_INLINE void __set_CONTROL(uint32_t control)
  95:Drivers/CMSIS/Include/cmsis_gcc.h **** {
  96:Drivers/CMSIS/Include/cmsis_gcc.h ****   __ASM volatile ("MSR control, %0" : : "r" (control) : "memory");
  97:Drivers/CMSIS/Include/cmsis_gcc.h **** }
  98:Drivers/CMSIS/Include/cmsis_gcc.h **** 
  99:Drivers/CMSIS/Include/cmsis_gcc.h **** 
 100:Drivers/CMSIS/Include/cmsis_gcc.h **** /**
 101:Drivers/CMSIS/Include/cmsis_gcc.h ****   \brief   Get IPSR Register
 102:Drivers/CMSIS/Include/cmsis_gcc.h ****   \details Returns the content of the IPSR Register.
 103:Drivers/CMSIS/Include/cmsis_gcc.h ****   \return               IPSR Register value
 104:Drivers/CMSIS/Include/cmsis_gcc.h ****  */
 105:Drivers/CMSIS/Include/cmsis_gcc.h **** __attribute__( ( always_inline ) ) __STATIC_INLINE uint32_t __get_IPSR(void)
 106:Drivers/CMSIS/Include/cmsis_gcc.h **** {
 107:Drivers/CMSIS/Include/cmsis_gcc.h ****   uint32_t result;
 108:Drivers/CMSIS/Include/cmsis_gcc.h **** 
 109:Drivers/CMSIS/Include/cmsis_gcc.h ****   __ASM volatile ("MRS %0, ipsr" : "=r" (result) );
 110:Drivers/CMSIS/Include/cmsis_gcc.h ****   return(result);
 111:Drivers/CMSIS/Include/cmsis_gcc.h **** }
 112:Drivers/CMSIS/Include/cmsis_gcc.h **** 
 113:Drivers/CMSIS/Include/cmsis_gcc.h **** 
 114:Drivers/CMSIS/Include/cmsis_gcc.h **** /**
 115:Drivers/CMSIS/Include/cmsis_gcc.h ****   \brief   Get APSR Register
 116:Drivers/CMSIS/Include/cmsis_gcc.h ****   \details Returns the content of the APSR Register.
 117:Drivers/CMSIS/Include/cmsis_gcc.h ****   \return               APSR Register value
 118:Drivers/CMSIS/Include/cmsis_gcc.h ****  */
 119:Drivers/CMSIS/Include/cmsis_gcc.h **** __attribute__( ( always_inline ) ) __STATIC_INLINE uint32_t __get_APSR(void)
 120:Drivers/CMSIS/Include/cmsis_gcc.h **** {
 121:Drivers/CMSIS/Include/cmsis_gcc.h ****   uint32_t result;
 122:Drivers/CMSIS/Include/cmsis_gcc.h **** 
 123:Drivers/CMSIS/Include/cmsis_gcc.h ****   __ASM volatile ("MRS %0, apsr" : "=r" (result) );
 124:Drivers/CMSIS/Include/cmsis_gcc.h ****   return(result);
 125:Drivers/CMSIS/Include/cmsis_gcc.h **** }
 126:Drivers/CMSIS/Include/cmsis_gcc.h **** 
 127:Drivers/CMSIS/Include/cmsis_gcc.h **** 
 128:Drivers/CMSIS/Include/cmsis_gcc.h **** /**
 129:Drivers/CMSIS/Include/cmsis_gcc.h ****   \brief   Get xPSR Register
 130:Drivers/CMSIS/Include/cmsis_gcc.h ****   \details Returns the content of the xPSR Register.
 131:Drivers/CMSIS/Include/cmsis_gcc.h **** 
 132:Drivers/CMSIS/Include/cmsis_gcc.h ****     \return               xPSR Register value
 133:Drivers/CMSIS/Include/cmsis_gcc.h ****  */
ARM GAS  /tmp/ccOWtDgG.s 			page 26


 134:Drivers/CMSIS/Include/cmsis_gcc.h **** __attribute__( ( always_inline ) ) __STATIC_INLINE uint32_t __get_xPSR(void)
 135:Drivers/CMSIS/Include/cmsis_gcc.h **** {
 136:Drivers/CMSIS/Include/cmsis_gcc.h ****   uint32_t result;
 137:Drivers/CMSIS/Include/cmsis_gcc.h **** 
 138:Drivers/CMSIS/Include/cmsis_gcc.h ****   __ASM volatile ("MRS %0, xpsr" : "=r" (result) );
 139:Drivers/CMSIS/Include/cmsis_gcc.h ****   return(result);
 140:Drivers/CMSIS/Include/cmsis_gcc.h **** }
 141:Drivers/CMSIS/Include/cmsis_gcc.h **** 
 142:Drivers/CMSIS/Include/cmsis_gcc.h **** 
 143:Drivers/CMSIS/Include/cmsis_gcc.h **** /**
 144:Drivers/CMSIS/Include/cmsis_gcc.h ****   \brief   Get Process Stack Pointer
 145:Drivers/CMSIS/Include/cmsis_gcc.h ****   \details Returns the current value of the Process Stack Pointer (PSP).
 146:Drivers/CMSIS/Include/cmsis_gcc.h ****   \return               PSP Register value
 147:Drivers/CMSIS/Include/cmsis_gcc.h ****  */
 148:Drivers/CMSIS/Include/cmsis_gcc.h **** __attribute__( ( always_inline ) ) __STATIC_INLINE uint32_t __get_PSP(void)
 149:Drivers/CMSIS/Include/cmsis_gcc.h **** {
 150:Drivers/CMSIS/Include/cmsis_gcc.h ****   register uint32_t result;
 151:Drivers/CMSIS/Include/cmsis_gcc.h **** 
 152:Drivers/CMSIS/Include/cmsis_gcc.h ****   __ASM volatile ("MRS %0, psp\n"  : "=r" (result) );
 153:Drivers/CMSIS/Include/cmsis_gcc.h ****   return(result);
 154:Drivers/CMSIS/Include/cmsis_gcc.h **** }
 155:Drivers/CMSIS/Include/cmsis_gcc.h **** 
 156:Drivers/CMSIS/Include/cmsis_gcc.h **** 
 157:Drivers/CMSIS/Include/cmsis_gcc.h **** /**
 158:Drivers/CMSIS/Include/cmsis_gcc.h ****   \brief   Set Process Stack Pointer
 159:Drivers/CMSIS/Include/cmsis_gcc.h ****   \details Assigns the given value to the Process Stack Pointer (PSP).
 160:Drivers/CMSIS/Include/cmsis_gcc.h ****   \param [in]    topOfProcStack  Process Stack Pointer value to set
 161:Drivers/CMSIS/Include/cmsis_gcc.h ****  */
 162:Drivers/CMSIS/Include/cmsis_gcc.h **** __attribute__( ( always_inline ) ) __STATIC_INLINE void __set_PSP(uint32_t topOfProcStack)
 163:Drivers/CMSIS/Include/cmsis_gcc.h **** {
 164:Drivers/CMSIS/Include/cmsis_gcc.h ****   __ASM volatile ("MSR psp, %0\n" : : "r" (topOfProcStack) : "sp");
 165:Drivers/CMSIS/Include/cmsis_gcc.h **** }
 166:Drivers/CMSIS/Include/cmsis_gcc.h **** 
 167:Drivers/CMSIS/Include/cmsis_gcc.h **** 
 168:Drivers/CMSIS/Include/cmsis_gcc.h **** /**
 169:Drivers/CMSIS/Include/cmsis_gcc.h ****   \brief   Get Main Stack Pointer
 170:Drivers/CMSIS/Include/cmsis_gcc.h ****   \details Returns the current value of the Main Stack Pointer (MSP).
 171:Drivers/CMSIS/Include/cmsis_gcc.h ****   \return               MSP Register value
 172:Drivers/CMSIS/Include/cmsis_gcc.h ****  */
 173:Drivers/CMSIS/Include/cmsis_gcc.h **** __attribute__( ( always_inline ) ) __STATIC_INLINE uint32_t __get_MSP(void)
 174:Drivers/CMSIS/Include/cmsis_gcc.h **** {
 175:Drivers/CMSIS/Include/cmsis_gcc.h ****   register uint32_t result;
 176:Drivers/CMSIS/Include/cmsis_gcc.h **** 
 177:Drivers/CMSIS/Include/cmsis_gcc.h ****   __ASM volatile ("MRS %0, msp\n" : "=r" (result) );
 178:Drivers/CMSIS/Include/cmsis_gcc.h ****   return(result);
 179:Drivers/CMSIS/Include/cmsis_gcc.h **** }
 180:Drivers/CMSIS/Include/cmsis_gcc.h **** 
 181:Drivers/CMSIS/Include/cmsis_gcc.h **** 
 182:Drivers/CMSIS/Include/cmsis_gcc.h **** /**
 183:Drivers/CMSIS/Include/cmsis_gcc.h ****   \brief   Set Main Stack Pointer
 184:Drivers/CMSIS/Include/cmsis_gcc.h ****   \details Assigns the given value to the Main Stack Pointer (MSP).
 185:Drivers/CMSIS/Include/cmsis_gcc.h **** 
 186:Drivers/CMSIS/Include/cmsis_gcc.h ****     \param [in]    topOfMainStack  Main Stack Pointer value to set
 187:Drivers/CMSIS/Include/cmsis_gcc.h ****  */
 188:Drivers/CMSIS/Include/cmsis_gcc.h **** __attribute__( ( always_inline ) ) __STATIC_INLINE void __set_MSP(uint32_t topOfMainStack)
 189:Drivers/CMSIS/Include/cmsis_gcc.h **** {
 190:Drivers/CMSIS/Include/cmsis_gcc.h ****   __ASM volatile ("MSR msp, %0\n" : : "r" (topOfMainStack) : "sp");
ARM GAS  /tmp/ccOWtDgG.s 			page 27


 191:Drivers/CMSIS/Include/cmsis_gcc.h **** }
 192:Drivers/CMSIS/Include/cmsis_gcc.h **** 
 193:Drivers/CMSIS/Include/cmsis_gcc.h **** 
 194:Drivers/CMSIS/Include/cmsis_gcc.h **** /**
 195:Drivers/CMSIS/Include/cmsis_gcc.h ****   \brief   Get Priority Mask
 196:Drivers/CMSIS/Include/cmsis_gcc.h ****   \details Returns the current state of the priority mask bit from the Priority Mask Register.
 197:Drivers/CMSIS/Include/cmsis_gcc.h ****   \return               Priority Mask value
 198:Drivers/CMSIS/Include/cmsis_gcc.h ****  */
 199:Drivers/CMSIS/Include/cmsis_gcc.h **** __attribute__( ( always_inline ) ) __STATIC_INLINE uint32_t __get_PRIMASK(void)
 200:Drivers/CMSIS/Include/cmsis_gcc.h **** {
 201:Drivers/CMSIS/Include/cmsis_gcc.h ****   uint32_t result;
 202:Drivers/CMSIS/Include/cmsis_gcc.h **** 
 203:Drivers/CMSIS/Include/cmsis_gcc.h ****   __ASM volatile ("MRS %0, primask" : "=r" (result) );
 204:Drivers/CMSIS/Include/cmsis_gcc.h ****   return(result);
 205:Drivers/CMSIS/Include/cmsis_gcc.h **** }
 206:Drivers/CMSIS/Include/cmsis_gcc.h **** 
 207:Drivers/CMSIS/Include/cmsis_gcc.h **** 
 208:Drivers/CMSIS/Include/cmsis_gcc.h **** /**
 209:Drivers/CMSIS/Include/cmsis_gcc.h ****   \brief   Set Priority Mask
 210:Drivers/CMSIS/Include/cmsis_gcc.h ****   \details Assigns the given value to the Priority Mask Register.
 211:Drivers/CMSIS/Include/cmsis_gcc.h ****   \param [in]    priMask  Priority Mask
 212:Drivers/CMSIS/Include/cmsis_gcc.h ****  */
 213:Drivers/CMSIS/Include/cmsis_gcc.h **** __attribute__( ( always_inline ) ) __STATIC_INLINE void __set_PRIMASK(uint32_t priMask)
 214:Drivers/CMSIS/Include/cmsis_gcc.h **** {
 215:Drivers/CMSIS/Include/cmsis_gcc.h ****   __ASM volatile ("MSR primask, %0" : : "r" (priMask) : "memory");
 216:Drivers/CMSIS/Include/cmsis_gcc.h **** }
 217:Drivers/CMSIS/Include/cmsis_gcc.h **** 
 218:Drivers/CMSIS/Include/cmsis_gcc.h **** 
 219:Drivers/CMSIS/Include/cmsis_gcc.h **** #if       (__CORTEX_M >= 0x03U)
 220:Drivers/CMSIS/Include/cmsis_gcc.h **** 
 221:Drivers/CMSIS/Include/cmsis_gcc.h **** /**
 222:Drivers/CMSIS/Include/cmsis_gcc.h ****   \brief   Enable FIQ
 223:Drivers/CMSIS/Include/cmsis_gcc.h ****   \details Enables FIQ interrupts by clearing the F-bit in the CPSR.
 224:Drivers/CMSIS/Include/cmsis_gcc.h ****            Can only be executed in Privileged modes.
 225:Drivers/CMSIS/Include/cmsis_gcc.h ****  */
 226:Drivers/CMSIS/Include/cmsis_gcc.h **** __attribute__( ( always_inline ) ) __STATIC_INLINE void __enable_fault_irq(void)
 227:Drivers/CMSIS/Include/cmsis_gcc.h **** {
 228:Drivers/CMSIS/Include/cmsis_gcc.h ****   __ASM volatile ("cpsie f" : : : "memory");
 229:Drivers/CMSIS/Include/cmsis_gcc.h **** }
 230:Drivers/CMSIS/Include/cmsis_gcc.h **** 
 231:Drivers/CMSIS/Include/cmsis_gcc.h **** 
 232:Drivers/CMSIS/Include/cmsis_gcc.h **** /**
 233:Drivers/CMSIS/Include/cmsis_gcc.h ****   \brief   Disable FIQ
 234:Drivers/CMSIS/Include/cmsis_gcc.h ****   \details Disables FIQ interrupts by setting the F-bit in the CPSR.
 235:Drivers/CMSIS/Include/cmsis_gcc.h ****            Can only be executed in Privileged modes.
 236:Drivers/CMSIS/Include/cmsis_gcc.h ****  */
 237:Drivers/CMSIS/Include/cmsis_gcc.h **** __attribute__( ( always_inline ) ) __STATIC_INLINE void __disable_fault_irq(void)
 238:Drivers/CMSIS/Include/cmsis_gcc.h **** {
 239:Drivers/CMSIS/Include/cmsis_gcc.h ****   __ASM volatile ("cpsid f" : : : "memory");
 240:Drivers/CMSIS/Include/cmsis_gcc.h **** }
 241:Drivers/CMSIS/Include/cmsis_gcc.h **** 
 242:Drivers/CMSIS/Include/cmsis_gcc.h **** 
 243:Drivers/CMSIS/Include/cmsis_gcc.h **** /**
 244:Drivers/CMSIS/Include/cmsis_gcc.h ****   \brief   Get Base Priority
 245:Drivers/CMSIS/Include/cmsis_gcc.h ****   \details Returns the current value of the Base Priority register.
 246:Drivers/CMSIS/Include/cmsis_gcc.h ****   \return               Base Priority register value
 247:Drivers/CMSIS/Include/cmsis_gcc.h ****  */
ARM GAS  /tmp/ccOWtDgG.s 			page 28


 248:Drivers/CMSIS/Include/cmsis_gcc.h **** __attribute__( ( always_inline ) ) __STATIC_INLINE uint32_t __get_BASEPRI(void)
 249:Drivers/CMSIS/Include/cmsis_gcc.h **** {
 250:Drivers/CMSIS/Include/cmsis_gcc.h ****   uint32_t result;
 251:Drivers/CMSIS/Include/cmsis_gcc.h **** 
 252:Drivers/CMSIS/Include/cmsis_gcc.h ****   __ASM volatile ("MRS %0, basepri" : "=r" (result) );
 253:Drivers/CMSIS/Include/cmsis_gcc.h ****   return(result);
 254:Drivers/CMSIS/Include/cmsis_gcc.h **** }
 255:Drivers/CMSIS/Include/cmsis_gcc.h **** 
 256:Drivers/CMSIS/Include/cmsis_gcc.h **** 
 257:Drivers/CMSIS/Include/cmsis_gcc.h **** /**
 258:Drivers/CMSIS/Include/cmsis_gcc.h ****   \brief   Set Base Priority
 259:Drivers/CMSIS/Include/cmsis_gcc.h ****   \details Assigns the given value to the Base Priority register.
 260:Drivers/CMSIS/Include/cmsis_gcc.h ****   \param [in]    basePri  Base Priority value to set
 261:Drivers/CMSIS/Include/cmsis_gcc.h ****  */
 262:Drivers/CMSIS/Include/cmsis_gcc.h **** __attribute__( ( always_inline ) ) __STATIC_INLINE void __set_BASEPRI(uint32_t value)
 263:Drivers/CMSIS/Include/cmsis_gcc.h **** {
 264:Drivers/CMSIS/Include/cmsis_gcc.h ****   __ASM volatile ("MSR basepri, %0" : : "r" (value) : "memory");
 265:Drivers/CMSIS/Include/cmsis_gcc.h **** }
 266:Drivers/CMSIS/Include/cmsis_gcc.h **** 
 267:Drivers/CMSIS/Include/cmsis_gcc.h **** 
 268:Drivers/CMSIS/Include/cmsis_gcc.h **** /**
 269:Drivers/CMSIS/Include/cmsis_gcc.h ****   \brief   Set Base Priority with condition
 270:Drivers/CMSIS/Include/cmsis_gcc.h ****   \details Assigns the given value to the Base Priority register only if BASEPRI masking is disable
 271:Drivers/CMSIS/Include/cmsis_gcc.h ****            or the new value increases the BASEPRI priority level.
 272:Drivers/CMSIS/Include/cmsis_gcc.h ****   \param [in]    basePri  Base Priority value to set
 273:Drivers/CMSIS/Include/cmsis_gcc.h ****  */
 274:Drivers/CMSIS/Include/cmsis_gcc.h **** __attribute__( ( always_inline ) ) __STATIC_INLINE void __set_BASEPRI_MAX(uint32_t value)
 275:Drivers/CMSIS/Include/cmsis_gcc.h **** {
 276:Drivers/CMSIS/Include/cmsis_gcc.h ****   __ASM volatile ("MSR basepri_max, %0" : : "r" (value) : "memory");
 277:Drivers/CMSIS/Include/cmsis_gcc.h **** }
 278:Drivers/CMSIS/Include/cmsis_gcc.h **** 
 279:Drivers/CMSIS/Include/cmsis_gcc.h **** 
 280:Drivers/CMSIS/Include/cmsis_gcc.h **** /**
 281:Drivers/CMSIS/Include/cmsis_gcc.h ****   \brief   Get Fault Mask
 282:Drivers/CMSIS/Include/cmsis_gcc.h ****   \details Returns the current value of the Fault Mask register.
 283:Drivers/CMSIS/Include/cmsis_gcc.h ****   \return               Fault Mask register value
 284:Drivers/CMSIS/Include/cmsis_gcc.h ****  */
 285:Drivers/CMSIS/Include/cmsis_gcc.h **** __attribute__( ( always_inline ) ) __STATIC_INLINE uint32_t __get_FAULTMASK(void)
 286:Drivers/CMSIS/Include/cmsis_gcc.h **** {
 287:Drivers/CMSIS/Include/cmsis_gcc.h ****   uint32_t result;
 288:Drivers/CMSIS/Include/cmsis_gcc.h **** 
 289:Drivers/CMSIS/Include/cmsis_gcc.h ****   __ASM volatile ("MRS %0, faultmask" : "=r" (result) );
 290:Drivers/CMSIS/Include/cmsis_gcc.h ****   return(result);
 291:Drivers/CMSIS/Include/cmsis_gcc.h **** }
 292:Drivers/CMSIS/Include/cmsis_gcc.h **** 
 293:Drivers/CMSIS/Include/cmsis_gcc.h **** 
 294:Drivers/CMSIS/Include/cmsis_gcc.h **** /**
 295:Drivers/CMSIS/Include/cmsis_gcc.h ****   \brief   Set Fault Mask
 296:Drivers/CMSIS/Include/cmsis_gcc.h ****   \details Assigns the given value to the Fault Mask register.
 297:Drivers/CMSIS/Include/cmsis_gcc.h ****   \param [in]    faultMask  Fault Mask value to set
 298:Drivers/CMSIS/Include/cmsis_gcc.h ****  */
 299:Drivers/CMSIS/Include/cmsis_gcc.h **** __attribute__( ( always_inline ) ) __STATIC_INLINE void __set_FAULTMASK(uint32_t faultMask)
 300:Drivers/CMSIS/Include/cmsis_gcc.h **** {
 301:Drivers/CMSIS/Include/cmsis_gcc.h ****   __ASM volatile ("MSR faultmask, %0" : : "r" (faultMask) : "memory");
 302:Drivers/CMSIS/Include/cmsis_gcc.h **** }
 303:Drivers/CMSIS/Include/cmsis_gcc.h **** 
 304:Drivers/CMSIS/Include/cmsis_gcc.h **** #endif /* (__CORTEX_M >= 0x03U) */
ARM GAS  /tmp/ccOWtDgG.s 			page 29


 305:Drivers/CMSIS/Include/cmsis_gcc.h **** 
 306:Drivers/CMSIS/Include/cmsis_gcc.h **** 
 307:Drivers/CMSIS/Include/cmsis_gcc.h **** #if       (__CORTEX_M == 0x04U) || (__CORTEX_M == 0x07U)
 308:Drivers/CMSIS/Include/cmsis_gcc.h **** 
 309:Drivers/CMSIS/Include/cmsis_gcc.h **** /**
 310:Drivers/CMSIS/Include/cmsis_gcc.h ****   \brief   Get FPSCR
 311:Drivers/CMSIS/Include/cmsis_gcc.h ****   \details Returns the current value of the Floating Point Status/Control register.
 312:Drivers/CMSIS/Include/cmsis_gcc.h ****   \return               Floating Point Status/Control register value
 313:Drivers/CMSIS/Include/cmsis_gcc.h ****  */
 314:Drivers/CMSIS/Include/cmsis_gcc.h **** __attribute__( ( always_inline ) ) __STATIC_INLINE uint32_t __get_FPSCR(void)
 315:Drivers/CMSIS/Include/cmsis_gcc.h **** {
 316:Drivers/CMSIS/Include/cmsis_gcc.h **** #if (__FPU_PRESENT == 1U) && (__FPU_USED == 1U)
 317:Drivers/CMSIS/Include/cmsis_gcc.h ****   uint32_t result;
 318:Drivers/CMSIS/Include/cmsis_gcc.h **** 
 319:Drivers/CMSIS/Include/cmsis_gcc.h ****   /* Empty asm statement works as a scheduling barrier */
 320:Drivers/CMSIS/Include/cmsis_gcc.h ****   __ASM volatile ("");
 321:Drivers/CMSIS/Include/cmsis_gcc.h ****   __ASM volatile ("VMRS %0, fpscr" : "=r" (result) );
 322:Drivers/CMSIS/Include/cmsis_gcc.h ****   __ASM volatile ("");
 323:Drivers/CMSIS/Include/cmsis_gcc.h ****   return(result);
 324:Drivers/CMSIS/Include/cmsis_gcc.h **** #else
 325:Drivers/CMSIS/Include/cmsis_gcc.h ****    return(0);
 326:Drivers/CMSIS/Include/cmsis_gcc.h **** #endif
 327:Drivers/CMSIS/Include/cmsis_gcc.h **** }
 328:Drivers/CMSIS/Include/cmsis_gcc.h **** 
 329:Drivers/CMSIS/Include/cmsis_gcc.h **** 
 330:Drivers/CMSIS/Include/cmsis_gcc.h **** /**
 331:Drivers/CMSIS/Include/cmsis_gcc.h ****   \brief   Set FPSCR
 332:Drivers/CMSIS/Include/cmsis_gcc.h ****   \details Assigns the given value to the Floating Point Status/Control register.
 333:Drivers/CMSIS/Include/cmsis_gcc.h ****   \param [in]    fpscr  Floating Point Status/Control value to set
 334:Drivers/CMSIS/Include/cmsis_gcc.h ****  */
 335:Drivers/CMSIS/Include/cmsis_gcc.h **** __attribute__( ( always_inline ) ) __STATIC_INLINE void __set_FPSCR(uint32_t fpscr)
 336:Drivers/CMSIS/Include/cmsis_gcc.h **** {
 337:Drivers/CMSIS/Include/cmsis_gcc.h **** #if (__FPU_PRESENT == 1U) && (__FPU_USED == 1U)
 338:Drivers/CMSIS/Include/cmsis_gcc.h ****   /* Empty asm statement works as a scheduling barrier */
 339:Drivers/CMSIS/Include/cmsis_gcc.h ****   __ASM volatile ("");
 340:Drivers/CMSIS/Include/cmsis_gcc.h ****   __ASM volatile ("VMSR fpscr, %0" : : "r" (fpscr) : "vfpcc");
 341:Drivers/CMSIS/Include/cmsis_gcc.h ****   __ASM volatile ("");
 342:Drivers/CMSIS/Include/cmsis_gcc.h **** #endif
 343:Drivers/CMSIS/Include/cmsis_gcc.h **** }
 344:Drivers/CMSIS/Include/cmsis_gcc.h **** 
 345:Drivers/CMSIS/Include/cmsis_gcc.h **** #endif /* (__CORTEX_M == 0x04U) || (__CORTEX_M == 0x07U) */
 346:Drivers/CMSIS/Include/cmsis_gcc.h **** 
 347:Drivers/CMSIS/Include/cmsis_gcc.h **** 
 348:Drivers/CMSIS/Include/cmsis_gcc.h **** 
 349:Drivers/CMSIS/Include/cmsis_gcc.h **** /*@} end of CMSIS_Core_RegAccFunctions */
 350:Drivers/CMSIS/Include/cmsis_gcc.h **** 
 351:Drivers/CMSIS/Include/cmsis_gcc.h **** 
 352:Drivers/CMSIS/Include/cmsis_gcc.h **** /* ##########################  Core Instruction Access  ######################### */
 353:Drivers/CMSIS/Include/cmsis_gcc.h **** /** \defgroup CMSIS_Core_InstructionInterface CMSIS Core Instruction Interface
 354:Drivers/CMSIS/Include/cmsis_gcc.h ****   Access to dedicated instructions
 355:Drivers/CMSIS/Include/cmsis_gcc.h ****   @{
 356:Drivers/CMSIS/Include/cmsis_gcc.h **** */
 357:Drivers/CMSIS/Include/cmsis_gcc.h **** 
 358:Drivers/CMSIS/Include/cmsis_gcc.h **** /* Define macros for porting to both thumb1 and thumb2.
 359:Drivers/CMSIS/Include/cmsis_gcc.h ****  * For thumb1, use low register (r0-r7), specified by constraint "l"
 360:Drivers/CMSIS/Include/cmsis_gcc.h ****  * Otherwise, use general registers, specified by constraint "r" */
 361:Drivers/CMSIS/Include/cmsis_gcc.h **** #if defined (__thumb__) && !defined (__thumb2__)
ARM GAS  /tmp/ccOWtDgG.s 			page 30


 362:Drivers/CMSIS/Include/cmsis_gcc.h **** #define __CMSIS_GCC_OUT_REG(r) "=l" (r)
 363:Drivers/CMSIS/Include/cmsis_gcc.h **** #define __CMSIS_GCC_USE_REG(r) "l" (r)
 364:Drivers/CMSIS/Include/cmsis_gcc.h **** #else
 365:Drivers/CMSIS/Include/cmsis_gcc.h **** #define __CMSIS_GCC_OUT_REG(r) "=r" (r)
 366:Drivers/CMSIS/Include/cmsis_gcc.h **** #define __CMSIS_GCC_USE_REG(r) "r" (r)
 367:Drivers/CMSIS/Include/cmsis_gcc.h **** #endif
 368:Drivers/CMSIS/Include/cmsis_gcc.h **** 
 369:Drivers/CMSIS/Include/cmsis_gcc.h **** /**
 370:Drivers/CMSIS/Include/cmsis_gcc.h ****   \brief   No Operation
 371:Drivers/CMSIS/Include/cmsis_gcc.h ****   \details No Operation does nothing. This instruction can be used for code alignment purposes.
 372:Drivers/CMSIS/Include/cmsis_gcc.h ****  */
 373:Drivers/CMSIS/Include/cmsis_gcc.h **** __attribute__((always_inline)) __STATIC_INLINE void __NOP(void)
 374:Drivers/CMSIS/Include/cmsis_gcc.h **** {
 375:Drivers/CMSIS/Include/cmsis_gcc.h ****   __ASM volatile ("nop");
 376:Drivers/CMSIS/Include/cmsis_gcc.h **** }
 377:Drivers/CMSIS/Include/cmsis_gcc.h **** 
 378:Drivers/CMSIS/Include/cmsis_gcc.h **** 
 379:Drivers/CMSIS/Include/cmsis_gcc.h **** /**
 380:Drivers/CMSIS/Include/cmsis_gcc.h ****   \brief   Wait For Interrupt
 381:Drivers/CMSIS/Include/cmsis_gcc.h ****   \details Wait For Interrupt is a hint instruction that suspends execution until one of a number o
 382:Drivers/CMSIS/Include/cmsis_gcc.h ****  */
 383:Drivers/CMSIS/Include/cmsis_gcc.h **** __attribute__((always_inline)) __STATIC_INLINE void __WFI(void)
 384:Drivers/CMSIS/Include/cmsis_gcc.h **** {
 385:Drivers/CMSIS/Include/cmsis_gcc.h ****   __ASM volatile ("wfi");
 386:Drivers/CMSIS/Include/cmsis_gcc.h **** }
 387:Drivers/CMSIS/Include/cmsis_gcc.h **** 
 388:Drivers/CMSIS/Include/cmsis_gcc.h **** 
 389:Drivers/CMSIS/Include/cmsis_gcc.h **** /**
 390:Drivers/CMSIS/Include/cmsis_gcc.h ****   \brief   Wait For Event
 391:Drivers/CMSIS/Include/cmsis_gcc.h ****   \details Wait For Event is a hint instruction that permits the processor to enter
 392:Drivers/CMSIS/Include/cmsis_gcc.h ****     a low-power state until one of a number of events occurs.
 393:Drivers/CMSIS/Include/cmsis_gcc.h ****  */
 394:Drivers/CMSIS/Include/cmsis_gcc.h **** __attribute__((always_inline)) __STATIC_INLINE void __WFE(void)
 395:Drivers/CMSIS/Include/cmsis_gcc.h **** {
 396:Drivers/CMSIS/Include/cmsis_gcc.h ****   __ASM volatile ("wfe");
 397:Drivers/CMSIS/Include/cmsis_gcc.h **** }
 398:Drivers/CMSIS/Include/cmsis_gcc.h **** 
 399:Drivers/CMSIS/Include/cmsis_gcc.h **** 
 400:Drivers/CMSIS/Include/cmsis_gcc.h **** /**
 401:Drivers/CMSIS/Include/cmsis_gcc.h ****   \brief   Send Event
 402:Drivers/CMSIS/Include/cmsis_gcc.h ****   \details Send Event is a hint instruction. It causes an event to be signaled to the CPU.
 403:Drivers/CMSIS/Include/cmsis_gcc.h ****  */
 404:Drivers/CMSIS/Include/cmsis_gcc.h **** __attribute__((always_inline)) __STATIC_INLINE void __SEV(void)
 405:Drivers/CMSIS/Include/cmsis_gcc.h **** {
 406:Drivers/CMSIS/Include/cmsis_gcc.h ****   __ASM volatile ("sev");
 407:Drivers/CMSIS/Include/cmsis_gcc.h **** }
 408:Drivers/CMSIS/Include/cmsis_gcc.h **** 
 409:Drivers/CMSIS/Include/cmsis_gcc.h **** 
 410:Drivers/CMSIS/Include/cmsis_gcc.h **** /**
 411:Drivers/CMSIS/Include/cmsis_gcc.h ****   \brief   Instruction Synchronization Barrier
 412:Drivers/CMSIS/Include/cmsis_gcc.h ****   \details Instruction Synchronization Barrier flushes the pipeline in the processor,
 413:Drivers/CMSIS/Include/cmsis_gcc.h ****            so that all instructions following the ISB are fetched from cache or memory,
 414:Drivers/CMSIS/Include/cmsis_gcc.h ****            after the instruction has been completed.
 415:Drivers/CMSIS/Include/cmsis_gcc.h ****  */
 416:Drivers/CMSIS/Include/cmsis_gcc.h **** __attribute__((always_inline)) __STATIC_INLINE void __ISB(void)
 417:Drivers/CMSIS/Include/cmsis_gcc.h **** {
 418:Drivers/CMSIS/Include/cmsis_gcc.h ****   __ASM volatile ("isb 0xF":::"memory");
ARM GAS  /tmp/ccOWtDgG.s 			page 31


 419:Drivers/CMSIS/Include/cmsis_gcc.h **** }
 420:Drivers/CMSIS/Include/cmsis_gcc.h **** 
 421:Drivers/CMSIS/Include/cmsis_gcc.h **** 
 422:Drivers/CMSIS/Include/cmsis_gcc.h **** /**
 423:Drivers/CMSIS/Include/cmsis_gcc.h ****   \brief   Data Synchronization Barrier
 424:Drivers/CMSIS/Include/cmsis_gcc.h ****   \details Acts as a special kind of Data Memory Barrier.
 425:Drivers/CMSIS/Include/cmsis_gcc.h ****            It completes when all explicit memory accesses before this instruction complete.
 426:Drivers/CMSIS/Include/cmsis_gcc.h ****  */
 427:Drivers/CMSIS/Include/cmsis_gcc.h **** __attribute__((always_inline)) __STATIC_INLINE void __DSB(void)
 428:Drivers/CMSIS/Include/cmsis_gcc.h **** {
 429:Drivers/CMSIS/Include/cmsis_gcc.h ****   __ASM volatile ("dsb 0xF":::"memory");
 630              		.loc 2 429 0
 631              		.syntax unified
 632              	@ 429 "Drivers/CMSIS/Include/cmsis_gcc.h" 1
 633 0034 BFF34F8F 		dsb 0xF
 634              	@ 0 "" 2
 635              		.thumb
 636              		.syntax unified
 637              	.LBE7:
 638              	.LBE6:
 666:Drivers/STM32F7xx_HAL_Driver/Src/stm32f7xx_hal_flash_ex.c ****   /* Data synchronous Barrier (DSB) Just after the write operation
 667:Drivers/STM32F7xx_HAL_Driver/Src/stm32f7xx_hal_flash_ex.c ****      This will force the CPU to respect the sequence of instruction (no optimization).*/
 668:Drivers/STM32F7xx_HAL_Driver/Src/stm32f7xx_hal_flash_ex.c ****   __DSB();
 669:Drivers/STM32F7xx_HAL_Driver/Src/stm32f7xx_hal_flash_ex.c **** }
 639              		.loc 1 669 0
 640 0038 00BF     		nop
 641 003a 0C37     		adds	r7, r7, #12
 642              	.LCFI23:
 643              		.cfi_def_cfa_offset 4
 644 003c BD46     		mov	sp, r7
 645              	.LCFI24:
 646              		.cfi_def_cfa_register 13
 647              		@ sp needed
 648 003e 5DF8047B 		ldr	r7, [sp], #4
 649              	.LCFI25:
 650              		.cfi_restore 7
 651              		.cfi_def_cfa_offset 0
 652 0042 7047     		bx	lr
 653              	.L33:
 654              		.align	2
 655              	.L32:
 656 0044 003C0240 		.word	1073888256
 657              		.cfi_endproc
 658              	.LFE142:
 660              		.section	.text.FLASH_Erase_Sector,"ax",%progbits
 661              		.align	1
 662              		.global	FLASH_Erase_Sector
 663              		.syntax unified
 664              		.thumb
 665              		.thumb_func
 666              		.fpu fpv4-sp-d16
 668              	FLASH_Erase_Sector:
 669              	.LFB143:
 670:Drivers/STM32F7xx_HAL_Driver/Src/stm32f7xx_hal_flash_ex.c **** 
 671:Drivers/STM32F7xx_HAL_Driver/Src/stm32f7xx_hal_flash_ex.c **** /**
 672:Drivers/STM32F7xx_HAL_Driver/Src/stm32f7xx_hal_flash_ex.c ****   * @brief  Erase the specified FLASH memory sector
 673:Drivers/STM32F7xx_HAL_Driver/Src/stm32f7xx_hal_flash_ex.c ****   * @param  Sector FLASH sector to erase
ARM GAS  /tmp/ccOWtDgG.s 			page 32


 674:Drivers/STM32F7xx_HAL_Driver/Src/stm32f7xx_hal_flash_ex.c ****   *         The value of this parameter depend on device used within the same series      
 675:Drivers/STM32F7xx_HAL_Driver/Src/stm32f7xx_hal_flash_ex.c ****   * @param  VoltageRange The device voltage range which defines the erase parallelism.  
 676:Drivers/STM32F7xx_HAL_Driver/Src/stm32f7xx_hal_flash_ex.c ****   *          This parameter can be one of the following values:
 677:Drivers/STM32F7xx_HAL_Driver/Src/stm32f7xx_hal_flash_ex.c ****   *            @arg FLASH_VOLTAGE_RANGE_1: when the device voltage range is 1.8V to 2.1V, 
 678:Drivers/STM32F7xx_HAL_Driver/Src/stm32f7xx_hal_flash_ex.c ****   *                                  the operation will be done by byte (8-bit) 
 679:Drivers/STM32F7xx_HAL_Driver/Src/stm32f7xx_hal_flash_ex.c ****   *            @arg FLASH_VOLTAGE_RANGE_2: when the device voltage range is 2.1V to 2.7V,
 680:Drivers/STM32F7xx_HAL_Driver/Src/stm32f7xx_hal_flash_ex.c ****   *                                  the operation will be done by half word (16-bit)
 681:Drivers/STM32F7xx_HAL_Driver/Src/stm32f7xx_hal_flash_ex.c ****   *            @arg FLASH_VOLTAGE_RANGE_3: when the device voltage range is 2.7V to 3.6V,
 682:Drivers/STM32F7xx_HAL_Driver/Src/stm32f7xx_hal_flash_ex.c ****   *                                  the operation will be done by word (32-bit)
 683:Drivers/STM32F7xx_HAL_Driver/Src/stm32f7xx_hal_flash_ex.c ****   *            @arg FLASH_VOLTAGE_RANGE_4: when the device voltage range is 2.7V to 3.6V + External
 684:Drivers/STM32F7xx_HAL_Driver/Src/stm32f7xx_hal_flash_ex.c ****   *                                  the operation will be done by double word (64-bit)
 685:Drivers/STM32F7xx_HAL_Driver/Src/stm32f7xx_hal_flash_ex.c ****   * 
 686:Drivers/STM32F7xx_HAL_Driver/Src/stm32f7xx_hal_flash_ex.c ****   * @retval None
 687:Drivers/STM32F7xx_HAL_Driver/Src/stm32f7xx_hal_flash_ex.c ****   */
 688:Drivers/STM32F7xx_HAL_Driver/Src/stm32f7xx_hal_flash_ex.c **** void FLASH_Erase_Sector(uint32_t Sector, uint8_t VoltageRange)
 689:Drivers/STM32F7xx_HAL_Driver/Src/stm32f7xx_hal_flash_ex.c **** {
 670              		.loc 1 689 0
 671              		.cfi_startproc
 672              		@ args = 0, pretend = 0, frame = 16
 673              		@ frame_needed = 1, uses_anonymous_args = 0
 674              		@ link register save eliminated.
 675 0000 80B4     		push	{r7}
 676              	.LCFI26:
 677              		.cfi_def_cfa_offset 4
 678              		.cfi_offset 7, -4
 679 0002 85B0     		sub	sp, sp, #20
 680              	.LCFI27:
 681              		.cfi_def_cfa_offset 24
 682 0004 00AF     		add	r7, sp, #0
 683              	.LCFI28:
 684              		.cfi_def_cfa_register 7
 685 0006 7860     		str	r0, [r7, #4]
 686 0008 0B46     		mov	r3, r1
 687 000a FB70     		strb	r3, [r7, #3]
 690:Drivers/STM32F7xx_HAL_Driver/Src/stm32f7xx_hal_flash_ex.c ****   uint32_t tmp_psize = 0;
 688              		.loc 1 690 0
 689 000c 0023     		movs	r3, #0
 690 000e FB60     		str	r3, [r7, #12]
 691:Drivers/STM32F7xx_HAL_Driver/Src/stm32f7xx_hal_flash_ex.c **** 
 692:Drivers/STM32F7xx_HAL_Driver/Src/stm32f7xx_hal_flash_ex.c ****   /* Check the parameters */
 693:Drivers/STM32F7xx_HAL_Driver/Src/stm32f7xx_hal_flash_ex.c ****   assert_param(IS_FLASH_SECTOR(Sector));
 694:Drivers/STM32F7xx_HAL_Driver/Src/stm32f7xx_hal_flash_ex.c ****   assert_param(IS_VOLTAGERANGE(VoltageRange));
 695:Drivers/STM32F7xx_HAL_Driver/Src/stm32f7xx_hal_flash_ex.c ****   
 696:Drivers/STM32F7xx_HAL_Driver/Src/stm32f7xx_hal_flash_ex.c ****   if(VoltageRange == FLASH_VOLTAGE_RANGE_1)
 691              		.loc 1 696 0
 692 0010 FB78     		ldrb	r3, [r7, #3]	@ zero_extendqisi2
 693 0012 002B     		cmp	r3, #0
 694 0014 02D1     		bne	.L35
 697:Drivers/STM32F7xx_HAL_Driver/Src/stm32f7xx_hal_flash_ex.c ****   {
 698:Drivers/STM32F7xx_HAL_Driver/Src/stm32f7xx_hal_flash_ex.c ****      tmp_psize = FLASH_PSIZE_BYTE;
 695              		.loc 1 698 0
 696 0016 0023     		movs	r3, #0
 697 0018 FB60     		str	r3, [r7, #12]
 698 001a 10E0     		b	.L36
 699              	.L35:
 699:Drivers/STM32F7xx_HAL_Driver/Src/stm32f7xx_hal_flash_ex.c ****   }
 700:Drivers/STM32F7xx_HAL_Driver/Src/stm32f7xx_hal_flash_ex.c ****   else if(VoltageRange == FLASH_VOLTAGE_RANGE_2)
ARM GAS  /tmp/ccOWtDgG.s 			page 33


 700              		.loc 1 700 0
 701 001c FB78     		ldrb	r3, [r7, #3]	@ zero_extendqisi2
 702 001e 012B     		cmp	r3, #1
 703 0020 03D1     		bne	.L37
 701:Drivers/STM32F7xx_HAL_Driver/Src/stm32f7xx_hal_flash_ex.c ****   {
 702:Drivers/STM32F7xx_HAL_Driver/Src/stm32f7xx_hal_flash_ex.c ****     tmp_psize = FLASH_PSIZE_HALF_WORD;
 704              		.loc 1 702 0
 705 0022 4FF48073 		mov	r3, #256
 706 0026 FB60     		str	r3, [r7, #12]
 707 0028 09E0     		b	.L36
 708              	.L37:
 703:Drivers/STM32F7xx_HAL_Driver/Src/stm32f7xx_hal_flash_ex.c ****   }
 704:Drivers/STM32F7xx_HAL_Driver/Src/stm32f7xx_hal_flash_ex.c ****   else if(VoltageRange == FLASH_VOLTAGE_RANGE_3)
 709              		.loc 1 704 0
 710 002a FB78     		ldrb	r3, [r7, #3]	@ zero_extendqisi2
 711 002c 022B     		cmp	r3, #2
 712 002e 03D1     		bne	.L38
 705:Drivers/STM32F7xx_HAL_Driver/Src/stm32f7xx_hal_flash_ex.c ****   {
 706:Drivers/STM32F7xx_HAL_Driver/Src/stm32f7xx_hal_flash_ex.c ****     tmp_psize = FLASH_PSIZE_WORD;
 713              		.loc 1 706 0
 714 0030 4FF40073 		mov	r3, #512
 715 0034 FB60     		str	r3, [r7, #12]
 716 0036 02E0     		b	.L36
 717              	.L38:
 707:Drivers/STM32F7xx_HAL_Driver/Src/stm32f7xx_hal_flash_ex.c ****   }
 708:Drivers/STM32F7xx_HAL_Driver/Src/stm32f7xx_hal_flash_ex.c ****   else
 709:Drivers/STM32F7xx_HAL_Driver/Src/stm32f7xx_hal_flash_ex.c ****   {
 710:Drivers/STM32F7xx_HAL_Driver/Src/stm32f7xx_hal_flash_ex.c ****     tmp_psize = FLASH_PSIZE_DOUBLE_WORD;
 718              		.loc 1 710 0
 719 0038 4FF44073 		mov	r3, #768
 720 003c FB60     		str	r3, [r7, #12]
 721              	.L36:
 711:Drivers/STM32F7xx_HAL_Driver/Src/stm32f7xx_hal_flash_ex.c ****   }
 712:Drivers/STM32F7xx_HAL_Driver/Src/stm32f7xx_hal_flash_ex.c **** 
 713:Drivers/STM32F7xx_HAL_Driver/Src/stm32f7xx_hal_flash_ex.c ****   /* If the previous operation is completed, proceed to erase the sector */
 714:Drivers/STM32F7xx_HAL_Driver/Src/stm32f7xx_hal_flash_ex.c ****   FLASH->CR &= CR_PSIZE_MASK;
 722              		.loc 1 714 0
 723 003e 144B     		ldr	r3, .L39
 724 0040 1B69     		ldr	r3, [r3, #16]
 725 0042 134A     		ldr	r2, .L39
 726 0044 23F44073 		bic	r3, r3, #768
 727 0048 1361     		str	r3, [r2, #16]
 715:Drivers/STM32F7xx_HAL_Driver/Src/stm32f7xx_hal_flash_ex.c ****   FLASH->CR |= tmp_psize;
 728              		.loc 1 715 0
 729 004a 114B     		ldr	r3, .L39
 730 004c 1A69     		ldr	r2, [r3, #16]
 731 004e 1049     		ldr	r1, .L39
 732 0050 FB68     		ldr	r3, [r7, #12]
 733 0052 1343     		orrs	r3, r3, r2
 734 0054 0B61     		str	r3, [r1, #16]
 716:Drivers/STM32F7xx_HAL_Driver/Src/stm32f7xx_hal_flash_ex.c ****   FLASH->CR &= SECTOR_MASK;
 735              		.loc 1 716 0
 736 0056 0E4B     		ldr	r3, .L39
 737 0058 1B69     		ldr	r3, [r3, #16]
 738 005a 0D4A     		ldr	r2, .L39
 739 005c 23F0F803 		bic	r3, r3, #248
 740 0060 1361     		str	r3, [r2, #16]
ARM GAS  /tmp/ccOWtDgG.s 			page 34


 717:Drivers/STM32F7xx_HAL_Driver/Src/stm32f7xx_hal_flash_ex.c ****   FLASH->CR |= FLASH_CR_SER | (Sector << FLASH_CR_SNB_Pos);
 741              		.loc 1 717 0
 742 0062 0B4B     		ldr	r3, .L39
 743 0064 1A69     		ldr	r2, [r3, #16]
 744 0066 7B68     		ldr	r3, [r7, #4]
 745 0068 DB00     		lsls	r3, r3, #3
 746 006a 1343     		orrs	r3, r3, r2
 747 006c 084A     		ldr	r2, .L39
 748 006e 43F00203 		orr	r3, r3, #2
 749 0072 1361     		str	r3, [r2, #16]
 718:Drivers/STM32F7xx_HAL_Driver/Src/stm32f7xx_hal_flash_ex.c ****   FLASH->CR |= FLASH_CR_STRT;
 750              		.loc 1 718 0
 751 0074 064B     		ldr	r3, .L39
 752 0076 1B69     		ldr	r3, [r3, #16]
 753 0078 054A     		ldr	r2, .L39
 754 007a 43F48033 		orr	r3, r3, #65536
 755 007e 1361     		str	r3, [r2, #16]
 756              	.LBB8:
 757              	.LBB9:
 758              		.loc 2 429 0
 759              		.syntax unified
 760              	@ 429 "Drivers/CMSIS/Include/cmsis_gcc.h" 1
 761 0080 BFF34F8F 		dsb 0xF
 762              	@ 0 "" 2
 763              		.thumb
 764              		.syntax unified
 765              	.LBE9:
 766              	.LBE8:
 719:Drivers/STM32F7xx_HAL_Driver/Src/stm32f7xx_hal_flash_ex.c ****   
 720:Drivers/STM32F7xx_HAL_Driver/Src/stm32f7xx_hal_flash_ex.c ****   /* Data synchronous Barrier (DSB) Just after the write operation
 721:Drivers/STM32F7xx_HAL_Driver/Src/stm32f7xx_hal_flash_ex.c ****      This will force the CPU to respect the sequence of instruction (no optimization).*/
 722:Drivers/STM32F7xx_HAL_Driver/Src/stm32f7xx_hal_flash_ex.c ****   __DSB();
 723:Drivers/STM32F7xx_HAL_Driver/Src/stm32f7xx_hal_flash_ex.c **** }
 767              		.loc 1 723 0
 768 0084 00BF     		nop
 769 0086 1437     		adds	r7, r7, #20
 770              	.LCFI29:
 771              		.cfi_def_cfa_offset 4
 772 0088 BD46     		mov	sp, r7
 773              	.LCFI30:
 774              		.cfi_def_cfa_register 13
 775              		@ sp needed
 776 008a 5DF8047B 		ldr	r7, [sp], #4
 777              	.LCFI31:
 778              		.cfi_restore 7
 779              		.cfi_def_cfa_offset 0
 780 008e 7047     		bx	lr
 781              	.L40:
 782              		.align	2
 783              	.L39:
 784 0090 003C0240 		.word	1073888256
 785              		.cfi_endproc
 786              	.LFE143:
 788              		.section	.text.FLASH_OB_GetWRP,"ax",%progbits
 789              		.align	1
 790              		.syntax unified
 791              		.thumb
ARM GAS  /tmp/ccOWtDgG.s 			page 35


 792              		.thumb_func
 793              		.fpu fpv4-sp-d16
 795              	FLASH_OB_GetWRP:
 796              	.LFB144:
 724:Drivers/STM32F7xx_HAL_Driver/Src/stm32f7xx_hal_flash_ex.c **** 
 725:Drivers/STM32F7xx_HAL_Driver/Src/stm32f7xx_hal_flash_ex.c **** /**
 726:Drivers/STM32F7xx_HAL_Driver/Src/stm32f7xx_hal_flash_ex.c ****   * @brief  Return the FLASH Write Protection Option Bytes value.
 727:Drivers/STM32F7xx_HAL_Driver/Src/stm32f7xx_hal_flash_ex.c ****   * @retval uint32_t FLASH Write Protection Option Bytes value
 728:Drivers/STM32F7xx_HAL_Driver/Src/stm32f7xx_hal_flash_ex.c ****   */
 729:Drivers/STM32F7xx_HAL_Driver/Src/stm32f7xx_hal_flash_ex.c **** static uint32_t FLASH_OB_GetWRP(void)
 730:Drivers/STM32F7xx_HAL_Driver/Src/stm32f7xx_hal_flash_ex.c **** {
 797              		.loc 1 730 0
 798              		.cfi_startproc
 799              		@ args = 0, pretend = 0, frame = 0
 800              		@ frame_needed = 1, uses_anonymous_args = 0
 801              		@ link register save eliminated.
 802 0000 80B4     		push	{r7}
 803              	.LCFI32:
 804              		.cfi_def_cfa_offset 4
 805              		.cfi_offset 7, -4
 806 0002 00AF     		add	r7, sp, #0
 807              	.LCFI33:
 808              		.cfi_def_cfa_register 7
 731:Drivers/STM32F7xx_HAL_Driver/Src/stm32f7xx_hal_flash_ex.c ****   /* Return the FLASH write protection Register value */
 732:Drivers/STM32F7xx_HAL_Driver/Src/stm32f7xx_hal_flash_ex.c ****   return ((uint32_t)(FLASH->OPTCR & 0x00FF0000));
 809              		.loc 1 732 0
 810 0004 044B     		ldr	r3, .L43
 811 0006 5B69     		ldr	r3, [r3, #20]
 812 0008 03F47F03 		and	r3, r3, #16711680
 733:Drivers/STM32F7xx_HAL_Driver/Src/stm32f7xx_hal_flash_ex.c **** }
 813              		.loc 1 733 0
 814 000c 1846     		mov	r0, r3
 815 000e BD46     		mov	sp, r7
 816              	.LCFI34:
 817              		.cfi_def_cfa_register 13
 818              		@ sp needed
 819 0010 5DF8047B 		ldr	r7, [sp], #4
 820              	.LCFI35:
 821              		.cfi_restore 7
 822              		.cfi_def_cfa_offset 0
 823 0014 7047     		bx	lr
 824              	.L44:
 825 0016 00BF     		.align	2
 826              	.L43:
 827 0018 003C0240 		.word	1073888256
 828              		.cfi_endproc
 829              	.LFE144:
 831              		.section	.text.FLASH_OB_UserConfig,"ax",%progbits
 832              		.align	1
 833              		.syntax unified
 834              		.thumb
 835              		.thumb_func
 836              		.fpu fpv4-sp-d16
 838              	FLASH_OB_UserConfig:
 839              	.LFB145:
 734:Drivers/STM32F7xx_HAL_Driver/Src/stm32f7xx_hal_flash_ex.c **** 
 735:Drivers/STM32F7xx_HAL_Driver/Src/stm32f7xx_hal_flash_ex.c **** /**
ARM GAS  /tmp/ccOWtDgG.s 			page 36


 736:Drivers/STM32F7xx_HAL_Driver/Src/stm32f7xx_hal_flash_ex.c ****   * @brief  Program the FLASH User Option Byte: IWDG_SW / RST_STOP / RST_STDBY.    
 737:Drivers/STM32F7xx_HAL_Driver/Src/stm32f7xx_hal_flash_ex.c ****   * @param  Wwdg Selects the IWDG mode
 738:Drivers/STM32F7xx_HAL_Driver/Src/stm32f7xx_hal_flash_ex.c ****   *          This parameter can be one of the following values:
 739:Drivers/STM32F7xx_HAL_Driver/Src/stm32f7xx_hal_flash_ex.c ****   *            @arg OB_WWDG_SW: Software WWDG selected
 740:Drivers/STM32F7xx_HAL_Driver/Src/stm32f7xx_hal_flash_ex.c ****   *            @arg OB_WWDG_HW: Hardware WWDG selected
 741:Drivers/STM32F7xx_HAL_Driver/Src/stm32f7xx_hal_flash_ex.c ****   * @param  Iwdg Selects the WWDG mode
 742:Drivers/STM32F7xx_HAL_Driver/Src/stm32f7xx_hal_flash_ex.c ****   *          This parameter can be one of the following values:
 743:Drivers/STM32F7xx_HAL_Driver/Src/stm32f7xx_hal_flash_ex.c ****   *            @arg OB_IWDG_SW: Software IWDG selected
 744:Drivers/STM32F7xx_HAL_Driver/Src/stm32f7xx_hal_flash_ex.c ****   *            @arg OB_IWDG_HW: Hardware IWDG selected
 745:Drivers/STM32F7xx_HAL_Driver/Src/stm32f7xx_hal_flash_ex.c ****   * @param  Stop Reset event when entering STOP mode.
 746:Drivers/STM32F7xx_HAL_Driver/Src/stm32f7xx_hal_flash_ex.c ****   *          This parameter  can be one of the following values:
 747:Drivers/STM32F7xx_HAL_Driver/Src/stm32f7xx_hal_flash_ex.c ****   *            @arg OB_STOP_NO_RST: No reset generated when entering in STOP
 748:Drivers/STM32F7xx_HAL_Driver/Src/stm32f7xx_hal_flash_ex.c ****   *            @arg OB_STOP_RST: Reset generated when entering in STOP
 749:Drivers/STM32F7xx_HAL_Driver/Src/stm32f7xx_hal_flash_ex.c ****   * @param  Stdby Reset event when entering Standby mode.
 750:Drivers/STM32F7xx_HAL_Driver/Src/stm32f7xx_hal_flash_ex.c ****   *          This parameter  can be one of the following values:
 751:Drivers/STM32F7xx_HAL_Driver/Src/stm32f7xx_hal_flash_ex.c ****   *            @arg OB_STDBY_NO_RST: No reset generated when entering in STANDBY
 752:Drivers/STM32F7xx_HAL_Driver/Src/stm32f7xx_hal_flash_ex.c ****   *            @arg OB_STDBY_RST: Reset generated when entering in STANDBY
 753:Drivers/STM32F7xx_HAL_Driver/Src/stm32f7xx_hal_flash_ex.c ****   * @param  Iwdgstop Independent watchdog counter freeze in Stop mode.
 754:Drivers/STM32F7xx_HAL_Driver/Src/stm32f7xx_hal_flash_ex.c ****   *          This parameter  can be one of the following values:
 755:Drivers/STM32F7xx_HAL_Driver/Src/stm32f7xx_hal_flash_ex.c ****   *            @arg OB_IWDG_STOP_FREEZE: Freeze IWDG counter in STOP
 756:Drivers/STM32F7xx_HAL_Driver/Src/stm32f7xx_hal_flash_ex.c ****   *            @arg OB_IWDG_STOP_ACTIVE: IWDG counter active in STOP
 757:Drivers/STM32F7xx_HAL_Driver/Src/stm32f7xx_hal_flash_ex.c ****   * @param  Iwdgstdby Independent watchdog counter freeze in standby mode.
 758:Drivers/STM32F7xx_HAL_Driver/Src/stm32f7xx_hal_flash_ex.c ****   *          This parameter  can be one of the following values:
 759:Drivers/STM32F7xx_HAL_Driver/Src/stm32f7xx_hal_flash_ex.c ****   *            @arg OB_IWDG_STDBY_FREEZE: Freeze IWDG counter in STANDBY
 760:Drivers/STM32F7xx_HAL_Driver/Src/stm32f7xx_hal_flash_ex.c ****   *            @arg OB_IWDG_STDBY_ACTIVE: IWDG counter active in STANDBY           
 761:Drivers/STM32F7xx_HAL_Driver/Src/stm32f7xx_hal_flash_ex.c ****   * @retval HAL Status
 762:Drivers/STM32F7xx_HAL_Driver/Src/stm32f7xx_hal_flash_ex.c ****   */
 763:Drivers/STM32F7xx_HAL_Driver/Src/stm32f7xx_hal_flash_ex.c **** static HAL_StatusTypeDef FLASH_OB_UserConfig(uint32_t Wwdg, uint32_t Iwdg, uint32_t Stop, uint32_t 
 764:Drivers/STM32F7xx_HAL_Driver/Src/stm32f7xx_hal_flash_ex.c **** {
 840              		.loc 1 764 0
 841              		.cfi_startproc
 842              		@ args = 8, pretend = 0, frame = 32
 843              		@ frame_needed = 1, uses_anonymous_args = 0
 844 0000 80B5     		push	{r7, lr}
 845              	.LCFI36:
 846              		.cfi_def_cfa_offset 8
 847              		.cfi_offset 7, -8
 848              		.cfi_offset 14, -4
 849 0002 88B0     		sub	sp, sp, #32
 850              	.LCFI37:
 851              		.cfi_def_cfa_offset 40
 852 0004 00AF     		add	r7, sp, #0
 853              	.LCFI38:
 854              		.cfi_def_cfa_register 7
 855 0006 F860     		str	r0, [r7, #12]
 856 0008 B960     		str	r1, [r7, #8]
 857 000a 7A60     		str	r2, [r7, #4]
 858 000c 3B60     		str	r3, [r7]
 765:Drivers/STM32F7xx_HAL_Driver/Src/stm32f7xx_hal_flash_ex.c ****   uint32_t useroptionmask = 0x00;
 859              		.loc 1 765 0
 860 000e 0023     		movs	r3, #0
 861 0010 FB61     		str	r3, [r7, #28]
 766:Drivers/STM32F7xx_HAL_Driver/Src/stm32f7xx_hal_flash_ex.c ****   uint32_t useroptionvalue = 0x00;
 862              		.loc 1 766 0
 863 0012 0023     		movs	r3, #0
 864 0014 BB61     		str	r3, [r7, #24]
 767:Drivers/STM32F7xx_HAL_Driver/Src/stm32f7xx_hal_flash_ex.c **** 
ARM GAS  /tmp/ccOWtDgG.s 			page 37


 768:Drivers/STM32F7xx_HAL_Driver/Src/stm32f7xx_hal_flash_ex.c ****   HAL_StatusTypeDef status = HAL_OK;
 865              		.loc 1 768 0
 866 0016 0023     		movs	r3, #0
 867 0018 FB75     		strb	r3, [r7, #23]
 769:Drivers/STM32F7xx_HAL_Driver/Src/stm32f7xx_hal_flash_ex.c **** 
 770:Drivers/STM32F7xx_HAL_Driver/Src/stm32f7xx_hal_flash_ex.c ****   /* Check the parameters */
 771:Drivers/STM32F7xx_HAL_Driver/Src/stm32f7xx_hal_flash_ex.c ****   assert_param(IS_OB_WWDG_SOURCE(Wwdg));
 772:Drivers/STM32F7xx_HAL_Driver/Src/stm32f7xx_hal_flash_ex.c ****   assert_param(IS_OB_IWDG_SOURCE(Iwdg));
 773:Drivers/STM32F7xx_HAL_Driver/Src/stm32f7xx_hal_flash_ex.c ****   assert_param(IS_OB_STOP_SOURCE(Stop));
 774:Drivers/STM32F7xx_HAL_Driver/Src/stm32f7xx_hal_flash_ex.c ****   assert_param(IS_OB_STDBY_SOURCE(Stdby));
 775:Drivers/STM32F7xx_HAL_Driver/Src/stm32f7xx_hal_flash_ex.c ****   assert_param(IS_OB_IWDG_STOP_FREEZE(Iwdgstop));
 776:Drivers/STM32F7xx_HAL_Driver/Src/stm32f7xx_hal_flash_ex.c ****   assert_param(IS_OB_IWDG_STDBY_FREEZE(Iwdgstdby));
 777:Drivers/STM32F7xx_HAL_Driver/Src/stm32f7xx_hal_flash_ex.c **** 
 778:Drivers/STM32F7xx_HAL_Driver/Src/stm32f7xx_hal_flash_ex.c ****   /* Wait for last operation to be completed */
 779:Drivers/STM32F7xx_HAL_Driver/Src/stm32f7xx_hal_flash_ex.c ****   status = FLASH_WaitForLastOperation((uint32_t)FLASH_TIMEOUT_VALUE);
 868              		.loc 1 779 0
 869 001a 4CF25030 		movw	r0, #50000
 870 001e FFF7FEFF 		bl	FLASH_WaitForLastOperation
 871 0022 0346     		mov	r3, r0
 872 0024 FB75     		strb	r3, [r7, #23]
 780:Drivers/STM32F7xx_HAL_Driver/Src/stm32f7xx_hal_flash_ex.c ****   
 781:Drivers/STM32F7xx_HAL_Driver/Src/stm32f7xx_hal_flash_ex.c ****   if(status == HAL_OK)
 873              		.loc 1 781 0
 874 0026 FB7D     		ldrb	r3, [r7, #23]	@ zero_extendqisi2
 875 0028 002B     		cmp	r3, #0
 876 002a 16D1     		bne	.L46
 782:Drivers/STM32F7xx_HAL_Driver/Src/stm32f7xx_hal_flash_ex.c ****   {
 783:Drivers/STM32F7xx_HAL_Driver/Src/stm32f7xx_hal_flash_ex.c ****     useroptionmask = (FLASH_OPTCR_WWDG_SW | FLASH_OPTCR_IWDG_SW | FLASH_OPTCR_nRST_STOP | \
 877              		.loc 1 783 0
 878 002c 0D4B     		ldr	r3, .L48
 879 002e FB61     		str	r3, [r7, #28]
 784:Drivers/STM32F7xx_HAL_Driver/Src/stm32f7xx_hal_flash_ex.c ****                       FLASH_OPTCR_nRST_STDBY | FLASH_OPTCR_IWDG_STOP | FLASH_OPTCR_IWDG_STDBY);
 785:Drivers/STM32F7xx_HAL_Driver/Src/stm32f7xx_hal_flash_ex.c ****                       
 786:Drivers/STM32F7xx_HAL_Driver/Src/stm32f7xx_hal_flash_ex.c ****     useroptionvalue = (Iwdg | Wwdg | Stop | Stdby | Iwdgstop | Iwdgstdby);
 880              		.loc 1 786 0
 881 0030 BA68     		ldr	r2, [r7, #8]
 882 0032 FB68     		ldr	r3, [r7, #12]
 883 0034 1A43     		orrs	r2, r2, r3
 884 0036 7B68     		ldr	r3, [r7, #4]
 885 0038 1A43     		orrs	r2, r2, r3
 886 003a 3B68     		ldr	r3, [r7]
 887 003c 1A43     		orrs	r2, r2, r3
 888 003e BB6A     		ldr	r3, [r7, #40]
 889 0040 1343     		orrs	r3, r3, r2
 890 0042 FA6A     		ldr	r2, [r7, #44]
 891 0044 1343     		orrs	r3, r3, r2
 892 0046 BB61     		str	r3, [r7, #24]
 787:Drivers/STM32F7xx_HAL_Driver/Src/stm32f7xx_hal_flash_ex.c ****         
 788:Drivers/STM32F7xx_HAL_Driver/Src/stm32f7xx_hal_flash_ex.c ****     /* Update User Option Byte */               
 789:Drivers/STM32F7xx_HAL_Driver/Src/stm32f7xx_hal_flash_ex.c ****     MODIFY_REG(FLASH->OPTCR, useroptionmask, useroptionvalue);
 893              		.loc 1 789 0
 894 0048 074B     		ldr	r3, .L48+4
 895 004a 5A69     		ldr	r2, [r3, #20]
 896 004c FB69     		ldr	r3, [r7, #28]
 897 004e DB43     		mvns	r3, r3
 898 0050 1A40     		ands	r2, r2, r3
 899 0052 0549     		ldr	r1, .L48+4
ARM GAS  /tmp/ccOWtDgG.s 			page 38


 900 0054 BB69     		ldr	r3, [r7, #24]
 901 0056 1343     		orrs	r3, r3, r2
 902 0058 4B61     		str	r3, [r1, #20]
 903              	.L46:
 790:Drivers/STM32F7xx_HAL_Driver/Src/stm32f7xx_hal_flash_ex.c ****   }
 791:Drivers/STM32F7xx_HAL_Driver/Src/stm32f7xx_hal_flash_ex.c ****   
 792:Drivers/STM32F7xx_HAL_Driver/Src/stm32f7xx_hal_flash_ex.c ****   return status; 
 904              		.loc 1 792 0
 905 005a FB7D     		ldrb	r3, [r7, #23]	@ zero_extendqisi2
 793:Drivers/STM32F7xx_HAL_Driver/Src/stm32f7xx_hal_flash_ex.c **** 
 794:Drivers/STM32F7xx_HAL_Driver/Src/stm32f7xx_hal_flash_ex.c **** }
 906              		.loc 1 794 0
 907 005c 1846     		mov	r0, r3
 908 005e 2037     		adds	r7, r7, #32
 909              	.LCFI39:
 910              		.cfi_def_cfa_offset 8
 911 0060 BD46     		mov	sp, r7
 912              	.LCFI40:
 913              		.cfi_def_cfa_register 13
 914              		@ sp needed
 915 0062 80BD     		pop	{r7, pc}
 916              	.L49:
 917              		.align	2
 918              	.L48:
 919 0064 F00000C0 		.word	-1073741584
 920 0068 003C0240 		.word	1073888256
 921              		.cfi_endproc
 922              	.LFE145:
 924              		.section	.text.FLASH_OB_GetUser,"ax",%progbits
 925              		.align	1
 926              		.syntax unified
 927              		.thumb
 928              		.thumb_func
 929              		.fpu fpv4-sp-d16
 931              	FLASH_OB_GetUser:
 932              	.LFB146:
 795:Drivers/STM32F7xx_HAL_Driver/Src/stm32f7xx_hal_flash_ex.c **** 
 796:Drivers/STM32F7xx_HAL_Driver/Src/stm32f7xx_hal_flash_ex.c **** /**
 797:Drivers/STM32F7xx_HAL_Driver/Src/stm32f7xx_hal_flash_ex.c ****   * @brief  Return the FLASH User Option Byte value.
 798:Drivers/STM32F7xx_HAL_Driver/Src/stm32f7xx_hal_flash_ex.c ****   * @retval uint32_t FLASH User Option Bytes values: WWDG_SW(Bit4), IWDG_SW(Bit5), nRST_STOP(Bit6),
 799:Drivers/STM32F7xx_HAL_Driver/Src/stm32f7xx_hal_flash_ex.c ****   *         nRST_STDBY(Bit7), IWDG_STDBY(Bit30) and IWDG_STOP(Bit31).
 800:Drivers/STM32F7xx_HAL_Driver/Src/stm32f7xx_hal_flash_ex.c ****   */
 801:Drivers/STM32F7xx_HAL_Driver/Src/stm32f7xx_hal_flash_ex.c **** static uint32_t FLASH_OB_GetUser(void)
 802:Drivers/STM32F7xx_HAL_Driver/Src/stm32f7xx_hal_flash_ex.c **** {
 933              		.loc 1 802 0
 934              		.cfi_startproc
 935              		@ args = 0, pretend = 0, frame = 0
 936              		@ frame_needed = 1, uses_anonymous_args = 0
 937              		@ link register save eliminated.
 938 0000 80B4     		push	{r7}
 939              	.LCFI41:
 940              		.cfi_def_cfa_offset 4
 941              		.cfi_offset 7, -4
 942 0002 00AF     		add	r7, sp, #0
 943              	.LCFI42:
 944              		.cfi_def_cfa_register 7
 803:Drivers/STM32F7xx_HAL_Driver/Src/stm32f7xx_hal_flash_ex.c ****   /* Return the User Option Byte */
ARM GAS  /tmp/ccOWtDgG.s 			page 39


 804:Drivers/STM32F7xx_HAL_Driver/Src/stm32f7xx_hal_flash_ex.c ****   return ((uint32_t)(FLASH->OPTCR & 0xC00000F0U));
 945              		.loc 1 804 0
 946 0004 044B     		ldr	r3, .L52
 947 0006 5A69     		ldr	r2, [r3, #20]
 948 0008 044B     		ldr	r3, .L52+4
 949 000a 1340     		ands	r3, r3, r2
 805:Drivers/STM32F7xx_HAL_Driver/Src/stm32f7xx_hal_flash_ex.c **** }
 950              		.loc 1 805 0
 951 000c 1846     		mov	r0, r3
 952 000e BD46     		mov	sp, r7
 953              	.LCFI43:
 954              		.cfi_def_cfa_register 13
 955              		@ sp needed
 956 0010 5DF8047B 		ldr	r7, [sp], #4
 957              	.LCFI44:
 958              		.cfi_restore 7
 959              		.cfi_def_cfa_offset 0
 960 0014 7047     		bx	lr
 961              	.L53:
 962 0016 00BF     		.align	2
 963              	.L52:
 964 0018 003C0240 		.word	1073888256
 965 001c F00000C0 		.word	-1073741584
 966              		.cfi_endproc
 967              	.LFE146:
 969              		.section	.text.FLASH_OB_EnableWRP,"ax",%progbits
 970              		.align	1
 971              		.syntax unified
 972              		.thumb
 973              		.thumb_func
 974              		.fpu fpv4-sp-d16
 976              	FLASH_OB_EnableWRP:
 977              	.LFB147:
 806:Drivers/STM32F7xx_HAL_Driver/Src/stm32f7xx_hal_flash_ex.c **** #endif /* FLASH_OPTCR_nDBANK */
 807:Drivers/STM32F7xx_HAL_Driver/Src/stm32f7xx_hal_flash_ex.c **** 
 808:Drivers/STM32F7xx_HAL_Driver/Src/stm32f7xx_hal_flash_ex.c **** /**
 809:Drivers/STM32F7xx_HAL_Driver/Src/stm32f7xx_hal_flash_ex.c ****   * @brief  Enable the write protection of the desired bank1 or bank2 sectors
 810:Drivers/STM32F7xx_HAL_Driver/Src/stm32f7xx_hal_flash_ex.c ****   *
 811:Drivers/STM32F7xx_HAL_Driver/Src/stm32f7xx_hal_flash_ex.c ****   * @note   When the memory read protection level is selected (RDP level = 1), 
 812:Drivers/STM32F7xx_HAL_Driver/Src/stm32f7xx_hal_flash_ex.c ****   *         it is not possible to program or erase the flash sector i if CortexM7  
 813:Drivers/STM32F7xx_HAL_Driver/Src/stm32f7xx_hal_flash_ex.c ****   *         debug features are connected or boot code is executed in RAM, even if nWRPi = 1    
 814:Drivers/STM32F7xx_HAL_Driver/Src/stm32f7xx_hal_flash_ex.c ****   * 
 815:Drivers/STM32F7xx_HAL_Driver/Src/stm32f7xx_hal_flash_ex.c ****   * @param  WRPSector specifies the sector(s) to be write protected.
 816:Drivers/STM32F7xx_HAL_Driver/Src/stm32f7xx_hal_flash_ex.c ****   *          This parameter can be one of the following values:
 817:Drivers/STM32F7xx_HAL_Driver/Src/stm32f7xx_hal_flash_ex.c ****   *            @arg WRPSector: A value between OB_WRP_SECTOR_0 and OB_WRP_SECTOR_7 (for STM32F74xxx
 818:Drivers/STM32F7xx_HAL_Driver/Src/stm32f7xx_hal_flash_ex.c ****   *              or a value between OB_WRP_SECTOR_0 and OB_WRP_SECTOR_11 (in Single Bank mode for S
 819:Drivers/STM32F7xx_HAL_Driver/Src/stm32f7xx_hal_flash_ex.c ****   *              or a value between OB_WRP_DB_SECTOR_0 and OB_WRP_DB_SECTOR_23 (in Dual Bank mode f
 820:Drivers/STM32F7xx_HAL_Driver/Src/stm32f7xx_hal_flash_ex.c ****   *            @arg OB_WRP_SECTOR_All
 821:Drivers/STM32F7xx_HAL_Driver/Src/stm32f7xx_hal_flash_ex.c ****   *
 822:Drivers/STM32F7xx_HAL_Driver/Src/stm32f7xx_hal_flash_ex.c ****   * @retval HAL FLASH State   
 823:Drivers/STM32F7xx_HAL_Driver/Src/stm32f7xx_hal_flash_ex.c ****   */
 824:Drivers/STM32F7xx_HAL_Driver/Src/stm32f7xx_hal_flash_ex.c **** static HAL_StatusTypeDef FLASH_OB_EnableWRP(uint32_t WRPSector)
 825:Drivers/STM32F7xx_HAL_Driver/Src/stm32f7xx_hal_flash_ex.c **** {
 978              		.loc 1 825 0
 979              		.cfi_startproc
 980              		@ args = 0, pretend = 0, frame = 16
 981              		@ frame_needed = 1, uses_anonymous_args = 0
ARM GAS  /tmp/ccOWtDgG.s 			page 40


 982 0000 80B5     		push	{r7, lr}
 983              	.LCFI45:
 984              		.cfi_def_cfa_offset 8
 985              		.cfi_offset 7, -8
 986              		.cfi_offset 14, -4
 987 0002 84B0     		sub	sp, sp, #16
 988              	.LCFI46:
 989              		.cfi_def_cfa_offset 24
 990 0004 00AF     		add	r7, sp, #0
 991              	.LCFI47:
 992              		.cfi_def_cfa_register 7
 993 0006 7860     		str	r0, [r7, #4]
 826:Drivers/STM32F7xx_HAL_Driver/Src/stm32f7xx_hal_flash_ex.c ****   HAL_StatusTypeDef status = HAL_OK;
 994              		.loc 1 826 0
 995 0008 0023     		movs	r3, #0
 996 000a FB73     		strb	r3, [r7, #15]
 827:Drivers/STM32F7xx_HAL_Driver/Src/stm32f7xx_hal_flash_ex.c ****   
 828:Drivers/STM32F7xx_HAL_Driver/Src/stm32f7xx_hal_flash_ex.c ****   /* Check the parameters */
 829:Drivers/STM32F7xx_HAL_Driver/Src/stm32f7xx_hal_flash_ex.c ****   assert_param(IS_OB_WRP_SECTOR(WRPSector));
 830:Drivers/STM32F7xx_HAL_Driver/Src/stm32f7xx_hal_flash_ex.c ****     
 831:Drivers/STM32F7xx_HAL_Driver/Src/stm32f7xx_hal_flash_ex.c ****   /* Wait for last operation to be completed */
 832:Drivers/STM32F7xx_HAL_Driver/Src/stm32f7xx_hal_flash_ex.c ****   status = FLASH_WaitForLastOperation((uint32_t)FLASH_TIMEOUT_VALUE);
 997              		.loc 1 832 0
 998 000c 4CF25030 		movw	r0, #50000
 999 0010 FFF7FEFF 		bl	FLASH_WaitForLastOperation
 1000 0014 0346     		mov	r3, r0
 1001 0016 FB73     		strb	r3, [r7, #15]
 833:Drivers/STM32F7xx_HAL_Driver/Src/stm32f7xx_hal_flash_ex.c **** 
 834:Drivers/STM32F7xx_HAL_Driver/Src/stm32f7xx_hal_flash_ex.c ****   if(status == HAL_OK)
 1002              		.loc 1 834 0
 1003 0018 FB7B     		ldrb	r3, [r7, #15]	@ zero_extendqisi2
 1004 001a 002B     		cmp	r3, #0
 1005 001c 06D1     		bne	.L55
 835:Drivers/STM32F7xx_HAL_Driver/Src/stm32f7xx_hal_flash_ex.c ****   {
 836:Drivers/STM32F7xx_HAL_Driver/Src/stm32f7xx_hal_flash_ex.c ****     /*Write protection enabled on sectors */
 837:Drivers/STM32F7xx_HAL_Driver/Src/stm32f7xx_hal_flash_ex.c ****     FLASH->OPTCR &= (~WRPSector);  
 1006              		.loc 1 837 0
 1007 001e 064B     		ldr	r3, .L57
 1008 0020 5A69     		ldr	r2, [r3, #20]
 1009 0022 7B68     		ldr	r3, [r7, #4]
 1010 0024 DB43     		mvns	r3, r3
 1011 0026 0449     		ldr	r1, .L57
 1012 0028 1340     		ands	r3, r3, r2
 1013 002a 4B61     		str	r3, [r1, #20]
 1014              	.L55:
 838:Drivers/STM32F7xx_HAL_Driver/Src/stm32f7xx_hal_flash_ex.c ****   }
 839:Drivers/STM32F7xx_HAL_Driver/Src/stm32f7xx_hal_flash_ex.c ****   
 840:Drivers/STM32F7xx_HAL_Driver/Src/stm32f7xx_hal_flash_ex.c ****   return status;
 1015              		.loc 1 840 0
 1016 002c FB7B     		ldrb	r3, [r7, #15]	@ zero_extendqisi2
 841:Drivers/STM32F7xx_HAL_Driver/Src/stm32f7xx_hal_flash_ex.c **** }
 1017              		.loc 1 841 0
 1018 002e 1846     		mov	r0, r3
 1019 0030 1037     		adds	r7, r7, #16
 1020              	.LCFI48:
 1021              		.cfi_def_cfa_offset 8
 1022 0032 BD46     		mov	sp, r7
ARM GAS  /tmp/ccOWtDgG.s 			page 41


 1023              	.LCFI49:
 1024              		.cfi_def_cfa_register 13
 1025              		@ sp needed
 1026 0034 80BD     		pop	{r7, pc}
 1027              	.L58:
 1028 0036 00BF     		.align	2
 1029              	.L57:
 1030 0038 003C0240 		.word	1073888256
 1031              		.cfi_endproc
 1032              	.LFE147:
 1034              		.section	.text.FLASH_OB_DisableWRP,"ax",%progbits
 1035              		.align	1
 1036              		.syntax unified
 1037              		.thumb
 1038              		.thumb_func
 1039              		.fpu fpv4-sp-d16
 1041              	FLASH_OB_DisableWRP:
 1042              	.LFB148:
 842:Drivers/STM32F7xx_HAL_Driver/Src/stm32f7xx_hal_flash_ex.c **** 
 843:Drivers/STM32F7xx_HAL_Driver/Src/stm32f7xx_hal_flash_ex.c **** /**
 844:Drivers/STM32F7xx_HAL_Driver/Src/stm32f7xx_hal_flash_ex.c ****   * @brief  Disable the write protection of the desired bank1 or bank 2 sectors
 845:Drivers/STM32F7xx_HAL_Driver/Src/stm32f7xx_hal_flash_ex.c ****   *
 846:Drivers/STM32F7xx_HAL_Driver/Src/stm32f7xx_hal_flash_ex.c ****   * @note   When the memory read protection level is selected (RDP level = 1), 
 847:Drivers/STM32F7xx_HAL_Driver/Src/stm32f7xx_hal_flash_ex.c ****   *         it is not possible to program or erase the flash sector i if CortexM4  
 848:Drivers/STM32F7xx_HAL_Driver/Src/stm32f7xx_hal_flash_ex.c ****   *         debug features are connected or boot code is executed in RAM, even if nWRPi = 1  
 849:Drivers/STM32F7xx_HAL_Driver/Src/stm32f7xx_hal_flash_ex.c ****   * 
 850:Drivers/STM32F7xx_HAL_Driver/Src/stm32f7xx_hal_flash_ex.c ****   * @param  WRPSector specifies the sector(s) to be write protected.
 851:Drivers/STM32F7xx_HAL_Driver/Src/stm32f7xx_hal_flash_ex.c ****   *          This parameter can be one of the following values:
 852:Drivers/STM32F7xx_HAL_Driver/Src/stm32f7xx_hal_flash_ex.c ****   *            @arg WRPSector: A value between OB_WRP_SECTOR_0 and OB_WRP_SECTOR_7 (for STM32F74xxx
 853:Drivers/STM32F7xx_HAL_Driver/Src/stm32f7xx_hal_flash_ex.c ****   *              or a value between OB_WRP_SECTOR_0 and OB_WRP_SECTOR_11 (in Single Bank mode for S
 854:Drivers/STM32F7xx_HAL_Driver/Src/stm32f7xx_hal_flash_ex.c ****   *              or a value between OB_WRP_DB_SECTOR_0 and OB_WRP_DB_SECTOR_23 (in Dual Bank mode f
 855:Drivers/STM32F7xx_HAL_Driver/Src/stm32f7xx_hal_flash_ex.c ****   *            @arg OB_WRP_Sector_All
 856:Drivers/STM32F7xx_HAL_Driver/Src/stm32f7xx_hal_flash_ex.c ****   *
 857:Drivers/STM32F7xx_HAL_Driver/Src/stm32f7xx_hal_flash_ex.c ****   *
 858:Drivers/STM32F7xx_HAL_Driver/Src/stm32f7xx_hal_flash_ex.c ****   * @retval HAL Status   
 859:Drivers/STM32F7xx_HAL_Driver/Src/stm32f7xx_hal_flash_ex.c ****   */
 860:Drivers/STM32F7xx_HAL_Driver/Src/stm32f7xx_hal_flash_ex.c **** static HAL_StatusTypeDef FLASH_OB_DisableWRP(uint32_t WRPSector)
 861:Drivers/STM32F7xx_HAL_Driver/Src/stm32f7xx_hal_flash_ex.c **** {
 1043              		.loc 1 861 0
 1044              		.cfi_startproc
 1045              		@ args = 0, pretend = 0, frame = 16
 1046              		@ frame_needed = 1, uses_anonymous_args = 0
 1047 0000 80B5     		push	{r7, lr}
 1048              	.LCFI50:
 1049              		.cfi_def_cfa_offset 8
 1050              		.cfi_offset 7, -8
 1051              		.cfi_offset 14, -4
 1052 0002 84B0     		sub	sp, sp, #16
 1053              	.LCFI51:
 1054              		.cfi_def_cfa_offset 24
 1055 0004 00AF     		add	r7, sp, #0
 1056              	.LCFI52:
 1057              		.cfi_def_cfa_register 7
 1058 0006 7860     		str	r0, [r7, #4]
 862:Drivers/STM32F7xx_HAL_Driver/Src/stm32f7xx_hal_flash_ex.c ****   HAL_StatusTypeDef status = HAL_OK;
 1059              		.loc 1 862 0
 1060 0008 0023     		movs	r3, #0
ARM GAS  /tmp/ccOWtDgG.s 			page 42


 1061 000a FB73     		strb	r3, [r7, #15]
 863:Drivers/STM32F7xx_HAL_Driver/Src/stm32f7xx_hal_flash_ex.c ****   
 864:Drivers/STM32F7xx_HAL_Driver/Src/stm32f7xx_hal_flash_ex.c ****   /* Check the parameters */
 865:Drivers/STM32F7xx_HAL_Driver/Src/stm32f7xx_hal_flash_ex.c ****   assert_param(IS_OB_WRP_SECTOR(WRPSector));
 866:Drivers/STM32F7xx_HAL_Driver/Src/stm32f7xx_hal_flash_ex.c ****     
 867:Drivers/STM32F7xx_HAL_Driver/Src/stm32f7xx_hal_flash_ex.c ****   /* Wait for last operation to be completed */
 868:Drivers/STM32F7xx_HAL_Driver/Src/stm32f7xx_hal_flash_ex.c ****   status = FLASH_WaitForLastOperation((uint32_t)FLASH_TIMEOUT_VALUE);
 1062              		.loc 1 868 0
 1063 000c 4CF25030 		movw	r0, #50000
 1064 0010 FFF7FEFF 		bl	FLASH_WaitForLastOperation
 1065 0014 0346     		mov	r3, r0
 1066 0016 FB73     		strb	r3, [r7, #15]
 869:Drivers/STM32F7xx_HAL_Driver/Src/stm32f7xx_hal_flash_ex.c **** 
 870:Drivers/STM32F7xx_HAL_Driver/Src/stm32f7xx_hal_flash_ex.c ****   if(status == HAL_OK)
 1067              		.loc 1 870 0
 1068 0018 FB7B     		ldrb	r3, [r7, #15]	@ zero_extendqisi2
 1069 001a 002B     		cmp	r3, #0
 1070 001c 05D1     		bne	.L60
 871:Drivers/STM32F7xx_HAL_Driver/Src/stm32f7xx_hal_flash_ex.c ****   {
 872:Drivers/STM32F7xx_HAL_Driver/Src/stm32f7xx_hal_flash_ex.c ****     /* Write protection disabled on sectors */
 873:Drivers/STM32F7xx_HAL_Driver/Src/stm32f7xx_hal_flash_ex.c ****     FLASH->OPTCR |= (WRPSector); 
 1071              		.loc 1 873 0
 1072 001e 054B     		ldr	r3, .L62
 1073 0020 5A69     		ldr	r2, [r3, #20]
 1074 0022 0449     		ldr	r1, .L62
 1075 0024 7B68     		ldr	r3, [r7, #4]
 1076 0026 1343     		orrs	r3, r3, r2
 1077 0028 4B61     		str	r3, [r1, #20]
 1078              	.L60:
 874:Drivers/STM32F7xx_HAL_Driver/Src/stm32f7xx_hal_flash_ex.c ****   }
 875:Drivers/STM32F7xx_HAL_Driver/Src/stm32f7xx_hal_flash_ex.c **** 
 876:Drivers/STM32F7xx_HAL_Driver/Src/stm32f7xx_hal_flash_ex.c ****   return status;
 1079              		.loc 1 876 0
 1080 002a FB7B     		ldrb	r3, [r7, #15]	@ zero_extendqisi2
 877:Drivers/STM32F7xx_HAL_Driver/Src/stm32f7xx_hal_flash_ex.c **** }
 1081              		.loc 1 877 0
 1082 002c 1846     		mov	r0, r3
 1083 002e 1037     		adds	r7, r7, #16
 1084              	.LCFI53:
 1085              		.cfi_def_cfa_offset 8
 1086 0030 BD46     		mov	sp, r7
 1087              	.LCFI54:
 1088              		.cfi_def_cfa_register 13
 1089              		@ sp needed
 1090 0032 80BD     		pop	{r7, pc}
 1091              	.L63:
 1092              		.align	2
 1093              	.L62:
 1094 0034 003C0240 		.word	1073888256
 1095              		.cfi_endproc
 1096              	.LFE148:
 1098              		.section	.text.FLASH_OB_RDP_LevelConfig,"ax",%progbits
 1099              		.align	1
 1100              		.syntax unified
 1101              		.thumb
 1102              		.thumb_func
 1103              		.fpu fpv4-sp-d16
ARM GAS  /tmp/ccOWtDgG.s 			page 43


 1105              	FLASH_OB_RDP_LevelConfig:
 1106              	.LFB149:
 878:Drivers/STM32F7xx_HAL_Driver/Src/stm32f7xx_hal_flash_ex.c **** 
 879:Drivers/STM32F7xx_HAL_Driver/Src/stm32f7xx_hal_flash_ex.c **** /**
 880:Drivers/STM32F7xx_HAL_Driver/Src/stm32f7xx_hal_flash_ex.c ****   * @brief  Set the read protection level.
 881:Drivers/STM32F7xx_HAL_Driver/Src/stm32f7xx_hal_flash_ex.c ****   * @param  Level specifies the read protection level.
 882:Drivers/STM32F7xx_HAL_Driver/Src/stm32f7xx_hal_flash_ex.c ****   *          This parameter can be one of the following values:
 883:Drivers/STM32F7xx_HAL_Driver/Src/stm32f7xx_hal_flash_ex.c ****   *            @arg OB_RDP_LEVEL_0: No protection
 884:Drivers/STM32F7xx_HAL_Driver/Src/stm32f7xx_hal_flash_ex.c ****   *            @arg OB_RDP_LEVEL_1: Read protection of the memory
 885:Drivers/STM32F7xx_HAL_Driver/Src/stm32f7xx_hal_flash_ex.c ****   *            @arg OB_RDP_LEVEL_2: Full chip protection
 886:Drivers/STM32F7xx_HAL_Driver/Src/stm32f7xx_hal_flash_ex.c ****   *   
 887:Drivers/STM32F7xx_HAL_Driver/Src/stm32f7xx_hal_flash_ex.c ****   * @note WARNING: When enabling OB_RDP level 2 it's no more possible to go back to level 1 or 0
 888:Drivers/STM32F7xx_HAL_Driver/Src/stm32f7xx_hal_flash_ex.c ****   *    
 889:Drivers/STM32F7xx_HAL_Driver/Src/stm32f7xx_hal_flash_ex.c ****   * @retval HAL Status
 890:Drivers/STM32F7xx_HAL_Driver/Src/stm32f7xx_hal_flash_ex.c ****   */
 891:Drivers/STM32F7xx_HAL_Driver/Src/stm32f7xx_hal_flash_ex.c **** static HAL_StatusTypeDef FLASH_OB_RDP_LevelConfig(uint8_t Level)
 892:Drivers/STM32F7xx_HAL_Driver/Src/stm32f7xx_hal_flash_ex.c **** {
 1107              		.loc 1 892 0
 1108              		.cfi_startproc
 1109              		@ args = 0, pretend = 0, frame = 16
 1110              		@ frame_needed = 1, uses_anonymous_args = 0
 1111 0000 80B5     		push	{r7, lr}
 1112              	.LCFI55:
 1113              		.cfi_def_cfa_offset 8
 1114              		.cfi_offset 7, -8
 1115              		.cfi_offset 14, -4
 1116 0002 84B0     		sub	sp, sp, #16
 1117              	.LCFI56:
 1118              		.cfi_def_cfa_offset 24
 1119 0004 00AF     		add	r7, sp, #0
 1120              	.LCFI57:
 1121              		.cfi_def_cfa_register 7
 1122 0006 0346     		mov	r3, r0
 1123 0008 FB71     		strb	r3, [r7, #7]
 893:Drivers/STM32F7xx_HAL_Driver/Src/stm32f7xx_hal_flash_ex.c ****   HAL_StatusTypeDef status = HAL_OK;
 1124              		.loc 1 893 0
 1125 000a 0023     		movs	r3, #0
 1126 000c FB73     		strb	r3, [r7, #15]
 894:Drivers/STM32F7xx_HAL_Driver/Src/stm32f7xx_hal_flash_ex.c ****   
 895:Drivers/STM32F7xx_HAL_Driver/Src/stm32f7xx_hal_flash_ex.c ****   /* Check the parameters */
 896:Drivers/STM32F7xx_HAL_Driver/Src/stm32f7xx_hal_flash_ex.c ****   assert_param(IS_OB_RDP_LEVEL(Level));
 897:Drivers/STM32F7xx_HAL_Driver/Src/stm32f7xx_hal_flash_ex.c ****     
 898:Drivers/STM32F7xx_HAL_Driver/Src/stm32f7xx_hal_flash_ex.c ****   /* Wait for last operation to be completed */
 899:Drivers/STM32F7xx_HAL_Driver/Src/stm32f7xx_hal_flash_ex.c ****   status = FLASH_WaitForLastOperation((uint32_t)FLASH_TIMEOUT_VALUE);
 1127              		.loc 1 899 0
 1128 000e 4CF25030 		movw	r0, #50000
 1129 0012 FFF7FEFF 		bl	FLASH_WaitForLastOperation
 1130 0016 0346     		mov	r3, r0
 1131 0018 FB73     		strb	r3, [r7, #15]
 900:Drivers/STM32F7xx_HAL_Driver/Src/stm32f7xx_hal_flash_ex.c **** 
 901:Drivers/STM32F7xx_HAL_Driver/Src/stm32f7xx_hal_flash_ex.c ****   if(status == HAL_OK)
 1132              		.loc 1 901 0
 1133 001a FB7B     		ldrb	r3, [r7, #15]	@ zero_extendqisi2
 1134 001c 002B     		cmp	r3, #0
 1135 001e 02D1     		bne	.L65
 902:Drivers/STM32F7xx_HAL_Driver/Src/stm32f7xx_hal_flash_ex.c ****   { 
 903:Drivers/STM32F7xx_HAL_Driver/Src/stm32f7xx_hal_flash_ex.c ****     *(__IO uint8_t*)OPTCR_BYTE1_ADDRESS = Level;
ARM GAS  /tmp/ccOWtDgG.s 			page 44


 1136              		.loc 1 903 0
 1137 0020 034A     		ldr	r2, .L67
 1138 0022 FB79     		ldrb	r3, [r7, #7]
 1139 0024 1370     		strb	r3, [r2]
 1140              	.L65:
 904:Drivers/STM32F7xx_HAL_Driver/Src/stm32f7xx_hal_flash_ex.c ****   }
 905:Drivers/STM32F7xx_HAL_Driver/Src/stm32f7xx_hal_flash_ex.c ****   
 906:Drivers/STM32F7xx_HAL_Driver/Src/stm32f7xx_hal_flash_ex.c ****   return status;
 1141              		.loc 1 906 0
 1142 0026 FB7B     		ldrb	r3, [r7, #15]	@ zero_extendqisi2
 907:Drivers/STM32F7xx_HAL_Driver/Src/stm32f7xx_hal_flash_ex.c **** }
 1143              		.loc 1 907 0
 1144 0028 1846     		mov	r0, r3
 1145 002a 1037     		adds	r7, r7, #16
 1146              	.LCFI58:
 1147              		.cfi_def_cfa_offset 8
 1148 002c BD46     		mov	sp, r7
 1149              	.LCFI59:
 1150              		.cfi_def_cfa_register 13
 1151              		@ sp needed
 1152 002e 80BD     		pop	{r7, pc}
 1153              	.L68:
 1154              		.align	2
 1155              	.L67:
 1156 0030 153C0240 		.word	1073888277
 1157              		.cfi_endproc
 1158              	.LFE149:
 1160              		.section	.text.FLASH_OB_BOR_LevelConfig,"ax",%progbits
 1161              		.align	1
 1162              		.syntax unified
 1163              		.thumb
 1164              		.thumb_func
 1165              		.fpu fpv4-sp-d16
 1167              	FLASH_OB_BOR_LevelConfig:
 1168              	.LFB150:
 908:Drivers/STM32F7xx_HAL_Driver/Src/stm32f7xx_hal_flash_ex.c **** 
 909:Drivers/STM32F7xx_HAL_Driver/Src/stm32f7xx_hal_flash_ex.c **** /**
 910:Drivers/STM32F7xx_HAL_Driver/Src/stm32f7xx_hal_flash_ex.c ****   * @brief  Set the BOR Level. 
 911:Drivers/STM32F7xx_HAL_Driver/Src/stm32f7xx_hal_flash_ex.c ****   * @param  Level specifies the Option Bytes BOR Reset Level.
 912:Drivers/STM32F7xx_HAL_Driver/Src/stm32f7xx_hal_flash_ex.c ****   *          This parameter can be one of the following values:
 913:Drivers/STM32F7xx_HAL_Driver/Src/stm32f7xx_hal_flash_ex.c ****   *            @arg OB_BOR_LEVEL3: Supply voltage ranges from 2.7 to 3.6 V
 914:Drivers/STM32F7xx_HAL_Driver/Src/stm32f7xx_hal_flash_ex.c ****   *            @arg OB_BOR_LEVEL2: Supply voltage ranges from 2.4 to 2.7 V
 915:Drivers/STM32F7xx_HAL_Driver/Src/stm32f7xx_hal_flash_ex.c ****   *            @arg OB_BOR_LEVEL1: Supply voltage ranges from 2.1 to 2.4 V
 916:Drivers/STM32F7xx_HAL_Driver/Src/stm32f7xx_hal_flash_ex.c ****   *            @arg OB_BOR_OFF: Supply voltage ranges from 1.62 to 2.1 V
 917:Drivers/STM32F7xx_HAL_Driver/Src/stm32f7xx_hal_flash_ex.c ****   * @retval HAL Status
 918:Drivers/STM32F7xx_HAL_Driver/Src/stm32f7xx_hal_flash_ex.c ****   */
 919:Drivers/STM32F7xx_HAL_Driver/Src/stm32f7xx_hal_flash_ex.c **** static HAL_StatusTypeDef FLASH_OB_BOR_LevelConfig(uint8_t Level)
 920:Drivers/STM32F7xx_HAL_Driver/Src/stm32f7xx_hal_flash_ex.c **** {
 1169              		.loc 1 920 0
 1170              		.cfi_startproc
 1171              		@ args = 0, pretend = 0, frame = 8
 1172              		@ frame_needed = 1, uses_anonymous_args = 0
 1173              		@ link register save eliminated.
 1174 0000 80B4     		push	{r7}
 1175              	.LCFI60:
 1176              		.cfi_def_cfa_offset 4
 1177              		.cfi_offset 7, -4
ARM GAS  /tmp/ccOWtDgG.s 			page 45


 1178 0002 83B0     		sub	sp, sp, #12
 1179              	.LCFI61:
 1180              		.cfi_def_cfa_offset 16
 1181 0004 00AF     		add	r7, sp, #0
 1182              	.LCFI62:
 1183              		.cfi_def_cfa_register 7
 1184 0006 0346     		mov	r3, r0
 1185 0008 FB71     		strb	r3, [r7, #7]
 921:Drivers/STM32F7xx_HAL_Driver/Src/stm32f7xx_hal_flash_ex.c ****   /* Check the parameters */
 922:Drivers/STM32F7xx_HAL_Driver/Src/stm32f7xx_hal_flash_ex.c ****   assert_param(IS_OB_BOR_LEVEL(Level));
 923:Drivers/STM32F7xx_HAL_Driver/Src/stm32f7xx_hal_flash_ex.c **** 
 924:Drivers/STM32F7xx_HAL_Driver/Src/stm32f7xx_hal_flash_ex.c ****   /* Set the BOR Level */
 925:Drivers/STM32F7xx_HAL_Driver/Src/stm32f7xx_hal_flash_ex.c ****   MODIFY_REG(FLASH->OPTCR, FLASH_OPTCR_BOR_LEV, Level);
 1186              		.loc 1 925 0
 1187 000a 074B     		ldr	r3, .L71
 1188 000c 5B69     		ldr	r3, [r3, #20]
 1189 000e 23F00C02 		bic	r2, r3, #12
 1190 0012 FB79     		ldrb	r3, [r7, #7]	@ zero_extendqisi2
 1191 0014 0449     		ldr	r1, .L71
 1192 0016 1343     		orrs	r3, r3, r2
 1193 0018 4B61     		str	r3, [r1, #20]
 926:Drivers/STM32F7xx_HAL_Driver/Src/stm32f7xx_hal_flash_ex.c ****   
 927:Drivers/STM32F7xx_HAL_Driver/Src/stm32f7xx_hal_flash_ex.c ****   return HAL_OK;
 1194              		.loc 1 927 0
 1195 001a 0023     		movs	r3, #0
 928:Drivers/STM32F7xx_HAL_Driver/Src/stm32f7xx_hal_flash_ex.c ****   
 929:Drivers/STM32F7xx_HAL_Driver/Src/stm32f7xx_hal_flash_ex.c **** }
 1196              		.loc 1 929 0
 1197 001c 1846     		mov	r0, r3
 1198 001e 0C37     		adds	r7, r7, #12
 1199              	.LCFI63:
 1200              		.cfi_def_cfa_offset 4
 1201 0020 BD46     		mov	sp, r7
 1202              	.LCFI64:
 1203              		.cfi_def_cfa_register 13
 1204              		@ sp needed
 1205 0022 5DF8047B 		ldr	r7, [sp], #4
 1206              	.LCFI65:
 1207              		.cfi_restore 7
 1208              		.cfi_def_cfa_offset 0
 1209 0026 7047     		bx	lr
 1210              	.L72:
 1211              		.align	2
 1212              	.L71:
 1213 0028 003C0240 		.word	1073888256
 1214              		.cfi_endproc
 1215              	.LFE150:
 1217              		.section	.text.FLASH_OB_BootAddressConfig,"ax",%progbits
 1218              		.align	1
 1219              		.syntax unified
 1220              		.thumb
 1221              		.thumb_func
 1222              		.fpu fpv4-sp-d16
 1224              	FLASH_OB_BootAddressConfig:
 1225              	.LFB151:
 930:Drivers/STM32F7xx_HAL_Driver/Src/stm32f7xx_hal_flash_ex.c **** 
 931:Drivers/STM32F7xx_HAL_Driver/Src/stm32f7xx_hal_flash_ex.c **** /**
ARM GAS  /tmp/ccOWtDgG.s 			page 46


 932:Drivers/STM32F7xx_HAL_Driver/Src/stm32f7xx_hal_flash_ex.c ****   * @brief  Configure Boot base address.
 933:Drivers/STM32F7xx_HAL_Driver/Src/stm32f7xx_hal_flash_ex.c ****   * 
 934:Drivers/STM32F7xx_HAL_Driver/Src/stm32f7xx_hal_flash_ex.c ****   * @param   BootOption  specifies Boot base address depending from Boot pin = 0 or pin = 1
 935:Drivers/STM32F7xx_HAL_Driver/Src/stm32f7xx_hal_flash_ex.c ****   *          This parameter can be one of the following values:
 936:Drivers/STM32F7xx_HAL_Driver/Src/stm32f7xx_hal_flash_ex.c ****   *            @arg OPTIONBYTE_BOOTADDR_0 : Boot address based when Boot pin = 0                 
 937:Drivers/STM32F7xx_HAL_Driver/Src/stm32f7xx_hal_flash_ex.c ****   *            @arg OPTIONBYTE_BOOTADDR_1 : Boot address based when Boot pin = 1  
 938:Drivers/STM32F7xx_HAL_Driver/Src/stm32f7xx_hal_flash_ex.c ****   * @param   Address specifies Boot base address
 939:Drivers/STM32F7xx_HAL_Driver/Src/stm32f7xx_hal_flash_ex.c ****   *          This parameter can be one of the following values:
 940:Drivers/STM32F7xx_HAL_Driver/Src/stm32f7xx_hal_flash_ex.c ****   *            @arg OB_BOOTADDR_ITCM_RAM : Boot from ITCM RAM (0x00000000)                 
 941:Drivers/STM32F7xx_HAL_Driver/Src/stm32f7xx_hal_flash_ex.c ****   *            @arg OB_BOOTADDR_SYSTEM : Boot from System memory bootloader (0x00100000) 
 942:Drivers/STM32F7xx_HAL_Driver/Src/stm32f7xx_hal_flash_ex.c ****   *            @arg OB_BOOTADDR_ITCM_FLASH : Boot from Flash on ITCM interface (0x00200000)  
 943:Drivers/STM32F7xx_HAL_Driver/Src/stm32f7xx_hal_flash_ex.c ****   *            @arg OB_BOOTADDR_AXIM_FLASH : Boot from Flash on AXIM interface (0x08000000)  
 944:Drivers/STM32F7xx_HAL_Driver/Src/stm32f7xx_hal_flash_ex.c ****   *            @arg OB_BOOTADDR_DTCM_RAM : Boot from DTCM RAM (0x20000000)                 
 945:Drivers/STM32F7xx_HAL_Driver/Src/stm32f7xx_hal_flash_ex.c ****   *            @arg OB_BOOTADDR_SRAM1 : Boot from SRAM1 (0x20010000)                    
 946:Drivers/STM32F7xx_HAL_Driver/Src/stm32f7xx_hal_flash_ex.c ****   *            @arg OB_BOOTADDR_SRAM2 : Boot from SRAM2 (0x2004C000)              
 947:Drivers/STM32F7xx_HAL_Driver/Src/stm32f7xx_hal_flash_ex.c ****   *    
 948:Drivers/STM32F7xx_HAL_Driver/Src/stm32f7xx_hal_flash_ex.c ****   * @retval HAL Status
 949:Drivers/STM32F7xx_HAL_Driver/Src/stm32f7xx_hal_flash_ex.c ****   */
 950:Drivers/STM32F7xx_HAL_Driver/Src/stm32f7xx_hal_flash_ex.c **** static HAL_StatusTypeDef FLASH_OB_BootAddressConfig(uint32_t BootOption, uint32_t Address)
 951:Drivers/STM32F7xx_HAL_Driver/Src/stm32f7xx_hal_flash_ex.c **** {
 1226              		.loc 1 951 0
 1227              		.cfi_startproc
 1228              		@ args = 0, pretend = 0, frame = 16
 1229              		@ frame_needed = 1, uses_anonymous_args = 0
 1230 0000 80B5     		push	{r7, lr}
 1231              	.LCFI66:
 1232              		.cfi_def_cfa_offset 8
 1233              		.cfi_offset 7, -8
 1234              		.cfi_offset 14, -4
 1235 0002 84B0     		sub	sp, sp, #16
 1236              	.LCFI67:
 1237              		.cfi_def_cfa_offset 24
 1238 0004 00AF     		add	r7, sp, #0
 1239              	.LCFI68:
 1240              		.cfi_def_cfa_register 7
 1241 0006 7860     		str	r0, [r7, #4]
 1242 0008 3960     		str	r1, [r7]
 952:Drivers/STM32F7xx_HAL_Driver/Src/stm32f7xx_hal_flash_ex.c ****   HAL_StatusTypeDef status = HAL_OK;
 1243              		.loc 1 952 0
 1244 000a 0023     		movs	r3, #0
 1245 000c FB73     		strb	r3, [r7, #15]
 953:Drivers/STM32F7xx_HAL_Driver/Src/stm32f7xx_hal_flash_ex.c ****   
 954:Drivers/STM32F7xx_HAL_Driver/Src/stm32f7xx_hal_flash_ex.c ****   /* Check the parameters */
 955:Drivers/STM32F7xx_HAL_Driver/Src/stm32f7xx_hal_flash_ex.c ****   assert_param(IS_OB_BOOT_ADDRESS(Address));
 956:Drivers/STM32F7xx_HAL_Driver/Src/stm32f7xx_hal_flash_ex.c ****     
 957:Drivers/STM32F7xx_HAL_Driver/Src/stm32f7xx_hal_flash_ex.c ****   /* Wait for last operation to be completed */
 958:Drivers/STM32F7xx_HAL_Driver/Src/stm32f7xx_hal_flash_ex.c ****   status = FLASH_WaitForLastOperation((uint32_t)FLASH_TIMEOUT_VALUE);
 1246              		.loc 1 958 0
 1247 000e 4CF25030 		movw	r0, #50000
 1248 0012 FFF7FEFF 		bl	FLASH_WaitForLastOperation
 1249 0016 0346     		mov	r3, r0
 1250 0018 FB73     		strb	r3, [r7, #15]
 959:Drivers/STM32F7xx_HAL_Driver/Src/stm32f7xx_hal_flash_ex.c ****   
 960:Drivers/STM32F7xx_HAL_Driver/Src/stm32f7xx_hal_flash_ex.c ****   if(status == HAL_OK)
 1251              		.loc 1 960 0
 1252 001a FB7B     		ldrb	r3, [r7, #15]	@ zero_extendqisi2
 1253 001c 002B     		cmp	r3, #0
ARM GAS  /tmp/ccOWtDgG.s 			page 47


 1254 001e 13D1     		bne	.L74
 961:Drivers/STM32F7xx_HAL_Driver/Src/stm32f7xx_hal_flash_ex.c ****   {
 962:Drivers/STM32F7xx_HAL_Driver/Src/stm32f7xx_hal_flash_ex.c ****     if(BootOption == OPTIONBYTE_BOOTADDR_0)
 1255              		.loc 1 962 0
 1256 0020 7B68     		ldr	r3, [r7, #4]
 1257 0022 102B     		cmp	r3, #16
 1258 0024 08D1     		bne	.L75
 963:Drivers/STM32F7xx_HAL_Driver/Src/stm32f7xx_hal_flash_ex.c ****     {			
 964:Drivers/STM32F7xx_HAL_Driver/Src/stm32f7xx_hal_flash_ex.c ****       MODIFY_REG(FLASH->OPTCR1, FLASH_OPTCR1_BOOT_ADD0, Address);
 1259              		.loc 1 964 0
 1260 0026 0B4B     		ldr	r3, .L77
 1261 0028 9A69     		ldr	r2, [r3, #24]
 1262 002a 0B4B     		ldr	r3, .L77+4
 1263 002c 1340     		ands	r3, r3, r2
 1264 002e 0949     		ldr	r1, .L77
 1265 0030 3A68     		ldr	r2, [r7]
 1266 0032 1343     		orrs	r3, r3, r2
 1267 0034 8B61     		str	r3, [r1, #24]
 1268 0036 07E0     		b	.L74
 1269              	.L75:
 965:Drivers/STM32F7xx_HAL_Driver/Src/stm32f7xx_hal_flash_ex.c ****     }
 966:Drivers/STM32F7xx_HAL_Driver/Src/stm32f7xx_hal_flash_ex.c ****     else
 967:Drivers/STM32F7xx_HAL_Driver/Src/stm32f7xx_hal_flash_ex.c ****     {
 968:Drivers/STM32F7xx_HAL_Driver/Src/stm32f7xx_hal_flash_ex.c ****       MODIFY_REG(FLASH->OPTCR1, FLASH_OPTCR1_BOOT_ADD1, (Address << 16));
 1270              		.loc 1 968 0
 1271 0038 064B     		ldr	r3, .L77
 1272 003a 9B69     		ldr	r3, [r3, #24]
 1273 003c 9AB2     		uxth	r2, r3
 1274 003e 3B68     		ldr	r3, [r7]
 1275 0040 1B04     		lsls	r3, r3, #16
 1276 0042 0449     		ldr	r1, .L77
 1277 0044 1343     		orrs	r3, r3, r2
 1278 0046 8B61     		str	r3, [r1, #24]
 1279              	.L74:
 969:Drivers/STM32F7xx_HAL_Driver/Src/stm32f7xx_hal_flash_ex.c ****     }
 970:Drivers/STM32F7xx_HAL_Driver/Src/stm32f7xx_hal_flash_ex.c ****   }
 971:Drivers/STM32F7xx_HAL_Driver/Src/stm32f7xx_hal_flash_ex.c ****   
 972:Drivers/STM32F7xx_HAL_Driver/Src/stm32f7xx_hal_flash_ex.c ****   return status;
 1280              		.loc 1 972 0
 1281 0048 FB7B     		ldrb	r3, [r7, #15]	@ zero_extendqisi2
 973:Drivers/STM32F7xx_HAL_Driver/Src/stm32f7xx_hal_flash_ex.c **** }
 1282              		.loc 1 973 0
 1283 004a 1846     		mov	r0, r3
 1284 004c 1037     		adds	r7, r7, #16
 1285              	.LCFI69:
 1286              		.cfi_def_cfa_offset 8
 1287 004e BD46     		mov	sp, r7
 1288              	.LCFI70:
 1289              		.cfi_def_cfa_register 13
 1290              		@ sp needed
 1291 0050 80BD     		pop	{r7, pc}
 1292              	.L78:
 1293 0052 00BF     		.align	2
 1294              	.L77:
 1295 0054 003C0240 		.word	1073888256
 1296 0058 0000FFFF 		.word	-65536
 1297              		.cfi_endproc
ARM GAS  /tmp/ccOWtDgG.s 			page 48


 1298              	.LFE151:
 1300              		.section	.text.FLASH_OB_GetRDP,"ax",%progbits
 1301              		.align	1
 1302              		.syntax unified
 1303              		.thumb
 1304              		.thumb_func
 1305              		.fpu fpv4-sp-d16
 1307              	FLASH_OB_GetRDP:
 1308              	.LFB152:
 974:Drivers/STM32F7xx_HAL_Driver/Src/stm32f7xx_hal_flash_ex.c **** 
 975:Drivers/STM32F7xx_HAL_Driver/Src/stm32f7xx_hal_flash_ex.c **** /**
 976:Drivers/STM32F7xx_HAL_Driver/Src/stm32f7xx_hal_flash_ex.c ****   * @brief  Returns the FLASH Read Protection level.
 977:Drivers/STM32F7xx_HAL_Driver/Src/stm32f7xx_hal_flash_ex.c ****   * @retval FlagStatus FLASH ReadOut Protection Status:
 978:Drivers/STM32F7xx_HAL_Driver/Src/stm32f7xx_hal_flash_ex.c ****   *         This parameter can be one of the following values:
 979:Drivers/STM32F7xx_HAL_Driver/Src/stm32f7xx_hal_flash_ex.c ****   *            @arg OB_RDP_LEVEL_0: No protection
 980:Drivers/STM32F7xx_HAL_Driver/Src/stm32f7xx_hal_flash_ex.c ****   *            @arg OB_RDP_LEVEL_1: Read protection of the memory
 981:Drivers/STM32F7xx_HAL_Driver/Src/stm32f7xx_hal_flash_ex.c ****   *            @arg OB_RDP_LEVEL_2: Full chip protection
 982:Drivers/STM32F7xx_HAL_Driver/Src/stm32f7xx_hal_flash_ex.c ****   */
 983:Drivers/STM32F7xx_HAL_Driver/Src/stm32f7xx_hal_flash_ex.c **** static uint8_t FLASH_OB_GetRDP(void)
 984:Drivers/STM32F7xx_HAL_Driver/Src/stm32f7xx_hal_flash_ex.c **** {
 1309              		.loc 1 984 0
 1310              		.cfi_startproc
 1311              		@ args = 0, pretend = 0, frame = 8
 1312              		@ frame_needed = 1, uses_anonymous_args = 0
 1313              		@ link register save eliminated.
 1314 0000 80B4     		push	{r7}
 1315              	.LCFI71:
 1316              		.cfi_def_cfa_offset 4
 1317              		.cfi_offset 7, -4
 1318 0002 83B0     		sub	sp, sp, #12
 1319              	.LCFI72:
 1320              		.cfi_def_cfa_offset 16
 1321 0004 00AF     		add	r7, sp, #0
 1322              	.LCFI73:
 1323              		.cfi_def_cfa_register 7
 985:Drivers/STM32F7xx_HAL_Driver/Src/stm32f7xx_hal_flash_ex.c ****   uint8_t readstatus = OB_RDP_LEVEL_0;
 1324              		.loc 1 985 0
 1325 0006 AA23     		movs	r3, #170
 1326 0008 FB71     		strb	r3, [r7, #7]
 986:Drivers/STM32F7xx_HAL_Driver/Src/stm32f7xx_hal_flash_ex.c ****   
 987:Drivers/STM32F7xx_HAL_Driver/Src/stm32f7xx_hal_flash_ex.c ****   if ((*(__IO uint8_t*)(OPTCR_BYTE1_ADDRESS)) == OB_RDP_LEVEL_0)
 1327              		.loc 1 987 0
 1328 000a 0C4B     		ldr	r3, .L84
 1329 000c 1B78     		ldrb	r3, [r3]
 1330 000e DBB2     		uxtb	r3, r3
 1331 0010 AA2B     		cmp	r3, #170
 1332 0012 02D1     		bne	.L80
 988:Drivers/STM32F7xx_HAL_Driver/Src/stm32f7xx_hal_flash_ex.c ****   {
 989:Drivers/STM32F7xx_HAL_Driver/Src/stm32f7xx_hal_flash_ex.c ****     readstatus = OB_RDP_LEVEL_0;
 1333              		.loc 1 989 0
 1334 0014 AA23     		movs	r3, #170
 1335 0016 FB71     		strb	r3, [r7, #7]
 1336 0018 09E0     		b	.L81
 1337              	.L80:
 990:Drivers/STM32F7xx_HAL_Driver/Src/stm32f7xx_hal_flash_ex.c ****   }
 991:Drivers/STM32F7xx_HAL_Driver/Src/stm32f7xx_hal_flash_ex.c ****   else if ((*(__IO uint8_t*)(OPTCR_BYTE1_ADDRESS)) == OB_RDP_LEVEL_2)
 1338              		.loc 1 991 0
ARM GAS  /tmp/ccOWtDgG.s 			page 49


 1339 001a 084B     		ldr	r3, .L84
 1340 001c 1B78     		ldrb	r3, [r3]
 1341 001e DBB2     		uxtb	r3, r3
 1342 0020 CC2B     		cmp	r3, #204
 1343 0022 02D1     		bne	.L82
 992:Drivers/STM32F7xx_HAL_Driver/Src/stm32f7xx_hal_flash_ex.c ****   {
 993:Drivers/STM32F7xx_HAL_Driver/Src/stm32f7xx_hal_flash_ex.c ****     readstatus = OB_RDP_LEVEL_2;
 1344              		.loc 1 993 0
 1345 0024 CC23     		movs	r3, #204
 1346 0026 FB71     		strb	r3, [r7, #7]
 1347 0028 01E0     		b	.L81
 1348              	.L82:
 994:Drivers/STM32F7xx_HAL_Driver/Src/stm32f7xx_hal_flash_ex.c ****   }
 995:Drivers/STM32F7xx_HAL_Driver/Src/stm32f7xx_hal_flash_ex.c ****   else 
 996:Drivers/STM32F7xx_HAL_Driver/Src/stm32f7xx_hal_flash_ex.c ****   {
 997:Drivers/STM32F7xx_HAL_Driver/Src/stm32f7xx_hal_flash_ex.c ****     readstatus = OB_RDP_LEVEL_1;
 1349              		.loc 1 997 0
 1350 002a 5523     		movs	r3, #85
 1351 002c FB71     		strb	r3, [r7, #7]
 1352              	.L81:
 998:Drivers/STM32F7xx_HAL_Driver/Src/stm32f7xx_hal_flash_ex.c ****   }
 999:Drivers/STM32F7xx_HAL_Driver/Src/stm32f7xx_hal_flash_ex.c **** 
1000:Drivers/STM32F7xx_HAL_Driver/Src/stm32f7xx_hal_flash_ex.c ****   return readstatus;
 1353              		.loc 1 1000 0
 1354 002e FB79     		ldrb	r3, [r7, #7]	@ zero_extendqisi2
1001:Drivers/STM32F7xx_HAL_Driver/Src/stm32f7xx_hal_flash_ex.c **** }
 1355              		.loc 1 1001 0
 1356 0030 1846     		mov	r0, r3
 1357 0032 0C37     		adds	r7, r7, #12
 1358              	.LCFI74:
 1359              		.cfi_def_cfa_offset 4
 1360 0034 BD46     		mov	sp, r7
 1361              	.LCFI75:
 1362              		.cfi_def_cfa_register 13
 1363              		@ sp needed
 1364 0036 5DF8047B 		ldr	r7, [sp], #4
 1365              	.LCFI76:
 1366              		.cfi_restore 7
 1367              		.cfi_def_cfa_offset 0
 1368 003a 7047     		bx	lr
 1369              	.L85:
 1370              		.align	2
 1371              	.L84:
 1372 003c 153C0240 		.word	1073888277
 1373              		.cfi_endproc
 1374              	.LFE152:
 1376              		.section	.text.FLASH_OB_GetBOR,"ax",%progbits
 1377              		.align	1
 1378              		.syntax unified
 1379              		.thumb
 1380              		.thumb_func
 1381              		.fpu fpv4-sp-d16
 1383              	FLASH_OB_GetBOR:
 1384              	.LFB153:
1002:Drivers/STM32F7xx_HAL_Driver/Src/stm32f7xx_hal_flash_ex.c **** 
1003:Drivers/STM32F7xx_HAL_Driver/Src/stm32f7xx_hal_flash_ex.c **** /**
1004:Drivers/STM32F7xx_HAL_Driver/Src/stm32f7xx_hal_flash_ex.c ****   * @brief  Returns the FLASH BOR level.
ARM GAS  /tmp/ccOWtDgG.s 			page 50


1005:Drivers/STM32F7xx_HAL_Driver/Src/stm32f7xx_hal_flash_ex.c ****   * @retval uint32_t The FLASH BOR level:
1006:Drivers/STM32F7xx_HAL_Driver/Src/stm32f7xx_hal_flash_ex.c ****   *           - OB_BOR_LEVEL3: Supply voltage ranges from 2.7 to 3.6 V
1007:Drivers/STM32F7xx_HAL_Driver/Src/stm32f7xx_hal_flash_ex.c ****   *           - OB_BOR_LEVEL2: Supply voltage ranges from 2.4 to 2.7 V
1008:Drivers/STM32F7xx_HAL_Driver/Src/stm32f7xx_hal_flash_ex.c ****   *           - OB_BOR_LEVEL1: Supply voltage ranges from 2.1 to 2.4 V
1009:Drivers/STM32F7xx_HAL_Driver/Src/stm32f7xx_hal_flash_ex.c ****   *           - OB_BOR_OFF   : Supply voltage ranges from 1.62 to 2.1 V  
1010:Drivers/STM32F7xx_HAL_Driver/Src/stm32f7xx_hal_flash_ex.c ****   */
1011:Drivers/STM32F7xx_HAL_Driver/Src/stm32f7xx_hal_flash_ex.c **** static uint32_t FLASH_OB_GetBOR(void)
1012:Drivers/STM32F7xx_HAL_Driver/Src/stm32f7xx_hal_flash_ex.c **** {
 1385              		.loc 1 1012 0
 1386              		.cfi_startproc
 1387              		@ args = 0, pretend = 0, frame = 0
 1388              		@ frame_needed = 1, uses_anonymous_args = 0
 1389              		@ link register save eliminated.
 1390 0000 80B4     		push	{r7}
 1391              	.LCFI77:
 1392              		.cfi_def_cfa_offset 4
 1393              		.cfi_offset 7, -4
 1394 0002 00AF     		add	r7, sp, #0
 1395              	.LCFI78:
 1396              		.cfi_def_cfa_register 7
1013:Drivers/STM32F7xx_HAL_Driver/Src/stm32f7xx_hal_flash_ex.c ****   /* Return the FLASH BOR level */
1014:Drivers/STM32F7xx_HAL_Driver/Src/stm32f7xx_hal_flash_ex.c ****   return ((uint32_t)(FLASH->OPTCR & 0x0C));
 1397              		.loc 1 1014 0
 1398 0004 044B     		ldr	r3, .L88
 1399 0006 5B69     		ldr	r3, [r3, #20]
 1400 0008 03F00C03 		and	r3, r3, #12
1015:Drivers/STM32F7xx_HAL_Driver/Src/stm32f7xx_hal_flash_ex.c **** }
 1401              		.loc 1 1015 0
 1402 000c 1846     		mov	r0, r3
 1403 000e BD46     		mov	sp, r7
 1404              	.LCFI79:
 1405              		.cfi_def_cfa_register 13
 1406              		@ sp needed
 1407 0010 5DF8047B 		ldr	r7, [sp], #4
 1408              	.LCFI80:
 1409              		.cfi_restore 7
 1410              		.cfi_def_cfa_offset 0
 1411 0014 7047     		bx	lr
 1412              	.L89:
 1413 0016 00BF     		.align	2
 1414              	.L88:
 1415 0018 003C0240 		.word	1073888256
 1416              		.cfi_endproc
 1417              	.LFE153:
 1419              		.section	.text.FLASH_OB_GetBootAddress,"ax",%progbits
 1420              		.align	1
 1421              		.syntax unified
 1422              		.thumb
 1423              		.thumb_func
 1424              		.fpu fpv4-sp-d16
 1426              	FLASH_OB_GetBootAddress:
 1427              	.LFB154:
1016:Drivers/STM32F7xx_HAL_Driver/Src/stm32f7xx_hal_flash_ex.c **** 
1017:Drivers/STM32F7xx_HAL_Driver/Src/stm32f7xx_hal_flash_ex.c **** /**
1018:Drivers/STM32F7xx_HAL_Driver/Src/stm32f7xx_hal_flash_ex.c ****   * @brief  Configure Boot base address.
1019:Drivers/STM32F7xx_HAL_Driver/Src/stm32f7xx_hal_flash_ex.c ****   * 
1020:Drivers/STM32F7xx_HAL_Driver/Src/stm32f7xx_hal_flash_ex.c ****   * @param   BootOption  specifies Boot base address depending from Boot pin = 0 or pin = 1
ARM GAS  /tmp/ccOWtDgG.s 			page 51


1021:Drivers/STM32F7xx_HAL_Driver/Src/stm32f7xx_hal_flash_ex.c ****   *          This parameter can be one of the following values:
1022:Drivers/STM32F7xx_HAL_Driver/Src/stm32f7xx_hal_flash_ex.c ****   *            @arg OPTIONBYTE_BOOTADDR_0 : Boot address based when Boot pin = 0                 
1023:Drivers/STM32F7xx_HAL_Driver/Src/stm32f7xx_hal_flash_ex.c ****   *            @arg OPTIONBYTE_BOOTADDR_1 : Boot address based when Boot pin = 1       
1024:Drivers/STM32F7xx_HAL_Driver/Src/stm32f7xx_hal_flash_ex.c ****   *    
1025:Drivers/STM32F7xx_HAL_Driver/Src/stm32f7xx_hal_flash_ex.c ****   * @retval uint32_t Boot Base Address:
1026:Drivers/STM32F7xx_HAL_Driver/Src/stm32f7xx_hal_flash_ex.c ****   *            - OB_BOOTADDR_ITCM_RAM : Boot from ITCM RAM (0x00000000)                 
1027:Drivers/STM32F7xx_HAL_Driver/Src/stm32f7xx_hal_flash_ex.c ****   *            - OB_BOOTADDR_SYSTEM : Boot from System memory bootloader (0x00100000) 
1028:Drivers/STM32F7xx_HAL_Driver/Src/stm32f7xx_hal_flash_ex.c ****   *            - OB_BOOTADDR_ITCM_FLASH : Boot from Flash on ITCM interface (0x00200000)  
1029:Drivers/STM32F7xx_HAL_Driver/Src/stm32f7xx_hal_flash_ex.c ****   *            - OB_BOOTADDR_AXIM_FLASH : Boot from Flash on AXIM interface (0x08000000)  
1030:Drivers/STM32F7xx_HAL_Driver/Src/stm32f7xx_hal_flash_ex.c ****   *            - OB_BOOTADDR_DTCM_RAM : Boot from DTCM RAM (0x20000000)                 
1031:Drivers/STM32F7xx_HAL_Driver/Src/stm32f7xx_hal_flash_ex.c ****   *            - OB_BOOTADDR_SRAM1 : Boot from SRAM1 (0x20010000)                    
1032:Drivers/STM32F7xx_HAL_Driver/Src/stm32f7xx_hal_flash_ex.c ****   *            - OB_BOOTADDR_SRAM2 : Boot from SRAM2 (0x2004C000) 
1033:Drivers/STM32F7xx_HAL_Driver/Src/stm32f7xx_hal_flash_ex.c ****   */
1034:Drivers/STM32F7xx_HAL_Driver/Src/stm32f7xx_hal_flash_ex.c **** static uint32_t FLASH_OB_GetBootAddress(uint32_t BootOption)
1035:Drivers/STM32F7xx_HAL_Driver/Src/stm32f7xx_hal_flash_ex.c **** {  
 1428              		.loc 1 1035 0
 1429              		.cfi_startproc
 1430              		@ args = 0, pretend = 0, frame = 16
 1431              		@ frame_needed = 1, uses_anonymous_args = 0
 1432              		@ link register save eliminated.
 1433 0000 80B4     		push	{r7}
 1434              	.LCFI81:
 1435              		.cfi_def_cfa_offset 4
 1436              		.cfi_offset 7, -4
 1437 0002 85B0     		sub	sp, sp, #20
 1438              	.LCFI82:
 1439              		.cfi_def_cfa_offset 24
 1440 0004 00AF     		add	r7, sp, #0
 1441              	.LCFI83:
 1442              		.cfi_def_cfa_register 7
 1443 0006 7860     		str	r0, [r7, #4]
1036:Drivers/STM32F7xx_HAL_Driver/Src/stm32f7xx_hal_flash_ex.c ****   uint32_t Address = 0;
 1444              		.loc 1 1036 0
 1445 0008 0023     		movs	r3, #0
 1446 000a FB60     		str	r3, [r7, #12]
1037:Drivers/STM32F7xx_HAL_Driver/Src/stm32f7xx_hal_flash_ex.c ****     
1038:Drivers/STM32F7xx_HAL_Driver/Src/stm32f7xx_hal_flash_ex.c **** 	/* Return the Boot base Address */
1039:Drivers/STM32F7xx_HAL_Driver/Src/stm32f7xx_hal_flash_ex.c ****   if(BootOption == OPTIONBYTE_BOOTADDR_0)
 1447              		.loc 1 1039 0
 1448 000c 7B68     		ldr	r3, [r7, #4]
 1449 000e 102B     		cmp	r3, #16
 1450 0010 04D1     		bne	.L91
1040:Drivers/STM32F7xx_HAL_Driver/Src/stm32f7xx_hal_flash_ex.c ****   {			
1041:Drivers/STM32F7xx_HAL_Driver/Src/stm32f7xx_hal_flash_ex.c ****     Address = FLASH->OPTCR1 & FLASH_OPTCR1_BOOT_ADD0;
 1451              		.loc 1 1041 0
 1452 0012 084B     		ldr	r3, .L94
 1453 0014 9B69     		ldr	r3, [r3, #24]
 1454 0016 9BB2     		uxth	r3, r3
 1455 0018 FB60     		str	r3, [r7, #12]
 1456 001a 04E0     		b	.L92
 1457              	.L91:
1042:Drivers/STM32F7xx_HAL_Driver/Src/stm32f7xx_hal_flash_ex.c **** 	}
1043:Drivers/STM32F7xx_HAL_Driver/Src/stm32f7xx_hal_flash_ex.c ****   else
1044:Drivers/STM32F7xx_HAL_Driver/Src/stm32f7xx_hal_flash_ex.c **** 	{
1045:Drivers/STM32F7xx_HAL_Driver/Src/stm32f7xx_hal_flash_ex.c **** 		Address = ((FLASH->OPTCR1 & FLASH_OPTCR1_BOOT_ADD1) >> 16);
 1458              		.loc 1 1045 0
 1459 001c 054B     		ldr	r3, .L94
ARM GAS  /tmp/ccOWtDgG.s 			page 52


 1460 001e 9B69     		ldr	r3, [r3, #24]
 1461 0020 1B0C     		lsrs	r3, r3, #16
 1462 0022 9BB2     		uxth	r3, r3
 1463 0024 FB60     		str	r3, [r7, #12]
 1464              	.L92:
1046:Drivers/STM32F7xx_HAL_Driver/Src/stm32f7xx_hal_flash_ex.c **** 	}
1047:Drivers/STM32F7xx_HAL_Driver/Src/stm32f7xx_hal_flash_ex.c **** 
1048:Drivers/STM32F7xx_HAL_Driver/Src/stm32f7xx_hal_flash_ex.c ****   return Address;
 1465              		.loc 1 1048 0
 1466 0026 FB68     		ldr	r3, [r7, #12]
1049:Drivers/STM32F7xx_HAL_Driver/Src/stm32f7xx_hal_flash_ex.c **** }
 1467              		.loc 1 1049 0
 1468 0028 1846     		mov	r0, r3
 1469 002a 1437     		adds	r7, r7, #20
 1470              	.LCFI84:
 1471              		.cfi_def_cfa_offset 4
 1472 002c BD46     		mov	sp, r7
 1473              	.LCFI85:
 1474              		.cfi_def_cfa_register 13
 1475              		@ sp needed
 1476 002e 5DF8047B 		ldr	r7, [sp], #4
 1477              	.LCFI86:
 1478              		.cfi_restore 7
 1479              		.cfi_def_cfa_offset 0
 1480 0032 7047     		bx	lr
 1481              	.L95:
 1482              		.align	2
 1483              	.L94:
 1484 0034 003C0240 		.word	1073888256
 1485              		.cfi_endproc
 1486              	.LFE154:
 1488              		.text
 1489              	.Letext0:
 1490              		.file 3 "/usr/include/newlib/machine/_default_types.h"
 1491              		.file 4 "/usr/include/newlib/sys/lock.h"
 1492              		.file 5 "/usr/include/newlib/sys/_types.h"
 1493              		.file 6 "/usr/lib/gcc/arm-none-eabi/7.3.1/include/stddef.h"
 1494              		.file 7 "/usr/include/newlib/sys/reent.h"
 1495              		.file 8 "/usr/include/newlib/sys/_stdint.h"
 1496              		.file 9 "Inc/main.h"
 1497              		.file 10 "Drivers/CMSIS/Include/core_cm7.h"
 1498              		.file 11 "Drivers/CMSIS/Device/ST/STM32F7xx/Include/system_stm32f7xx.h"
 1499              		.file 12 "Drivers/CMSIS/Device/ST/STM32F7xx/Include/stm32f746xx.h"
 1500              		.file 13 "Drivers/STM32F7xx_HAL_Driver/Inc/stm32f7xx_hal_def.h"
 1501              		.file 14 "Drivers/STM32F7xx_HAL_Driver/Inc/stm32f7xx_hal_flash.h"
 1502              		.file 15 "Drivers/STM32F7xx_HAL_Driver/Inc/stm32f7xx_hal_flash_ex.h"
ARM GAS  /tmp/ccOWtDgG.s 			page 53

