ARM GAS  /tmp/ccQLX8NK.s 			page 1


   1              		.cpu cortex-m7
   2              		.eabi_attribute 27, 1
   3              		.eabi_attribute 28, 1
   4              		.eabi_attribute 20, 1
   5              		.eabi_attribute 21, 1
   6              		.eabi_attribute 23, 3
   7              		.eabi_attribute 24, 1
   8              		.eabi_attribute 25, 1
   9              		.eabi_attribute 26, 1
  10              		.eabi_attribute 30, 2
  11              		.eabi_attribute 34, 1
  12              		.eabi_attribute 18, 4
  13              		.file	"stm32f7xx_hal_rcc.c"
  14              		.text
  15              	.Ltext0:
  16              		.cfi_sections	.debug_frame
  17              		.section	.text.HAL_RCC_DeInit,"ax",%progbits
  18              		.align	1
  19              		.p2align 2,,3
  20              		.global	HAL_RCC_DeInit
  21              		.syntax unified
  22              		.thumb
  23              		.thumb_func
  24              		.fpu fpv4-sp-d16
  26              	HAL_RCC_DeInit:
  27              	.LFB138:
  28              		.file 1 "Drivers/STM32F7xx_HAL_Driver/Src/stm32f7xx_hal_rcc.c"
   1:Drivers/STM32F7xx_HAL_Driver/Src/stm32f7xx_hal_rcc.c **** /**
   2:Drivers/STM32F7xx_HAL_Driver/Src/stm32f7xx_hal_rcc.c ****   ******************************************************************************
   3:Drivers/STM32F7xx_HAL_Driver/Src/stm32f7xx_hal_rcc.c ****   * @file    stm32f7xx_hal_rcc.c
   4:Drivers/STM32F7xx_HAL_Driver/Src/stm32f7xx_hal_rcc.c ****   * @author  MCD Application Team
   5:Drivers/STM32F7xx_HAL_Driver/Src/stm32f7xx_hal_rcc.c ****   * @brief   RCC HAL module driver.
   6:Drivers/STM32F7xx_HAL_Driver/Src/stm32f7xx_hal_rcc.c ****   *          This file provides firmware functions to manage the following
   7:Drivers/STM32F7xx_HAL_Driver/Src/stm32f7xx_hal_rcc.c ****   *          functionalities of the Reset and Clock Control (RCC) peripheral:
   8:Drivers/STM32F7xx_HAL_Driver/Src/stm32f7xx_hal_rcc.c ****   *           + Initialization and de-initialization functions
   9:Drivers/STM32F7xx_HAL_Driver/Src/stm32f7xx_hal_rcc.c ****   *           + Peripheral Control functions
  10:Drivers/STM32F7xx_HAL_Driver/Src/stm32f7xx_hal_rcc.c ****   *
  11:Drivers/STM32F7xx_HAL_Driver/Src/stm32f7xx_hal_rcc.c ****   @verbatim
  12:Drivers/STM32F7xx_HAL_Driver/Src/stm32f7xx_hal_rcc.c ****   ==============================================================================
  13:Drivers/STM32F7xx_HAL_Driver/Src/stm32f7xx_hal_rcc.c ****                       ##### RCC specific features #####
  14:Drivers/STM32F7xx_HAL_Driver/Src/stm32f7xx_hal_rcc.c ****   ==============================================================================
  15:Drivers/STM32F7xx_HAL_Driver/Src/stm32f7xx_hal_rcc.c ****     [..]
  16:Drivers/STM32F7xx_HAL_Driver/Src/stm32f7xx_hal_rcc.c ****       After reset the device is running from Internal High Speed oscillator
  17:Drivers/STM32F7xx_HAL_Driver/Src/stm32f7xx_hal_rcc.c ****       (HSI 16MHz) with Flash 0 wait state, Flash prefetch buffer, D-Cache
  18:Drivers/STM32F7xx_HAL_Driver/Src/stm32f7xx_hal_rcc.c ****       and I-Cache are disabled, and all peripherals are off except internal
  19:Drivers/STM32F7xx_HAL_Driver/Src/stm32f7xx_hal_rcc.c ****       SRAM, Flash and JTAG.
  20:Drivers/STM32F7xx_HAL_Driver/Src/stm32f7xx_hal_rcc.c ****       (+) There is no prescaler on High speed (AHB) and Low speed (APB) busses;
  21:Drivers/STM32F7xx_HAL_Driver/Src/stm32f7xx_hal_rcc.c ****           all peripherals mapped on these busses are running at HSI speed.
  22:Drivers/STM32F7xx_HAL_Driver/Src/stm32f7xx_hal_rcc.c ****       (+) The clock for all peripherals is switched off, except the SRAM and FLASH.
  23:Drivers/STM32F7xx_HAL_Driver/Src/stm32f7xx_hal_rcc.c ****       (+) All GPIOs are in input floating state, except the JTAG pins which
  24:Drivers/STM32F7xx_HAL_Driver/Src/stm32f7xx_hal_rcc.c ****           are assigned to be used for debug purpose.
  25:Drivers/STM32F7xx_HAL_Driver/Src/stm32f7xx_hal_rcc.c **** 
  26:Drivers/STM32F7xx_HAL_Driver/Src/stm32f7xx_hal_rcc.c ****     [..]
  27:Drivers/STM32F7xx_HAL_Driver/Src/stm32f7xx_hal_rcc.c ****       Once the device started from reset, the user application has to:
  28:Drivers/STM32F7xx_HAL_Driver/Src/stm32f7xx_hal_rcc.c ****       (+) Configure the clock source to be used to drive the System clock
  29:Drivers/STM32F7xx_HAL_Driver/Src/stm32f7xx_hal_rcc.c ****           (if the application needs higher frequency/performance)
  30:Drivers/STM32F7xx_HAL_Driver/Src/stm32f7xx_hal_rcc.c ****       (+) Configure the System clock frequency and Flash settings
ARM GAS  /tmp/ccQLX8NK.s 			page 2


  31:Drivers/STM32F7xx_HAL_Driver/Src/stm32f7xx_hal_rcc.c ****       (+) Configure the AHB and APB busses prescalers
  32:Drivers/STM32F7xx_HAL_Driver/Src/stm32f7xx_hal_rcc.c ****       (+) Enable the clock for the peripheral(s) to be used
  33:Drivers/STM32F7xx_HAL_Driver/Src/stm32f7xx_hal_rcc.c ****       (+) Configure the clock source(s) for peripherals which clocks are not
  34:Drivers/STM32F7xx_HAL_Driver/Src/stm32f7xx_hal_rcc.c ****           derived from the System clock (I2S, RTC, ADC, USB OTG FS/SDIO/RNG)
  35:Drivers/STM32F7xx_HAL_Driver/Src/stm32f7xx_hal_rcc.c **** 
  36:Drivers/STM32F7xx_HAL_Driver/Src/stm32f7xx_hal_rcc.c ****                       ##### RCC Limitations #####
  37:Drivers/STM32F7xx_HAL_Driver/Src/stm32f7xx_hal_rcc.c ****   ==============================================================================
  38:Drivers/STM32F7xx_HAL_Driver/Src/stm32f7xx_hal_rcc.c ****     [..]
  39:Drivers/STM32F7xx_HAL_Driver/Src/stm32f7xx_hal_rcc.c ****       A delay between an RCC peripheral clock enable and the effective peripheral
  40:Drivers/STM32F7xx_HAL_Driver/Src/stm32f7xx_hal_rcc.c ****       enabling should be taken into account in order to manage the peripheral read/write
  41:Drivers/STM32F7xx_HAL_Driver/Src/stm32f7xx_hal_rcc.c ****       from/to registers.
  42:Drivers/STM32F7xx_HAL_Driver/Src/stm32f7xx_hal_rcc.c ****       (+) This delay depends on the peripheral mapping.
  43:Drivers/STM32F7xx_HAL_Driver/Src/stm32f7xx_hal_rcc.c ****       (+) If peripheral is mapped on AHB: the delay is 2 AHB clock cycle
  44:Drivers/STM32F7xx_HAL_Driver/Src/stm32f7xx_hal_rcc.c ****           after the clock enable bit is set on the hardware register
  45:Drivers/STM32F7xx_HAL_Driver/Src/stm32f7xx_hal_rcc.c ****       (+) If peripheral is mapped on APB: the delay is 2 APB clock cycle
  46:Drivers/STM32F7xx_HAL_Driver/Src/stm32f7xx_hal_rcc.c ****           after the clock enable bit is set on the hardware register
  47:Drivers/STM32F7xx_HAL_Driver/Src/stm32f7xx_hal_rcc.c **** 
  48:Drivers/STM32F7xx_HAL_Driver/Src/stm32f7xx_hal_rcc.c ****     [..]
  49:Drivers/STM32F7xx_HAL_Driver/Src/stm32f7xx_hal_rcc.c ****       Implemented Workaround:
  50:Drivers/STM32F7xx_HAL_Driver/Src/stm32f7xx_hal_rcc.c ****       (+) For AHB & APB peripherals, a dummy read to the peripheral register has been
  51:Drivers/STM32F7xx_HAL_Driver/Src/stm32f7xx_hal_rcc.c ****           inserted in each __HAL_RCC_PPP_CLK_ENABLE() macro.
  52:Drivers/STM32F7xx_HAL_Driver/Src/stm32f7xx_hal_rcc.c **** 
  53:Drivers/STM32F7xx_HAL_Driver/Src/stm32f7xx_hal_rcc.c ****   @endverbatim
  54:Drivers/STM32F7xx_HAL_Driver/Src/stm32f7xx_hal_rcc.c ****   ******************************************************************************
  55:Drivers/STM32F7xx_HAL_Driver/Src/stm32f7xx_hal_rcc.c ****   * @attention
  56:Drivers/STM32F7xx_HAL_Driver/Src/stm32f7xx_hal_rcc.c ****   *
  57:Drivers/STM32F7xx_HAL_Driver/Src/stm32f7xx_hal_rcc.c ****   * <h2><center>&copy; COPYRIGHT(c) 2017 STMicroelectronics</center></h2>
  58:Drivers/STM32F7xx_HAL_Driver/Src/stm32f7xx_hal_rcc.c ****   *
  59:Drivers/STM32F7xx_HAL_Driver/Src/stm32f7xx_hal_rcc.c ****   * Redistribution and use in source and binary forms, with or without modification,
  60:Drivers/STM32F7xx_HAL_Driver/Src/stm32f7xx_hal_rcc.c ****   * are permitted provided that the following conditions are met:
  61:Drivers/STM32F7xx_HAL_Driver/Src/stm32f7xx_hal_rcc.c ****   *   1. Redistributions of source code must retain the above copyright notice,
  62:Drivers/STM32F7xx_HAL_Driver/Src/stm32f7xx_hal_rcc.c ****   *      this list of conditions and the following disclaimer.
  63:Drivers/STM32F7xx_HAL_Driver/Src/stm32f7xx_hal_rcc.c ****   *   2. Redistributions in binary form must reproduce the above copyright notice,
  64:Drivers/STM32F7xx_HAL_Driver/Src/stm32f7xx_hal_rcc.c ****   *      this list of conditions and the following disclaimer in the documentation
  65:Drivers/STM32F7xx_HAL_Driver/Src/stm32f7xx_hal_rcc.c ****   *      and/or other materials provided with the distribution.
  66:Drivers/STM32F7xx_HAL_Driver/Src/stm32f7xx_hal_rcc.c ****   *   3. Neither the name of STMicroelectronics nor the names of its contributors
  67:Drivers/STM32F7xx_HAL_Driver/Src/stm32f7xx_hal_rcc.c ****   *      may be used to endorse or promote products derived from this software
  68:Drivers/STM32F7xx_HAL_Driver/Src/stm32f7xx_hal_rcc.c ****   *      without specific prior written permission.
  69:Drivers/STM32F7xx_HAL_Driver/Src/stm32f7xx_hal_rcc.c ****   *
  70:Drivers/STM32F7xx_HAL_Driver/Src/stm32f7xx_hal_rcc.c ****   * THIS SOFTWARE IS PROVIDED BY THE COPYRIGHT HOLDERS AND CONTRIBUTORS "AS IS"
  71:Drivers/STM32F7xx_HAL_Driver/Src/stm32f7xx_hal_rcc.c ****   * AND ANY EXPRESS OR IMPLIED WARRANTIES, INCLUDING, BUT NOT LIMITED TO, THE
  72:Drivers/STM32F7xx_HAL_Driver/Src/stm32f7xx_hal_rcc.c ****   * IMPLIED WARRANTIES OF MERCHANTABILITY AND FITNESS FOR A PARTICULAR PURPOSE ARE
  73:Drivers/STM32F7xx_HAL_Driver/Src/stm32f7xx_hal_rcc.c ****   * DISCLAIMED. IN NO EVENT SHALL THE COPYRIGHT HOLDER OR CONTRIBUTORS BE LIABLE
  74:Drivers/STM32F7xx_HAL_Driver/Src/stm32f7xx_hal_rcc.c ****   * FOR ANY DIRECT, INDIRECT, INCIDENTAL, SPECIAL, EXEMPLARY, OR CONSEQUENTIAL
  75:Drivers/STM32F7xx_HAL_Driver/Src/stm32f7xx_hal_rcc.c ****   * DAMAGES (INCLUDING, BUT NOT LIMITED TO, PROCUREMENT OF SUBSTITUTE GOODS OR
  76:Drivers/STM32F7xx_HAL_Driver/Src/stm32f7xx_hal_rcc.c ****   * SERVICES; LOSS OF USE, DATA, OR PROFITS; OR BUSINESS INTERRUPTION) HOWEVER
  77:Drivers/STM32F7xx_HAL_Driver/Src/stm32f7xx_hal_rcc.c ****   * CAUSED AND ON ANY THEORY OF LIABILITY, WHETHER IN CONTRACT, STRICT LIABILITY,
  78:Drivers/STM32F7xx_HAL_Driver/Src/stm32f7xx_hal_rcc.c ****   * OR TORT (INCLUDING NEGLIGENCE OR OTHERWISE) ARISING IN ANY WAY OUT OF THE USE
  79:Drivers/STM32F7xx_HAL_Driver/Src/stm32f7xx_hal_rcc.c ****   * OF THIS SOFTWARE, EVEN IF ADVISED OF THE POSSIBILITY OF SUCH DAMAGE.
  80:Drivers/STM32F7xx_HAL_Driver/Src/stm32f7xx_hal_rcc.c ****   *
  81:Drivers/STM32F7xx_HAL_Driver/Src/stm32f7xx_hal_rcc.c ****   ******************************************************************************
  82:Drivers/STM32F7xx_HAL_Driver/Src/stm32f7xx_hal_rcc.c ****   */
  83:Drivers/STM32F7xx_HAL_Driver/Src/stm32f7xx_hal_rcc.c **** 
  84:Drivers/STM32F7xx_HAL_Driver/Src/stm32f7xx_hal_rcc.c **** /* Includes ------------------------------------------------------------------*/
  85:Drivers/STM32F7xx_HAL_Driver/Src/stm32f7xx_hal_rcc.c **** #include "stm32f7xx_hal.h"
  86:Drivers/STM32F7xx_HAL_Driver/Src/stm32f7xx_hal_rcc.c **** 
  87:Drivers/STM32F7xx_HAL_Driver/Src/stm32f7xx_hal_rcc.c **** /** @addtogroup STM32F7xx_HAL_Driver
ARM GAS  /tmp/ccQLX8NK.s 			page 3


  88:Drivers/STM32F7xx_HAL_Driver/Src/stm32f7xx_hal_rcc.c ****   * @{
  89:Drivers/STM32F7xx_HAL_Driver/Src/stm32f7xx_hal_rcc.c ****   */
  90:Drivers/STM32F7xx_HAL_Driver/Src/stm32f7xx_hal_rcc.c **** 
  91:Drivers/STM32F7xx_HAL_Driver/Src/stm32f7xx_hal_rcc.c **** /** @defgroup RCC RCC
  92:Drivers/STM32F7xx_HAL_Driver/Src/stm32f7xx_hal_rcc.c ****   * @brief RCC HAL module driver
  93:Drivers/STM32F7xx_HAL_Driver/Src/stm32f7xx_hal_rcc.c ****   * @{
  94:Drivers/STM32F7xx_HAL_Driver/Src/stm32f7xx_hal_rcc.c ****   */
  95:Drivers/STM32F7xx_HAL_Driver/Src/stm32f7xx_hal_rcc.c **** 
  96:Drivers/STM32F7xx_HAL_Driver/Src/stm32f7xx_hal_rcc.c **** #ifdef HAL_RCC_MODULE_ENABLED
  97:Drivers/STM32F7xx_HAL_Driver/Src/stm32f7xx_hal_rcc.c **** 
  98:Drivers/STM32F7xx_HAL_Driver/Src/stm32f7xx_hal_rcc.c **** /* Private typedef -----------------------------------------------------------*/
  99:Drivers/STM32F7xx_HAL_Driver/Src/stm32f7xx_hal_rcc.c **** /* Private define ------------------------------------------------------------*/
 100:Drivers/STM32F7xx_HAL_Driver/Src/stm32f7xx_hal_rcc.c **** /* Private macro -------------------------------------------------------------*/
 101:Drivers/STM32F7xx_HAL_Driver/Src/stm32f7xx_hal_rcc.c **** /** @defgroup RCC_Private_Macros RCC Private Macros
 102:Drivers/STM32F7xx_HAL_Driver/Src/stm32f7xx_hal_rcc.c ****   * @{
 103:Drivers/STM32F7xx_HAL_Driver/Src/stm32f7xx_hal_rcc.c ****   */
 104:Drivers/STM32F7xx_HAL_Driver/Src/stm32f7xx_hal_rcc.c **** 
 105:Drivers/STM32F7xx_HAL_Driver/Src/stm32f7xx_hal_rcc.c **** #define MCO1_CLK_ENABLE()   __HAL_RCC_GPIOA_CLK_ENABLE()
 106:Drivers/STM32F7xx_HAL_Driver/Src/stm32f7xx_hal_rcc.c **** #define MCO1_GPIO_PORT        GPIOA
 107:Drivers/STM32F7xx_HAL_Driver/Src/stm32f7xx_hal_rcc.c **** #define MCO1_PIN              GPIO_PIN_8
 108:Drivers/STM32F7xx_HAL_Driver/Src/stm32f7xx_hal_rcc.c **** 
 109:Drivers/STM32F7xx_HAL_Driver/Src/stm32f7xx_hal_rcc.c **** #define MCO2_CLK_ENABLE()   __HAL_RCC_GPIOC_CLK_ENABLE()
 110:Drivers/STM32F7xx_HAL_Driver/Src/stm32f7xx_hal_rcc.c **** #define MCO2_GPIO_PORT         GPIOC
 111:Drivers/STM32F7xx_HAL_Driver/Src/stm32f7xx_hal_rcc.c **** #define MCO2_PIN               GPIO_PIN_9
 112:Drivers/STM32F7xx_HAL_Driver/Src/stm32f7xx_hal_rcc.c **** 
 113:Drivers/STM32F7xx_HAL_Driver/Src/stm32f7xx_hal_rcc.c **** /**
 114:Drivers/STM32F7xx_HAL_Driver/Src/stm32f7xx_hal_rcc.c ****   * @}
 115:Drivers/STM32F7xx_HAL_Driver/Src/stm32f7xx_hal_rcc.c ****   */
 116:Drivers/STM32F7xx_HAL_Driver/Src/stm32f7xx_hal_rcc.c **** /* Private variables ---------------------------------------------------------*/
 117:Drivers/STM32F7xx_HAL_Driver/Src/stm32f7xx_hal_rcc.c **** /** @defgroup RCC_Private_Variables RCC Private Variables
 118:Drivers/STM32F7xx_HAL_Driver/Src/stm32f7xx_hal_rcc.c ****   * @{
 119:Drivers/STM32F7xx_HAL_Driver/Src/stm32f7xx_hal_rcc.c ****   */
 120:Drivers/STM32F7xx_HAL_Driver/Src/stm32f7xx_hal_rcc.c **** 
 121:Drivers/STM32F7xx_HAL_Driver/Src/stm32f7xx_hal_rcc.c **** /**
 122:Drivers/STM32F7xx_HAL_Driver/Src/stm32f7xx_hal_rcc.c ****   * @}
 123:Drivers/STM32F7xx_HAL_Driver/Src/stm32f7xx_hal_rcc.c ****   */
 124:Drivers/STM32F7xx_HAL_Driver/Src/stm32f7xx_hal_rcc.c **** 
 125:Drivers/STM32F7xx_HAL_Driver/Src/stm32f7xx_hal_rcc.c **** /* Private function prototypes -----------------------------------------------*/
 126:Drivers/STM32F7xx_HAL_Driver/Src/stm32f7xx_hal_rcc.c **** /* Exported functions ---------------------------------------------------------*/
 127:Drivers/STM32F7xx_HAL_Driver/Src/stm32f7xx_hal_rcc.c **** 
 128:Drivers/STM32F7xx_HAL_Driver/Src/stm32f7xx_hal_rcc.c **** /** @defgroup RCC_Exported_Functions RCC Exported Functions
 129:Drivers/STM32F7xx_HAL_Driver/Src/stm32f7xx_hal_rcc.c ****   * @{
 130:Drivers/STM32F7xx_HAL_Driver/Src/stm32f7xx_hal_rcc.c ****   */
 131:Drivers/STM32F7xx_HAL_Driver/Src/stm32f7xx_hal_rcc.c **** 
 132:Drivers/STM32F7xx_HAL_Driver/Src/stm32f7xx_hal_rcc.c **** /** @defgroup RCC_Exported_Functions_Group1 Initialization and de-initialization functions
 133:Drivers/STM32F7xx_HAL_Driver/Src/stm32f7xx_hal_rcc.c ****   *  @brief    Initialization and Configuration functions
 134:Drivers/STM32F7xx_HAL_Driver/Src/stm32f7xx_hal_rcc.c ****   *
 135:Drivers/STM32F7xx_HAL_Driver/Src/stm32f7xx_hal_rcc.c ****   @verbatim
 136:Drivers/STM32F7xx_HAL_Driver/Src/stm32f7xx_hal_rcc.c ****   ===============================================================================
 137:Drivers/STM32F7xx_HAL_Driver/Src/stm32f7xx_hal_rcc.c **** ##### Initialization and de-initialization functions #####
 138:Drivers/STM32F7xx_HAL_Driver/Src/stm32f7xx_hal_rcc.c ****   ===============================================================================
 139:Drivers/STM32F7xx_HAL_Driver/Src/stm32f7xx_hal_rcc.c ****     [..]
 140:Drivers/STM32F7xx_HAL_Driver/Src/stm32f7xx_hal_rcc.c ****       This section provides functions allowing to configure the internal/external oscillators
 141:Drivers/STM32F7xx_HAL_Driver/Src/stm32f7xx_hal_rcc.c ****       (HSE, HSI, LSE, LSI, PLL, CSS and MCO) and the System buses clocks (SYSCLK, AHB, APB1
 142:Drivers/STM32F7xx_HAL_Driver/Src/stm32f7xx_hal_rcc.c ****       and APB2).
 143:Drivers/STM32F7xx_HAL_Driver/Src/stm32f7xx_hal_rcc.c **** 
 144:Drivers/STM32F7xx_HAL_Driver/Src/stm32f7xx_hal_rcc.c ****     [..] Internal/external clock and PLL configuration
ARM GAS  /tmp/ccQLX8NK.s 			page 4


 145:Drivers/STM32F7xx_HAL_Driver/Src/stm32f7xx_hal_rcc.c ****       (#) HSI (high-speed internal), 16 MHz factory-trimmed RC used directly or through
 146:Drivers/STM32F7xx_HAL_Driver/Src/stm32f7xx_hal_rcc.c ****           the PLL as System clock source.
 147:Drivers/STM32F7xx_HAL_Driver/Src/stm32f7xx_hal_rcc.c **** 
 148:Drivers/STM32F7xx_HAL_Driver/Src/stm32f7xx_hal_rcc.c ****       (#) LSI (low-speed internal), 32 KHz low consumption RC used as IWDG and/or RTC
 149:Drivers/STM32F7xx_HAL_Driver/Src/stm32f7xx_hal_rcc.c ****           clock source.
 150:Drivers/STM32F7xx_HAL_Driver/Src/stm32f7xx_hal_rcc.c **** 
 151:Drivers/STM32F7xx_HAL_Driver/Src/stm32f7xx_hal_rcc.c ****       (#) HSE (high-speed external), 4 to 26 MHz crystal oscillator used directly or
 152:Drivers/STM32F7xx_HAL_Driver/Src/stm32f7xx_hal_rcc.c ****           through the PLL as System clock source. Can be used also as RTC clock source.
 153:Drivers/STM32F7xx_HAL_Driver/Src/stm32f7xx_hal_rcc.c **** 
 154:Drivers/STM32F7xx_HAL_Driver/Src/stm32f7xx_hal_rcc.c ****       (#) LSE (low-speed external), 32 KHz oscillator used as RTC clock source.
 155:Drivers/STM32F7xx_HAL_Driver/Src/stm32f7xx_hal_rcc.c **** 
 156:Drivers/STM32F7xx_HAL_Driver/Src/stm32f7xx_hal_rcc.c ****       (#) PLL (clocked by HSI or HSE), featuring two different output clocks:
 157:Drivers/STM32F7xx_HAL_Driver/Src/stm32f7xx_hal_rcc.c ****         (++) The first output is used to generate the high speed system clock (up to 216 MHz)
 158:Drivers/STM32F7xx_HAL_Driver/Src/stm32f7xx_hal_rcc.c ****         (++) The second output is used to generate the clock for the USB OTG FS (48 MHz),
 159:Drivers/STM32F7xx_HAL_Driver/Src/stm32f7xx_hal_rcc.c ****              the random analog generator (<=48 MHz) and the SDIO (<= 48 MHz).
 160:Drivers/STM32F7xx_HAL_Driver/Src/stm32f7xx_hal_rcc.c **** 
 161:Drivers/STM32F7xx_HAL_Driver/Src/stm32f7xx_hal_rcc.c ****       (#) CSS (Clock security system), once enable using the function HAL_RCC_EnableCSS()
 162:Drivers/STM32F7xx_HAL_Driver/Src/stm32f7xx_hal_rcc.c ****           and if a HSE clock failure occurs(HSE used directly or through PLL as System
 163:Drivers/STM32F7xx_HAL_Driver/Src/stm32f7xx_hal_rcc.c ****           clock source), the System clock is automatically switched to HSI and an interrupt
 164:Drivers/STM32F7xx_HAL_Driver/Src/stm32f7xx_hal_rcc.c ****           is generated if enabled. The interrupt is linked to the Cortex-M7 NMI
 165:Drivers/STM32F7xx_HAL_Driver/Src/stm32f7xx_hal_rcc.c ****           (Non-Maskable Interrupt) exception vector.
 166:Drivers/STM32F7xx_HAL_Driver/Src/stm32f7xx_hal_rcc.c **** 
 167:Drivers/STM32F7xx_HAL_Driver/Src/stm32f7xx_hal_rcc.c ****       (#) MCO1 (microcontroller clock output), used to output HSI, LSE, HSE or PLL
 168:Drivers/STM32F7xx_HAL_Driver/Src/stm32f7xx_hal_rcc.c ****           clock (through a configurable prescaler) on PA8 pin.
 169:Drivers/STM32F7xx_HAL_Driver/Src/stm32f7xx_hal_rcc.c **** 
 170:Drivers/STM32F7xx_HAL_Driver/Src/stm32f7xx_hal_rcc.c ****       (#) MCO2 (microcontroller clock output), used to output HSE, PLL, SYSCLK or PLLI2S
 171:Drivers/STM32F7xx_HAL_Driver/Src/stm32f7xx_hal_rcc.c ****           clock (through a configurable prescaler) on PC9 pin.
 172:Drivers/STM32F7xx_HAL_Driver/Src/stm32f7xx_hal_rcc.c **** 
 173:Drivers/STM32F7xx_HAL_Driver/Src/stm32f7xx_hal_rcc.c ****     [..] System, AHB and APB busses clocks configuration
 174:Drivers/STM32F7xx_HAL_Driver/Src/stm32f7xx_hal_rcc.c ****       (#) Several clock sources can be used to drive the System clock (SYSCLK): HSI,
 175:Drivers/STM32F7xx_HAL_Driver/Src/stm32f7xx_hal_rcc.c ****           HSE and PLL.
 176:Drivers/STM32F7xx_HAL_Driver/Src/stm32f7xx_hal_rcc.c ****           The AHB clock (HCLK) is derived from System clock through configurable
 177:Drivers/STM32F7xx_HAL_Driver/Src/stm32f7xx_hal_rcc.c ****           prescaler and used to clock the CPU, memory and peripherals mapped
 178:Drivers/STM32F7xx_HAL_Driver/Src/stm32f7xx_hal_rcc.c ****           on AHB bus (DMA, GPIO...). APB1 (PCLK1) and APB2 (PCLK2) clocks are derived
 179:Drivers/STM32F7xx_HAL_Driver/Src/stm32f7xx_hal_rcc.c ****           from AHB clock through configurable prescalers and used to clock
 180:Drivers/STM32F7xx_HAL_Driver/Src/stm32f7xx_hal_rcc.c ****           the peripherals mapped on these busses. You can use
 181:Drivers/STM32F7xx_HAL_Driver/Src/stm32f7xx_hal_rcc.c ****           "HAL_RCC_GetSysClockFreq()" function to retrieve the frequencies of these clocks.
 182:Drivers/STM32F7xx_HAL_Driver/Src/stm32f7xx_hal_rcc.c **** 
 183:Drivers/STM32F7xx_HAL_Driver/Src/stm32f7xx_hal_rcc.c ****       -@- All the peripheral clocks are derived from the System clock (SYSCLK) except:
 184:Drivers/STM32F7xx_HAL_Driver/Src/stm32f7xx_hal_rcc.c ****           (+@) I2S: the I2S clock can be derived either from a specific PLL (PLLI2S) or
 185:Drivers/STM32F7xx_HAL_Driver/Src/stm32f7xx_hal_rcc.c ****               from an external clock mapped on the I2S_CKIN pin.
 186:Drivers/STM32F7xx_HAL_Driver/Src/stm32f7xx_hal_rcc.c ****               You have to use __HAL_RCC_PLLI2S_CONFIG() macro to configure this clock.
 187:Drivers/STM32F7xx_HAL_Driver/Src/stm32f7xx_hal_rcc.c ****           (+@)  SAI: the SAI clock can be derived either from a specific PLL (PLLI2S) or (PLLSAI) o
 188:Drivers/STM32F7xx_HAL_Driver/Src/stm32f7xx_hal_rcc.c ****               from an external clock mapped on the I2S_CKIN pin.
 189:Drivers/STM32F7xx_HAL_Driver/Src/stm32f7xx_hal_rcc.c ****                You have to use __HAL_RCC_PLLI2S_CONFIG() macro to configure this clock.
 190:Drivers/STM32F7xx_HAL_Driver/Src/stm32f7xx_hal_rcc.c ****           (+@) RTC: the RTC clock can be derived either from the LSI, LSE or HSE clock
 191:Drivers/STM32F7xx_HAL_Driver/Src/stm32f7xx_hal_rcc.c ****               divided by 2 to 31. You have to use __HAL_RCC_RTC_CONFIG() and __HAL_RCC_RTC_ENABLE()
 192:Drivers/STM32F7xx_HAL_Driver/Src/stm32f7xx_hal_rcc.c ****               macros to configure this clock.
 193:Drivers/STM32F7xx_HAL_Driver/Src/stm32f7xx_hal_rcc.c ****           (+@) USB OTG FS, SDIO and RTC: USB OTG FS require a frequency equal to 48 MHz
 194:Drivers/STM32F7xx_HAL_Driver/Src/stm32f7xx_hal_rcc.c ****               to work correctly, while the SDIO require a frequency equal or lower than
 195:Drivers/STM32F7xx_HAL_Driver/Src/stm32f7xx_hal_rcc.c ****               to 48. This clock is derived of the main PLL through PLLQ divider.
 196:Drivers/STM32F7xx_HAL_Driver/Src/stm32f7xx_hal_rcc.c ****           (+@) IWDG clock which is always the LSI clock.
 197:Drivers/STM32F7xx_HAL_Driver/Src/stm32f7xx_hal_rcc.c **** @endverbatim
 198:Drivers/STM32F7xx_HAL_Driver/Src/stm32f7xx_hal_rcc.c ****   * @{
 199:Drivers/STM32F7xx_HAL_Driver/Src/stm32f7xx_hal_rcc.c ****   */
 200:Drivers/STM32F7xx_HAL_Driver/Src/stm32f7xx_hal_rcc.c **** 
 201:Drivers/STM32F7xx_HAL_Driver/Src/stm32f7xx_hal_rcc.c **** /**
ARM GAS  /tmp/ccQLX8NK.s 			page 5


 202:Drivers/STM32F7xx_HAL_Driver/Src/stm32f7xx_hal_rcc.c ****   * @brief  Resets the RCC clock configuration to the default reset state.
 203:Drivers/STM32F7xx_HAL_Driver/Src/stm32f7xx_hal_rcc.c ****   * @note   The default reset state of the clock configuration is given below:
 204:Drivers/STM32F7xx_HAL_Driver/Src/stm32f7xx_hal_rcc.c ****   *            - HSI ON and used as system clock source
 205:Drivers/STM32F7xx_HAL_Driver/Src/stm32f7xx_hal_rcc.c ****   *            - HSE, PLL, PLLI2S and PLLSAI OFF
 206:Drivers/STM32F7xx_HAL_Driver/Src/stm32f7xx_hal_rcc.c ****   *            - AHB, APB1 and APB2 prescaler set to 1.
 207:Drivers/STM32F7xx_HAL_Driver/Src/stm32f7xx_hal_rcc.c ****   *            - CSS, MCO1 and MCO2 OFF
 208:Drivers/STM32F7xx_HAL_Driver/Src/stm32f7xx_hal_rcc.c ****   *            - All interrupts disabled
 209:Drivers/STM32F7xx_HAL_Driver/Src/stm32f7xx_hal_rcc.c ****   * @note   This function doesn't modify the configuration of the
 210:Drivers/STM32F7xx_HAL_Driver/Src/stm32f7xx_hal_rcc.c ****   *            - Peripheral clocks
 211:Drivers/STM32F7xx_HAL_Driver/Src/stm32f7xx_hal_rcc.c ****   *            - LSI, LSE and RTC clocks
 212:Drivers/STM32F7xx_HAL_Driver/Src/stm32f7xx_hal_rcc.c ****   * @retval None
 213:Drivers/STM32F7xx_HAL_Driver/Src/stm32f7xx_hal_rcc.c ****   */
 214:Drivers/STM32F7xx_HAL_Driver/Src/stm32f7xx_hal_rcc.c **** HAL_StatusTypeDef HAL_RCC_DeInit(void)
 215:Drivers/STM32F7xx_HAL_Driver/Src/stm32f7xx_hal_rcc.c **** {
  29              		.loc 1 215 0
  30              		.cfi_startproc
  31              		@ args = 0, pretend = 0, frame = 0
  32              		@ frame_needed = 0, uses_anonymous_args = 0
  33 0000 F8B5     		push	{r3, r4, r5, r6, r7, lr}
  34              	.LCFI0:
  35              		.cfi_def_cfa_offset 24
  36              		.cfi_offset 3, -24
  37              		.cfi_offset 4, -20
  38              		.cfi_offset 5, -16
  39              		.cfi_offset 6, -12
  40              		.cfi_offset 7, -8
  41              		.cfi_offset 14, -4
 216:Drivers/STM32F7xx_HAL_Driver/Src/stm32f7xx_hal_rcc.c ****   uint32_t tickstart;
 217:Drivers/STM32F7xx_HAL_Driver/Src/stm32f7xx_hal_rcc.c **** 
 218:Drivers/STM32F7xx_HAL_Driver/Src/stm32f7xx_hal_rcc.c ****   /* Get Start Tick */
 219:Drivers/STM32F7xx_HAL_Driver/Src/stm32f7xx_hal_rcc.c ****   tickstart = HAL_GetTick();
  42              		.loc 1 219 0
  43 0002 FFF7FEFF 		bl	HAL_GetTick
  44              	.LVL0:
 220:Drivers/STM32F7xx_HAL_Driver/Src/stm32f7xx_hal_rcc.c **** 
 221:Drivers/STM32F7xx_HAL_Driver/Src/stm32f7xx_hal_rcc.c ****   /* Set HSION bit to the reset value */
 222:Drivers/STM32F7xx_HAL_Driver/Src/stm32f7xx_hal_rcc.c ****   SET_BIT(RCC->CR, RCC_CR_HSION);
  45              		.loc 1 222 0
  46 0006 464B     		ldr	r3, .L19
 219:Drivers/STM32F7xx_HAL_Driver/Src/stm32f7xx_hal_rcc.c **** 
  47              		.loc 1 219 0
  48 0008 0546     		mov	r5, r0
  49              	.LVL1:
  50              		.loc 1 222 0
  51 000a 1A68     		ldr	r2, [r3]
 223:Drivers/STM32F7xx_HAL_Driver/Src/stm32f7xx_hal_rcc.c **** 
 224:Drivers/STM32F7xx_HAL_Driver/Src/stm32f7xx_hal_rcc.c ****   /* Wait till HSI is ready */
 225:Drivers/STM32F7xx_HAL_Driver/Src/stm32f7xx_hal_rcc.c ****   while (READ_BIT(RCC->CR, RCC_CR_HSIRDY) == RESET)
  52              		.loc 1 225 0
  53 000c 1C46     		mov	r4, r3
 222:Drivers/STM32F7xx_HAL_Driver/Src/stm32f7xx_hal_rcc.c **** 
  54              		.loc 1 222 0
  55 000e 42F00102 		orr	r2, r2, #1
  56 0012 1A60     		str	r2, [r3]
  57              		.loc 1 225 0
  58 0014 04E0     		b	.L2
  59              	.LVL2:
ARM GAS  /tmp/ccQLX8NK.s 			page 6


  60              	.L4:
 226:Drivers/STM32F7xx_HAL_Driver/Src/stm32f7xx_hal_rcc.c ****   {
 227:Drivers/STM32F7xx_HAL_Driver/Src/stm32f7xx_hal_rcc.c ****     if ((HAL_GetTick() - tickstart) > HSI_TIMEOUT_VALUE)
  61              		.loc 1 227 0
  62 0016 FFF7FEFF 		bl	HAL_GetTick
  63              	.LVL3:
  64 001a 401B     		subs	r0, r0, r5
  65 001c 0228     		cmp	r0, #2
  66 001e 7DD8     		bhi	.L6
  67              	.L2:
 225:Drivers/STM32F7xx_HAL_Driver/Src/stm32f7xx_hal_rcc.c ****   {
  68              		.loc 1 225 0
  69 0020 2368     		ldr	r3, [r4]
  70 0022 9807     		lsls	r0, r3, #30
  71 0024 F7D5     		bpl	.L4
 228:Drivers/STM32F7xx_HAL_Driver/Src/stm32f7xx_hal_rcc.c ****     {
 229:Drivers/STM32F7xx_HAL_Driver/Src/stm32f7xx_hal_rcc.c ****       return HAL_TIMEOUT;
 230:Drivers/STM32F7xx_HAL_Driver/Src/stm32f7xx_hal_rcc.c ****     }
 231:Drivers/STM32F7xx_HAL_Driver/Src/stm32f7xx_hal_rcc.c ****   }
 232:Drivers/STM32F7xx_HAL_Driver/Src/stm32f7xx_hal_rcc.c **** 
 233:Drivers/STM32F7xx_HAL_Driver/Src/stm32f7xx_hal_rcc.c ****   /* Set HSITRIM[4:0] bits to the reset value */
 234:Drivers/STM32F7xx_HAL_Driver/Src/stm32f7xx_hal_rcc.c ****   SET_BIT(RCC->CR, RCC_CR_HSITRIM_4);
  72              		.loc 1 234 0
  73 0026 2368     		ldr	r3, [r4]
 235:Drivers/STM32F7xx_HAL_Driver/Src/stm32f7xx_hal_rcc.c **** 
 236:Drivers/STM32F7xx_HAL_Driver/Src/stm32f7xx_hal_rcc.c ****   /* Get Start Tick */
 237:Drivers/STM32F7xx_HAL_Driver/Src/stm32f7xx_hal_rcc.c ****   tickstart = HAL_GetTick();
 238:Drivers/STM32F7xx_HAL_Driver/Src/stm32f7xx_hal_rcc.c **** 
 239:Drivers/STM32F7xx_HAL_Driver/Src/stm32f7xx_hal_rcc.c ****   /* Reset CFGR register */
 240:Drivers/STM32F7xx_HAL_Driver/Src/stm32f7xx_hal_rcc.c ****   CLEAR_REG(RCC->CFGR);
 241:Drivers/STM32F7xx_HAL_Driver/Src/stm32f7xx_hal_rcc.c **** 
 242:Drivers/STM32F7xx_HAL_Driver/Src/stm32f7xx_hal_rcc.c ****   /* Wait till clock switch is ready */
 243:Drivers/STM32F7xx_HAL_Driver/Src/stm32f7xx_hal_rcc.c ****   while (READ_BIT(RCC->CFGR, RCC_CFGR_SWS) != RESET)
 244:Drivers/STM32F7xx_HAL_Driver/Src/stm32f7xx_hal_rcc.c ****   {
 245:Drivers/STM32F7xx_HAL_Driver/Src/stm32f7xx_hal_rcc.c ****     if ((HAL_GetTick() - tickstart) > CLOCKSWITCH_TIMEOUT_VALUE)
  74              		.loc 1 245 0
  75 0028 41F28837 		movw	r7, #5000
 243:Drivers/STM32F7xx_HAL_Driver/Src/stm32f7xx_hal_rcc.c ****   {
  76              		.loc 1 243 0
  77 002c 3C4D     		ldr	r5, .L19
  78              	.LVL4:
 234:Drivers/STM32F7xx_HAL_Driver/Src/stm32f7xx_hal_rcc.c **** 
  79              		.loc 1 234 0
  80 002e 43F08003 		orr	r3, r3, #128
  81 0032 2360     		str	r3, [r4]
 237:Drivers/STM32F7xx_HAL_Driver/Src/stm32f7xx_hal_rcc.c **** 
  82              		.loc 1 237 0
  83 0034 FFF7FEFF 		bl	HAL_GetTick
  84              	.LVL5:
 240:Drivers/STM32F7xx_HAL_Driver/Src/stm32f7xx_hal_rcc.c **** 
  85              		.loc 1 240 0
  86 0038 0023     		movs	r3, #0
 237:Drivers/STM32F7xx_HAL_Driver/Src/stm32f7xx_hal_rcc.c **** 
  87              		.loc 1 237 0
  88 003a 0646     		mov	r6, r0
  89              	.LVL6:
 240:Drivers/STM32F7xx_HAL_Driver/Src/stm32f7xx_hal_rcc.c **** 
ARM GAS  /tmp/ccQLX8NK.s 			page 7


  90              		.loc 1 240 0
  91 003c A360     		str	r3, [r4, #8]
 243:Drivers/STM32F7xx_HAL_Driver/Src/stm32f7xx_hal_rcc.c ****   {
  92              		.loc 1 243 0
  93 003e 04E0     		b	.L5
  94              	.LVL7:
  95              	.L7:
  96              		.loc 1 245 0
  97 0040 FFF7FEFF 		bl	HAL_GetTick
  98              	.LVL8:
  99 0044 801B     		subs	r0, r0, r6
 100 0046 B842     		cmp	r0, r7
 101 0048 68D8     		bhi	.L6
 102              	.L5:
 243:Drivers/STM32F7xx_HAL_Driver/Src/stm32f7xx_hal_rcc.c ****   {
 103              		.loc 1 243 0
 104 004a AB68     		ldr	r3, [r5, #8]
 105 004c 13F00C0F 		tst	r3, #12
 106 0050 F6D1     		bne	.L7
 246:Drivers/STM32F7xx_HAL_Driver/Src/stm32f7xx_hal_rcc.c ****     {
 247:Drivers/STM32F7xx_HAL_Driver/Src/stm32f7xx_hal_rcc.c ****       return HAL_TIMEOUT;
 248:Drivers/STM32F7xx_HAL_Driver/Src/stm32f7xx_hal_rcc.c ****     }
 249:Drivers/STM32F7xx_HAL_Driver/Src/stm32f7xx_hal_rcc.c ****   }
 250:Drivers/STM32F7xx_HAL_Driver/Src/stm32f7xx_hal_rcc.c **** 
 251:Drivers/STM32F7xx_HAL_Driver/Src/stm32f7xx_hal_rcc.c ****   /* Get Start Tick */
 252:Drivers/STM32F7xx_HAL_Driver/Src/stm32f7xx_hal_rcc.c ****   tickstart = HAL_GetTick();
 107              		.loc 1 252 0
 108 0052 FFF7FEFF 		bl	HAL_GetTick
 109              	.LVL9:
 253:Drivers/STM32F7xx_HAL_Driver/Src/stm32f7xx_hal_rcc.c **** 
 254:Drivers/STM32F7xx_HAL_Driver/Src/stm32f7xx_hal_rcc.c ****   /* Clear HSEON, HSEBYP and CSSON bits */
 255:Drivers/STM32F7xx_HAL_Driver/Src/stm32f7xx_hal_rcc.c ****   CLEAR_BIT(RCC->CR, RCC_CR_HSEON | RCC_CR_HSEBYP | RCC_CR_CSSON);
 110              		.loc 1 255 0
 111 0056 2B68     		ldr	r3, [r5]
 252:Drivers/STM32F7xx_HAL_Driver/Src/stm32f7xx_hal_rcc.c **** 
 112              		.loc 1 252 0
 113 0058 0646     		mov	r6, r0
 114              	.LVL10:
 256:Drivers/STM32F7xx_HAL_Driver/Src/stm32f7xx_hal_rcc.c **** 
 257:Drivers/STM32F7xx_HAL_Driver/Src/stm32f7xx_hal_rcc.c ****   /* Wait till HSE is disabled */
 258:Drivers/STM32F7xx_HAL_Driver/Src/stm32f7xx_hal_rcc.c ****   while (READ_BIT(RCC->CR, RCC_CR_HSERDY) != RESET)
 115              		.loc 1 258 0
 116 005a 314C     		ldr	r4, .L19
 255:Drivers/STM32F7xx_HAL_Driver/Src/stm32f7xx_hal_rcc.c **** 
 117              		.loc 1 255 0
 118 005c 23F45023 		bic	r3, r3, #851968
 119 0060 2B60     		str	r3, [r5]
 120              		.loc 1 258 0
 121 0062 04E0     		b	.L8
 122              	.LVL11:
 123              	.L9:
 259:Drivers/STM32F7xx_HAL_Driver/Src/stm32f7xx_hal_rcc.c ****   {
 260:Drivers/STM32F7xx_HAL_Driver/Src/stm32f7xx_hal_rcc.c ****     if ((HAL_GetTick() - tickstart) > HSE_TIMEOUT_VALUE)
 124              		.loc 1 260 0
 125 0064 FFF7FEFF 		bl	HAL_GetTick
 126              	.LVL12:
 127 0068 801B     		subs	r0, r0, r6
ARM GAS  /tmp/ccQLX8NK.s 			page 8


 128 006a 6428     		cmp	r0, #100
 129 006c 56D8     		bhi	.L6
 130              	.L8:
 258:Drivers/STM32F7xx_HAL_Driver/Src/stm32f7xx_hal_rcc.c ****   {
 131              		.loc 1 258 0
 132 006e 2368     		ldr	r3, [r4]
 133 0070 9903     		lsls	r1, r3, #14
 134 0072 F7D4     		bmi	.L9
 261:Drivers/STM32F7xx_HAL_Driver/Src/stm32f7xx_hal_rcc.c ****     {
 262:Drivers/STM32F7xx_HAL_Driver/Src/stm32f7xx_hal_rcc.c ****       return HAL_TIMEOUT;
 263:Drivers/STM32F7xx_HAL_Driver/Src/stm32f7xx_hal_rcc.c ****     }
 264:Drivers/STM32F7xx_HAL_Driver/Src/stm32f7xx_hal_rcc.c ****   }
 265:Drivers/STM32F7xx_HAL_Driver/Src/stm32f7xx_hal_rcc.c **** 
 266:Drivers/STM32F7xx_HAL_Driver/Src/stm32f7xx_hal_rcc.c ****   /* Get Start Tick */
 267:Drivers/STM32F7xx_HAL_Driver/Src/stm32f7xx_hal_rcc.c ****   tickstart = HAL_GetTick();
 135              		.loc 1 267 0
 136 0074 FFF7FEFF 		bl	HAL_GetTick
 137              	.LVL13:
 268:Drivers/STM32F7xx_HAL_Driver/Src/stm32f7xx_hal_rcc.c **** 
 269:Drivers/STM32F7xx_HAL_Driver/Src/stm32f7xx_hal_rcc.c ****   /* Clear PLLON bit */
 270:Drivers/STM32F7xx_HAL_Driver/Src/stm32f7xx_hal_rcc.c ****   CLEAR_BIT(RCC->CR, RCC_CR_PLLON);
 138              		.loc 1 270 0
 139 0078 2368     		ldr	r3, [r4]
 267:Drivers/STM32F7xx_HAL_Driver/Src/stm32f7xx_hal_rcc.c **** 
 140              		.loc 1 267 0
 141 007a 0646     		mov	r6, r0
 142              	.LVL14:
 271:Drivers/STM32F7xx_HAL_Driver/Src/stm32f7xx_hal_rcc.c **** 
 272:Drivers/STM32F7xx_HAL_Driver/Src/stm32f7xx_hal_rcc.c ****   /* Wait till PLL is disabled */
 273:Drivers/STM32F7xx_HAL_Driver/Src/stm32f7xx_hal_rcc.c ****   while (READ_BIT(RCC->CR, RCC_CR_PLLRDY) != RESET)
 143              		.loc 1 273 0
 144 007c 284D     		ldr	r5, .L19
 270:Drivers/STM32F7xx_HAL_Driver/Src/stm32f7xx_hal_rcc.c **** 
 145              		.loc 1 270 0
 146 007e 23F08073 		bic	r3, r3, #16777216
 147 0082 2360     		str	r3, [r4]
 148              		.loc 1 273 0
 149 0084 04E0     		b	.L10
 150              	.LVL15:
 151              	.L11:
 274:Drivers/STM32F7xx_HAL_Driver/Src/stm32f7xx_hal_rcc.c ****   {
 275:Drivers/STM32F7xx_HAL_Driver/Src/stm32f7xx_hal_rcc.c ****     if ((HAL_GetTick() - tickstart) > PLL_TIMEOUT_VALUE)
 152              		.loc 1 275 0
 153 0086 FFF7FEFF 		bl	HAL_GetTick
 154              	.LVL16:
 155 008a 801B     		subs	r0, r0, r6
 156 008c 0228     		cmp	r0, #2
 157 008e 45D8     		bhi	.L6
 158              	.L10:
 273:Drivers/STM32F7xx_HAL_Driver/Src/stm32f7xx_hal_rcc.c ****   {
 159              		.loc 1 273 0
 160 0090 2B68     		ldr	r3, [r5]
 161 0092 9A01     		lsls	r2, r3, #6
 162 0094 F7D4     		bmi	.L11
 276:Drivers/STM32F7xx_HAL_Driver/Src/stm32f7xx_hal_rcc.c ****     {
 277:Drivers/STM32F7xx_HAL_Driver/Src/stm32f7xx_hal_rcc.c ****       return HAL_TIMEOUT;
 278:Drivers/STM32F7xx_HAL_Driver/Src/stm32f7xx_hal_rcc.c ****     }
ARM GAS  /tmp/ccQLX8NK.s 			page 9


 279:Drivers/STM32F7xx_HAL_Driver/Src/stm32f7xx_hal_rcc.c ****   }
 280:Drivers/STM32F7xx_HAL_Driver/Src/stm32f7xx_hal_rcc.c **** 
 281:Drivers/STM32F7xx_HAL_Driver/Src/stm32f7xx_hal_rcc.c ****   /* Get Start Tick */
 282:Drivers/STM32F7xx_HAL_Driver/Src/stm32f7xx_hal_rcc.c ****   tickstart = HAL_GetTick();
 163              		.loc 1 282 0
 164 0096 FFF7FEFF 		bl	HAL_GetTick
 165              	.LVL17:
 283:Drivers/STM32F7xx_HAL_Driver/Src/stm32f7xx_hal_rcc.c **** 
 284:Drivers/STM32F7xx_HAL_Driver/Src/stm32f7xx_hal_rcc.c ****   /* Reset PLLI2SON bit */
 285:Drivers/STM32F7xx_HAL_Driver/Src/stm32f7xx_hal_rcc.c ****   CLEAR_BIT(RCC->CR, RCC_CR_PLLI2SON);
 166              		.loc 1 285 0
 167 009a 2B68     		ldr	r3, [r5]
 282:Drivers/STM32F7xx_HAL_Driver/Src/stm32f7xx_hal_rcc.c **** 
 168              		.loc 1 282 0
 169 009c 0646     		mov	r6, r0
 170              	.LVL18:
 286:Drivers/STM32F7xx_HAL_Driver/Src/stm32f7xx_hal_rcc.c **** 
 287:Drivers/STM32F7xx_HAL_Driver/Src/stm32f7xx_hal_rcc.c ****   /* Wait till PLLI2S is disabled */
 288:Drivers/STM32F7xx_HAL_Driver/Src/stm32f7xx_hal_rcc.c ****   while (READ_BIT(RCC->CR, RCC_CR_PLLI2SRDY) != RESET)
 171              		.loc 1 288 0
 172 009e 204C     		ldr	r4, .L19
 285:Drivers/STM32F7xx_HAL_Driver/Src/stm32f7xx_hal_rcc.c **** 
 173              		.loc 1 285 0
 174 00a0 23F08063 		bic	r3, r3, #67108864
 175 00a4 2B60     		str	r3, [r5]
 176              		.loc 1 288 0
 177 00a6 04E0     		b	.L12
 178              	.LVL19:
 179              	.L13:
 289:Drivers/STM32F7xx_HAL_Driver/Src/stm32f7xx_hal_rcc.c ****   {
 290:Drivers/STM32F7xx_HAL_Driver/Src/stm32f7xx_hal_rcc.c ****     if ((HAL_GetTick() - tickstart) > PLLI2S_TIMEOUT_VALUE)
 180              		.loc 1 290 0
 181 00a8 FFF7FEFF 		bl	HAL_GetTick
 182              	.LVL20:
 183 00ac 801B     		subs	r0, r0, r6
 184 00ae 6428     		cmp	r0, #100
 185 00b0 34D8     		bhi	.L6
 186              	.L12:
 288:Drivers/STM32F7xx_HAL_Driver/Src/stm32f7xx_hal_rcc.c ****   {
 187              		.loc 1 288 0
 188 00b2 2368     		ldr	r3, [r4]
 189 00b4 1B01     		lsls	r3, r3, #4
 190 00b6 F7D4     		bmi	.L13
 291:Drivers/STM32F7xx_HAL_Driver/Src/stm32f7xx_hal_rcc.c ****     {
 292:Drivers/STM32F7xx_HAL_Driver/Src/stm32f7xx_hal_rcc.c ****       return HAL_TIMEOUT;
 293:Drivers/STM32F7xx_HAL_Driver/Src/stm32f7xx_hal_rcc.c ****     }
 294:Drivers/STM32F7xx_HAL_Driver/Src/stm32f7xx_hal_rcc.c ****   }
 295:Drivers/STM32F7xx_HAL_Driver/Src/stm32f7xx_hal_rcc.c **** 
 296:Drivers/STM32F7xx_HAL_Driver/Src/stm32f7xx_hal_rcc.c ****   /* Get Start Tick */
 297:Drivers/STM32F7xx_HAL_Driver/Src/stm32f7xx_hal_rcc.c ****   tickstart = HAL_GetTick();
 191              		.loc 1 297 0
 192 00b8 FFF7FEFF 		bl	HAL_GetTick
 193              	.LVL21:
 298:Drivers/STM32F7xx_HAL_Driver/Src/stm32f7xx_hal_rcc.c **** 
 299:Drivers/STM32F7xx_HAL_Driver/Src/stm32f7xx_hal_rcc.c ****   /* Reset PLLSAI bit */
 300:Drivers/STM32F7xx_HAL_Driver/Src/stm32f7xx_hal_rcc.c ****   CLEAR_BIT(RCC->CR, RCC_CR_PLLSAION);
 194              		.loc 1 300 0
ARM GAS  /tmp/ccQLX8NK.s 			page 10


 195 00bc 2368     		ldr	r3, [r4]
 297:Drivers/STM32F7xx_HAL_Driver/Src/stm32f7xx_hal_rcc.c **** 
 196              		.loc 1 297 0
 197 00be 0646     		mov	r6, r0
 198              	.LVL22:
 301:Drivers/STM32F7xx_HAL_Driver/Src/stm32f7xx_hal_rcc.c **** 
 302:Drivers/STM32F7xx_HAL_Driver/Src/stm32f7xx_hal_rcc.c ****   /* Wait till PLLSAI is disabled */
 303:Drivers/STM32F7xx_HAL_Driver/Src/stm32f7xx_hal_rcc.c ****   while (READ_BIT(RCC->CR, RCC_CR_PLLSAIRDY) != RESET)
 199              		.loc 1 303 0
 200 00c0 174D     		ldr	r5, .L19
 300:Drivers/STM32F7xx_HAL_Driver/Src/stm32f7xx_hal_rcc.c **** 
 201              		.loc 1 300 0
 202 00c2 23F08053 		bic	r3, r3, #268435456
 203 00c6 2360     		str	r3, [r4]
 204              		.loc 1 303 0
 205 00c8 04E0     		b	.L14
 206              	.LVL23:
 207              	.L15:
 304:Drivers/STM32F7xx_HAL_Driver/Src/stm32f7xx_hal_rcc.c ****   {
 305:Drivers/STM32F7xx_HAL_Driver/Src/stm32f7xx_hal_rcc.c ****     if ((HAL_GetTick() - tickstart) > PLLSAI_TIMEOUT_VALUE)
 208              		.loc 1 305 0
 209 00ca FFF7FEFF 		bl	HAL_GetTick
 210              	.LVL24:
 211 00ce 801B     		subs	r0, r0, r6
 212 00d0 6428     		cmp	r0, #100
 213 00d2 23D8     		bhi	.L6
 214              	.L14:
 303:Drivers/STM32F7xx_HAL_Driver/Src/stm32f7xx_hal_rcc.c ****   {
 215              		.loc 1 303 0
 216 00d4 2868     		ldr	r0, [r5]
 217 00d6 10F00050 		ands	r0, r0, #536870912
 218 00da F6D1     		bne	.L15
 306:Drivers/STM32F7xx_HAL_Driver/Src/stm32f7xx_hal_rcc.c ****     {
 307:Drivers/STM32F7xx_HAL_Driver/Src/stm32f7xx_hal_rcc.c ****       return HAL_TIMEOUT;
 308:Drivers/STM32F7xx_HAL_Driver/Src/stm32f7xx_hal_rcc.c ****     }
 309:Drivers/STM32F7xx_HAL_Driver/Src/stm32f7xx_hal_rcc.c ****   }
 310:Drivers/STM32F7xx_HAL_Driver/Src/stm32f7xx_hal_rcc.c **** 
 311:Drivers/STM32F7xx_HAL_Driver/Src/stm32f7xx_hal_rcc.c ****   /* Once PLL, PLLI2S and PLLSAI are OFF, reset PLLCFGR register to default value */
 312:Drivers/STM32F7xx_HAL_Driver/Src/stm32f7xx_hal_rcc.c ****   RCC->PLLCFGR = RCC_PLLCFGR_PLLM_4 | RCC_PLLCFGR_PLLN_6 | RCC_PLLCFGR_PLLN_7 | RCC_PLLCFGR_PLLQ_2 
 313:Drivers/STM32F7xx_HAL_Driver/Src/stm32f7xx_hal_rcc.c **** 
 314:Drivers/STM32F7xx_HAL_Driver/Src/stm32f7xx_hal_rcc.c ****   /* Reset PLLI2SCFGR register to default value */
 315:Drivers/STM32F7xx_HAL_Driver/Src/stm32f7xx_hal_rcc.c ****   RCC->PLLI2SCFGR = RCC_PLLI2SCFGR_PLLI2SN_6 | RCC_PLLI2SCFGR_PLLI2SN_7 | RCC_PLLI2SCFGR_PLLI2SQ_2 
 219              		.loc 1 315 0
 220 00dc 114B     		ldr	r3, .L19+4
 312:Drivers/STM32F7xx_HAL_Driver/Src/stm32f7xx_hal_rcc.c **** 
 221              		.loc 1 312 0
 222 00de 124A     		ldr	r2, .L19+8
 316:Drivers/STM32F7xx_HAL_Driver/Src/stm32f7xx_hal_rcc.c **** 
 317:Drivers/STM32F7xx_HAL_Driver/Src/stm32f7xx_hal_rcc.c ****   /* Reset PLLSAICFGR register to default value */
 318:Drivers/STM32F7xx_HAL_Driver/Src/stm32f7xx_hal_rcc.c ****   RCC->PLLSAICFGR = RCC_PLLSAICFGR_PLLSAIN_6 | RCC_PLLSAICFGR_PLLSAIN_7 | RCC_PLLSAICFGR_PLLSAIQ_2 
 319:Drivers/STM32F7xx_HAL_Driver/Src/stm32f7xx_hal_rcc.c **** 
 320:Drivers/STM32F7xx_HAL_Driver/Src/stm32f7xx_hal_rcc.c ****   /* Disable all interrupts */
 321:Drivers/STM32F7xx_HAL_Driver/Src/stm32f7xx_hal_rcc.c ****   CLEAR_BIT(RCC->CIR, RCC_CIR_LSIRDYIE | RCC_CIR_LSERDYIE | RCC_CIR_HSIRDYIE | RCC_CIR_HSERDYIE | R
 322:Drivers/STM32F7xx_HAL_Driver/Src/stm32f7xx_hal_rcc.c **** 
 323:Drivers/STM32F7xx_HAL_Driver/Src/stm32f7xx_hal_rcc.c ****   /* Clear all interrupt flags */
 324:Drivers/STM32F7xx_HAL_Driver/Src/stm32f7xx_hal_rcc.c ****   SET_BIT(RCC->CIR, RCC_CIR_LSIRDYC | RCC_CIR_LSERDYC | RCC_CIR_HSIRDYC | RCC_CIR_HSERDYC | RCC_CIR
 325:Drivers/STM32F7xx_HAL_Driver/Src/stm32f7xx_hal_rcc.c **** 
ARM GAS  /tmp/ccQLX8NK.s 			page 11


 326:Drivers/STM32F7xx_HAL_Driver/Src/stm32f7xx_hal_rcc.c ****   /* Clear LSION bit */
 327:Drivers/STM32F7xx_HAL_Driver/Src/stm32f7xx_hal_rcc.c ****   CLEAR_BIT(RCC->CSR, RCC_CSR_LSION);
 328:Drivers/STM32F7xx_HAL_Driver/Src/stm32f7xx_hal_rcc.c **** 
 329:Drivers/STM32F7xx_HAL_Driver/Src/stm32f7xx_hal_rcc.c ****   /* Reset all CSR flags */
 330:Drivers/STM32F7xx_HAL_Driver/Src/stm32f7xx_hal_rcc.c ****   SET_BIT(RCC->CSR, RCC_CSR_RMVF);
 331:Drivers/STM32F7xx_HAL_Driver/Src/stm32f7xx_hal_rcc.c **** 
 332:Drivers/STM32F7xx_HAL_Driver/Src/stm32f7xx_hal_rcc.c ****   /* Update the SystemCoreClock global variable */
 333:Drivers/STM32F7xx_HAL_Driver/Src/stm32f7xx_hal_rcc.c ****   SystemCoreClock = HSI_VALUE;
 223              		.loc 1 333 0
 224 00e0 1249     		ldr	r1, .L19+12
 312:Drivers/STM32F7xx_HAL_Driver/Src/stm32f7xx_hal_rcc.c **** 
 225              		.loc 1 312 0
 226 00e2 6A60     		str	r2, [r5, #4]
 315:Drivers/STM32F7xx_HAL_Driver/Src/stm32f7xx_hal_rcc.c **** 
 227              		.loc 1 315 0
 228 00e4 C5F88430 		str	r3, [r5, #132]
 318:Drivers/STM32F7xx_HAL_Driver/Src/stm32f7xx_hal_rcc.c **** 
 229              		.loc 1 318 0
 230 00e8 C5F88830 		str	r3, [r5, #136]
 321:Drivers/STM32F7xx_HAL_Driver/Src/stm32f7xx_hal_rcc.c **** 
 231              		.loc 1 321 0
 232 00ec EB68     		ldr	r3, [r5, #12]
 233              		.loc 1 333 0
 234 00ee 104A     		ldr	r2, .L19+16
 321:Drivers/STM32F7xx_HAL_Driver/Src/stm32f7xx_hal_rcc.c **** 
 235              		.loc 1 321 0
 236 00f0 23F4FE43 		bic	r3, r3, #32512
 237 00f4 EB60     		str	r3, [r5, #12]
 324:Drivers/STM32F7xx_HAL_Driver/Src/stm32f7xx_hal_rcc.c **** 
 238              		.loc 1 324 0
 239 00f6 EB68     		ldr	r3, [r5, #12]
 240 00f8 43F47F03 		orr	r3, r3, #16711680
 241 00fc EB60     		str	r3, [r5, #12]
 327:Drivers/STM32F7xx_HAL_Driver/Src/stm32f7xx_hal_rcc.c **** 
 242              		.loc 1 327 0
 243 00fe 6B6F     		ldr	r3, [r5, #116]
 244 0100 23F00103 		bic	r3, r3, #1
 245 0104 6B67     		str	r3, [r5, #116]
 330:Drivers/STM32F7xx_HAL_Driver/Src/stm32f7xx_hal_rcc.c **** 
 246              		.loc 1 330 0
 247 0106 6B6F     		ldr	r3, [r5, #116]
 248 0108 43F08073 		orr	r3, r3, #16777216
 249 010c 6B67     		str	r3, [r5, #116]
 250              		.loc 1 333 0
 251 010e 1160     		str	r1, [r2]
 334:Drivers/STM32F7xx_HAL_Driver/Src/stm32f7xx_hal_rcc.c **** 
 335:Drivers/STM32F7xx_HAL_Driver/Src/stm32f7xx_hal_rcc.c ****   /* Adapt Systick interrupt period */
 336:Drivers/STM32F7xx_HAL_Driver/Src/stm32f7xx_hal_rcc.c ****   if(HAL_InitTick(TICK_INT_PRIORITY) != HAL_OK)
 252              		.loc 1 336 0
 253 0110 FFF7FEFF 		bl	HAL_InitTick
 254              	.LVL25:
 229:Drivers/STM32F7xx_HAL_Driver/Src/stm32f7xx_hal_rcc.c ****     }
 255              		.loc 1 229 0
 256 0114 0030     		adds	r0, r0, #0
 257 0116 18BF     		it	ne
 258 0118 0120     		movne	r0, #1
 337:Drivers/STM32F7xx_HAL_Driver/Src/stm32f7xx_hal_rcc.c ****   {
ARM GAS  /tmp/ccQLX8NK.s 			page 12


 338:Drivers/STM32F7xx_HAL_Driver/Src/stm32f7xx_hal_rcc.c ****     return HAL_ERROR;
 339:Drivers/STM32F7xx_HAL_Driver/Src/stm32f7xx_hal_rcc.c ****   }
 340:Drivers/STM32F7xx_HAL_Driver/Src/stm32f7xx_hal_rcc.c ****   else
 341:Drivers/STM32F7xx_HAL_Driver/Src/stm32f7xx_hal_rcc.c ****   {
 342:Drivers/STM32F7xx_HAL_Driver/Src/stm32f7xx_hal_rcc.c ****     return HAL_OK;
 343:Drivers/STM32F7xx_HAL_Driver/Src/stm32f7xx_hal_rcc.c ****   }
 344:Drivers/STM32F7xx_HAL_Driver/Src/stm32f7xx_hal_rcc.c **** }
 259              		.loc 1 344 0
 260 011a F8BD     		pop	{r3, r4, r5, r6, r7, pc}
 261              	.LVL26:
 262              	.L6:
 229:Drivers/STM32F7xx_HAL_Driver/Src/stm32f7xx_hal_rcc.c ****     }
 263              		.loc 1 229 0
 264 011c 0320     		movs	r0, #3
 265              		.loc 1 344 0
 266 011e F8BD     		pop	{r3, r4, r5, r6, r7, pc}
 267              	.L20:
 268              		.align	2
 269              	.L19:
 270 0120 00380240 		.word	1073887232
 271 0124 00300024 		.word	603992064
 272 0128 10300024 		.word	603992080
 273 012c 0024F400 		.word	16000000
 274 0130 00000000 		.word	SystemCoreClock
 275              		.cfi_endproc
 276              	.LFE138:
 278              		.section	.text.HAL_RCC_OscConfig,"ax",%progbits
 279              		.align	1
 280              		.p2align 2,,3
 281              		.global	HAL_RCC_OscConfig
 282              		.syntax unified
 283              		.thumb
 284              		.thumb_func
 285              		.fpu fpv4-sp-d16
 287              	HAL_RCC_OscConfig:
 288              	.LFB139:
 345:Drivers/STM32F7xx_HAL_Driver/Src/stm32f7xx_hal_rcc.c **** 
 346:Drivers/STM32F7xx_HAL_Driver/Src/stm32f7xx_hal_rcc.c **** /**
 347:Drivers/STM32F7xx_HAL_Driver/Src/stm32f7xx_hal_rcc.c ****   * @brief  Initializes the RCC Oscillators according to the specified parameters in the
 348:Drivers/STM32F7xx_HAL_Driver/Src/stm32f7xx_hal_rcc.c ****   *         RCC_OscInitTypeDef.
 349:Drivers/STM32F7xx_HAL_Driver/Src/stm32f7xx_hal_rcc.c ****   * @param  RCC_OscInitStruct pointer to an RCC_OscInitTypeDef structure that
 350:Drivers/STM32F7xx_HAL_Driver/Src/stm32f7xx_hal_rcc.c ****   *         contains the configuration information for the RCC Oscillators.
 351:Drivers/STM32F7xx_HAL_Driver/Src/stm32f7xx_hal_rcc.c ****   * @note   The PLL is not disabled when used as system clock.
 352:Drivers/STM32F7xx_HAL_Driver/Src/stm32f7xx_hal_rcc.c ****   * @note   Transitions LSE Bypass to LSE On and LSE On to LSE Bypass are not
 353:Drivers/STM32F7xx_HAL_Driver/Src/stm32f7xx_hal_rcc.c ****   *         supported by this function. User should request a transition to LSE Off
 354:Drivers/STM32F7xx_HAL_Driver/Src/stm32f7xx_hal_rcc.c ****   *         first and then LSE On or LSE Bypass.
 355:Drivers/STM32F7xx_HAL_Driver/Src/stm32f7xx_hal_rcc.c ****   * @note   Transition HSE Bypass to HSE On and HSE On to HSE Bypass are not
 356:Drivers/STM32F7xx_HAL_Driver/Src/stm32f7xx_hal_rcc.c ****   *         supported by this function. User should request a transition to HSE Off
 357:Drivers/STM32F7xx_HAL_Driver/Src/stm32f7xx_hal_rcc.c ****   *         first and then HSE On or HSE Bypass.
 358:Drivers/STM32F7xx_HAL_Driver/Src/stm32f7xx_hal_rcc.c ****   * @retval HAL status
 359:Drivers/STM32F7xx_HAL_Driver/Src/stm32f7xx_hal_rcc.c ****   */
 360:Drivers/STM32F7xx_HAL_Driver/Src/stm32f7xx_hal_rcc.c **** HAL_StatusTypeDef HAL_RCC_OscConfig(RCC_OscInitTypeDef  *RCC_OscInitStruct)
 361:Drivers/STM32F7xx_HAL_Driver/Src/stm32f7xx_hal_rcc.c **** {
 289              		.loc 1 361 0
 290              		.cfi_startproc
 291              		@ args = 0, pretend = 0, frame = 8
 292              		@ frame_needed = 0, uses_anonymous_args = 0
ARM GAS  /tmp/ccQLX8NK.s 			page 13


 293              	.LVL27:
 362:Drivers/STM32F7xx_HAL_Driver/Src/stm32f7xx_hal_rcc.c ****   uint32_t tickstart;
 363:Drivers/STM32F7xx_HAL_Driver/Src/stm32f7xx_hal_rcc.c ****   FlagStatus pwrclkchanged = RESET;
 364:Drivers/STM32F7xx_HAL_Driver/Src/stm32f7xx_hal_rcc.c **** 
 365:Drivers/STM32F7xx_HAL_Driver/Src/stm32f7xx_hal_rcc.c ****   /* Check Null pointer */
 366:Drivers/STM32F7xx_HAL_Driver/Src/stm32f7xx_hal_rcc.c ****   if(RCC_OscInitStruct == NULL)
 294              		.loc 1 366 0
 295 0000 0028     		cmp	r0, #0
 296 0002 00F03481 		beq	.L119
 367:Drivers/STM32F7xx_HAL_Driver/Src/stm32f7xx_hal_rcc.c ****   {
 368:Drivers/STM32F7xx_HAL_Driver/Src/stm32f7xx_hal_rcc.c ****     return HAL_ERROR;
 369:Drivers/STM32F7xx_HAL_Driver/Src/stm32f7xx_hal_rcc.c ****   }
 370:Drivers/STM32F7xx_HAL_Driver/Src/stm32f7xx_hal_rcc.c **** 
 371:Drivers/STM32F7xx_HAL_Driver/Src/stm32f7xx_hal_rcc.c ****   /* Check the parameters */
 372:Drivers/STM32F7xx_HAL_Driver/Src/stm32f7xx_hal_rcc.c ****   assert_param(IS_RCC_OSCILLATORTYPE(RCC_OscInitStruct->OscillatorType));
 373:Drivers/STM32F7xx_HAL_Driver/Src/stm32f7xx_hal_rcc.c **** 
 374:Drivers/STM32F7xx_HAL_Driver/Src/stm32f7xx_hal_rcc.c ****   /*------------------------------- HSE Configuration ------------------------*/
 375:Drivers/STM32F7xx_HAL_Driver/Src/stm32f7xx_hal_rcc.c ****   if(((RCC_OscInitStruct->OscillatorType) & RCC_OSCILLATORTYPE_HSE) == RCC_OSCILLATORTYPE_HSE)
 297              		.loc 1 375 0
 298 0006 0368     		ldr	r3, [r0]
 361:Drivers/STM32F7xx_HAL_Driver/Src/stm32f7xx_hal_rcc.c ****   uint32_t tickstart;
 299              		.loc 1 361 0
 300 0008 2DE9F041 		push	{r4, r5, r6, r7, r8, lr}
 301              	.LCFI1:
 302              		.cfi_def_cfa_offset 24
 303              		.cfi_offset 4, -24
 304              		.cfi_offset 5, -20
 305              		.cfi_offset 6, -16
 306              		.cfi_offset 7, -12
 307              		.cfi_offset 8, -8
 308              		.cfi_offset 14, -4
 309              		.loc 1 375 0
 310 000c DD07     		lsls	r5, r3, #31
 361:Drivers/STM32F7xx_HAL_Driver/Src/stm32f7xx_hal_rcc.c ****   uint32_t tickstart;
 311              		.loc 1 361 0
 312 000e 82B0     		sub	sp, sp, #8
 313              	.LCFI2:
 314              		.cfi_def_cfa_offset 32
 315 0010 0446     		mov	r4, r0
 316              		.loc 1 375 0
 317 0012 35D5     		bpl	.L24
 376:Drivers/STM32F7xx_HAL_Driver/Src/stm32f7xx_hal_rcc.c ****   {
 377:Drivers/STM32F7xx_HAL_Driver/Src/stm32f7xx_hal_rcc.c ****     /* Check the parameters */
 378:Drivers/STM32F7xx_HAL_Driver/Src/stm32f7xx_hal_rcc.c ****     assert_param(IS_RCC_HSE(RCC_OscInitStruct->HSEState));
 379:Drivers/STM32F7xx_HAL_Driver/Src/stm32f7xx_hal_rcc.c ****     /* When the HSE is used as system clock or clock source for PLL, It can not be disabled */
 380:Drivers/STM32F7xx_HAL_Driver/Src/stm32f7xx_hal_rcc.c ****     if((__HAL_RCC_GET_SYSCLK_SOURCE() == RCC_SYSCLKSOURCE_STATUS_HSE)
 318              		.loc 1 380 0
 319 0014 AB49     		ldr	r1, .L131
 320 0016 8A68     		ldr	r2, [r1, #8]
 321 0018 02F00C02 		and	r2, r2, #12
 322 001c 042A     		cmp	r2, #4
 323 001e 00F0FE80 		beq	.L25
 381:Drivers/STM32F7xx_HAL_Driver/Src/stm32f7xx_hal_rcc.c ****        || ((__HAL_RCC_GET_SYSCLK_SOURCE() == RCC_SYSCLKSOURCE_STATUS_PLLCLK) && ((RCC->PLLCFGR & RC
 324              		.loc 1 381 0
 325 0022 8A68     		ldr	r2, [r1, #8]
 326 0024 02F00C02 		and	r2, r2, #12
 327 0028 082A     		cmp	r2, #8
ARM GAS  /tmp/ccQLX8NK.s 			page 14


 328 002a 00F0F480 		beq	.L120
 329              	.LVL28:
 330              	.L26:
 382:Drivers/STM32F7xx_HAL_Driver/Src/stm32f7xx_hal_rcc.c ****     {
 383:Drivers/STM32F7xx_HAL_Driver/Src/stm32f7xx_hal_rcc.c ****       if((__HAL_RCC_GET_FLAG(RCC_FLAG_HSERDY) != RESET) && (RCC_OscInitStruct->HSEState == RCC_HSE_
 384:Drivers/STM32F7xx_HAL_Driver/Src/stm32f7xx_hal_rcc.c ****       {
 385:Drivers/STM32F7xx_HAL_Driver/Src/stm32f7xx_hal_rcc.c ****         return HAL_ERROR;
 386:Drivers/STM32F7xx_HAL_Driver/Src/stm32f7xx_hal_rcc.c ****       }
 387:Drivers/STM32F7xx_HAL_Driver/Src/stm32f7xx_hal_rcc.c ****     }
 388:Drivers/STM32F7xx_HAL_Driver/Src/stm32f7xx_hal_rcc.c ****     else
 389:Drivers/STM32F7xx_HAL_Driver/Src/stm32f7xx_hal_rcc.c ****     {
 390:Drivers/STM32F7xx_HAL_Driver/Src/stm32f7xx_hal_rcc.c ****       /* Set the new HSE configuration ---------------------------------------*/
 391:Drivers/STM32F7xx_HAL_Driver/Src/stm32f7xx_hal_rcc.c ****       __HAL_RCC_HSE_CONFIG(RCC_OscInitStruct->HSEState);
 331              		.loc 1 391 0
 332 002e 6368     		ldr	r3, [r4, #4]
 333 0030 B3F5803F 		cmp	r3, #65536
 334 0034 10D0     		beq	.L121
 335              		.loc 1 391 0 is_stmt 0 discriminator 2
 336 0036 002B     		cmp	r3, #0
 337 0038 00F01B81 		beq	.L122
 338              		.loc 1 391 0 discriminator 4
 339 003c B3F5A02F 		cmp	r3, #327680
 340 0040 A04B     		ldr	r3, .L131
 341 0042 1A68     		ldr	r2, [r3]
 342 0044 00F06281 		beq	.L123
 343              		.loc 1 391 0 discriminator 6
 344 0048 22F48032 		bic	r2, r2, #65536
 345 004c 1A60     		str	r2, [r3]
 346 004e 1A68     		ldr	r2, [r3]
 347 0050 22F48022 		bic	r2, r2, #262144
 348 0054 1A60     		str	r2, [r3]
 349 0056 04E0     		b	.L29
 350              	.L121:
 351              		.loc 1 391 0 discriminator 1
 352 0058 9A4A     		ldr	r2, .L131
 353 005a 1368     		ldr	r3, [r2]
 354 005c 43F48033 		orr	r3, r3, #65536
 355 0060 1360     		str	r3, [r2]
 356              	.L29:
 392:Drivers/STM32F7xx_HAL_Driver/Src/stm32f7xx_hal_rcc.c **** 
 393:Drivers/STM32F7xx_HAL_Driver/Src/stm32f7xx_hal_rcc.c ****       /* Check the HSE State */
 394:Drivers/STM32F7xx_HAL_Driver/Src/stm32f7xx_hal_rcc.c ****       if(RCC_OscInitStruct->HSEState != RCC_HSE_OFF)
 395:Drivers/STM32F7xx_HAL_Driver/Src/stm32f7xx_hal_rcc.c ****       {
 396:Drivers/STM32F7xx_HAL_Driver/Src/stm32f7xx_hal_rcc.c ****         /* Get Start Tick*/
 397:Drivers/STM32F7xx_HAL_Driver/Src/stm32f7xx_hal_rcc.c ****         tickstart = HAL_GetTick();
 357              		.loc 1 397 0 is_stmt 1
 358 0062 FFF7FEFF 		bl	HAL_GetTick
 359              	.LVL29:
 398:Drivers/STM32F7xx_HAL_Driver/Src/stm32f7xx_hal_rcc.c **** 
 399:Drivers/STM32F7xx_HAL_Driver/Src/stm32f7xx_hal_rcc.c ****         /* Wait till HSE is ready */
 400:Drivers/STM32F7xx_HAL_Driver/Src/stm32f7xx_hal_rcc.c ****         while(__HAL_RCC_GET_FLAG(RCC_FLAG_HSERDY) == RESET)
 360              		.loc 1 400 0
 361 0066 974D     		ldr	r5, .L131
 397:Drivers/STM32F7xx_HAL_Driver/Src/stm32f7xx_hal_rcc.c **** 
 362              		.loc 1 397 0
 363 0068 0646     		mov	r6, r0
 364              	.LVL30:
ARM GAS  /tmp/ccQLX8NK.s 			page 15


 365              		.loc 1 400 0
 366 006a 05E0     		b	.L33
 367              	.LVL31:
 368              	.L34:
 401:Drivers/STM32F7xx_HAL_Driver/Src/stm32f7xx_hal_rcc.c ****         {
 402:Drivers/STM32F7xx_HAL_Driver/Src/stm32f7xx_hal_rcc.c ****           if((HAL_GetTick() - tickstart ) > HSE_TIMEOUT_VALUE)
 369              		.loc 1 402 0
 370 006c FFF7FEFF 		bl	HAL_GetTick
 371              	.LVL32:
 372 0070 801B     		subs	r0, r0, r6
 373 0072 6428     		cmp	r0, #100
 374 0074 00F2EE80 		bhi	.L35
 375              	.L33:
 400:Drivers/STM32F7xx_HAL_Driver/Src/stm32f7xx_hal_rcc.c ****         {
 376              		.loc 1 400 0
 377 0078 2B68     		ldr	r3, [r5]
 378 007a 9A03     		lsls	r2, r3, #14
 379 007c F6D5     		bpl	.L34
 380              	.L117:
 381 007e 2368     		ldr	r3, [r4]
 382              	.LVL33:
 383              	.L24:
 403:Drivers/STM32F7xx_HAL_Driver/Src/stm32f7xx_hal_rcc.c ****           {
 404:Drivers/STM32F7xx_HAL_Driver/Src/stm32f7xx_hal_rcc.c ****             return HAL_TIMEOUT;
 405:Drivers/STM32F7xx_HAL_Driver/Src/stm32f7xx_hal_rcc.c ****           }
 406:Drivers/STM32F7xx_HAL_Driver/Src/stm32f7xx_hal_rcc.c ****         }
 407:Drivers/STM32F7xx_HAL_Driver/Src/stm32f7xx_hal_rcc.c ****       }
 408:Drivers/STM32F7xx_HAL_Driver/Src/stm32f7xx_hal_rcc.c ****       else
 409:Drivers/STM32F7xx_HAL_Driver/Src/stm32f7xx_hal_rcc.c ****       {
 410:Drivers/STM32F7xx_HAL_Driver/Src/stm32f7xx_hal_rcc.c ****         /* Get Start Tick*/
 411:Drivers/STM32F7xx_HAL_Driver/Src/stm32f7xx_hal_rcc.c ****         tickstart = HAL_GetTick();
 412:Drivers/STM32F7xx_HAL_Driver/Src/stm32f7xx_hal_rcc.c **** 
 413:Drivers/STM32F7xx_HAL_Driver/Src/stm32f7xx_hal_rcc.c ****         /* Wait till HSE is bypassed or disabled */
 414:Drivers/STM32F7xx_HAL_Driver/Src/stm32f7xx_hal_rcc.c ****         while(__HAL_RCC_GET_FLAG(RCC_FLAG_HSERDY) != RESET)
 415:Drivers/STM32F7xx_HAL_Driver/Src/stm32f7xx_hal_rcc.c ****         {
 416:Drivers/STM32F7xx_HAL_Driver/Src/stm32f7xx_hal_rcc.c ****            if((HAL_GetTick() - tickstart ) > HSE_TIMEOUT_VALUE)
 417:Drivers/STM32F7xx_HAL_Driver/Src/stm32f7xx_hal_rcc.c ****           {
 418:Drivers/STM32F7xx_HAL_Driver/Src/stm32f7xx_hal_rcc.c ****             return HAL_TIMEOUT;
 419:Drivers/STM32F7xx_HAL_Driver/Src/stm32f7xx_hal_rcc.c ****           }
 420:Drivers/STM32F7xx_HAL_Driver/Src/stm32f7xx_hal_rcc.c ****         }
 421:Drivers/STM32F7xx_HAL_Driver/Src/stm32f7xx_hal_rcc.c ****       }
 422:Drivers/STM32F7xx_HAL_Driver/Src/stm32f7xx_hal_rcc.c ****     }
 423:Drivers/STM32F7xx_HAL_Driver/Src/stm32f7xx_hal_rcc.c ****   }
 424:Drivers/STM32F7xx_HAL_Driver/Src/stm32f7xx_hal_rcc.c ****   /*----------------------------- HSI Configuration --------------------------*/
 425:Drivers/STM32F7xx_HAL_Driver/Src/stm32f7xx_hal_rcc.c ****   if(((RCC_OscInitStruct->OscillatorType) & RCC_OSCILLATORTYPE_HSI) == RCC_OSCILLATORTYPE_HSI)
 384              		.loc 1 425 0
 385 0080 9F07     		lsls	r7, r3, #30
 386 0082 42D4     		bmi	.L124
 387              	.L37:
 426:Drivers/STM32F7xx_HAL_Driver/Src/stm32f7xx_hal_rcc.c ****   {
 427:Drivers/STM32F7xx_HAL_Driver/Src/stm32f7xx_hal_rcc.c ****     /* Check the parameters */
 428:Drivers/STM32F7xx_HAL_Driver/Src/stm32f7xx_hal_rcc.c ****     assert_param(IS_RCC_HSI(RCC_OscInitStruct->HSIState));
 429:Drivers/STM32F7xx_HAL_Driver/Src/stm32f7xx_hal_rcc.c ****     assert_param(IS_RCC_CALIBRATION_VALUE(RCC_OscInitStruct->HSICalibrationValue));
 430:Drivers/STM32F7xx_HAL_Driver/Src/stm32f7xx_hal_rcc.c **** 
 431:Drivers/STM32F7xx_HAL_Driver/Src/stm32f7xx_hal_rcc.c ****     /* Check if HSI is used as system clock or as PLL source when PLL is selected as system clock *
 432:Drivers/STM32F7xx_HAL_Driver/Src/stm32f7xx_hal_rcc.c ****     if((__HAL_RCC_GET_SYSCLK_SOURCE() == RCC_SYSCLKSOURCE_STATUS_HSI)
 433:Drivers/STM32F7xx_HAL_Driver/Src/stm32f7xx_hal_rcc.c ****        || ((__HAL_RCC_GET_SYSCLK_SOURCE() == RCC_SYSCLKSOURCE_STATUS_PLLCLK) && ((RCC->PLLCFGR & RC
ARM GAS  /tmp/ccQLX8NK.s 			page 16


 434:Drivers/STM32F7xx_HAL_Driver/Src/stm32f7xx_hal_rcc.c ****     {
 435:Drivers/STM32F7xx_HAL_Driver/Src/stm32f7xx_hal_rcc.c ****       /* When HSI is used as system clock it will not disabled */
 436:Drivers/STM32F7xx_HAL_Driver/Src/stm32f7xx_hal_rcc.c ****       if((__HAL_RCC_GET_FLAG(RCC_FLAG_HSIRDY) != RESET) && (RCC_OscInitStruct->HSIState != RCC_HSI_
 437:Drivers/STM32F7xx_HAL_Driver/Src/stm32f7xx_hal_rcc.c ****       {
 438:Drivers/STM32F7xx_HAL_Driver/Src/stm32f7xx_hal_rcc.c ****         return HAL_ERROR;
 439:Drivers/STM32F7xx_HAL_Driver/Src/stm32f7xx_hal_rcc.c ****       }
 440:Drivers/STM32F7xx_HAL_Driver/Src/stm32f7xx_hal_rcc.c ****       /* Otherwise, just the calibration is allowed */
 441:Drivers/STM32F7xx_HAL_Driver/Src/stm32f7xx_hal_rcc.c ****       else
 442:Drivers/STM32F7xx_HAL_Driver/Src/stm32f7xx_hal_rcc.c ****       {
 443:Drivers/STM32F7xx_HAL_Driver/Src/stm32f7xx_hal_rcc.c ****         /* Adjusts the Internal High Speed oscillator (HSI) calibration value.*/
 444:Drivers/STM32F7xx_HAL_Driver/Src/stm32f7xx_hal_rcc.c ****         __HAL_RCC_HSI_CALIBRATIONVALUE_ADJUST(RCC_OscInitStruct->HSICalibrationValue);
 445:Drivers/STM32F7xx_HAL_Driver/Src/stm32f7xx_hal_rcc.c ****       }
 446:Drivers/STM32F7xx_HAL_Driver/Src/stm32f7xx_hal_rcc.c ****     }
 447:Drivers/STM32F7xx_HAL_Driver/Src/stm32f7xx_hal_rcc.c ****     else
 448:Drivers/STM32F7xx_HAL_Driver/Src/stm32f7xx_hal_rcc.c ****     {
 449:Drivers/STM32F7xx_HAL_Driver/Src/stm32f7xx_hal_rcc.c ****       /* Check the HSI State */
 450:Drivers/STM32F7xx_HAL_Driver/Src/stm32f7xx_hal_rcc.c ****       if((RCC_OscInitStruct->HSIState)!= RCC_HSI_OFF)
 451:Drivers/STM32F7xx_HAL_Driver/Src/stm32f7xx_hal_rcc.c ****       {
 452:Drivers/STM32F7xx_HAL_Driver/Src/stm32f7xx_hal_rcc.c ****         /* Enable the Internal High Speed oscillator (HSI). */
 453:Drivers/STM32F7xx_HAL_Driver/Src/stm32f7xx_hal_rcc.c ****         __HAL_RCC_HSI_ENABLE();
 454:Drivers/STM32F7xx_HAL_Driver/Src/stm32f7xx_hal_rcc.c **** 
 455:Drivers/STM32F7xx_HAL_Driver/Src/stm32f7xx_hal_rcc.c ****         /* Get Start Tick*/
 456:Drivers/STM32F7xx_HAL_Driver/Src/stm32f7xx_hal_rcc.c ****         tickstart = HAL_GetTick();
 457:Drivers/STM32F7xx_HAL_Driver/Src/stm32f7xx_hal_rcc.c **** 
 458:Drivers/STM32F7xx_HAL_Driver/Src/stm32f7xx_hal_rcc.c ****         /* Wait till HSI is ready */
 459:Drivers/STM32F7xx_HAL_Driver/Src/stm32f7xx_hal_rcc.c ****         while(__HAL_RCC_GET_FLAG(RCC_FLAG_HSIRDY) == RESET)
 460:Drivers/STM32F7xx_HAL_Driver/Src/stm32f7xx_hal_rcc.c ****         {
 461:Drivers/STM32F7xx_HAL_Driver/Src/stm32f7xx_hal_rcc.c ****           if((HAL_GetTick() - tickstart ) > HSI_TIMEOUT_VALUE)
 462:Drivers/STM32F7xx_HAL_Driver/Src/stm32f7xx_hal_rcc.c ****           {
 463:Drivers/STM32F7xx_HAL_Driver/Src/stm32f7xx_hal_rcc.c ****             return HAL_TIMEOUT;
 464:Drivers/STM32F7xx_HAL_Driver/Src/stm32f7xx_hal_rcc.c ****           }
 465:Drivers/STM32F7xx_HAL_Driver/Src/stm32f7xx_hal_rcc.c ****         }
 466:Drivers/STM32F7xx_HAL_Driver/Src/stm32f7xx_hal_rcc.c **** 
 467:Drivers/STM32F7xx_HAL_Driver/Src/stm32f7xx_hal_rcc.c ****         /* Adjusts the Internal High Speed oscillator (HSI) calibration value.*/
 468:Drivers/STM32F7xx_HAL_Driver/Src/stm32f7xx_hal_rcc.c ****         __HAL_RCC_HSI_CALIBRATIONVALUE_ADJUST(RCC_OscInitStruct->HSICalibrationValue);
 469:Drivers/STM32F7xx_HAL_Driver/Src/stm32f7xx_hal_rcc.c ****       }
 470:Drivers/STM32F7xx_HAL_Driver/Src/stm32f7xx_hal_rcc.c ****       else
 471:Drivers/STM32F7xx_HAL_Driver/Src/stm32f7xx_hal_rcc.c ****       {
 472:Drivers/STM32F7xx_HAL_Driver/Src/stm32f7xx_hal_rcc.c ****         /* Disable the Internal High Speed oscillator (HSI). */
 473:Drivers/STM32F7xx_HAL_Driver/Src/stm32f7xx_hal_rcc.c ****         __HAL_RCC_HSI_DISABLE();
 474:Drivers/STM32F7xx_HAL_Driver/Src/stm32f7xx_hal_rcc.c **** 
 475:Drivers/STM32F7xx_HAL_Driver/Src/stm32f7xx_hal_rcc.c ****         /* Get Start Tick*/
 476:Drivers/STM32F7xx_HAL_Driver/Src/stm32f7xx_hal_rcc.c ****         tickstart = HAL_GetTick();
 477:Drivers/STM32F7xx_HAL_Driver/Src/stm32f7xx_hal_rcc.c **** 
 478:Drivers/STM32F7xx_HAL_Driver/Src/stm32f7xx_hal_rcc.c ****         /* Wait till HSI is ready */
 479:Drivers/STM32F7xx_HAL_Driver/Src/stm32f7xx_hal_rcc.c ****         while(__HAL_RCC_GET_FLAG(RCC_FLAG_HSIRDY) != RESET)
 480:Drivers/STM32F7xx_HAL_Driver/Src/stm32f7xx_hal_rcc.c ****         {
 481:Drivers/STM32F7xx_HAL_Driver/Src/stm32f7xx_hal_rcc.c ****           if((HAL_GetTick() - tickstart ) > HSI_TIMEOUT_VALUE)
 482:Drivers/STM32F7xx_HAL_Driver/Src/stm32f7xx_hal_rcc.c ****           {
 483:Drivers/STM32F7xx_HAL_Driver/Src/stm32f7xx_hal_rcc.c ****             return HAL_TIMEOUT;
 484:Drivers/STM32F7xx_HAL_Driver/Src/stm32f7xx_hal_rcc.c ****           }
 485:Drivers/STM32F7xx_HAL_Driver/Src/stm32f7xx_hal_rcc.c ****         }
 486:Drivers/STM32F7xx_HAL_Driver/Src/stm32f7xx_hal_rcc.c ****       }
 487:Drivers/STM32F7xx_HAL_Driver/Src/stm32f7xx_hal_rcc.c ****     }
 488:Drivers/STM32F7xx_HAL_Driver/Src/stm32f7xx_hal_rcc.c ****   }
 489:Drivers/STM32F7xx_HAL_Driver/Src/stm32f7xx_hal_rcc.c ****   /*------------------------------ LSI Configuration -------------------------*/
 490:Drivers/STM32F7xx_HAL_Driver/Src/stm32f7xx_hal_rcc.c ****   if(((RCC_OscInitStruct->OscillatorType) & RCC_OSCILLATORTYPE_LSI) == RCC_OSCILLATORTYPE_LSI)
ARM GAS  /tmp/ccQLX8NK.s 			page 17


 388              		.loc 1 490 0
 389 0084 1A07     		lsls	r2, r3, #28
 390 0086 17D5     		bpl	.L46
 491:Drivers/STM32F7xx_HAL_Driver/Src/stm32f7xx_hal_rcc.c ****   {
 492:Drivers/STM32F7xx_HAL_Driver/Src/stm32f7xx_hal_rcc.c ****     /* Check the parameters */
 493:Drivers/STM32F7xx_HAL_Driver/Src/stm32f7xx_hal_rcc.c ****     assert_param(IS_RCC_LSI(RCC_OscInitStruct->LSIState));
 494:Drivers/STM32F7xx_HAL_Driver/Src/stm32f7xx_hal_rcc.c **** 
 495:Drivers/STM32F7xx_HAL_Driver/Src/stm32f7xx_hal_rcc.c ****     /* Check the LSI State */
 496:Drivers/STM32F7xx_HAL_Driver/Src/stm32f7xx_hal_rcc.c ****     if((RCC_OscInitStruct->LSIState)!= RCC_LSI_OFF)
 391              		.loc 1 496 0
 392 0088 6369     		ldr	r3, [r4, #20]
 393 008a 002B     		cmp	r3, #0
 394 008c 00F0B080 		beq	.L47
 497:Drivers/STM32F7xx_HAL_Driver/Src/stm32f7xx_hal_rcc.c ****     {
 498:Drivers/STM32F7xx_HAL_Driver/Src/stm32f7xx_hal_rcc.c ****       /* Enable the Internal Low Speed oscillator (LSI). */
 499:Drivers/STM32F7xx_HAL_Driver/Src/stm32f7xx_hal_rcc.c ****       __HAL_RCC_LSI_ENABLE();
 395              		.loc 1 499 0
 396 0090 8C4B     		ldr	r3, .L131
 397 0092 5A6F     		ldr	r2, [r3, #116]
 500:Drivers/STM32F7xx_HAL_Driver/Src/stm32f7xx_hal_rcc.c **** 
 501:Drivers/STM32F7xx_HAL_Driver/Src/stm32f7xx_hal_rcc.c ****       /* Get Start Tick*/
 502:Drivers/STM32F7xx_HAL_Driver/Src/stm32f7xx_hal_rcc.c ****       tickstart = HAL_GetTick();
 503:Drivers/STM32F7xx_HAL_Driver/Src/stm32f7xx_hal_rcc.c **** 
 504:Drivers/STM32F7xx_HAL_Driver/Src/stm32f7xx_hal_rcc.c ****       /* Wait till LSI is ready */
 505:Drivers/STM32F7xx_HAL_Driver/Src/stm32f7xx_hal_rcc.c ****       while(__HAL_RCC_GET_FLAG(RCC_FLAG_LSIRDY) == RESET)
 398              		.loc 1 505 0
 399 0094 1D46     		mov	r5, r3
 499:Drivers/STM32F7xx_HAL_Driver/Src/stm32f7xx_hal_rcc.c **** 
 400              		.loc 1 499 0
 401 0096 42F00102 		orr	r2, r2, #1
 402 009a 5A67     		str	r2, [r3, #116]
 502:Drivers/STM32F7xx_HAL_Driver/Src/stm32f7xx_hal_rcc.c **** 
 403              		.loc 1 502 0
 404 009c FFF7FEFF 		bl	HAL_GetTick
 405              	.LVL34:
 406 00a0 0646     		mov	r6, r0
 407              	.LVL35:
 408              		.loc 1 505 0
 409 00a2 05E0     		b	.L48
 410              	.LVL36:
 411              	.L49:
 506:Drivers/STM32F7xx_HAL_Driver/Src/stm32f7xx_hal_rcc.c ****       {
 507:Drivers/STM32F7xx_HAL_Driver/Src/stm32f7xx_hal_rcc.c ****         if((HAL_GetTick() - tickstart ) > LSI_TIMEOUT_VALUE)
 412              		.loc 1 507 0
 413 00a4 FFF7FEFF 		bl	HAL_GetTick
 414              	.LVL37:
 415 00a8 801B     		subs	r0, r0, r6
 416 00aa 0228     		cmp	r0, #2
 417 00ac 00F2D280 		bhi	.L35
 418              	.L48:
 505:Drivers/STM32F7xx_HAL_Driver/Src/stm32f7xx_hal_rcc.c ****       {
 419              		.loc 1 505 0
 420 00b0 6B6F     		ldr	r3, [r5, #116]
 421 00b2 9B07     		lsls	r3, r3, #30
 422 00b4 F6D5     		bpl	.L49
 423              	.L118:
 424 00b6 2368     		ldr	r3, [r4]
ARM GAS  /tmp/ccQLX8NK.s 			page 18


 425              	.LVL38:
 426              	.L46:
 508:Drivers/STM32F7xx_HAL_Driver/Src/stm32f7xx_hal_rcc.c ****         {
 509:Drivers/STM32F7xx_HAL_Driver/Src/stm32f7xx_hal_rcc.c ****           return HAL_TIMEOUT;
 510:Drivers/STM32F7xx_HAL_Driver/Src/stm32f7xx_hal_rcc.c ****         }
 511:Drivers/STM32F7xx_HAL_Driver/Src/stm32f7xx_hal_rcc.c ****       }
 512:Drivers/STM32F7xx_HAL_Driver/Src/stm32f7xx_hal_rcc.c ****     }
 513:Drivers/STM32F7xx_HAL_Driver/Src/stm32f7xx_hal_rcc.c ****     else
 514:Drivers/STM32F7xx_HAL_Driver/Src/stm32f7xx_hal_rcc.c ****     {
 515:Drivers/STM32F7xx_HAL_Driver/Src/stm32f7xx_hal_rcc.c ****       /* Disable the Internal Low Speed oscillator (LSI). */
 516:Drivers/STM32F7xx_HAL_Driver/Src/stm32f7xx_hal_rcc.c ****       __HAL_RCC_LSI_DISABLE();
 517:Drivers/STM32F7xx_HAL_Driver/Src/stm32f7xx_hal_rcc.c **** 
 518:Drivers/STM32F7xx_HAL_Driver/Src/stm32f7xx_hal_rcc.c ****       /* Get Start Tick*/
 519:Drivers/STM32F7xx_HAL_Driver/Src/stm32f7xx_hal_rcc.c ****       tickstart = HAL_GetTick();
 520:Drivers/STM32F7xx_HAL_Driver/Src/stm32f7xx_hal_rcc.c **** 
 521:Drivers/STM32F7xx_HAL_Driver/Src/stm32f7xx_hal_rcc.c ****       /* Wait till LSI is ready */
 522:Drivers/STM32F7xx_HAL_Driver/Src/stm32f7xx_hal_rcc.c ****       while(__HAL_RCC_GET_FLAG(RCC_FLAG_LSIRDY) != RESET)
 523:Drivers/STM32F7xx_HAL_Driver/Src/stm32f7xx_hal_rcc.c ****       {
 524:Drivers/STM32F7xx_HAL_Driver/Src/stm32f7xx_hal_rcc.c ****         if((HAL_GetTick() - tickstart ) > LSI_TIMEOUT_VALUE)
 525:Drivers/STM32F7xx_HAL_Driver/Src/stm32f7xx_hal_rcc.c ****         {
 526:Drivers/STM32F7xx_HAL_Driver/Src/stm32f7xx_hal_rcc.c ****           return HAL_TIMEOUT;
 527:Drivers/STM32F7xx_HAL_Driver/Src/stm32f7xx_hal_rcc.c ****         }
 528:Drivers/STM32F7xx_HAL_Driver/Src/stm32f7xx_hal_rcc.c ****       }
 529:Drivers/STM32F7xx_HAL_Driver/Src/stm32f7xx_hal_rcc.c ****     }
 530:Drivers/STM32F7xx_HAL_Driver/Src/stm32f7xx_hal_rcc.c ****   }
 531:Drivers/STM32F7xx_HAL_Driver/Src/stm32f7xx_hal_rcc.c ****   /*------------------------------ LSE Configuration -------------------------*/
 532:Drivers/STM32F7xx_HAL_Driver/Src/stm32f7xx_hal_rcc.c ****   if(((RCC_OscInitStruct->OscillatorType) & RCC_OSCILLATORTYPE_LSE) == RCC_OSCILLATORTYPE_LSE)
 427              		.loc 1 532 0
 428 00b8 5D07     		lsls	r5, r3, #29
 429 00ba 6BD5     		bpl	.L53
 533:Drivers/STM32F7xx_HAL_Driver/Src/stm32f7xx_hal_rcc.c ****   {
 534:Drivers/STM32F7xx_HAL_Driver/Src/stm32f7xx_hal_rcc.c ****     /* Check the parameters */
 535:Drivers/STM32F7xx_HAL_Driver/Src/stm32f7xx_hal_rcc.c ****     assert_param(IS_RCC_LSE(RCC_OscInitStruct->LSEState));
 536:Drivers/STM32F7xx_HAL_Driver/Src/stm32f7xx_hal_rcc.c **** 
 537:Drivers/STM32F7xx_HAL_Driver/Src/stm32f7xx_hal_rcc.c ****     /* Update LSE configuration in Backup Domain control register    */
 538:Drivers/STM32F7xx_HAL_Driver/Src/stm32f7xx_hal_rcc.c ****     /* Requires to enable write access to Backup Domain of necessary */
 539:Drivers/STM32F7xx_HAL_Driver/Src/stm32f7xx_hal_rcc.c ****     if(__HAL_RCC_PWR_IS_CLK_DISABLED())
 430              		.loc 1 539 0
 431 00bc 814B     		ldr	r3, .L131
 432 00be 1A6C     		ldr	r2, [r3, #64]
 433 00c0 D000     		lsls	r0, r2, #3
 434 00c2 00F1ED80 		bmi	.L80
 435              	.LBB6:
 540:Drivers/STM32F7xx_HAL_Driver/Src/stm32f7xx_hal_rcc.c ****     {
 541:Drivers/STM32F7xx_HAL_Driver/Src/stm32f7xx_hal_rcc.c ****       /* Enable Power Clock*/
 542:Drivers/STM32F7xx_HAL_Driver/Src/stm32f7xx_hal_rcc.c ****       __HAL_RCC_PWR_CLK_ENABLE();
 436              		.loc 1 542 0
 437 00c6 1A6C     		ldr	r2, [r3, #64]
 438              	.LBE6:
 543:Drivers/STM32F7xx_HAL_Driver/Src/stm32f7xx_hal_rcc.c ****       pwrclkchanged = SET;
 439              		.loc 1 543 0
 440 00c8 0125     		movs	r5, #1
 441              	.LBB7:
 542:Drivers/STM32F7xx_HAL_Driver/Src/stm32f7xx_hal_rcc.c ****       pwrclkchanged = SET;
 442              		.loc 1 542 0
 443 00ca 42F08052 		orr	r2, r2, #268435456
 444 00ce 1A64     		str	r2, [r3, #64]
ARM GAS  /tmp/ccQLX8NK.s 			page 19


 445 00d0 1B6C     		ldr	r3, [r3, #64]
 446 00d2 03F08053 		and	r3, r3, #268435456
 447 00d6 0193     		str	r3, [sp, #4]
 448 00d8 019B     		ldr	r3, [sp, #4]
 449              	.LVL39:
 450              	.L54:
 451              	.LBE7:
 544:Drivers/STM32F7xx_HAL_Driver/Src/stm32f7xx_hal_rcc.c ****     }
 545:Drivers/STM32F7xx_HAL_Driver/Src/stm32f7xx_hal_rcc.c **** 
 546:Drivers/STM32F7xx_HAL_Driver/Src/stm32f7xx_hal_rcc.c ****     if(HAL_IS_BIT_CLR(PWR->CR1, PWR_CR1_DBP))
 452              		.loc 1 546 0
 453 00da 7B4B     		ldr	r3, .L131+4
 454 00dc 1A68     		ldr	r2, [r3]
 455 00de D105     		lsls	r1, r2, #23
 456 00e0 40F1A780 		bpl	.L55
 457              	.L60:
 547:Drivers/STM32F7xx_HAL_Driver/Src/stm32f7xx_hal_rcc.c ****     {
 548:Drivers/STM32F7xx_HAL_Driver/Src/stm32f7xx_hal_rcc.c ****       /* Enable write access to Backup domain */
 549:Drivers/STM32F7xx_HAL_Driver/Src/stm32f7xx_hal_rcc.c ****       PWR->CR1 |= PWR_CR1_DBP;
 550:Drivers/STM32F7xx_HAL_Driver/Src/stm32f7xx_hal_rcc.c **** 
 551:Drivers/STM32F7xx_HAL_Driver/Src/stm32f7xx_hal_rcc.c ****       /* Wait for Backup domain Write protection disable */
 552:Drivers/STM32F7xx_HAL_Driver/Src/stm32f7xx_hal_rcc.c ****       tickstart = HAL_GetTick();
 553:Drivers/STM32F7xx_HAL_Driver/Src/stm32f7xx_hal_rcc.c **** 
 554:Drivers/STM32F7xx_HAL_Driver/Src/stm32f7xx_hal_rcc.c ****       while(HAL_IS_BIT_CLR(PWR->CR1, PWR_CR1_DBP))
 555:Drivers/STM32F7xx_HAL_Driver/Src/stm32f7xx_hal_rcc.c ****       {
 556:Drivers/STM32F7xx_HAL_Driver/Src/stm32f7xx_hal_rcc.c ****         if((HAL_GetTick() - tickstart ) > RCC_DBP_TIMEOUT_VALUE)
 557:Drivers/STM32F7xx_HAL_Driver/Src/stm32f7xx_hal_rcc.c ****         {
 558:Drivers/STM32F7xx_HAL_Driver/Src/stm32f7xx_hal_rcc.c ****           return HAL_TIMEOUT;
 559:Drivers/STM32F7xx_HAL_Driver/Src/stm32f7xx_hal_rcc.c ****         }
 560:Drivers/STM32F7xx_HAL_Driver/Src/stm32f7xx_hal_rcc.c ****       }
 561:Drivers/STM32F7xx_HAL_Driver/Src/stm32f7xx_hal_rcc.c ****     }
 562:Drivers/STM32F7xx_HAL_Driver/Src/stm32f7xx_hal_rcc.c **** 
 563:Drivers/STM32F7xx_HAL_Driver/Src/stm32f7xx_hal_rcc.c ****     /* Set the new LSE configuration -----------------------------------------*/
 564:Drivers/STM32F7xx_HAL_Driver/Src/stm32f7xx_hal_rcc.c ****     __HAL_RCC_LSE_CONFIG(RCC_OscInitStruct->LSEState);
 458              		.loc 1 564 0
 459 00e4 A368     		ldr	r3, [r4, #8]
 460 00e6 012B     		cmp	r3, #1
 461 00e8 39D0     		beq	.L125
 462              		.loc 1 564 0 is_stmt 0 discriminator 2
 463 00ea 002B     		cmp	r3, #0
 464 00ec 00F0DA80 		beq	.L126
 465              		.loc 1 564 0 discriminator 4
 466 00f0 052B     		cmp	r3, #5
 467 00f2 744B     		ldr	r3, .L131
 468 00f4 1A6F     		ldr	r2, [r3, #112]
 469 00f6 00F01181 		beq	.L127
 470              		.loc 1 564 0 discriminator 6
 471 00fa 22F00102 		bic	r2, r2, #1
 472 00fe 1A67     		str	r2, [r3, #112]
 473 0100 1A6F     		ldr	r2, [r3, #112]
 474 0102 22F00402 		bic	r2, r2, #4
 475 0106 1A67     		str	r2, [r3, #112]
 476 0108 2EE0     		b	.L61
 477              	.LVL40:
 478              	.L124:
 432:Drivers/STM32F7xx_HAL_Driver/Src/stm32f7xx_hal_rcc.c ****        || ((__HAL_RCC_GET_SYSCLK_SOURCE() == RCC_SYSCLKSOURCE_STATUS_PLLCLK) && ((RCC->PLLCFGR & RC
 479              		.loc 1 432 0 is_stmt 1
ARM GAS  /tmp/ccQLX8NK.s 			page 20


 480 010a 6E4A     		ldr	r2, .L131
 481 010c 9168     		ldr	r1, [r2, #8]
 482 010e 11F00C0F 		tst	r1, #12
 483 0112 62D0     		beq	.L38
 433:Drivers/STM32F7xx_HAL_Driver/Src/stm32f7xx_hal_rcc.c ****     {
 484              		.loc 1 433 0
 485 0114 9168     		ldr	r1, [r2, #8]
 486 0116 01F00C01 		and	r1, r1, #12
 487 011a 0829     		cmp	r1, #8
 488 011c 5AD0     		beq	.L128
 489              	.L39:
 450:Drivers/STM32F7xx_HAL_Driver/Src/stm32f7xx_hal_rcc.c ****       {
 490              		.loc 1 450 0
 491 011e E368     		ldr	r3, [r4, #12]
 492 0120 002B     		cmp	r3, #0
 493 0122 00F0DF80 		beq	.L41
 453:Drivers/STM32F7xx_HAL_Driver/Src/stm32f7xx_hal_rcc.c **** 
 494              		.loc 1 453 0
 495 0126 674B     		ldr	r3, .L131
 496 0128 1A68     		ldr	r2, [r3]
 459:Drivers/STM32F7xx_HAL_Driver/Src/stm32f7xx_hal_rcc.c ****         {
 497              		.loc 1 459 0
 498 012a 1D46     		mov	r5, r3
 453:Drivers/STM32F7xx_HAL_Driver/Src/stm32f7xx_hal_rcc.c **** 
 499              		.loc 1 453 0
 500 012c 42F00102 		orr	r2, r2, #1
 501 0130 1A60     		str	r2, [r3]
 456:Drivers/STM32F7xx_HAL_Driver/Src/stm32f7xx_hal_rcc.c **** 
 502              		.loc 1 456 0
 503 0132 FFF7FEFF 		bl	HAL_GetTick
 504              	.LVL41:
 505 0136 0646     		mov	r6, r0
 506              	.LVL42:
 459:Drivers/STM32F7xx_HAL_Driver/Src/stm32f7xx_hal_rcc.c ****         {
 507              		.loc 1 459 0
 508 0138 05E0     		b	.L42
 509              	.LVL43:
 510              	.L43:
 461:Drivers/STM32F7xx_HAL_Driver/Src/stm32f7xx_hal_rcc.c ****           {
 511              		.loc 1 461 0
 512 013a FFF7FEFF 		bl	HAL_GetTick
 513              	.LVL44:
 514 013e 801B     		subs	r0, r0, r6
 515 0140 0228     		cmp	r0, #2
 516 0142 00F28780 		bhi	.L35
 517              	.L42:
 459:Drivers/STM32F7xx_HAL_Driver/Src/stm32f7xx_hal_rcc.c ****         {
 518              		.loc 1 459 0
 519 0146 2B68     		ldr	r3, [r5]
 520 0148 9807     		lsls	r0, r3, #30
 521 014a F6D5     		bpl	.L43
 468:Drivers/STM32F7xx_HAL_Driver/Src/stm32f7xx_hal_rcc.c ****       }
 522              		.loc 1 468 0
 523 014c 2B68     		ldr	r3, [r5]
 524 014e 2269     		ldr	r2, [r4, #16]
 525 0150 23F0F803 		bic	r3, r3, #248
 526 0154 43EAC203 		orr	r3, r3, r2, lsl #3
ARM GAS  /tmp/ccQLX8NK.s 			page 21


 527 0158 2B60     		str	r3, [r5]
 528 015a 2368     		ldr	r3, [r4]
 529 015c 92E7     		b	.L37
 530              	.LVL45:
 531              	.L125:
 532              		.loc 1 564 0 discriminator 1
 533 015e 594A     		ldr	r2, .L131
 534 0160 136F     		ldr	r3, [r2, #112]
 535 0162 43F00103 		orr	r3, r3, #1
 536 0166 1367     		str	r3, [r2, #112]
 537              	.L61:
 565:Drivers/STM32F7xx_HAL_Driver/Src/stm32f7xx_hal_rcc.c ****     /* Check the LSE State */
 566:Drivers/STM32F7xx_HAL_Driver/Src/stm32f7xx_hal_rcc.c ****     if((RCC_OscInitStruct->LSEState) != RCC_LSE_OFF)
 567:Drivers/STM32F7xx_HAL_Driver/Src/stm32f7xx_hal_rcc.c ****     {
 568:Drivers/STM32F7xx_HAL_Driver/Src/stm32f7xx_hal_rcc.c ****       /* Get Start Tick*/
 569:Drivers/STM32F7xx_HAL_Driver/Src/stm32f7xx_hal_rcc.c ****       tickstart = HAL_GetTick();
 538              		.loc 1 569 0
 539 0168 FFF7FEFF 		bl	HAL_GetTick
 540              	.LVL46:
 570:Drivers/STM32F7xx_HAL_Driver/Src/stm32f7xx_hal_rcc.c **** 
 571:Drivers/STM32F7xx_HAL_Driver/Src/stm32f7xx_hal_rcc.c ****       /* Wait till LSE is ready */
 572:Drivers/STM32F7xx_HAL_Driver/Src/stm32f7xx_hal_rcc.c ****       while(__HAL_RCC_GET_FLAG(RCC_FLAG_LSERDY) == RESET)
 541              		.loc 1 572 0
 542 016c 554E     		ldr	r6, .L131
 569:Drivers/STM32F7xx_HAL_Driver/Src/stm32f7xx_hal_rcc.c **** 
 543              		.loc 1 569 0
 544 016e 8046     		mov	r8, r0
 545              	.LVL47:
 573:Drivers/STM32F7xx_HAL_Driver/Src/stm32f7xx_hal_rcc.c ****       {
 574:Drivers/STM32F7xx_HAL_Driver/Src/stm32f7xx_hal_rcc.c ****         if((HAL_GetTick() - tickstart ) > RCC_LSE_TIMEOUT_VALUE)
 546              		.loc 1 574 0
 547 0170 41F28837 		movw	r7, #5000
 572:Drivers/STM32F7xx_HAL_Driver/Src/stm32f7xx_hal_rcc.c ****       {
 548              		.loc 1 572 0
 549 0174 05E0     		b	.L79
 550              	.LVL48:
 551              	.L65:
 552              		.loc 1 574 0
 553 0176 FFF7FEFF 		bl	HAL_GetTick
 554              	.LVL49:
 555 017a A0EB0800 		sub	r0, r0, r8
 556 017e B842     		cmp	r0, r7
 557 0180 68D8     		bhi	.L35
 558              	.L79:
 572:Drivers/STM32F7xx_HAL_Driver/Src/stm32f7xx_hal_rcc.c ****       {
 559              		.loc 1 572 0
 560 0182 336F     		ldr	r3, [r6, #112]
 561 0184 9B07     		lsls	r3, r3, #30
 562 0186 F6D5     		bpl	.L65
 575:Drivers/STM32F7xx_HAL_Driver/Src/stm32f7xx_hal_rcc.c ****         {
 576:Drivers/STM32F7xx_HAL_Driver/Src/stm32f7xx_hal_rcc.c ****           return HAL_TIMEOUT;
 577:Drivers/STM32F7xx_HAL_Driver/Src/stm32f7xx_hal_rcc.c ****         }
 578:Drivers/STM32F7xx_HAL_Driver/Src/stm32f7xx_hal_rcc.c ****       }
 579:Drivers/STM32F7xx_HAL_Driver/Src/stm32f7xx_hal_rcc.c ****     }
 580:Drivers/STM32F7xx_HAL_Driver/Src/stm32f7xx_hal_rcc.c ****     else
 581:Drivers/STM32F7xx_HAL_Driver/Src/stm32f7xx_hal_rcc.c ****     {
 582:Drivers/STM32F7xx_HAL_Driver/Src/stm32f7xx_hal_rcc.c ****       /* Get Start Tick*/
ARM GAS  /tmp/ccQLX8NK.s 			page 22


 583:Drivers/STM32F7xx_HAL_Driver/Src/stm32f7xx_hal_rcc.c ****       tickstart = HAL_GetTick();
 584:Drivers/STM32F7xx_HAL_Driver/Src/stm32f7xx_hal_rcc.c **** 
 585:Drivers/STM32F7xx_HAL_Driver/Src/stm32f7xx_hal_rcc.c ****       /* Wait till LSE is ready */
 586:Drivers/STM32F7xx_HAL_Driver/Src/stm32f7xx_hal_rcc.c ****       while(__HAL_RCC_GET_FLAG(RCC_FLAG_LSERDY) != RESET)
 587:Drivers/STM32F7xx_HAL_Driver/Src/stm32f7xx_hal_rcc.c ****       {
 588:Drivers/STM32F7xx_HAL_Driver/Src/stm32f7xx_hal_rcc.c ****         if((HAL_GetTick() - tickstart ) > RCC_LSE_TIMEOUT_VALUE)
 589:Drivers/STM32F7xx_HAL_Driver/Src/stm32f7xx_hal_rcc.c ****         {
 590:Drivers/STM32F7xx_HAL_Driver/Src/stm32f7xx_hal_rcc.c ****           return HAL_TIMEOUT;
 591:Drivers/STM32F7xx_HAL_Driver/Src/stm32f7xx_hal_rcc.c ****         }
 592:Drivers/STM32F7xx_HAL_Driver/Src/stm32f7xx_hal_rcc.c ****       }
 593:Drivers/STM32F7xx_HAL_Driver/Src/stm32f7xx_hal_rcc.c ****     }
 594:Drivers/STM32F7xx_HAL_Driver/Src/stm32f7xx_hal_rcc.c **** 
 595:Drivers/STM32F7xx_HAL_Driver/Src/stm32f7xx_hal_rcc.c ****     /* Restore clock configuration if changed */
 596:Drivers/STM32F7xx_HAL_Driver/Src/stm32f7xx_hal_rcc.c ****     if(pwrclkchanged == SET)
 563              		.loc 1 596 0
 564 0188 25B1     		cbz	r5, .L53
 565              	.LVL50:
 566              	.L130:
 597:Drivers/STM32F7xx_HAL_Driver/Src/stm32f7xx_hal_rcc.c ****     {
 598:Drivers/STM32F7xx_HAL_Driver/Src/stm32f7xx_hal_rcc.c ****       __HAL_RCC_PWR_CLK_DISABLE();
 567              		.loc 1 598 0
 568 018a 4E4A     		ldr	r2, .L131
 569 018c 136C     		ldr	r3, [r2, #64]
 570 018e 23F08053 		bic	r3, r3, #268435456
 571 0192 1364     		str	r3, [r2, #64]
 572              	.LVL51:
 573              	.L53:
 599:Drivers/STM32F7xx_HAL_Driver/Src/stm32f7xx_hal_rcc.c ****     }
 600:Drivers/STM32F7xx_HAL_Driver/Src/stm32f7xx_hal_rcc.c ****   }
 601:Drivers/STM32F7xx_HAL_Driver/Src/stm32f7xx_hal_rcc.c ****   /*-------------------------------- PLL Configuration -----------------------*/
 602:Drivers/STM32F7xx_HAL_Driver/Src/stm32f7xx_hal_rcc.c ****   /* Check the parameters */
 603:Drivers/STM32F7xx_HAL_Driver/Src/stm32f7xx_hal_rcc.c ****   assert_param(IS_RCC_PLL(RCC_OscInitStruct->PLL.PLLState));
 604:Drivers/STM32F7xx_HAL_Driver/Src/stm32f7xx_hal_rcc.c ****   if ((RCC_OscInitStruct->PLL.PLLState) != RCC_PLL_NONE)
 574              		.loc 1 604 0
 575 0194 A369     		ldr	r3, [r4, #24]
 576 0196 CBB1     		cbz	r3, .L76
 605:Drivers/STM32F7xx_HAL_Driver/Src/stm32f7xx_hal_rcc.c ****   {
 606:Drivers/STM32F7xx_HAL_Driver/Src/stm32f7xx_hal_rcc.c ****     /* Check if the PLL is used as system clock or not */
 607:Drivers/STM32F7xx_HAL_Driver/Src/stm32f7xx_hal_rcc.c ****     if(__HAL_RCC_GET_SYSCLK_SOURCE() != RCC_SYSCLKSOURCE_STATUS_PLLCLK)
 577              		.loc 1 607 0
 578 0198 4A4A     		ldr	r2, .L131
 579 019a 9168     		ldr	r1, [r2, #8]
 580 019c 01F00C01 		and	r1, r1, #12
 581 01a0 0829     		cmp	r1, #8
 582 01a2 21D0     		beq	.L27
 608:Drivers/STM32F7xx_HAL_Driver/Src/stm32f7xx_hal_rcc.c ****     {
 609:Drivers/STM32F7xx_HAL_Driver/Src/stm32f7xx_hal_rcc.c ****       if((RCC_OscInitStruct->PLL.PLLState) == RCC_PLL_ON)
 583              		.loc 1 609 0
 584 01a4 022B     		cmp	r3, #2
 610:Drivers/STM32F7xx_HAL_Driver/Src/stm32f7xx_hal_rcc.c ****       {
 611:Drivers/STM32F7xx_HAL_Driver/Src/stm32f7xx_hal_rcc.c ****         /* Check the parameters */
 612:Drivers/STM32F7xx_HAL_Driver/Src/stm32f7xx_hal_rcc.c ****         assert_param(IS_RCC_PLLSOURCE(RCC_OscInitStruct->PLL.PLLSource));
 613:Drivers/STM32F7xx_HAL_Driver/Src/stm32f7xx_hal_rcc.c ****         assert_param(IS_RCC_PLLM_VALUE(RCC_OscInitStruct->PLL.PLLM));
 614:Drivers/STM32F7xx_HAL_Driver/Src/stm32f7xx_hal_rcc.c ****         assert_param(IS_RCC_PLLN_VALUE(RCC_OscInitStruct->PLL.PLLN));
 615:Drivers/STM32F7xx_HAL_Driver/Src/stm32f7xx_hal_rcc.c ****         assert_param(IS_RCC_PLLP_VALUE(RCC_OscInitStruct->PLL.PLLP));
 616:Drivers/STM32F7xx_HAL_Driver/Src/stm32f7xx_hal_rcc.c ****         assert_param(IS_RCC_PLLQ_VALUE(RCC_OscInitStruct->PLL.PLLQ));
 617:Drivers/STM32F7xx_HAL_Driver/Src/stm32f7xx_hal_rcc.c **** #if defined (RCC_PLLCFGR_PLLR)
ARM GAS  /tmp/ccQLX8NK.s 			page 23


 618:Drivers/STM32F7xx_HAL_Driver/Src/stm32f7xx_hal_rcc.c ****         assert_param(IS_RCC_PLLR_VALUE(RCC_OscInitStruct->PLL.PLLR));
 619:Drivers/STM32F7xx_HAL_Driver/Src/stm32f7xx_hal_rcc.c **** #endif
 620:Drivers/STM32F7xx_HAL_Driver/Src/stm32f7xx_hal_rcc.c **** 
 621:Drivers/STM32F7xx_HAL_Driver/Src/stm32f7xx_hal_rcc.c ****         /* Disable the main PLL. */
 622:Drivers/STM32F7xx_HAL_Driver/Src/stm32f7xx_hal_rcc.c ****         __HAL_RCC_PLL_DISABLE();
 585              		.loc 1 622 0
 586 01a6 1368     		ldr	r3, [r2]
 609:Drivers/STM32F7xx_HAL_Driver/Src/stm32f7xx_hal_rcc.c ****       {
 587              		.loc 1 609 0
 588 01a8 00F0C080 		beq	.L129
 623:Drivers/STM32F7xx_HAL_Driver/Src/stm32f7xx_hal_rcc.c **** 
 624:Drivers/STM32F7xx_HAL_Driver/Src/stm32f7xx_hal_rcc.c ****         /* Get Start Tick*/
 625:Drivers/STM32F7xx_HAL_Driver/Src/stm32f7xx_hal_rcc.c ****         tickstart = HAL_GetTick();
 626:Drivers/STM32F7xx_HAL_Driver/Src/stm32f7xx_hal_rcc.c **** 
 627:Drivers/STM32F7xx_HAL_Driver/Src/stm32f7xx_hal_rcc.c ****         /* Wait till PLL is ready */
 628:Drivers/STM32F7xx_HAL_Driver/Src/stm32f7xx_hal_rcc.c ****         while(__HAL_RCC_GET_FLAG(RCC_FLAG_PLLRDY) != RESET)
 629:Drivers/STM32F7xx_HAL_Driver/Src/stm32f7xx_hal_rcc.c ****         {
 630:Drivers/STM32F7xx_HAL_Driver/Src/stm32f7xx_hal_rcc.c ****           if((HAL_GetTick() - tickstart ) > PLL_TIMEOUT_VALUE)
 631:Drivers/STM32F7xx_HAL_Driver/Src/stm32f7xx_hal_rcc.c ****           {
 632:Drivers/STM32F7xx_HAL_Driver/Src/stm32f7xx_hal_rcc.c ****             return HAL_TIMEOUT;
 633:Drivers/STM32F7xx_HAL_Driver/Src/stm32f7xx_hal_rcc.c ****           }
 634:Drivers/STM32F7xx_HAL_Driver/Src/stm32f7xx_hal_rcc.c ****         }
 635:Drivers/STM32F7xx_HAL_Driver/Src/stm32f7xx_hal_rcc.c **** 
 636:Drivers/STM32F7xx_HAL_Driver/Src/stm32f7xx_hal_rcc.c ****         /* Configure the main PLL clock source, multiplication and division factors. */
 637:Drivers/STM32F7xx_HAL_Driver/Src/stm32f7xx_hal_rcc.c **** #if defined (RCC_PLLCFGR_PLLR)
 638:Drivers/STM32F7xx_HAL_Driver/Src/stm32f7xx_hal_rcc.c ****         __HAL_RCC_PLL_CONFIG(RCC_OscInitStruct->PLL.PLLSource,
 639:Drivers/STM32F7xx_HAL_Driver/Src/stm32f7xx_hal_rcc.c ****                              RCC_OscInitStruct->PLL.PLLM,
 640:Drivers/STM32F7xx_HAL_Driver/Src/stm32f7xx_hal_rcc.c ****                              RCC_OscInitStruct->PLL.PLLN,
 641:Drivers/STM32F7xx_HAL_Driver/Src/stm32f7xx_hal_rcc.c ****                              RCC_OscInitStruct->PLL.PLLP,
 642:Drivers/STM32F7xx_HAL_Driver/Src/stm32f7xx_hal_rcc.c ****                              RCC_OscInitStruct->PLL.PLLQ,
 643:Drivers/STM32F7xx_HAL_Driver/Src/stm32f7xx_hal_rcc.c ****                              RCC_OscInitStruct->PLL.PLLR);
 644:Drivers/STM32F7xx_HAL_Driver/Src/stm32f7xx_hal_rcc.c **** #else
 645:Drivers/STM32F7xx_HAL_Driver/Src/stm32f7xx_hal_rcc.c ****         __HAL_RCC_PLL_CONFIG(RCC_OscInitStruct->PLL.PLLSource,
 646:Drivers/STM32F7xx_HAL_Driver/Src/stm32f7xx_hal_rcc.c ****                              RCC_OscInitStruct->PLL.PLLM,
 647:Drivers/STM32F7xx_HAL_Driver/Src/stm32f7xx_hal_rcc.c ****                              RCC_OscInitStruct->PLL.PLLN,
 648:Drivers/STM32F7xx_HAL_Driver/Src/stm32f7xx_hal_rcc.c ****                              RCC_OscInitStruct->PLL.PLLP,
 649:Drivers/STM32F7xx_HAL_Driver/Src/stm32f7xx_hal_rcc.c ****                              RCC_OscInitStruct->PLL.PLLQ);
 650:Drivers/STM32F7xx_HAL_Driver/Src/stm32f7xx_hal_rcc.c **** #endif
 651:Drivers/STM32F7xx_HAL_Driver/Src/stm32f7xx_hal_rcc.c **** 
 652:Drivers/STM32F7xx_HAL_Driver/Src/stm32f7xx_hal_rcc.c ****         /* Enable the main PLL. */
 653:Drivers/STM32F7xx_HAL_Driver/Src/stm32f7xx_hal_rcc.c ****         __HAL_RCC_PLL_ENABLE();
 654:Drivers/STM32F7xx_HAL_Driver/Src/stm32f7xx_hal_rcc.c **** 
 655:Drivers/STM32F7xx_HAL_Driver/Src/stm32f7xx_hal_rcc.c ****         /* Get Start Tick*/
 656:Drivers/STM32F7xx_HAL_Driver/Src/stm32f7xx_hal_rcc.c ****         tickstart = HAL_GetTick();
 657:Drivers/STM32F7xx_HAL_Driver/Src/stm32f7xx_hal_rcc.c **** 
 658:Drivers/STM32F7xx_HAL_Driver/Src/stm32f7xx_hal_rcc.c ****         /* Wait till PLL is ready */
 659:Drivers/STM32F7xx_HAL_Driver/Src/stm32f7xx_hal_rcc.c ****         while(__HAL_RCC_GET_FLAG(RCC_FLAG_PLLRDY) == RESET)
 660:Drivers/STM32F7xx_HAL_Driver/Src/stm32f7xx_hal_rcc.c ****         {
 661:Drivers/STM32F7xx_HAL_Driver/Src/stm32f7xx_hal_rcc.c ****           if((HAL_GetTick() - tickstart ) > PLL_TIMEOUT_VALUE)
 662:Drivers/STM32F7xx_HAL_Driver/Src/stm32f7xx_hal_rcc.c ****           {
 663:Drivers/STM32F7xx_HAL_Driver/Src/stm32f7xx_hal_rcc.c ****             return HAL_TIMEOUT;
 664:Drivers/STM32F7xx_HAL_Driver/Src/stm32f7xx_hal_rcc.c ****           }
 665:Drivers/STM32F7xx_HAL_Driver/Src/stm32f7xx_hal_rcc.c ****         }
 666:Drivers/STM32F7xx_HAL_Driver/Src/stm32f7xx_hal_rcc.c ****       }
 667:Drivers/STM32F7xx_HAL_Driver/Src/stm32f7xx_hal_rcc.c ****       else
 668:Drivers/STM32F7xx_HAL_Driver/Src/stm32f7xx_hal_rcc.c ****       {
 669:Drivers/STM32F7xx_HAL_Driver/Src/stm32f7xx_hal_rcc.c ****         /* Disable the main PLL. */
ARM GAS  /tmp/ccQLX8NK.s 			page 24


 670:Drivers/STM32F7xx_HAL_Driver/Src/stm32f7xx_hal_rcc.c ****         __HAL_RCC_PLL_DISABLE();
 589              		.loc 1 670 0
 590 01ac 23F08073 		bic	r3, r3, #16777216
 671:Drivers/STM32F7xx_HAL_Driver/Src/stm32f7xx_hal_rcc.c **** 
 672:Drivers/STM32F7xx_HAL_Driver/Src/stm32f7xx_hal_rcc.c ****         /* Get Start Tick*/
 673:Drivers/STM32F7xx_HAL_Driver/Src/stm32f7xx_hal_rcc.c ****         tickstart = HAL_GetTick();
 674:Drivers/STM32F7xx_HAL_Driver/Src/stm32f7xx_hal_rcc.c **** 
 675:Drivers/STM32F7xx_HAL_Driver/Src/stm32f7xx_hal_rcc.c ****         /* Wait till PLL is ready */
 676:Drivers/STM32F7xx_HAL_Driver/Src/stm32f7xx_hal_rcc.c ****         while(__HAL_RCC_GET_FLAG(RCC_FLAG_PLLRDY) != RESET)
 591              		.loc 1 676 0
 592 01b0 1446     		mov	r4, r2
 593              	.LVL52:
 670:Drivers/STM32F7xx_HAL_Driver/Src/stm32f7xx_hal_rcc.c **** 
 594              		.loc 1 670 0
 595 01b2 1360     		str	r3, [r2]
 673:Drivers/STM32F7xx_HAL_Driver/Src/stm32f7xx_hal_rcc.c **** 
 596              		.loc 1 673 0
 597 01b4 FFF7FEFF 		bl	HAL_GetTick
 598              	.LVL53:
 599 01b8 0546     		mov	r5, r0
 600              	.LVL54:
 601              		.loc 1 676 0
 602 01ba 04E0     		b	.L77
 603              	.LVL55:
 604              	.L78:
 677:Drivers/STM32F7xx_HAL_Driver/Src/stm32f7xx_hal_rcc.c ****         {
 678:Drivers/STM32F7xx_HAL_Driver/Src/stm32f7xx_hal_rcc.c ****           if((HAL_GetTick() - tickstart ) > PLL_TIMEOUT_VALUE)
 605              		.loc 1 678 0
 606 01bc FFF7FEFF 		bl	HAL_GetTick
 607              	.LVL56:
 608 01c0 401B     		subs	r0, r0, r5
 609 01c2 0228     		cmp	r0, #2
 610 01c4 46D8     		bhi	.L35
 611              	.L77:
 676:Drivers/STM32F7xx_HAL_Driver/Src/stm32f7xx_hal_rcc.c ****         {
 612              		.loc 1 676 0
 613 01c6 2368     		ldr	r3, [r4]
 614 01c8 9B01     		lsls	r3, r3, #6
 615 01ca F7D4     		bmi	.L78
 616              	.LVL57:
 617              	.L76:
 679:Drivers/STM32F7xx_HAL_Driver/Src/stm32f7xx_hal_rcc.c ****           {
 680:Drivers/STM32F7xx_HAL_Driver/Src/stm32f7xx_hal_rcc.c ****             return HAL_TIMEOUT;
 681:Drivers/STM32F7xx_HAL_Driver/Src/stm32f7xx_hal_rcc.c ****           }
 682:Drivers/STM32F7xx_HAL_Driver/Src/stm32f7xx_hal_rcc.c ****         }
 683:Drivers/STM32F7xx_HAL_Driver/Src/stm32f7xx_hal_rcc.c ****       }
 684:Drivers/STM32F7xx_HAL_Driver/Src/stm32f7xx_hal_rcc.c ****     }
 685:Drivers/STM32F7xx_HAL_Driver/Src/stm32f7xx_hal_rcc.c ****     else
 686:Drivers/STM32F7xx_HAL_Driver/Src/stm32f7xx_hal_rcc.c ****     {
 687:Drivers/STM32F7xx_HAL_Driver/Src/stm32f7xx_hal_rcc.c ****       return HAL_ERROR;
 688:Drivers/STM32F7xx_HAL_Driver/Src/stm32f7xx_hal_rcc.c ****     }
 689:Drivers/STM32F7xx_HAL_Driver/Src/stm32f7xx_hal_rcc.c ****   }
 690:Drivers/STM32F7xx_HAL_Driver/Src/stm32f7xx_hal_rcc.c ****   return HAL_OK;
 618              		.loc 1 690 0
 619 01cc 0020     		movs	r0, #0
 691:Drivers/STM32F7xx_HAL_Driver/Src/stm32f7xx_hal_rcc.c **** }
 620              		.loc 1 691 0
ARM GAS  /tmp/ccQLX8NK.s 			page 25


 621 01ce 02B0     		add	sp, sp, #8
 622              	.LCFI3:
 623              		.cfi_remember_state
 624              		.cfi_def_cfa_offset 24
 625              		@ sp needed
 626 01d0 BDE8F081 		pop	{r4, r5, r6, r7, r8, pc}
 627              	.LVL58:
 628              	.L128:
 629              	.LCFI4:
 630              		.cfi_restore_state
 433:Drivers/STM32F7xx_HAL_Driver/Src/stm32f7xx_hal_rcc.c ****     {
 631              		.loc 1 433 0 discriminator 1
 632 01d4 5268     		ldr	r2, [r2, #4]
 633 01d6 5602     		lsls	r6, r2, #9
 634 01d8 A1D4     		bmi	.L39
 635              	.L38:
 436:Drivers/STM32F7xx_HAL_Driver/Src/stm32f7xx_hal_rcc.c ****       {
 636              		.loc 1 436 0
 637 01da 3A4A     		ldr	r2, .L131
 638 01dc 1268     		ldr	r2, [r2]
 639 01de 9507     		lsls	r5, r2, #30
 640 01e0 3CD5     		bpl	.L40
 436:Drivers/STM32F7xx_HAL_Driver/Src/stm32f7xx_hal_rcc.c ****       {
 641              		.loc 1 436 0 is_stmt 0 discriminator 1
 642 01e2 E268     		ldr	r2, [r4, #12]
 643 01e4 012A     		cmp	r2, #1
 644 01e6 39D0     		beq	.L40
 645              	.LVL59:
 646              	.L27:
 368:Drivers/STM32F7xx_HAL_Driver/Src/stm32f7xx_hal_rcc.c ****   }
 647              		.loc 1 368 0 is_stmt 1
 648 01e8 0120     		movs	r0, #1
 649              		.loc 1 691 0
 650 01ea 02B0     		add	sp, sp, #8
 651              	.LCFI5:
 652              		.cfi_remember_state
 653              		.cfi_def_cfa_offset 24
 654              		@ sp needed
 655 01ec BDE8F081 		pop	{r4, r5, r6, r7, r8, pc}
 656              	.LVL60:
 657              	.L47:
 658              	.LCFI6:
 659              		.cfi_restore_state
 516:Drivers/STM32F7xx_HAL_Driver/Src/stm32f7xx_hal_rcc.c **** 
 660              		.loc 1 516 0
 661 01f0 344B     		ldr	r3, .L131
 662 01f2 5A6F     		ldr	r2, [r3, #116]
 522:Drivers/STM32F7xx_HAL_Driver/Src/stm32f7xx_hal_rcc.c ****       {
 663              		.loc 1 522 0
 664 01f4 1D46     		mov	r5, r3
 516:Drivers/STM32F7xx_HAL_Driver/Src/stm32f7xx_hal_rcc.c **** 
 665              		.loc 1 516 0
 666 01f6 22F00102 		bic	r2, r2, #1
 667 01fa 5A67     		str	r2, [r3, #116]
 519:Drivers/STM32F7xx_HAL_Driver/Src/stm32f7xx_hal_rcc.c **** 
 668              		.loc 1 519 0
 669 01fc FFF7FEFF 		bl	HAL_GetTick
ARM GAS  /tmp/ccQLX8NK.s 			page 26


 670              	.LVL61:
 671 0200 0646     		mov	r6, r0
 672              	.LVL62:
 522:Drivers/STM32F7xx_HAL_Driver/Src/stm32f7xx_hal_rcc.c ****       {
 673              		.loc 1 522 0
 674 0202 04E0     		b	.L50
 675              	.LVL63:
 676              	.L51:
 524:Drivers/STM32F7xx_HAL_Driver/Src/stm32f7xx_hal_rcc.c ****         {
 677              		.loc 1 524 0
 678 0204 FFF7FEFF 		bl	HAL_GetTick
 679              	.LVL64:
 680 0208 801B     		subs	r0, r0, r6
 681 020a 0228     		cmp	r0, #2
 682 020c 22D8     		bhi	.L35
 683              	.L50:
 522:Drivers/STM32F7xx_HAL_Driver/Src/stm32f7xx_hal_rcc.c ****       {
 684              		.loc 1 522 0
 685 020e 6B6F     		ldr	r3, [r5, #116]
 686 0210 9F07     		lsls	r7, r3, #30
 687 0212 F7D4     		bmi	.L51
 688 0214 4FE7     		b	.L118
 689              	.LVL65:
 690              	.L120:
 381:Drivers/STM32F7xx_HAL_Driver/Src/stm32f7xx_hal_rcc.c ****     {
 691              		.loc 1 381 0 discriminator 1
 692 0216 4A68     		ldr	r2, [r1, #4]
 693 0218 5002     		lsls	r0, r2, #9
 694              	.LVL66:
 695 021a 7FF508AF 		bpl	.L26
 696              	.L25:
 383:Drivers/STM32F7xx_HAL_Driver/Src/stm32f7xx_hal_rcc.c ****       {
 697              		.loc 1 383 0
 698 021e 294A     		ldr	r2, .L131
 699 0220 1268     		ldr	r2, [r2]
 700 0222 9103     		lsls	r1, r2, #14
 701 0224 7FF52CAF 		bpl	.L24
 383:Drivers/STM32F7xx_HAL_Driver/Src/stm32f7xx_hal_rcc.c ****       {
 702              		.loc 1 383 0 is_stmt 0 discriminator 1
 703 0228 6268     		ldr	r2, [r4, #4]
 704 022a 002A     		cmp	r2, #0
 705 022c 7FF428AF 		bne	.L24
 706 0230 DAE7     		b	.L27
 707              	.LVL67:
 708              	.L55:
 549:Drivers/STM32F7xx_HAL_Driver/Src/stm32f7xx_hal_rcc.c **** 
 709              		.loc 1 549 0 is_stmt 1
 710 0232 1A68     		ldr	r2, [r3]
 554:Drivers/STM32F7xx_HAL_Driver/Src/stm32f7xx_hal_rcc.c ****       {
 711              		.loc 1 554 0
 712 0234 1E46     		mov	r6, r3
 549:Drivers/STM32F7xx_HAL_Driver/Src/stm32f7xx_hal_rcc.c **** 
 713              		.loc 1 549 0
 714 0236 42F48072 		orr	r2, r2, #256
 715 023a 1A60     		str	r2, [r3]
 552:Drivers/STM32F7xx_HAL_Driver/Src/stm32f7xx_hal_rcc.c **** 
 716              		.loc 1 552 0
ARM GAS  /tmp/ccQLX8NK.s 			page 27


 717 023c FFF7FEFF 		bl	HAL_GetTick
 718              	.LVL68:
 719 0240 0746     		mov	r7, r0
 720              	.LVL69:
 721              	.L58:
 554:Drivers/STM32F7xx_HAL_Driver/Src/stm32f7xx_hal_rcc.c ****       {
 722              		.loc 1 554 0
 723 0242 3368     		ldr	r3, [r6]
 724 0244 DA05     		lsls	r2, r3, #23
 725 0246 3FF54DAF 		bmi	.L60
 556:Drivers/STM32F7xx_HAL_Driver/Src/stm32f7xx_hal_rcc.c ****         {
 726              		.loc 1 556 0
 727 024a FFF7FEFF 		bl	HAL_GetTick
 728              	.LVL70:
 729 024e C01B     		subs	r0, r0, r7
 730 0250 6428     		cmp	r0, #100
 731 0252 F6D9     		bls	.L58
 732              	.LVL71:
 733              	.L35:
 404:Drivers/STM32F7xx_HAL_Driver/Src/stm32f7xx_hal_rcc.c ****           }
 734              		.loc 1 404 0
 735 0254 0320     		movs	r0, #3
 736              		.loc 1 691 0
 737 0256 02B0     		add	sp, sp, #8
 738              	.LCFI7:
 739              		.cfi_remember_state
 740              		.cfi_def_cfa_offset 24
 741              		@ sp needed
 742 0258 BDE8F081 		pop	{r4, r5, r6, r7, r8, pc}
 743              	.LVL72:
 744              	.L40:
 745              	.LCFI8:
 746              		.cfi_restore_state
 444:Drivers/STM32F7xx_HAL_Driver/Src/stm32f7xx_hal_rcc.c ****       }
 747              		.loc 1 444 0
 748 025c 1949     		ldr	r1, .L131
 749 025e 2069     		ldr	r0, [r4, #16]
 750 0260 0A68     		ldr	r2, [r1]
 751 0262 22F0F802 		bic	r2, r2, #248
 752 0266 42EAC002 		orr	r2, r2, r0, lsl #3
 753 026a 0A60     		str	r2, [r1]
 436:Drivers/STM32F7xx_HAL_Driver/Src/stm32f7xx_hal_rcc.c ****       {
 754              		.loc 1 436 0
 755 026c 0AE7     		b	.L37
 756              	.LVL73:
 757              	.L119:
 758              	.LCFI9:
 759              		.cfi_def_cfa_offset 0
 760              		.cfi_restore 4
 761              		.cfi_restore 5
 762              		.cfi_restore 6
 763              		.cfi_restore 7
 764              		.cfi_restore 8
 765              		.cfi_restore 14
 368:Drivers/STM32F7xx_HAL_Driver/Src/stm32f7xx_hal_rcc.c ****   }
 766              		.loc 1 368 0
 767 026e 0120     		movs	r0, #1
ARM GAS  /tmp/ccQLX8NK.s 			page 28


 768              	.LVL74:
 769              		.loc 1 691 0
 770 0270 7047     		bx	lr
 771              	.LVL75:
 772              	.L122:
 773              	.LCFI10:
 774              		.cfi_def_cfa_offset 32
 775              		.cfi_offset 4, -24
 776              		.cfi_offset 5, -20
 777              		.cfi_offset 6, -16
 778              		.cfi_offset 7, -12
 779              		.cfi_offset 8, -8
 780              		.cfi_offset 14, -4
 391:Drivers/STM32F7xx_HAL_Driver/Src/stm32f7xx_hal_rcc.c **** 
 781              		.loc 1 391 0 discriminator 3
 782 0272 144B     		ldr	r3, .L131
 783 0274 1A68     		ldr	r2, [r3]
 414:Drivers/STM32F7xx_HAL_Driver/Src/stm32f7xx_hal_rcc.c ****         {
 784              		.loc 1 414 0 discriminator 3
 785 0276 1D46     		mov	r5, r3
 391:Drivers/STM32F7xx_HAL_Driver/Src/stm32f7xx_hal_rcc.c **** 
 786              		.loc 1 391 0 discriminator 3
 787 0278 22F48032 		bic	r2, r2, #65536
 788 027c 1A60     		str	r2, [r3]
 789 027e 1A68     		ldr	r2, [r3]
 790 0280 22F48022 		bic	r2, r2, #262144
 791 0284 1A60     		str	r2, [r3]
 411:Drivers/STM32F7xx_HAL_Driver/Src/stm32f7xx_hal_rcc.c **** 
 792              		.loc 1 411 0 discriminator 3
 793 0286 FFF7FEFF 		bl	HAL_GetTick
 794              	.LVL76:
 795 028a 0646     		mov	r6, r0
 796              	.LVL77:
 414:Drivers/STM32F7xx_HAL_Driver/Src/stm32f7xx_hal_rcc.c ****         {
 797              		.loc 1 414 0 discriminator 3
 798 028c 04E0     		b	.L31
 799              	.LVL78:
 800              	.L36:
 416:Drivers/STM32F7xx_HAL_Driver/Src/stm32f7xx_hal_rcc.c ****           {
 801              		.loc 1 416 0
 802 028e FFF7FEFF 		bl	HAL_GetTick
 803              	.LVL79:
 804 0292 801B     		subs	r0, r0, r6
 805 0294 6428     		cmp	r0, #100
 806 0296 DDD8     		bhi	.L35
 807              	.L31:
 414:Drivers/STM32F7xx_HAL_Driver/Src/stm32f7xx_hal_rcc.c ****         {
 808              		.loc 1 414 0
 809 0298 2B68     		ldr	r3, [r5]
 810 029a 9B03     		lsls	r3, r3, #14
 811 029c F7D4     		bmi	.L36
 812 029e EEE6     		b	.L117
 813              	.LVL80:
 814              	.L80:
 363:Drivers/STM32F7xx_HAL_Driver/Src/stm32f7xx_hal_rcc.c **** 
 815              		.loc 1 363 0
 816 02a0 0025     		movs	r5, #0
ARM GAS  /tmp/ccQLX8NK.s 			page 29


 817 02a2 1AE7     		b	.L54
 818              	.LVL81:
 819              	.L126:
 564:Drivers/STM32F7xx_HAL_Driver/Src/stm32f7xx_hal_rcc.c ****     /* Check the LSE State */
 820              		.loc 1 564 0 discriminator 3
 821 02a4 074B     		ldr	r3, .L131
 588:Drivers/STM32F7xx_HAL_Driver/Src/stm32f7xx_hal_rcc.c ****         {
 822              		.loc 1 588 0 discriminator 3
 823 02a6 41F28838 		movw	r8, #5000
 564:Drivers/STM32F7xx_HAL_Driver/Src/stm32f7xx_hal_rcc.c ****     /* Check the LSE State */
 824              		.loc 1 564 0 discriminator 3
 825 02aa 1A6F     		ldr	r2, [r3, #112]
 586:Drivers/STM32F7xx_HAL_Driver/Src/stm32f7xx_hal_rcc.c ****       {
 826              		.loc 1 586 0 discriminator 3
 827 02ac 1E46     		mov	r6, r3
 564:Drivers/STM32F7xx_HAL_Driver/Src/stm32f7xx_hal_rcc.c ****     /* Check the LSE State */
 828              		.loc 1 564 0 discriminator 3
 829 02ae 22F00102 		bic	r2, r2, #1
 830 02b2 1A67     		str	r2, [r3, #112]
 831 02b4 1A6F     		ldr	r2, [r3, #112]
 832 02b6 22F00402 		bic	r2, r2, #4
 833 02ba 1A67     		str	r2, [r3, #112]
 583:Drivers/STM32F7xx_HAL_Driver/Src/stm32f7xx_hal_rcc.c **** 
 834              		.loc 1 583 0 discriminator 3
 835 02bc FFF7FEFF 		bl	HAL_GetTick
 836              	.LVL82:
 837 02c0 0746     		mov	r7, r0
 838              	.LVL83:
 586:Drivers/STM32F7xx_HAL_Driver/Src/stm32f7xx_hal_rcc.c ****       {
 839              		.loc 1 586 0 discriminator 3
 840 02c2 08E0     		b	.L63
 841              	.L132:
 842              		.align	2
 843              	.L131:
 844 02c4 00380240 		.word	1073887232
 845 02c8 00700040 		.word	1073770496
 846              	.LVL84:
 847              	.L68:
 588:Drivers/STM32F7xx_HAL_Driver/Src/stm32f7xx_hal_rcc.c ****         {
 848              		.loc 1 588 0
 849 02cc FFF7FEFF 		bl	HAL_GetTick
 850              	.LVL85:
 851 02d0 C01B     		subs	r0, r0, r7
 852 02d2 4045     		cmp	r0, r8
 853 02d4 BED8     		bhi	.L35
 854              	.L63:
 586:Drivers/STM32F7xx_HAL_Driver/Src/stm32f7xx_hal_rcc.c ****       {
 855              		.loc 1 586 0
 856 02d6 336F     		ldr	r3, [r6, #112]
 857 02d8 9807     		lsls	r0, r3, #30
 858 02da F7D4     		bmi	.L68
 596:Drivers/STM32F7xx_HAL_Driver/Src/stm32f7xx_hal_rcc.c ****     {
 859              		.loc 1 596 0
 860 02dc 002D     		cmp	r5, #0
 861 02de 3FF459AF 		beq	.L53
 862 02e2 52E7     		b	.L130
 863              	.LVL86:
ARM GAS  /tmp/ccQLX8NK.s 			page 30


 864              	.L41:
 473:Drivers/STM32F7xx_HAL_Driver/Src/stm32f7xx_hal_rcc.c **** 
 865              		.loc 1 473 0
 866 02e4 2B4B     		ldr	r3, .L133
 867 02e6 1A68     		ldr	r2, [r3]
 479:Drivers/STM32F7xx_HAL_Driver/Src/stm32f7xx_hal_rcc.c ****         {
 868              		.loc 1 479 0
 869 02e8 1D46     		mov	r5, r3
 473:Drivers/STM32F7xx_HAL_Driver/Src/stm32f7xx_hal_rcc.c **** 
 870              		.loc 1 473 0
 871 02ea 22F00102 		bic	r2, r2, #1
 872 02ee 1A60     		str	r2, [r3]
 476:Drivers/STM32F7xx_HAL_Driver/Src/stm32f7xx_hal_rcc.c **** 
 873              		.loc 1 476 0
 874 02f0 FFF7FEFF 		bl	HAL_GetTick
 875              	.LVL87:
 876 02f4 0646     		mov	r6, r0
 877              	.LVL88:
 479:Drivers/STM32F7xx_HAL_Driver/Src/stm32f7xx_hal_rcc.c ****         {
 878              		.loc 1 479 0
 879 02f6 04E0     		b	.L44
 880              	.LVL89:
 881              	.L45:
 481:Drivers/STM32F7xx_HAL_Driver/Src/stm32f7xx_hal_rcc.c ****           {
 882              		.loc 1 481 0
 883 02f8 FFF7FEFF 		bl	HAL_GetTick
 884              	.LVL90:
 885 02fc 801B     		subs	r0, r0, r6
 886 02fe 0228     		cmp	r0, #2
 887 0300 A8D8     		bhi	.L35
 888              	.L44:
 479:Drivers/STM32F7xx_HAL_Driver/Src/stm32f7xx_hal_rcc.c ****         {
 889              		.loc 1 479 0
 890 0302 2B68     		ldr	r3, [r5]
 891 0304 9907     		lsls	r1, r3, #30
 892 0306 F7D4     		bmi	.L45
 893 0308 2368     		ldr	r3, [r4]
 894 030a BBE6     		b	.L37
 895              	.LVL91:
 896              	.L123:
 391:Drivers/STM32F7xx_HAL_Driver/Src/stm32f7xx_hal_rcc.c **** 
 897              		.loc 1 391 0 discriminator 5
 898 030c 42F48022 		orr	r2, r2, #262144
 899 0310 1A60     		str	r2, [r3]
 900 0312 1A68     		ldr	r2, [r3]
 901 0314 42F48032 		orr	r2, r2, #65536
 902 0318 1A60     		str	r2, [r3]
 903 031a A2E6     		b	.L29
 904              	.LVL92:
 905              	.L127:
 564:Drivers/STM32F7xx_HAL_Driver/Src/stm32f7xx_hal_rcc.c ****     /* Check the LSE State */
 906              		.loc 1 564 0 discriminator 5
 907 031c 42F00402 		orr	r2, r2, #4
 908 0320 1A67     		str	r2, [r3, #112]
 909 0322 1A6F     		ldr	r2, [r3, #112]
 910 0324 42F00102 		orr	r2, r2, #1
 911 0328 1A67     		str	r2, [r3, #112]
ARM GAS  /tmp/ccQLX8NK.s 			page 31


 912 032a 1DE7     		b	.L61
 913              	.LVL93:
 914              	.L129:
 622:Drivers/STM32F7xx_HAL_Driver/Src/stm32f7xx_hal_rcc.c **** 
 915              		.loc 1 622 0
 916 032c 23F08073 		bic	r3, r3, #16777216
 628:Drivers/STM32F7xx_HAL_Driver/Src/stm32f7xx_hal_rcc.c ****         {
 917              		.loc 1 628 0
 918 0330 1546     		mov	r5, r2
 622:Drivers/STM32F7xx_HAL_Driver/Src/stm32f7xx_hal_rcc.c **** 
 919              		.loc 1 622 0
 920 0332 1360     		str	r3, [r2]
 625:Drivers/STM32F7xx_HAL_Driver/Src/stm32f7xx_hal_rcc.c **** 
 921              		.loc 1 625 0
 922 0334 FFF7FEFF 		bl	HAL_GetTick
 923              	.LVL94:
 924 0338 0646     		mov	r6, r0
 925              	.LVL95:
 628:Drivers/STM32F7xx_HAL_Driver/Src/stm32f7xx_hal_rcc.c ****         {
 926              		.loc 1 628 0
 927 033a 04E0     		b	.L72
 928              	.LVL96:
 929              	.L73:
 630:Drivers/STM32F7xx_HAL_Driver/Src/stm32f7xx_hal_rcc.c ****           {
 930              		.loc 1 630 0
 931 033c FFF7FEFF 		bl	HAL_GetTick
 932              	.LVL97:
 933 0340 801B     		subs	r0, r0, r6
 934 0342 0228     		cmp	r0, #2
 935 0344 86D8     		bhi	.L35
 936              	.L72:
 628:Drivers/STM32F7xx_HAL_Driver/Src/stm32f7xx_hal_rcc.c ****         {
 937              		.loc 1 628 0
 938 0346 2B68     		ldr	r3, [r5]
 939 0348 9901     		lsls	r1, r3, #6
 940 034a F7D4     		bmi	.L73
 645:Drivers/STM32F7xx_HAL_Driver/Src/stm32f7xx_hal_rcc.c ****                              RCC_OscInitStruct->PLL.PLLM,
 941              		.loc 1 645 0
 942 034c D4E90732 		ldrd	r3, r2, [r4, #28]
 943 0350 606A     		ldr	r0, [r4, #36]
 944 0352 1343     		orrs	r3, r3, r2
 945 0354 D4E90A21 		ldrd	r2, r1, [r4, #40]
 946 0358 43F00053 		orr	r3, r3, #536870912
 659:Drivers/STM32F7xx_HAL_Driver/Src/stm32f7xx_hal_rcc.c ****         {
 947              		.loc 1 659 0
 948 035c 0D4C     		ldr	r4, .L133
 949              	.LVL98:
 645:Drivers/STM32F7xx_HAL_Driver/Src/stm32f7xx_hal_rcc.c ****                              RCC_OscInitStruct->PLL.PLLM,
 950              		.loc 1 645 0
 951 035e 5208     		lsrs	r2, r2, #1
 952 0360 43EA8013 		orr	r3, r3, r0, lsl #6
 953 0364 013A     		subs	r2, r2, #1
 954 0366 43EA0163 		orr	r3, r3, r1, lsl #24
 955 036a 43EA0243 		orr	r3, r3, r2, lsl #16
 956 036e 6B60     		str	r3, [r5, #4]
 653:Drivers/STM32F7xx_HAL_Driver/Src/stm32f7xx_hal_rcc.c **** 
 957              		.loc 1 653 0
ARM GAS  /tmp/ccQLX8NK.s 			page 32


 958 0370 2B68     		ldr	r3, [r5]
 959 0372 43F08073 		orr	r3, r3, #16777216
 960 0376 2B60     		str	r3, [r5]
 656:Drivers/STM32F7xx_HAL_Driver/Src/stm32f7xx_hal_rcc.c **** 
 961              		.loc 1 656 0
 962 0378 FFF7FEFF 		bl	HAL_GetTick
 963              	.LVL99:
 964 037c 0546     		mov	r5, r0
 965              	.LVL100:
 659:Drivers/STM32F7xx_HAL_Driver/Src/stm32f7xx_hal_rcc.c ****         {
 966              		.loc 1 659 0
 967 037e 05E0     		b	.L74
 968              	.LVL101:
 969              	.L75:
 661:Drivers/STM32F7xx_HAL_Driver/Src/stm32f7xx_hal_rcc.c ****           {
 970              		.loc 1 661 0
 971 0380 FFF7FEFF 		bl	HAL_GetTick
 972              	.LVL102:
 973 0384 401B     		subs	r0, r0, r5
 974 0386 0228     		cmp	r0, #2
 975 0388 3FF664AF 		bhi	.L35
 976              	.L74:
 659:Drivers/STM32F7xx_HAL_Driver/Src/stm32f7xx_hal_rcc.c ****         {
 977              		.loc 1 659 0
 978 038c 2368     		ldr	r3, [r4]
 979 038e 9A01     		lsls	r2, r3, #6
 980 0390 F6D5     		bpl	.L75
 981 0392 1BE7     		b	.L76
 982              	.L134:
 983              		.align	2
 984              	.L133:
 985 0394 00380240 		.word	1073887232
 986              		.cfi_endproc
 987              	.LFE139:
 989              		.global	__aeabi_uldivmod
 990              		.global	__aeabi_ldivmod
 991              		.section	.text.HAL_RCC_ClockConfig,"ax",%progbits
 992              		.align	1
 993              		.p2align 2,,3
 994              		.global	HAL_RCC_ClockConfig
 995              		.syntax unified
 996              		.thumb
 997              		.thumb_func
 998              		.fpu fpv4-sp-d16
 1000              	HAL_RCC_ClockConfig:
 1001              	.LFB140:
 692:Drivers/STM32F7xx_HAL_Driver/Src/stm32f7xx_hal_rcc.c **** 
 693:Drivers/STM32F7xx_HAL_Driver/Src/stm32f7xx_hal_rcc.c **** /**
 694:Drivers/STM32F7xx_HAL_Driver/Src/stm32f7xx_hal_rcc.c ****   * @brief  Initializes the CPU, AHB and APB busses clocks according to the specified
 695:Drivers/STM32F7xx_HAL_Driver/Src/stm32f7xx_hal_rcc.c ****   *         parameters in the RCC_ClkInitStruct.
 696:Drivers/STM32F7xx_HAL_Driver/Src/stm32f7xx_hal_rcc.c ****   * @param  RCC_ClkInitStruct pointer to an RCC_OscInitTypeDef structure that
 697:Drivers/STM32F7xx_HAL_Driver/Src/stm32f7xx_hal_rcc.c ****   *         contains the configuration information for the RCC peripheral.
 698:Drivers/STM32F7xx_HAL_Driver/Src/stm32f7xx_hal_rcc.c ****   * @param  FLatency FLASH Latency, this parameter depend on device selected
 699:Drivers/STM32F7xx_HAL_Driver/Src/stm32f7xx_hal_rcc.c ****   *
 700:Drivers/STM32F7xx_HAL_Driver/Src/stm32f7xx_hal_rcc.c ****   * @note   The SystemCoreClock CMSIS variable is used to store System Clock Frequency
 701:Drivers/STM32F7xx_HAL_Driver/Src/stm32f7xx_hal_rcc.c ****   *         and updated by HAL_RCC_GetHCLKFreq() function called within this function
 702:Drivers/STM32F7xx_HAL_Driver/Src/stm32f7xx_hal_rcc.c ****   *
ARM GAS  /tmp/ccQLX8NK.s 			page 33


 703:Drivers/STM32F7xx_HAL_Driver/Src/stm32f7xx_hal_rcc.c ****   * @note   The HSI is used (enabled by hardware) as system clock source after
 704:Drivers/STM32F7xx_HAL_Driver/Src/stm32f7xx_hal_rcc.c ****   *         startup from Reset, wake-up from STOP and STANDBY mode, or in case
 705:Drivers/STM32F7xx_HAL_Driver/Src/stm32f7xx_hal_rcc.c ****   *         of failure of the HSE used directly or indirectly as system clock
 706:Drivers/STM32F7xx_HAL_Driver/Src/stm32f7xx_hal_rcc.c ****   *         (if the Clock Security System CSS is enabled).
 707:Drivers/STM32F7xx_HAL_Driver/Src/stm32f7xx_hal_rcc.c ****   *
 708:Drivers/STM32F7xx_HAL_Driver/Src/stm32f7xx_hal_rcc.c ****   * @note   A switch from one clock source to another occurs only if the target
 709:Drivers/STM32F7xx_HAL_Driver/Src/stm32f7xx_hal_rcc.c ****   *         clock source is ready (clock stable after startup delay or PLL locked).
 710:Drivers/STM32F7xx_HAL_Driver/Src/stm32f7xx_hal_rcc.c ****   *         If a clock source which is not yet ready is selected, the switch will
 711:Drivers/STM32F7xx_HAL_Driver/Src/stm32f7xx_hal_rcc.c ****   *         occur when the clock source will be ready.
 712:Drivers/STM32F7xx_HAL_Driver/Src/stm32f7xx_hal_rcc.c ****   *         You can use HAL_RCC_GetClockConfig() function to know which clock is
 713:Drivers/STM32F7xx_HAL_Driver/Src/stm32f7xx_hal_rcc.c ****   *         currently used as system clock source.
 714:Drivers/STM32F7xx_HAL_Driver/Src/stm32f7xx_hal_rcc.c ****   * @note   Depending on the device voltage range, the software has to set correctly
 715:Drivers/STM32F7xx_HAL_Driver/Src/stm32f7xx_hal_rcc.c ****   *         HPRE[3:0] bits to ensure that HCLK not exceed the maximum allowed frequency
 716:Drivers/STM32F7xx_HAL_Driver/Src/stm32f7xx_hal_rcc.c ****   *         (for more details refer to section above "Initialization/de-initialization functions")
 717:Drivers/STM32F7xx_HAL_Driver/Src/stm32f7xx_hal_rcc.c ****   * @retval None
 718:Drivers/STM32F7xx_HAL_Driver/Src/stm32f7xx_hal_rcc.c ****   */
 719:Drivers/STM32F7xx_HAL_Driver/Src/stm32f7xx_hal_rcc.c **** HAL_StatusTypeDef HAL_RCC_ClockConfig(RCC_ClkInitTypeDef  *RCC_ClkInitStruct, uint32_t FLatency)
 720:Drivers/STM32F7xx_HAL_Driver/Src/stm32f7xx_hal_rcc.c **** {
 1002              		.loc 1 720 0
 1003              		.cfi_startproc
 1004              		@ args = 0, pretend = 0, frame = 0
 1005              		@ frame_needed = 0, uses_anonymous_args = 0
 1006              	.LVL103:
 721:Drivers/STM32F7xx_HAL_Driver/Src/stm32f7xx_hal_rcc.c ****   uint32_t tickstart = 0;
 722:Drivers/STM32F7xx_HAL_Driver/Src/stm32f7xx_hal_rcc.c **** 
 723:Drivers/STM32F7xx_HAL_Driver/Src/stm32f7xx_hal_rcc.c ****   /* Check Null pointer */
 724:Drivers/STM32F7xx_HAL_Driver/Src/stm32f7xx_hal_rcc.c ****   if(RCC_ClkInitStruct == NULL)
 1007              		.loc 1 724 0
 1008 0000 78B1     		cbz	r0, .L184
 725:Drivers/STM32F7xx_HAL_Driver/Src/stm32f7xx_hal_rcc.c ****   {
 726:Drivers/STM32F7xx_HAL_Driver/Src/stm32f7xx_hal_rcc.c ****     return HAL_ERROR;
 727:Drivers/STM32F7xx_HAL_Driver/Src/stm32f7xx_hal_rcc.c ****   }
 728:Drivers/STM32F7xx_HAL_Driver/Src/stm32f7xx_hal_rcc.c **** 
 729:Drivers/STM32F7xx_HAL_Driver/Src/stm32f7xx_hal_rcc.c ****   /* Check the parameters */
 730:Drivers/STM32F7xx_HAL_Driver/Src/stm32f7xx_hal_rcc.c ****   assert_param(IS_RCC_CLOCKTYPE(RCC_ClkInitStruct->ClockType));
 731:Drivers/STM32F7xx_HAL_Driver/Src/stm32f7xx_hal_rcc.c ****   assert_param(IS_FLASH_LATENCY(FLatency));
 732:Drivers/STM32F7xx_HAL_Driver/Src/stm32f7xx_hal_rcc.c **** 
 733:Drivers/STM32F7xx_HAL_Driver/Src/stm32f7xx_hal_rcc.c ****   /* To correctly read data from FLASH memory, the number of wait states (LATENCY)
 734:Drivers/STM32F7xx_HAL_Driver/Src/stm32f7xx_hal_rcc.c ****      must be correctly programmed according to the frequency of the CPU clock
 735:Drivers/STM32F7xx_HAL_Driver/Src/stm32f7xx_hal_rcc.c ****      (HCLK) and the supply voltage of the device. */
 736:Drivers/STM32F7xx_HAL_Driver/Src/stm32f7xx_hal_rcc.c **** 
 737:Drivers/STM32F7xx_HAL_Driver/Src/stm32f7xx_hal_rcc.c ****   /* Increasing the CPU frequency */
 738:Drivers/STM32F7xx_HAL_Driver/Src/stm32f7xx_hal_rcc.c ****   if(FLatency > __HAL_FLASH_GET_LATENCY())
 1009              		.loc 1 738 0
 1010 0002 5E4A     		ldr	r2, .L190
 1011 0004 1368     		ldr	r3, [r2]
 1012 0006 03F00F03 		and	r3, r3, #15
 1013 000a 8B42     		cmp	r3, r1
 1014 000c 0BD2     		bcs	.L142
 739:Drivers/STM32F7xx_HAL_Driver/Src/stm32f7xx_hal_rcc.c ****   {
 740:Drivers/STM32F7xx_HAL_Driver/Src/stm32f7xx_hal_rcc.c ****     /* Program the new number of wait states to the LATENCY bits in the FLASH_ACR register */
 741:Drivers/STM32F7xx_HAL_Driver/Src/stm32f7xx_hal_rcc.c ****     __HAL_FLASH_SET_LATENCY(FLatency);
 1015              		.loc 1 741 0
 1016 000e 1368     		ldr	r3, [r2]
 1017 0010 23F00F03 		bic	r3, r3, #15
 1018 0014 0B43     		orrs	r3, r3, r1
 1019 0016 1360     		str	r3, [r2]
ARM GAS  /tmp/ccQLX8NK.s 			page 34


 742:Drivers/STM32F7xx_HAL_Driver/Src/stm32f7xx_hal_rcc.c **** 
 743:Drivers/STM32F7xx_HAL_Driver/Src/stm32f7xx_hal_rcc.c ****     /* Check that the new number of wait states is taken into account to access the Flash
 744:Drivers/STM32F7xx_HAL_Driver/Src/stm32f7xx_hal_rcc.c ****     memory by reading the FLASH_ACR register */
 745:Drivers/STM32F7xx_HAL_Driver/Src/stm32f7xx_hal_rcc.c ****     if(__HAL_FLASH_GET_LATENCY() != FLatency)
 1020              		.loc 1 745 0
 1021 0018 1368     		ldr	r3, [r2]
 1022 001a 03F00F03 		and	r3, r3, #15
 1023 001e 8B42     		cmp	r3, r1
 1024 0020 01D0     		beq	.L142
 1025              	.L184:
 726:Drivers/STM32F7xx_HAL_Driver/Src/stm32f7xx_hal_rcc.c ****   }
 1026              		.loc 1 726 0
 1027 0022 0120     		movs	r0, #1
 1028              	.LVL104:
 746:Drivers/STM32F7xx_HAL_Driver/Src/stm32f7xx_hal_rcc.c ****     {
 747:Drivers/STM32F7xx_HAL_Driver/Src/stm32f7xx_hal_rcc.c ****       return HAL_ERROR;
 748:Drivers/STM32F7xx_HAL_Driver/Src/stm32f7xx_hal_rcc.c ****     }
 749:Drivers/STM32F7xx_HAL_Driver/Src/stm32f7xx_hal_rcc.c ****   }
 750:Drivers/STM32F7xx_HAL_Driver/Src/stm32f7xx_hal_rcc.c **** 
 751:Drivers/STM32F7xx_HAL_Driver/Src/stm32f7xx_hal_rcc.c ****   /*-------------------------- HCLK Configuration --------------------------*/
 752:Drivers/STM32F7xx_HAL_Driver/Src/stm32f7xx_hal_rcc.c ****   if(((RCC_ClkInitStruct->ClockType) & RCC_CLOCKTYPE_HCLK) == RCC_CLOCKTYPE_HCLK)
 753:Drivers/STM32F7xx_HAL_Driver/Src/stm32f7xx_hal_rcc.c ****   {
 754:Drivers/STM32F7xx_HAL_Driver/Src/stm32f7xx_hal_rcc.c ****     /* Set the highest APBx dividers in order to ensure that we do not go through
 755:Drivers/STM32F7xx_HAL_Driver/Src/stm32f7xx_hal_rcc.c ****        a non-spec phase whatever we decrease or increase HCLK. */
 756:Drivers/STM32F7xx_HAL_Driver/Src/stm32f7xx_hal_rcc.c ****     if(((RCC_ClkInitStruct->ClockType) & RCC_CLOCKTYPE_PCLK1) == RCC_CLOCKTYPE_PCLK1)
 757:Drivers/STM32F7xx_HAL_Driver/Src/stm32f7xx_hal_rcc.c ****     {
 758:Drivers/STM32F7xx_HAL_Driver/Src/stm32f7xx_hal_rcc.c ****       MODIFY_REG(RCC->CFGR, RCC_CFGR_PPRE1, RCC_HCLK_DIV16);
 759:Drivers/STM32F7xx_HAL_Driver/Src/stm32f7xx_hal_rcc.c ****     }
 760:Drivers/STM32F7xx_HAL_Driver/Src/stm32f7xx_hal_rcc.c **** 
 761:Drivers/STM32F7xx_HAL_Driver/Src/stm32f7xx_hal_rcc.c ****     if(((RCC_ClkInitStruct->ClockType) & RCC_CLOCKTYPE_PCLK2) == RCC_CLOCKTYPE_PCLK2)
 762:Drivers/STM32F7xx_HAL_Driver/Src/stm32f7xx_hal_rcc.c ****     {
 763:Drivers/STM32F7xx_HAL_Driver/Src/stm32f7xx_hal_rcc.c ****       MODIFY_REG(RCC->CFGR, RCC_CFGR_PPRE2, (RCC_HCLK_DIV16 << 3));
 764:Drivers/STM32F7xx_HAL_Driver/Src/stm32f7xx_hal_rcc.c ****     }
 765:Drivers/STM32F7xx_HAL_Driver/Src/stm32f7xx_hal_rcc.c **** 
 766:Drivers/STM32F7xx_HAL_Driver/Src/stm32f7xx_hal_rcc.c ****     /* Set the new HCLK clock divider */
 767:Drivers/STM32F7xx_HAL_Driver/Src/stm32f7xx_hal_rcc.c ****     assert_param(IS_RCC_HCLK(RCC_ClkInitStruct->AHBCLKDivider));
 768:Drivers/STM32F7xx_HAL_Driver/Src/stm32f7xx_hal_rcc.c ****     MODIFY_REG(RCC->CFGR, RCC_CFGR_HPRE, RCC_ClkInitStruct->AHBCLKDivider);
 769:Drivers/STM32F7xx_HAL_Driver/Src/stm32f7xx_hal_rcc.c ****   }
 770:Drivers/STM32F7xx_HAL_Driver/Src/stm32f7xx_hal_rcc.c **** 
 771:Drivers/STM32F7xx_HAL_Driver/Src/stm32f7xx_hal_rcc.c ****   /*------------------------- SYSCLK Configuration ---------------------------*/
 772:Drivers/STM32F7xx_HAL_Driver/Src/stm32f7xx_hal_rcc.c ****   if(((RCC_ClkInitStruct->ClockType) & RCC_CLOCKTYPE_SYSCLK) == RCC_CLOCKTYPE_SYSCLK)
 773:Drivers/STM32F7xx_HAL_Driver/Src/stm32f7xx_hal_rcc.c ****   {
 774:Drivers/STM32F7xx_HAL_Driver/Src/stm32f7xx_hal_rcc.c ****     assert_param(IS_RCC_SYSCLKSOURCE(RCC_ClkInitStruct->SYSCLKSource));
 775:Drivers/STM32F7xx_HAL_Driver/Src/stm32f7xx_hal_rcc.c **** 
 776:Drivers/STM32F7xx_HAL_Driver/Src/stm32f7xx_hal_rcc.c ****     /* HSE is selected as System Clock Source */
 777:Drivers/STM32F7xx_HAL_Driver/Src/stm32f7xx_hal_rcc.c ****     if(RCC_ClkInitStruct->SYSCLKSource == RCC_SYSCLKSOURCE_HSE)
 778:Drivers/STM32F7xx_HAL_Driver/Src/stm32f7xx_hal_rcc.c ****     {
 779:Drivers/STM32F7xx_HAL_Driver/Src/stm32f7xx_hal_rcc.c ****       /* Check the HSE ready flag */
 780:Drivers/STM32F7xx_HAL_Driver/Src/stm32f7xx_hal_rcc.c ****       if(__HAL_RCC_GET_FLAG(RCC_FLAG_HSERDY) == RESET)
 781:Drivers/STM32F7xx_HAL_Driver/Src/stm32f7xx_hal_rcc.c ****       {
 782:Drivers/STM32F7xx_HAL_Driver/Src/stm32f7xx_hal_rcc.c ****         return HAL_ERROR;
 783:Drivers/STM32F7xx_HAL_Driver/Src/stm32f7xx_hal_rcc.c ****       }
 784:Drivers/STM32F7xx_HAL_Driver/Src/stm32f7xx_hal_rcc.c ****     }
 785:Drivers/STM32F7xx_HAL_Driver/Src/stm32f7xx_hal_rcc.c ****     /* PLL is selected as System Clock Source */
 786:Drivers/STM32F7xx_HAL_Driver/Src/stm32f7xx_hal_rcc.c ****     else if(RCC_ClkInitStruct->SYSCLKSource == RCC_SYSCLKSOURCE_PLLCLK)
 787:Drivers/STM32F7xx_HAL_Driver/Src/stm32f7xx_hal_rcc.c ****     {
 788:Drivers/STM32F7xx_HAL_Driver/Src/stm32f7xx_hal_rcc.c ****       /* Check the PLL ready flag */
ARM GAS  /tmp/ccQLX8NK.s 			page 35


 789:Drivers/STM32F7xx_HAL_Driver/Src/stm32f7xx_hal_rcc.c ****       if(__HAL_RCC_GET_FLAG(RCC_FLAG_PLLRDY) == RESET)
 790:Drivers/STM32F7xx_HAL_Driver/Src/stm32f7xx_hal_rcc.c ****       {
 791:Drivers/STM32F7xx_HAL_Driver/Src/stm32f7xx_hal_rcc.c ****         return HAL_ERROR;
 792:Drivers/STM32F7xx_HAL_Driver/Src/stm32f7xx_hal_rcc.c ****       }
 793:Drivers/STM32F7xx_HAL_Driver/Src/stm32f7xx_hal_rcc.c ****     }
 794:Drivers/STM32F7xx_HAL_Driver/Src/stm32f7xx_hal_rcc.c ****     /* HSI is selected as System Clock Source */
 795:Drivers/STM32F7xx_HAL_Driver/Src/stm32f7xx_hal_rcc.c ****     else
 796:Drivers/STM32F7xx_HAL_Driver/Src/stm32f7xx_hal_rcc.c ****     {
 797:Drivers/STM32F7xx_HAL_Driver/Src/stm32f7xx_hal_rcc.c ****       /* Check the HSI ready flag */
 798:Drivers/STM32F7xx_HAL_Driver/Src/stm32f7xx_hal_rcc.c ****       if(__HAL_RCC_GET_FLAG(RCC_FLAG_HSIRDY) == RESET)
 799:Drivers/STM32F7xx_HAL_Driver/Src/stm32f7xx_hal_rcc.c ****       {
 800:Drivers/STM32F7xx_HAL_Driver/Src/stm32f7xx_hal_rcc.c ****         return HAL_ERROR;
 801:Drivers/STM32F7xx_HAL_Driver/Src/stm32f7xx_hal_rcc.c ****       }
 802:Drivers/STM32F7xx_HAL_Driver/Src/stm32f7xx_hal_rcc.c ****     }
 803:Drivers/STM32F7xx_HAL_Driver/Src/stm32f7xx_hal_rcc.c **** 
 804:Drivers/STM32F7xx_HAL_Driver/Src/stm32f7xx_hal_rcc.c ****     __HAL_RCC_SYSCLK_CONFIG(RCC_ClkInitStruct->SYSCLKSource);
 805:Drivers/STM32F7xx_HAL_Driver/Src/stm32f7xx_hal_rcc.c **** 
 806:Drivers/STM32F7xx_HAL_Driver/Src/stm32f7xx_hal_rcc.c ****     /* Get Start Tick*/
 807:Drivers/STM32F7xx_HAL_Driver/Src/stm32f7xx_hal_rcc.c ****     tickstart = HAL_GetTick();
 808:Drivers/STM32F7xx_HAL_Driver/Src/stm32f7xx_hal_rcc.c **** 
 809:Drivers/STM32F7xx_HAL_Driver/Src/stm32f7xx_hal_rcc.c ****     while (__HAL_RCC_GET_SYSCLK_SOURCE() != (RCC_ClkInitStruct->SYSCLKSource << RCC_CFGR_SWS_Pos))
 810:Drivers/STM32F7xx_HAL_Driver/Src/stm32f7xx_hal_rcc.c ****     {
 811:Drivers/STM32F7xx_HAL_Driver/Src/stm32f7xx_hal_rcc.c ****       if ((HAL_GetTick() - tickstart) > CLOCKSWITCH_TIMEOUT_VALUE)
 812:Drivers/STM32F7xx_HAL_Driver/Src/stm32f7xx_hal_rcc.c ****       {
 813:Drivers/STM32F7xx_HAL_Driver/Src/stm32f7xx_hal_rcc.c ****         return HAL_TIMEOUT;
 814:Drivers/STM32F7xx_HAL_Driver/Src/stm32f7xx_hal_rcc.c ****       }
 815:Drivers/STM32F7xx_HAL_Driver/Src/stm32f7xx_hal_rcc.c ****     }
 816:Drivers/STM32F7xx_HAL_Driver/Src/stm32f7xx_hal_rcc.c ****   }
 817:Drivers/STM32F7xx_HAL_Driver/Src/stm32f7xx_hal_rcc.c **** 
 818:Drivers/STM32F7xx_HAL_Driver/Src/stm32f7xx_hal_rcc.c ****   /* Decreasing the number of wait states because of lower CPU frequency */
 819:Drivers/STM32F7xx_HAL_Driver/Src/stm32f7xx_hal_rcc.c ****   if(FLatency < __HAL_FLASH_GET_LATENCY())
 820:Drivers/STM32F7xx_HAL_Driver/Src/stm32f7xx_hal_rcc.c ****   {
 821:Drivers/STM32F7xx_HAL_Driver/Src/stm32f7xx_hal_rcc.c ****     /* Program the new number of wait states to the LATENCY bits in the FLASH_ACR register */
 822:Drivers/STM32F7xx_HAL_Driver/Src/stm32f7xx_hal_rcc.c ****     __HAL_FLASH_SET_LATENCY(FLatency);
 823:Drivers/STM32F7xx_HAL_Driver/Src/stm32f7xx_hal_rcc.c **** 
 824:Drivers/STM32F7xx_HAL_Driver/Src/stm32f7xx_hal_rcc.c ****     /* Check that the new number of wait states is taken into account to access the Flash
 825:Drivers/STM32F7xx_HAL_Driver/Src/stm32f7xx_hal_rcc.c ****     memory by reading the FLASH_ACR register */
 826:Drivers/STM32F7xx_HAL_Driver/Src/stm32f7xx_hal_rcc.c ****     if(__HAL_FLASH_GET_LATENCY() != FLatency)
 827:Drivers/STM32F7xx_HAL_Driver/Src/stm32f7xx_hal_rcc.c ****     {
 828:Drivers/STM32F7xx_HAL_Driver/Src/stm32f7xx_hal_rcc.c ****       return HAL_ERROR;
 829:Drivers/STM32F7xx_HAL_Driver/Src/stm32f7xx_hal_rcc.c ****     }
 830:Drivers/STM32F7xx_HAL_Driver/Src/stm32f7xx_hal_rcc.c ****   }
 831:Drivers/STM32F7xx_HAL_Driver/Src/stm32f7xx_hal_rcc.c **** 
 832:Drivers/STM32F7xx_HAL_Driver/Src/stm32f7xx_hal_rcc.c ****   /*-------------------------- PCLK1 Configuration ---------------------------*/
 833:Drivers/STM32F7xx_HAL_Driver/Src/stm32f7xx_hal_rcc.c ****   if(((RCC_ClkInitStruct->ClockType) & RCC_CLOCKTYPE_PCLK1) == RCC_CLOCKTYPE_PCLK1)
 834:Drivers/STM32F7xx_HAL_Driver/Src/stm32f7xx_hal_rcc.c ****   {
 835:Drivers/STM32F7xx_HAL_Driver/Src/stm32f7xx_hal_rcc.c ****     assert_param(IS_RCC_PCLK(RCC_ClkInitStruct->APB1CLKDivider));
 836:Drivers/STM32F7xx_HAL_Driver/Src/stm32f7xx_hal_rcc.c ****     MODIFY_REG(RCC->CFGR, RCC_CFGR_PPRE1, RCC_ClkInitStruct->APB1CLKDivider);
 837:Drivers/STM32F7xx_HAL_Driver/Src/stm32f7xx_hal_rcc.c ****   }
 838:Drivers/STM32F7xx_HAL_Driver/Src/stm32f7xx_hal_rcc.c **** 
 839:Drivers/STM32F7xx_HAL_Driver/Src/stm32f7xx_hal_rcc.c ****   /*-------------------------- PCLK2 Configuration ---------------------------*/
 840:Drivers/STM32F7xx_HAL_Driver/Src/stm32f7xx_hal_rcc.c ****   if(((RCC_ClkInitStruct->ClockType) & RCC_CLOCKTYPE_PCLK2) == RCC_CLOCKTYPE_PCLK2)
 841:Drivers/STM32F7xx_HAL_Driver/Src/stm32f7xx_hal_rcc.c ****   {
 842:Drivers/STM32F7xx_HAL_Driver/Src/stm32f7xx_hal_rcc.c ****     assert_param(IS_RCC_PCLK(RCC_ClkInitStruct->APB2CLKDivider));
 843:Drivers/STM32F7xx_HAL_Driver/Src/stm32f7xx_hal_rcc.c ****     MODIFY_REG(RCC->CFGR, RCC_CFGR_PPRE2, ((RCC_ClkInitStruct->APB2CLKDivider) << 3));
 844:Drivers/STM32F7xx_HAL_Driver/Src/stm32f7xx_hal_rcc.c ****   }
 845:Drivers/STM32F7xx_HAL_Driver/Src/stm32f7xx_hal_rcc.c **** 
ARM GAS  /tmp/ccQLX8NK.s 			page 36


 846:Drivers/STM32F7xx_HAL_Driver/Src/stm32f7xx_hal_rcc.c ****   /* Update the SystemCoreClock global variable */
 847:Drivers/STM32F7xx_HAL_Driver/Src/stm32f7xx_hal_rcc.c ****   SystemCoreClock = HAL_RCC_GetSysClockFreq() >> AHBPrescTable[(RCC->CFGR & RCC_CFGR_HPRE)>> RCC_CF
 848:Drivers/STM32F7xx_HAL_Driver/Src/stm32f7xx_hal_rcc.c **** 
 849:Drivers/STM32F7xx_HAL_Driver/Src/stm32f7xx_hal_rcc.c ****   /* Configure the source of time base considering new system clocks settings*/
 850:Drivers/STM32F7xx_HAL_Driver/Src/stm32f7xx_hal_rcc.c ****   HAL_InitTick (TICK_INT_PRIORITY);
 851:Drivers/STM32F7xx_HAL_Driver/Src/stm32f7xx_hal_rcc.c **** 
 852:Drivers/STM32F7xx_HAL_Driver/Src/stm32f7xx_hal_rcc.c ****   return HAL_OK;
 853:Drivers/STM32F7xx_HAL_Driver/Src/stm32f7xx_hal_rcc.c **** }
 1029              		.loc 1 853 0
 1030 0024 7047     		bx	lr
 1031              	.LVL105:
 1032              	.L142:
 752:Drivers/STM32F7xx_HAL_Driver/Src/stm32f7xx_hal_rcc.c ****   {
 1033              		.loc 1 752 0
 1034 0026 0368     		ldr	r3, [r0]
 720:Drivers/STM32F7xx_HAL_Driver/Src/stm32f7xx_hal_rcc.c ****   uint32_t tickstart = 0;
 1035              		.loc 1 720 0
 1036 0028 2DE9F041 		push	{r4, r5, r6, r7, r8, lr}
 1037              	.LCFI11:
 1038              		.cfi_def_cfa_offset 24
 1039              		.cfi_offset 4, -24
 1040              		.cfi_offset 5, -20
 1041              		.cfi_offset 6, -16
 1042              		.cfi_offset 7, -12
 1043              		.cfi_offset 8, -8
 1044              		.cfi_offset 14, -4
 752:Drivers/STM32F7xx_HAL_Driver/Src/stm32f7xx_hal_rcc.c ****   {
 1045              		.loc 1 752 0
 1046 002c 9D07     		lsls	r5, r3, #30
 1047 002e 14D5     		bpl	.L140
 756:Drivers/STM32F7xx_HAL_Driver/Src/stm32f7xx_hal_rcc.c ****     {
 1048              		.loc 1 756 0
 1049 0030 5C07     		lsls	r4, r3, #29
 1050 0032 04D5     		bpl	.L143
 758:Drivers/STM32F7xx_HAL_Driver/Src/stm32f7xx_hal_rcc.c ****     }
 1051              		.loc 1 758 0
 1052 0034 524C     		ldr	r4, .L190+4
 1053 0036 A268     		ldr	r2, [r4, #8]
 1054 0038 42F4E052 		orr	r2, r2, #7168
 1055 003c A260     		str	r2, [r4, #8]
 1056              	.L143:
 761:Drivers/STM32F7xx_HAL_Driver/Src/stm32f7xx_hal_rcc.c ****     {
 1057              		.loc 1 761 0
 1058 003e 1A07     		lsls	r2, r3, #28
 1059 0040 04D5     		bpl	.L144
 763:Drivers/STM32F7xx_HAL_Driver/Src/stm32f7xx_hal_rcc.c ****     }
 1060              		.loc 1 763 0
 1061 0042 4F4C     		ldr	r4, .L190+4
 1062 0044 A268     		ldr	r2, [r4, #8]
 1063 0046 42F46042 		orr	r2, r2, #57344
 1064 004a A260     		str	r2, [r4, #8]
 1065              	.L144:
 768:Drivers/STM32F7xx_HAL_Driver/Src/stm32f7xx_hal_rcc.c ****   }
 1066              		.loc 1 768 0
 1067 004c 4C4C     		ldr	r4, .L190+4
 1068 004e 8568     		ldr	r5, [r0, #8]
 1069 0050 A268     		ldr	r2, [r4, #8]
ARM GAS  /tmp/ccQLX8NK.s 			page 37


 1070 0052 22F0F002 		bic	r2, r2, #240
 1071 0056 2A43     		orrs	r2, r2, r5
 1072 0058 A260     		str	r2, [r4, #8]
 1073              	.L140:
 772:Drivers/STM32F7xx_HAL_Driver/Src/stm32f7xx_hal_rcc.c ****   {
 1074              		.loc 1 772 0
 1075 005a DF07     		lsls	r7, r3, #31
 1076 005c 0446     		mov	r4, r0
 1077 005e 0D46     		mov	r5, r1
 1078 0060 21D5     		bpl	.L153
 777:Drivers/STM32F7xx_HAL_Driver/Src/stm32f7xx_hal_rcc.c ****     {
 1079              		.loc 1 777 0
 1080 0062 4268     		ldr	r2, [r0, #4]
 780:Drivers/STM32F7xx_HAL_Driver/Src/stm32f7xx_hal_rcc.c ****       {
 1081              		.loc 1 780 0
 1082 0064 464B     		ldr	r3, .L190+4
 777:Drivers/STM32F7xx_HAL_Driver/Src/stm32f7xx_hal_rcc.c ****     {
 1083              		.loc 1 777 0
 1084 0066 012A     		cmp	r2, #1
 780:Drivers/STM32F7xx_HAL_Driver/Src/stm32f7xx_hal_rcc.c ****       {
 1085              		.loc 1 780 0
 1086 0068 1B68     		ldr	r3, [r3]
 777:Drivers/STM32F7xx_HAL_Driver/Src/stm32f7xx_hal_rcc.c ****     {
 1087              		.loc 1 777 0
 1088 006a 63D0     		beq	.L186
 786:Drivers/STM32F7xx_HAL_Driver/Src/stm32f7xx_hal_rcc.c ****     {
 1089              		.loc 1 786 0
 1090 006c 022A     		cmp	r2, #2
 1091 006e 78D0     		beq	.L187
 798:Drivers/STM32F7xx_HAL_Driver/Src/stm32f7xx_hal_rcc.c ****       {
 1092              		.loc 1 798 0
 1093 0070 9907     		lsls	r1, r3, #30
 1094              	.LVL106:
 1095 0072 28D5     		bpl	.L141
 1096              	.LVL107:
 1097              	.L149:
 804:Drivers/STM32F7xx_HAL_Driver/Src/stm32f7xx_hal_rcc.c **** 
 1098              		.loc 1 804 0
 1099 0074 4249     		ldr	r1, .L190+4
 811:Drivers/STM32F7xx_HAL_Driver/Src/stm32f7xx_hal_rcc.c ****       {
 1100              		.loc 1 811 0
 1101 0076 41F28838 		movw	r8, #5000
 804:Drivers/STM32F7xx_HAL_Driver/Src/stm32f7xx_hal_rcc.c **** 
 1102              		.loc 1 804 0
 1103 007a 8B68     		ldr	r3, [r1, #8]
 809:Drivers/STM32F7xx_HAL_Driver/Src/stm32f7xx_hal_rcc.c ****     {
 1104              		.loc 1 809 0
 1105 007c 0E46     		mov	r6, r1
 804:Drivers/STM32F7xx_HAL_Driver/Src/stm32f7xx_hal_rcc.c **** 
 1106              		.loc 1 804 0
 1107 007e 23F00303 		bic	r3, r3, #3
 1108 0082 1343     		orrs	r3, r3, r2
 1109 0084 8B60     		str	r3, [r1, #8]
 807:Drivers/STM32F7xx_HAL_Driver/Src/stm32f7xx_hal_rcc.c **** 
 1110              		.loc 1 807 0
 1111 0086 FFF7FEFF 		bl	HAL_GetTick
 1112              	.LVL108:
ARM GAS  /tmp/ccQLX8NK.s 			page 38


 1113 008a 0746     		mov	r7, r0
 1114              	.LVL109:
 809:Drivers/STM32F7xx_HAL_Driver/Src/stm32f7xx_hal_rcc.c ****     {
 1115              		.loc 1 809 0
 1116 008c 04E0     		b	.L151
 1117              	.LVL110:
 1118              	.L152:
 811:Drivers/STM32F7xx_HAL_Driver/Src/stm32f7xx_hal_rcc.c ****       {
 1119              		.loc 1 811 0
 1120 008e FFF7FEFF 		bl	HAL_GetTick
 1121              	.LVL111:
 1122 0092 C01B     		subs	r0, r0, r7
 1123 0094 4045     		cmp	r0, r8
 1124 0096 62D8     		bhi	.L162
 1125              	.L151:
 809:Drivers/STM32F7xx_HAL_Driver/Src/stm32f7xx_hal_rcc.c ****     {
 1126              		.loc 1 809 0
 1127 0098 B368     		ldr	r3, [r6, #8]
 1128 009a 6268     		ldr	r2, [r4, #4]
 1129 009c 03F00C03 		and	r3, r3, #12
 1130 00a0 B3EB820F 		cmp	r3, r2, lsl #2
 1131 00a4 F3D1     		bne	.L152
 1132              	.LVL112:
 1133              	.L153:
 819:Drivers/STM32F7xx_HAL_Driver/Src/stm32f7xx_hal_rcc.c ****   {
 1134              		.loc 1 819 0
 1135 00a6 354A     		ldr	r2, .L190
 1136 00a8 1368     		ldr	r3, [r2]
 1137 00aa 03F00F03 		and	r3, r3, #15
 1138 00ae AB42     		cmp	r3, r5
 1139 00b0 0CD9     		bls	.L147
 822:Drivers/STM32F7xx_HAL_Driver/Src/stm32f7xx_hal_rcc.c **** 
 1140              		.loc 1 822 0
 1141 00b2 1368     		ldr	r3, [r2]
 1142 00b4 23F00F03 		bic	r3, r3, #15
 1143 00b8 2B43     		orrs	r3, r3, r5
 1144 00ba 1360     		str	r3, [r2]
 826:Drivers/STM32F7xx_HAL_Driver/Src/stm32f7xx_hal_rcc.c ****     {
 1145              		.loc 1 826 0
 1146 00bc 1368     		ldr	r3, [r2]
 1147 00be 03F00F03 		and	r3, r3, #15
 1148 00c2 AB42     		cmp	r3, r5
 1149 00c4 02D0     		beq	.L147
 1150              	.L141:
 726:Drivers/STM32F7xx_HAL_Driver/Src/stm32f7xx_hal_rcc.c ****   }
 1151              		.loc 1 726 0
 1152 00c6 0120     		movs	r0, #1
 1153              	.L137:
 1154              		.loc 1 853 0
 1155 00c8 BDE8F081 		pop	{r4, r5, r6, r7, r8, pc}
 1156              	.LVL113:
 1157              	.L147:
 833:Drivers/STM32F7xx_HAL_Driver/Src/stm32f7xx_hal_rcc.c ****   {
 1158              		.loc 1 833 0
 1159 00cc 2368     		ldr	r3, [r4]
 1160 00ce 5A07     		lsls	r2, r3, #29
 1161 00d0 06D5     		bpl	.L155
ARM GAS  /tmp/ccQLX8NK.s 			page 39


 836:Drivers/STM32F7xx_HAL_Driver/Src/stm32f7xx_hal_rcc.c ****   }
 1162              		.loc 1 836 0
 1163 00d2 2B49     		ldr	r1, .L190+4
 1164 00d4 E068     		ldr	r0, [r4, #12]
 1165 00d6 8A68     		ldr	r2, [r1, #8]
 1166 00d8 22F4E052 		bic	r2, r2, #7168
 1167 00dc 0243     		orrs	r2, r2, r0
 1168 00de 8A60     		str	r2, [r1, #8]
 1169              	.L155:
 840:Drivers/STM32F7xx_HAL_Driver/Src/stm32f7xx_hal_rcc.c ****   {
 1170              		.loc 1 840 0
 1171 00e0 1B07     		lsls	r3, r3, #28
 1172 00e2 07D5     		bpl	.L156
 843:Drivers/STM32F7xx_HAL_Driver/Src/stm32f7xx_hal_rcc.c ****   }
 1173              		.loc 1 843 0
 1174 00e4 264A     		ldr	r2, .L190+4
 1175 00e6 2169     		ldr	r1, [r4, #16]
 1176 00e8 9368     		ldr	r3, [r2, #8]
 1177 00ea 23F46043 		bic	r3, r3, #57344
 1178 00ee 43EAC103 		orr	r3, r3, r1, lsl #3
 1179 00f2 9360     		str	r3, [r2, #8]
 1180              	.L156:
 1181              	.LVL114:
 1182              	.LBB12:
 1183              	.LBB13:
 854:Drivers/STM32F7xx_HAL_Driver/Src/stm32f7xx_hal_rcc.c **** 
 855:Drivers/STM32F7xx_HAL_Driver/Src/stm32f7xx_hal_rcc.c **** /**
 856:Drivers/STM32F7xx_HAL_Driver/Src/stm32f7xx_hal_rcc.c ****   * @}
 857:Drivers/STM32F7xx_HAL_Driver/Src/stm32f7xx_hal_rcc.c ****   */
 858:Drivers/STM32F7xx_HAL_Driver/Src/stm32f7xx_hal_rcc.c **** 
 859:Drivers/STM32F7xx_HAL_Driver/Src/stm32f7xx_hal_rcc.c **** /** @defgroup RCC_Exported_Functions_Group2 Peripheral Control functions
 860:Drivers/STM32F7xx_HAL_Driver/Src/stm32f7xx_hal_rcc.c ****   *  @brief   RCC clocks control functions
 861:Drivers/STM32F7xx_HAL_Driver/Src/stm32f7xx_hal_rcc.c ****   *
 862:Drivers/STM32F7xx_HAL_Driver/Src/stm32f7xx_hal_rcc.c ****   @verbatim
 863:Drivers/STM32F7xx_HAL_Driver/Src/stm32f7xx_hal_rcc.c ****   ===============================================================================
 864:Drivers/STM32F7xx_HAL_Driver/Src/stm32f7xx_hal_rcc.c ****                   ##### Peripheral Control functions #####
 865:Drivers/STM32F7xx_HAL_Driver/Src/stm32f7xx_hal_rcc.c ****   ===============================================================================
 866:Drivers/STM32F7xx_HAL_Driver/Src/stm32f7xx_hal_rcc.c ****     [..]
 867:Drivers/STM32F7xx_HAL_Driver/Src/stm32f7xx_hal_rcc.c ****     This subsection provides a set of functions allowing to control the RCC Clocks
 868:Drivers/STM32F7xx_HAL_Driver/Src/stm32f7xx_hal_rcc.c ****     frequencies.
 869:Drivers/STM32F7xx_HAL_Driver/Src/stm32f7xx_hal_rcc.c **** 
 870:Drivers/STM32F7xx_HAL_Driver/Src/stm32f7xx_hal_rcc.c **** @endverbatim
 871:Drivers/STM32F7xx_HAL_Driver/Src/stm32f7xx_hal_rcc.c ****   * @{
 872:Drivers/STM32F7xx_HAL_Driver/Src/stm32f7xx_hal_rcc.c ****   */
 873:Drivers/STM32F7xx_HAL_Driver/Src/stm32f7xx_hal_rcc.c **** 
 874:Drivers/STM32F7xx_HAL_Driver/Src/stm32f7xx_hal_rcc.c **** /**
 875:Drivers/STM32F7xx_HAL_Driver/Src/stm32f7xx_hal_rcc.c ****   * @brief  Selects the clock source to output on MCO1 pin(PA8) or on MCO2 pin(PC9).
 876:Drivers/STM32F7xx_HAL_Driver/Src/stm32f7xx_hal_rcc.c ****   * @note   PA8/PC9 should be configured in alternate function mode.
 877:Drivers/STM32F7xx_HAL_Driver/Src/stm32f7xx_hal_rcc.c ****   * @param  RCC_MCOx specifies the output direction for the clock source.
 878:Drivers/STM32F7xx_HAL_Driver/Src/stm32f7xx_hal_rcc.c ****   *          This parameter can be one of the following values:
 879:Drivers/STM32F7xx_HAL_Driver/Src/stm32f7xx_hal_rcc.c ****   *            @arg RCC_MCO1: Clock source to output on MCO1 pin(PA8).
 880:Drivers/STM32F7xx_HAL_Driver/Src/stm32f7xx_hal_rcc.c ****   *            @arg RCC_MCO2: Clock source to output on MCO2 pin(PC9).
 881:Drivers/STM32F7xx_HAL_Driver/Src/stm32f7xx_hal_rcc.c ****   * @param  RCC_MCOSource specifies the clock source to output.
 882:Drivers/STM32F7xx_HAL_Driver/Src/stm32f7xx_hal_rcc.c ****   *          This parameter can be one of the following values:
 883:Drivers/STM32F7xx_HAL_Driver/Src/stm32f7xx_hal_rcc.c ****   *            @arg RCC_MCO1SOURCE_HSI: HSI clock selected as MCO1 source
 884:Drivers/STM32F7xx_HAL_Driver/Src/stm32f7xx_hal_rcc.c ****   *            @arg RCC_MCO1SOURCE_LSE: LSE clock selected as MCO1 source
 885:Drivers/STM32F7xx_HAL_Driver/Src/stm32f7xx_hal_rcc.c ****   *            @arg RCC_MCO1SOURCE_HSE: HSE clock selected as MCO1 source
ARM GAS  /tmp/ccQLX8NK.s 			page 40


 886:Drivers/STM32F7xx_HAL_Driver/Src/stm32f7xx_hal_rcc.c ****   *            @arg RCC_MCO1SOURCE_PLLCLK: main PLL clock selected as MCO1 source
 887:Drivers/STM32F7xx_HAL_Driver/Src/stm32f7xx_hal_rcc.c ****   *            @arg RCC_MCO2SOURCE_SYSCLK: System clock (SYSCLK) selected as MCO2 source
 888:Drivers/STM32F7xx_HAL_Driver/Src/stm32f7xx_hal_rcc.c ****   *            @arg RCC_MCO2SOURCE_PLLI2SCLK: PLLI2S clock selected as MCO2 source
 889:Drivers/STM32F7xx_HAL_Driver/Src/stm32f7xx_hal_rcc.c ****   *            @arg RCC_MCO2SOURCE_HSE: HSE clock selected as MCO2 source
 890:Drivers/STM32F7xx_HAL_Driver/Src/stm32f7xx_hal_rcc.c ****   *            @arg RCC_MCO2SOURCE_PLLCLK: main PLL clock selected as MCO2 source
 891:Drivers/STM32F7xx_HAL_Driver/Src/stm32f7xx_hal_rcc.c ****   * @param  RCC_MCODiv specifies the MCOx prescaler.
 892:Drivers/STM32F7xx_HAL_Driver/Src/stm32f7xx_hal_rcc.c ****   *          This parameter can be one of the following values:
 893:Drivers/STM32F7xx_HAL_Driver/Src/stm32f7xx_hal_rcc.c ****   *            @arg RCC_MCODIV_1: no division applied to MCOx clock
 894:Drivers/STM32F7xx_HAL_Driver/Src/stm32f7xx_hal_rcc.c ****   *            @arg RCC_MCODIV_2: division by 2 applied to MCOx clock
 895:Drivers/STM32F7xx_HAL_Driver/Src/stm32f7xx_hal_rcc.c ****   *            @arg RCC_MCODIV_3: division by 3 applied to MCOx clock
 896:Drivers/STM32F7xx_HAL_Driver/Src/stm32f7xx_hal_rcc.c ****   *            @arg RCC_MCODIV_4: division by 4 applied to MCOx clock
 897:Drivers/STM32F7xx_HAL_Driver/Src/stm32f7xx_hal_rcc.c ****   *            @arg RCC_MCODIV_5: division by 5 applied to MCOx clock
 898:Drivers/STM32F7xx_HAL_Driver/Src/stm32f7xx_hal_rcc.c ****   * @retval None
 899:Drivers/STM32F7xx_HAL_Driver/Src/stm32f7xx_hal_rcc.c ****   */
 900:Drivers/STM32F7xx_HAL_Driver/Src/stm32f7xx_hal_rcc.c **** void HAL_RCC_MCOConfig(uint32_t RCC_MCOx, uint32_t RCC_MCOSource, uint32_t RCC_MCODiv)
 901:Drivers/STM32F7xx_HAL_Driver/Src/stm32f7xx_hal_rcc.c **** {
 902:Drivers/STM32F7xx_HAL_Driver/Src/stm32f7xx_hal_rcc.c ****   GPIO_InitTypeDef GPIO_InitStruct;
 903:Drivers/STM32F7xx_HAL_Driver/Src/stm32f7xx_hal_rcc.c ****   /* Check the parameters */
 904:Drivers/STM32F7xx_HAL_Driver/Src/stm32f7xx_hal_rcc.c ****   assert_param(IS_RCC_MCO(RCC_MCOx));
 905:Drivers/STM32F7xx_HAL_Driver/Src/stm32f7xx_hal_rcc.c ****   assert_param(IS_RCC_MCODIV(RCC_MCODiv));
 906:Drivers/STM32F7xx_HAL_Driver/Src/stm32f7xx_hal_rcc.c ****   /* RCC_MCO1 */
 907:Drivers/STM32F7xx_HAL_Driver/Src/stm32f7xx_hal_rcc.c ****   if(RCC_MCOx == RCC_MCO1)
 908:Drivers/STM32F7xx_HAL_Driver/Src/stm32f7xx_hal_rcc.c ****   {
 909:Drivers/STM32F7xx_HAL_Driver/Src/stm32f7xx_hal_rcc.c ****     assert_param(IS_RCC_MCO1SOURCE(RCC_MCOSource));
 910:Drivers/STM32F7xx_HAL_Driver/Src/stm32f7xx_hal_rcc.c **** 
 911:Drivers/STM32F7xx_HAL_Driver/Src/stm32f7xx_hal_rcc.c ****     /* MCO1 Clock Enable */
 912:Drivers/STM32F7xx_HAL_Driver/Src/stm32f7xx_hal_rcc.c ****     MCO1_CLK_ENABLE();
 913:Drivers/STM32F7xx_HAL_Driver/Src/stm32f7xx_hal_rcc.c **** 
 914:Drivers/STM32F7xx_HAL_Driver/Src/stm32f7xx_hal_rcc.c ****     /* Configure the MCO1 pin in alternate function mode */
 915:Drivers/STM32F7xx_HAL_Driver/Src/stm32f7xx_hal_rcc.c ****     GPIO_InitStruct.Pin = MCO1_PIN;
 916:Drivers/STM32F7xx_HAL_Driver/Src/stm32f7xx_hal_rcc.c ****     GPIO_InitStruct.Mode = GPIO_MODE_AF_PP;
 917:Drivers/STM32F7xx_HAL_Driver/Src/stm32f7xx_hal_rcc.c ****     GPIO_InitStruct.Speed = GPIO_SPEED_HIGH;
 918:Drivers/STM32F7xx_HAL_Driver/Src/stm32f7xx_hal_rcc.c ****     GPIO_InitStruct.Pull = GPIO_NOPULL;
 919:Drivers/STM32F7xx_HAL_Driver/Src/stm32f7xx_hal_rcc.c ****     GPIO_InitStruct.Alternate = GPIO_AF0_MCO;
 920:Drivers/STM32F7xx_HAL_Driver/Src/stm32f7xx_hal_rcc.c ****     HAL_GPIO_Init(MCO1_GPIO_PORT, &GPIO_InitStruct);
 921:Drivers/STM32F7xx_HAL_Driver/Src/stm32f7xx_hal_rcc.c **** 
 922:Drivers/STM32F7xx_HAL_Driver/Src/stm32f7xx_hal_rcc.c ****     /* Mask MCO1 and MCO1PRE[2:0] bits then Select MCO1 clock source and prescaler */
 923:Drivers/STM32F7xx_HAL_Driver/Src/stm32f7xx_hal_rcc.c ****     MODIFY_REG(RCC->CFGR, (RCC_CFGR_MCO1 | RCC_CFGR_MCO1PRE), (RCC_MCOSource | RCC_MCODiv));
 924:Drivers/STM32F7xx_HAL_Driver/Src/stm32f7xx_hal_rcc.c ****   }
 925:Drivers/STM32F7xx_HAL_Driver/Src/stm32f7xx_hal_rcc.c ****   else
 926:Drivers/STM32F7xx_HAL_Driver/Src/stm32f7xx_hal_rcc.c ****   {
 927:Drivers/STM32F7xx_HAL_Driver/Src/stm32f7xx_hal_rcc.c ****     assert_param(IS_RCC_MCO2SOURCE(RCC_MCOSource));
 928:Drivers/STM32F7xx_HAL_Driver/Src/stm32f7xx_hal_rcc.c **** 
 929:Drivers/STM32F7xx_HAL_Driver/Src/stm32f7xx_hal_rcc.c ****     /* MCO2 Clock Enable */
 930:Drivers/STM32F7xx_HAL_Driver/Src/stm32f7xx_hal_rcc.c ****     MCO2_CLK_ENABLE();
 931:Drivers/STM32F7xx_HAL_Driver/Src/stm32f7xx_hal_rcc.c **** 
 932:Drivers/STM32F7xx_HAL_Driver/Src/stm32f7xx_hal_rcc.c ****     /* Configure the MCO2 pin in alternate function mode */
 933:Drivers/STM32F7xx_HAL_Driver/Src/stm32f7xx_hal_rcc.c ****     GPIO_InitStruct.Pin = MCO2_PIN;
 934:Drivers/STM32F7xx_HAL_Driver/Src/stm32f7xx_hal_rcc.c ****     GPIO_InitStruct.Mode = GPIO_MODE_AF_PP;
 935:Drivers/STM32F7xx_HAL_Driver/Src/stm32f7xx_hal_rcc.c ****     GPIO_InitStruct.Speed = GPIO_SPEED_HIGH;
 936:Drivers/STM32F7xx_HAL_Driver/Src/stm32f7xx_hal_rcc.c ****     GPIO_InitStruct.Pull = GPIO_NOPULL;
 937:Drivers/STM32F7xx_HAL_Driver/Src/stm32f7xx_hal_rcc.c ****     GPIO_InitStruct.Alternate = GPIO_AF0_MCO;
 938:Drivers/STM32F7xx_HAL_Driver/Src/stm32f7xx_hal_rcc.c ****     HAL_GPIO_Init(MCO2_GPIO_PORT, &GPIO_InitStruct);
 939:Drivers/STM32F7xx_HAL_Driver/Src/stm32f7xx_hal_rcc.c **** 
 940:Drivers/STM32F7xx_HAL_Driver/Src/stm32f7xx_hal_rcc.c ****     /* Mask MCO2 and MCO2PRE[2:0] bits then Select MCO2 clock source and prescaler */
 941:Drivers/STM32F7xx_HAL_Driver/Src/stm32f7xx_hal_rcc.c ****     MODIFY_REG(RCC->CFGR, (RCC_CFGR_MCO2 | RCC_CFGR_MCO2PRE), (RCC_MCOSource | (RCC_MCODiv << 3)));
 942:Drivers/STM32F7xx_HAL_Driver/Src/stm32f7xx_hal_rcc.c ****   }
ARM GAS  /tmp/ccQLX8NK.s 			page 41


 943:Drivers/STM32F7xx_HAL_Driver/Src/stm32f7xx_hal_rcc.c **** }
 944:Drivers/STM32F7xx_HAL_Driver/Src/stm32f7xx_hal_rcc.c **** 
 945:Drivers/STM32F7xx_HAL_Driver/Src/stm32f7xx_hal_rcc.c **** /**
 946:Drivers/STM32F7xx_HAL_Driver/Src/stm32f7xx_hal_rcc.c ****   * @brief  Enables the Clock Security System.
 947:Drivers/STM32F7xx_HAL_Driver/Src/stm32f7xx_hal_rcc.c ****   * @note   If a failure is detected on the HSE oscillator clock, this oscillator
 948:Drivers/STM32F7xx_HAL_Driver/Src/stm32f7xx_hal_rcc.c ****   *         is automatically disabled and an interrupt is generated to inform the
 949:Drivers/STM32F7xx_HAL_Driver/Src/stm32f7xx_hal_rcc.c ****   *         software about the failure (Clock Security System Interrupt, CSSI),
 950:Drivers/STM32F7xx_HAL_Driver/Src/stm32f7xx_hal_rcc.c ****   *         allowing the MCU to perform rescue operations. The CSSI is linked to
 951:Drivers/STM32F7xx_HAL_Driver/Src/stm32f7xx_hal_rcc.c ****   *         the Cortex-M7 NMI (Non-Maskable Interrupt) exception vector.
 952:Drivers/STM32F7xx_HAL_Driver/Src/stm32f7xx_hal_rcc.c ****   * @retval None
 953:Drivers/STM32F7xx_HAL_Driver/Src/stm32f7xx_hal_rcc.c ****   */
 954:Drivers/STM32F7xx_HAL_Driver/Src/stm32f7xx_hal_rcc.c **** void HAL_RCC_EnableCSS(void)
 955:Drivers/STM32F7xx_HAL_Driver/Src/stm32f7xx_hal_rcc.c **** {
 956:Drivers/STM32F7xx_HAL_Driver/Src/stm32f7xx_hal_rcc.c ****   SET_BIT(RCC->CR, RCC_CR_CSSON);
 957:Drivers/STM32F7xx_HAL_Driver/Src/stm32f7xx_hal_rcc.c **** }
 958:Drivers/STM32F7xx_HAL_Driver/Src/stm32f7xx_hal_rcc.c **** 
 959:Drivers/STM32F7xx_HAL_Driver/Src/stm32f7xx_hal_rcc.c **** /**
 960:Drivers/STM32F7xx_HAL_Driver/Src/stm32f7xx_hal_rcc.c ****   * @brief  Disables the Clock Security System.
 961:Drivers/STM32F7xx_HAL_Driver/Src/stm32f7xx_hal_rcc.c ****   * @retval None
 962:Drivers/STM32F7xx_HAL_Driver/Src/stm32f7xx_hal_rcc.c ****   */
 963:Drivers/STM32F7xx_HAL_Driver/Src/stm32f7xx_hal_rcc.c **** void HAL_RCC_DisableCSS(void)
 964:Drivers/STM32F7xx_HAL_Driver/Src/stm32f7xx_hal_rcc.c **** {
 965:Drivers/STM32F7xx_HAL_Driver/Src/stm32f7xx_hal_rcc.c ****   CLEAR_BIT(RCC->CR, RCC_CR_CSSON);
 966:Drivers/STM32F7xx_HAL_Driver/Src/stm32f7xx_hal_rcc.c **** }
 967:Drivers/STM32F7xx_HAL_Driver/Src/stm32f7xx_hal_rcc.c **** 
 968:Drivers/STM32F7xx_HAL_Driver/Src/stm32f7xx_hal_rcc.c **** /**
 969:Drivers/STM32F7xx_HAL_Driver/Src/stm32f7xx_hal_rcc.c ****   * @brief  Returns the SYSCLK frequency
 970:Drivers/STM32F7xx_HAL_Driver/Src/stm32f7xx_hal_rcc.c ****   *
 971:Drivers/STM32F7xx_HAL_Driver/Src/stm32f7xx_hal_rcc.c ****   * @note   The system frequency computed by this function is not the real
 972:Drivers/STM32F7xx_HAL_Driver/Src/stm32f7xx_hal_rcc.c ****   *         frequency in the chip. It is calculated based on the predefined
 973:Drivers/STM32F7xx_HAL_Driver/Src/stm32f7xx_hal_rcc.c ****   *         constant and the selected clock source:
 974:Drivers/STM32F7xx_HAL_Driver/Src/stm32f7xx_hal_rcc.c ****   * @note     If SYSCLK source is HSI, function returns values based on HSI_VALUE(*)
 975:Drivers/STM32F7xx_HAL_Driver/Src/stm32f7xx_hal_rcc.c ****   * @note     If SYSCLK source is HSE, function returns values based on HSE_VALUE(**)
 976:Drivers/STM32F7xx_HAL_Driver/Src/stm32f7xx_hal_rcc.c ****   * @note     If SYSCLK source is PLL, function returns values based on HSE_VALUE(**)
 977:Drivers/STM32F7xx_HAL_Driver/Src/stm32f7xx_hal_rcc.c ****   *           or HSI_VALUE(*) multiplied/divided by the PLL factors.
 978:Drivers/STM32F7xx_HAL_Driver/Src/stm32f7xx_hal_rcc.c ****   * @note     (*) HSI_VALUE is a constant defined in stm32f7xx_hal_conf.h file (default value
 979:Drivers/STM32F7xx_HAL_Driver/Src/stm32f7xx_hal_rcc.c ****   *               16 MHz) but the real value may vary depending on the variations
 980:Drivers/STM32F7xx_HAL_Driver/Src/stm32f7xx_hal_rcc.c ****   *               in voltage and temperature.
 981:Drivers/STM32F7xx_HAL_Driver/Src/stm32f7xx_hal_rcc.c ****   * @note     (**) HSE_VALUE is a constant defined in stm32f7xx_hal_conf.h file (default value
 982:Drivers/STM32F7xx_HAL_Driver/Src/stm32f7xx_hal_rcc.c ****   *                25 MHz), user has to ensure that HSE_VALUE is same as the real
 983:Drivers/STM32F7xx_HAL_Driver/Src/stm32f7xx_hal_rcc.c ****   *                frequency of the crystal used. Otherwise, this function may
 984:Drivers/STM32F7xx_HAL_Driver/Src/stm32f7xx_hal_rcc.c ****   *                have wrong result.
 985:Drivers/STM32F7xx_HAL_Driver/Src/stm32f7xx_hal_rcc.c ****   *
 986:Drivers/STM32F7xx_HAL_Driver/Src/stm32f7xx_hal_rcc.c ****   * @note   The result of this function could be not correct when using fractional
 987:Drivers/STM32F7xx_HAL_Driver/Src/stm32f7xx_hal_rcc.c ****   *         value for HSE crystal.
 988:Drivers/STM32F7xx_HAL_Driver/Src/stm32f7xx_hal_rcc.c ****   *
 989:Drivers/STM32F7xx_HAL_Driver/Src/stm32f7xx_hal_rcc.c ****   * @note   This function can be used by the user application to compute the
 990:Drivers/STM32F7xx_HAL_Driver/Src/stm32f7xx_hal_rcc.c ****   *         baudrate for the communication peripherals or configure other parameters.
 991:Drivers/STM32F7xx_HAL_Driver/Src/stm32f7xx_hal_rcc.c ****   *
 992:Drivers/STM32F7xx_HAL_Driver/Src/stm32f7xx_hal_rcc.c ****   * @note   Each time SYSCLK changes, this function must be called to update the
 993:Drivers/STM32F7xx_HAL_Driver/Src/stm32f7xx_hal_rcc.c ****   *         right SYSCLK value. Otherwise, any configuration based on this function will be incorre
 994:Drivers/STM32F7xx_HAL_Driver/Src/stm32f7xx_hal_rcc.c ****   *
 995:Drivers/STM32F7xx_HAL_Driver/Src/stm32f7xx_hal_rcc.c ****   *
 996:Drivers/STM32F7xx_HAL_Driver/Src/stm32f7xx_hal_rcc.c ****   * @retval SYSCLK frequency
 997:Drivers/STM32F7xx_HAL_Driver/Src/stm32f7xx_hal_rcc.c ****   */
 998:Drivers/STM32F7xx_HAL_Driver/Src/stm32f7xx_hal_rcc.c **** uint32_t HAL_RCC_GetSysClockFreq(void)
 999:Drivers/STM32F7xx_HAL_Driver/Src/stm32f7xx_hal_rcc.c **** {
ARM GAS  /tmp/ccQLX8NK.s 			page 42


1000:Drivers/STM32F7xx_HAL_Driver/Src/stm32f7xx_hal_rcc.c ****   uint32_t pllm = 0, pllvco = 0, pllp = 0;
1001:Drivers/STM32F7xx_HAL_Driver/Src/stm32f7xx_hal_rcc.c ****   uint32_t sysclockfreq = 0;
1002:Drivers/STM32F7xx_HAL_Driver/Src/stm32f7xx_hal_rcc.c **** 
1003:Drivers/STM32F7xx_HAL_Driver/Src/stm32f7xx_hal_rcc.c ****   /* Get SYSCLK source -------------------------------------------------------*/
1004:Drivers/STM32F7xx_HAL_Driver/Src/stm32f7xx_hal_rcc.c ****   switch (RCC->CFGR & RCC_CFGR_SWS)
 1184              		.loc 1 1004 0
 1185 00f4 2249     		ldr	r1, .L190+4
 1186 00f6 8B68     		ldr	r3, [r1, #8]
 1187 00f8 03F00C03 		and	r3, r3, #12
 1188 00fc 042B     		cmp	r3, #4
 1189 00fe 1CD0     		beq	.L158
 1190 0100 082B     		cmp	r3, #8
 1191 0102 2AD1     		bne	.L188
 1192              	.LBB14:
 1193              	.LBB15:
1005:Drivers/STM32F7xx_HAL_Driver/Src/stm32f7xx_hal_rcc.c ****   {
1006:Drivers/STM32F7xx_HAL_Driver/Src/stm32f7xx_hal_rcc.c ****     case RCC_SYSCLKSOURCE_STATUS_HSI:  /* HSI used as system clock source */
1007:Drivers/STM32F7xx_HAL_Driver/Src/stm32f7xx_hal_rcc.c ****     {
1008:Drivers/STM32F7xx_HAL_Driver/Src/stm32f7xx_hal_rcc.c ****       sysclockfreq = HSI_VALUE;
1009:Drivers/STM32F7xx_HAL_Driver/Src/stm32f7xx_hal_rcc.c ****        break;
1010:Drivers/STM32F7xx_HAL_Driver/Src/stm32f7xx_hal_rcc.c ****     }
1011:Drivers/STM32F7xx_HAL_Driver/Src/stm32f7xx_hal_rcc.c ****     case RCC_SYSCLKSOURCE_STATUS_HSE:  /* HSE used as system clock  source */
1012:Drivers/STM32F7xx_HAL_Driver/Src/stm32f7xx_hal_rcc.c ****     {
1013:Drivers/STM32F7xx_HAL_Driver/Src/stm32f7xx_hal_rcc.c ****       sysclockfreq = HSE_VALUE;
1014:Drivers/STM32F7xx_HAL_Driver/Src/stm32f7xx_hal_rcc.c ****       break;
1015:Drivers/STM32F7xx_HAL_Driver/Src/stm32f7xx_hal_rcc.c ****     }
1016:Drivers/STM32F7xx_HAL_Driver/Src/stm32f7xx_hal_rcc.c ****     case RCC_SYSCLKSOURCE_STATUS_PLLCLK:  /* PLL used as system clock  source */
1017:Drivers/STM32F7xx_HAL_Driver/Src/stm32f7xx_hal_rcc.c ****     {
1018:Drivers/STM32F7xx_HAL_Driver/Src/stm32f7xx_hal_rcc.c ****       /* PLL_VCO = (HSE_VALUE or HSI_VALUE / PLLM) * PLLN
1019:Drivers/STM32F7xx_HAL_Driver/Src/stm32f7xx_hal_rcc.c ****       SYSCLK = PLL_VCO / PLLP */
1020:Drivers/STM32F7xx_HAL_Driver/Src/stm32f7xx_hal_rcc.c ****       pllm = RCC->PLLCFGR & RCC_PLLCFGR_PLLM;
 1194              		.loc 1 1020 0
 1195 0104 4A68     		ldr	r2, [r1, #4]
1021:Drivers/STM32F7xx_HAL_Driver/Src/stm32f7xx_hal_rcc.c ****       if (__HAL_RCC_GET_PLL_OSCSOURCE() != RCC_PLLCFGR_PLLSRC_HSI)
 1196              		.loc 1 1021 0
 1197 0106 4B68     		ldr	r3, [r1, #4]
1020:Drivers/STM32F7xx_HAL_Driver/Src/stm32f7xx_hal_rcc.c ****       if (__HAL_RCC_GET_PLL_OSCSOURCE() != RCC_PLLCFGR_PLLSRC_HSI)
 1198              		.loc 1 1020 0
 1199 0108 02F03F02 		and	r2, r2, #63
 1200              	.LVL115:
1022:Drivers/STM32F7xx_HAL_Driver/Src/stm32f7xx_hal_rcc.c ****       {
1023:Drivers/STM32F7xx_HAL_Driver/Src/stm32f7xx_hal_rcc.c ****         /* HSE used as PLL clock source */
1024:Drivers/STM32F7xx_HAL_Driver/Src/stm32f7xx_hal_rcc.c ****         pllvco = (uint32_t) ((((uint64_t) HSE_VALUE * ((uint64_t) ((RCC->PLLCFGR & RCC_PLLCFGR_PLLN
 1201              		.loc 1 1024 0
 1202 010c 4968     		ldr	r1, [r1, #4]
1021:Drivers/STM32F7xx_HAL_Driver/Src/stm32f7xx_hal_rcc.c ****       {
 1203              		.loc 1 1021 0
 1204 010e 13F48003 		ands	r3, r3, #4194304
 1205 0112 29D1     		bne	.L189
1025:Drivers/STM32F7xx_HAL_Driver/Src/stm32f7xx_hal_rcc.c ****       }
1026:Drivers/STM32F7xx_HAL_Driver/Src/stm32f7xx_hal_rcc.c ****       else
1027:Drivers/STM32F7xx_HAL_Driver/Src/stm32f7xx_hal_rcc.c ****       {
1028:Drivers/STM32F7xx_HAL_Driver/Src/stm32f7xx_hal_rcc.c ****         /* HSI used as PLL clock source */
1029:Drivers/STM32F7xx_HAL_Driver/Src/stm32f7xx_hal_rcc.c ****         pllvco = (uint32_t) ((((uint64_t) HSI_VALUE * ((uint64_t) ((RCC->PLLCFGR & RCC_PLLCFGR_PLLN
 1206              		.loc 1 1029 0
 1207 0114 1B48     		ldr	r0, .L190+8
 1208 0116 C1F38811 		ubfx	r1, r1, #6, #9
ARM GAS  /tmp/ccQLX8NK.s 			page 43


 1209 011a A1FB0001 		umull	r0, r1, r1, r0
 1210 011e FFF7FEFF 		bl	__aeabi_uldivmod
 1211              	.LVL116:
 1212              	.L161:
1030:Drivers/STM32F7xx_HAL_Driver/Src/stm32f7xx_hal_rcc.c ****       }
1031:Drivers/STM32F7xx_HAL_Driver/Src/stm32f7xx_hal_rcc.c ****       pllp = ((((RCC->PLLCFGR & RCC_PLLCFGR_PLLP) >> RCC_PLLCFGR_PLLP_Pos) + 1 ) *2);
 1213              		.loc 1 1031 0
 1214 0122 174B     		ldr	r3, .L190+4
 1215 0124 5B68     		ldr	r3, [r3, #4]
 1216              	.LVL117:
 1217 0126 C3F30143 		ubfx	r3, r3, #16, #2
 1218              	.LVL118:
 1219 012a 0133     		adds	r3, r3, #1
 1220 012c 5B00     		lsls	r3, r3, #1
1032:Drivers/STM32F7xx_HAL_Driver/Src/stm32f7xx_hal_rcc.c **** 
1033:Drivers/STM32F7xx_HAL_Driver/Src/stm32f7xx_hal_rcc.c ****       sysclockfreq = pllvco/pllp;
 1221              		.loc 1 1033 0
 1222 012e B0FBF3F3 		udiv	r3, r0, r3
 1223              	.LVL119:
 1224 0132 03E0     		b	.L157
 1225              	.LVL120:
 1226              	.L186:
 1227              	.LBE15:
 1228              	.LBE14:
 1229              	.LBE13:
 1230              	.LBE12:
 780:Drivers/STM32F7xx_HAL_Driver/Src/stm32f7xx_hal_rcc.c ****       {
 1231              		.loc 1 780 0
 1232 0134 9E03     		lsls	r6, r3, #14
 1233 0136 9DD4     		bmi	.L149
 1234 0138 C5E7     		b	.L141
 1235              	.LVL121:
 1236              	.L158:
 1237              	.LBB21:
 1238              	.LBB18:
1013:Drivers/STM32F7xx_HAL_Driver/Src/stm32f7xx_hal_rcc.c ****       break;
 1239              		.loc 1 1013 0
 1240 013a 134B     		ldr	r3, .L190+12
 1241              	.L157:
 1242              	.LVL122:
 1243              	.LBE18:
 1244              	.LBE21:
 847:Drivers/STM32F7xx_HAL_Driver/Src/stm32f7xx_hal_rcc.c **** 
 1245              		.loc 1 847 0
 1246 013c 104A     		ldr	r2, .L190+4
 850:Drivers/STM32F7xx_HAL_Driver/Src/stm32f7xx_hal_rcc.c **** 
 1247              		.loc 1 850 0
 1248 013e 0020     		movs	r0, #0
 847:Drivers/STM32F7xx_HAL_Driver/Src/stm32f7xx_hal_rcc.c **** 
 1249              		.loc 1 847 0
 1250 0140 124C     		ldr	r4, .L190+16
 1251              	.LVL123:
 1252 0142 9268     		ldr	r2, [r2, #8]
 1253 0144 1249     		ldr	r1, .L190+20
 1254 0146 C2F30312 		ubfx	r2, r2, #4, #4
 1255 014a A25C     		ldrb	r2, [r4, r2]	@ zero_extendqisi2
 1256 014c D340     		lsrs	r3, r3, r2
ARM GAS  /tmp/ccQLX8NK.s 			page 44


 1257 014e 0B60     		str	r3, [r1]
 850:Drivers/STM32F7xx_HAL_Driver/Src/stm32f7xx_hal_rcc.c **** 
 1258              		.loc 1 850 0
 1259 0150 FFF7FEFF 		bl	HAL_InitTick
 1260              	.LVL124:
 852:Drivers/STM32F7xx_HAL_Driver/Src/stm32f7xx_hal_rcc.c **** }
 1261              		.loc 1 852 0
 1262 0154 0020     		movs	r0, #0
 853:Drivers/STM32F7xx_HAL_Driver/Src/stm32f7xx_hal_rcc.c **** 
 1263              		.loc 1 853 0
 1264 0156 BDE8F081 		pop	{r4, r5, r6, r7, r8, pc}
 1265              	.LVL125:
 1266              	.L188:
 1267              	.LBB22:
 1268              	.LBB19:
1008:Drivers/STM32F7xx_HAL_Driver/Src/stm32f7xx_hal_rcc.c ****        break;
 1269              		.loc 1 1008 0
 1270 015a 0A4B     		ldr	r3, .L190+8
 1271 015c EEE7     		b	.L157
 1272              	.LVL126:
 1273              	.L162:
 1274              	.LBE19:
 1275              	.LBE22:
 813:Drivers/STM32F7xx_HAL_Driver/Src/stm32f7xx_hal_rcc.c ****       }
 1276              		.loc 1 813 0
 1277 015e 0320     		movs	r0, #3
 1278 0160 B2E7     		b	.L137
 1279              	.LVL127:
 1280              	.L187:
 789:Drivers/STM32F7xx_HAL_Driver/Src/stm32f7xx_hal_rcc.c ****       {
 1281              		.loc 1 789 0
 1282 0162 9801     		lsls	r0, r3, #6
 1283              	.LVL128:
 1284 0164 86D4     		bmi	.L149
 1285 0166 AEE7     		b	.L141
 1286              	.LVL129:
 1287              	.L189:
 1288              	.LBB23:
 1289              	.LBB20:
 1290              	.LBB17:
 1291              	.LBB16:
1024:Drivers/STM32F7xx_HAL_Driver/Src/stm32f7xx_hal_rcc.c ****       }
 1292              		.loc 1 1024 0
 1293 0168 0748     		ldr	r0, .L190+12
 1294 016a C1F38811 		ubfx	r1, r1, #6, #9
 1295 016e 0023     		movs	r3, #0
 1296 0170 A1FB0001 		umull	r0, r1, r1, r0
 1297 0174 FFF7FEFF 		bl	__aeabi_uldivmod
 1298              	.LVL130:
 1299 0178 D3E7     		b	.L161
 1300              	.L191:
 1301 017a 00BF     		.align	2
 1302              	.L190:
 1303 017c 003C0240 		.word	1073888256
 1304 0180 00380240 		.word	1073887232
 1305 0184 0024F400 		.word	16000000
 1306 0188 00127A00 		.word	8000000
ARM GAS  /tmp/ccQLX8NK.s 			page 45


 1307 018c 00000000 		.word	AHBPrescTable
 1308 0190 00000000 		.word	SystemCoreClock
 1309              	.LBE16:
 1310              	.LBE17:
 1311              	.LBE20:
 1312              	.LBE23:
 1313              		.cfi_endproc
 1314              	.LFE140:
 1316              		.section	.text.HAL_RCC_MCOConfig,"ax",%progbits
 1317              		.align	1
 1318              		.p2align 2,,3
 1319              		.global	HAL_RCC_MCOConfig
 1320              		.syntax unified
 1321              		.thumb
 1322              		.thumb_func
 1323              		.fpu fpv4-sp-d16
 1325              	HAL_RCC_MCOConfig:
 1326              	.LFB141:
 901:Drivers/STM32F7xx_HAL_Driver/Src/stm32f7xx_hal_rcc.c ****   GPIO_InitTypeDef GPIO_InitStruct;
 1327              		.loc 1 901 0
 1328              		.cfi_startproc
 1329              		@ args = 0, pretend = 0, frame = 32
 1330              		@ frame_needed = 0, uses_anonymous_args = 0
 1331              	.LVL131:
 1332 0000 F0B5     		push	{r4, r5, r6, r7, lr}
 1333              	.LCFI12:
 1334              		.cfi_def_cfa_offset 20
 1335              		.cfi_offset 4, -20
 1336              		.cfi_offset 5, -16
 1337              		.cfi_offset 6, -12
 1338              		.cfi_offset 7, -8
 1339              		.cfi_offset 14, -4
 1340 0002 0E46     		mov	r6, r1
 1341 0004 89B0     		sub	sp, sp, #36
 1342              	.LCFI13:
 1343              		.cfi_def_cfa_offset 56
 901:Drivers/STM32F7xx_HAL_Driver/Src/stm32f7xx_hal_rcc.c ****   GPIO_InitTypeDef GPIO_InitStruct;
 1344              		.loc 1 901 0
 1345 0006 1546     		mov	r5, r2
 1346              	.LBB24:
 912:Drivers/STM32F7xx_HAL_Driver/Src/stm32f7xx_hal_rcc.c **** 
 1347              		.loc 1 912 0
 1348 0008 1F4C     		ldr	r4, .L197
 1349              	.LBE24:
 907:Drivers/STM32F7xx_HAL_Driver/Src/stm32f7xx_hal_rcc.c ****   {
 1350              		.loc 1 907 0
 1351 000a F8B1     		cbz	r0, .L196
 1352              	.LBB25:
 930:Drivers/STM32F7xx_HAL_Driver/Src/stm32f7xx_hal_rcc.c **** 
 1353              		.loc 1 930 0
 1354 000c 236B     		ldr	r3, [r4, #48]
 1355              	.LBE25:
 934:Drivers/STM32F7xx_HAL_Driver/Src/stm32f7xx_hal_rcc.c ****     GPIO_InitStruct.Speed = GPIO_SPEED_HIGH;
 1356              		.loc 1 934 0
 1357 000e 0222     		movs	r2, #2
 1358              	.LVL132:
 933:Drivers/STM32F7xx_HAL_Driver/Src/stm32f7xx_hal_rcc.c ****     GPIO_InitStruct.Mode = GPIO_MODE_AF_PP;
ARM GAS  /tmp/ccQLX8NK.s 			page 46


 1359              		.loc 1 933 0
 1360 0010 4FF40070 		mov	r0, #512
 1361              	.LVL133:
 935:Drivers/STM32F7xx_HAL_Driver/Src/stm32f7xx_hal_rcc.c ****     GPIO_InitStruct.Pull = GPIO_NOPULL;
 1362              		.loc 1 935 0
 1363 0014 0321     		movs	r1, #3
 1364              	.LVL134:
 1365              	.LBB26:
 930:Drivers/STM32F7xx_HAL_Driver/Src/stm32f7xx_hal_rcc.c **** 
 1366              		.loc 1 930 0
 1367 0016 43F00403 		orr	r3, r3, #4
 1368 001a 2363     		str	r3, [r4, #48]
 1369 001c 236B     		ldr	r3, [r4, #48]
 1370              	.LBE26:
 934:Drivers/STM32F7xx_HAL_Driver/Src/stm32f7xx_hal_rcc.c ****     GPIO_InitStruct.Speed = GPIO_SPEED_HIGH;
 1371              		.loc 1 934 0
 1372 001e 0492     		str	r2, [sp, #16]
 936:Drivers/STM32F7xx_HAL_Driver/Src/stm32f7xx_hal_rcc.c ****     GPIO_InitStruct.Alternate = GPIO_AF0_MCO;
 1373              		.loc 1 936 0
 1374 0020 0022     		movs	r2, #0
 1375              	.LBB27:
 930:Drivers/STM32F7xx_HAL_Driver/Src/stm32f7xx_hal_rcc.c **** 
 1376              		.loc 1 930 0
 1377 0022 03F00403 		and	r3, r3, #4
 1378              	.LBE27:
 933:Drivers/STM32F7xx_HAL_Driver/Src/stm32f7xx_hal_rcc.c ****     GPIO_InitStruct.Mode = GPIO_MODE_AF_PP;
 1379              		.loc 1 933 0
 1380 0026 0390     		str	r0, [sp, #12]
 935:Drivers/STM32F7xx_HAL_Driver/Src/stm32f7xx_hal_rcc.c ****     GPIO_InitStruct.Pull = GPIO_NOPULL;
 1381              		.loc 1 935 0
 1382 0028 0691     		str	r1, [sp, #24]
 938:Drivers/STM32F7xx_HAL_Driver/Src/stm32f7xx_hal_rcc.c **** 
 1383              		.loc 1 938 0
 1384 002a 03A9     		add	r1, sp, #12
 1385              	.LBB28:
 930:Drivers/STM32F7xx_HAL_Driver/Src/stm32f7xx_hal_rcc.c **** 
 1386              		.loc 1 930 0
 1387 002c 0293     		str	r3, [sp, #8]
 1388              	.LBE28:
 938:Drivers/STM32F7xx_HAL_Driver/Src/stm32f7xx_hal_rcc.c **** 
 1389              		.loc 1 938 0
 1390 002e 1748     		ldr	r0, .L197+4
 1391              	.LBB29:
 930:Drivers/STM32F7xx_HAL_Driver/Src/stm32f7xx_hal_rcc.c **** 
 1392              		.loc 1 930 0
 1393 0030 029B     		ldr	r3, [sp, #8]
 1394              	.LBE29:
 936:Drivers/STM32F7xx_HAL_Driver/Src/stm32f7xx_hal_rcc.c ****     GPIO_InitStruct.Alternate = GPIO_AF0_MCO;
 1395              		.loc 1 936 0
 1396 0032 0592     		str	r2, [sp, #20]
 937:Drivers/STM32F7xx_HAL_Driver/Src/stm32f7xx_hal_rcc.c ****     HAL_GPIO_Init(MCO2_GPIO_PORT, &GPIO_InitStruct);
 1397              		.loc 1 937 0
 1398 0034 0792     		str	r2, [sp, #28]
 938:Drivers/STM32F7xx_HAL_Driver/Src/stm32f7xx_hal_rcc.c **** 
 1399              		.loc 1 938 0
 1400 0036 FFF7FEFF 		bl	HAL_GPIO_Init
 1401              	.LVL135:
ARM GAS  /tmp/ccQLX8NK.s 			page 47


 941:Drivers/STM32F7xx_HAL_Driver/Src/stm32f7xx_hal_rcc.c ****   }
 1402              		.loc 1 941 0
 1403 003a A168     		ldr	r1, [r4, #8]
 1404 003c 21F07841 		bic	r1, r1, #-134217728
 1405 0040 3143     		orrs	r1, r1, r6
 1406 0042 41EAC501 		orr	r1, r1, r5, lsl #3
 1407 0046 A160     		str	r1, [r4, #8]
 943:Drivers/STM32F7xx_HAL_Driver/Src/stm32f7xx_hal_rcc.c **** 
 1408              		.loc 1 943 0
 1409 0048 09B0     		add	sp, sp, #36
 1410              	.LCFI14:
 1411              		.cfi_remember_state
 1412              		.cfi_def_cfa_offset 20
 1413              		@ sp needed
 1414 004a F0BD     		pop	{r4, r5, r6, r7, pc}
 1415              	.LVL136:
 1416              	.L196:
 1417              	.LCFI15:
 1418              		.cfi_restore_state
 1419              	.LBB30:
 912:Drivers/STM32F7xx_HAL_Driver/Src/stm32f7xx_hal_rcc.c **** 
 1420              		.loc 1 912 0
 1421 004c 236B     		ldr	r3, [r4, #48]
 1422              	.LBE30:
 915:Drivers/STM32F7xx_HAL_Driver/Src/stm32f7xx_hal_rcc.c ****     GPIO_InitStruct.Mode = GPIO_MODE_AF_PP;
 1423              		.loc 1 915 0
 1424 004e 4FF48072 		mov	r2, #256
 1425              	.LVL137:
 916:Drivers/STM32F7xx_HAL_Driver/Src/stm32f7xx_hal_rcc.c ****     GPIO_InitStruct.Speed = GPIO_SPEED_HIGH;
 1426              		.loc 1 916 0
 1427 0052 0227     		movs	r7, #2
 920:Drivers/STM32F7xx_HAL_Driver/Src/stm32f7xx_hal_rcc.c **** 
 1428              		.loc 1 920 0
 1429 0054 03A9     		add	r1, sp, #12
 1430              	.LVL138:
 1431              	.LBB31:
 912:Drivers/STM32F7xx_HAL_Driver/Src/stm32f7xx_hal_rcc.c **** 
 1432              		.loc 1 912 0
 1433 0056 43F00103 		orr	r3, r3, #1
 1434 005a 2363     		str	r3, [r4, #48]
 1435 005c 236B     		ldr	r3, [r4, #48]
 1436              	.LBE31:
 915:Drivers/STM32F7xx_HAL_Driver/Src/stm32f7xx_hal_rcc.c ****     GPIO_InitStruct.Mode = GPIO_MODE_AF_PP;
 1437              		.loc 1 915 0
 1438 005e 0392     		str	r2, [sp, #12]
 917:Drivers/STM32F7xx_HAL_Driver/Src/stm32f7xx_hal_rcc.c ****     GPIO_InitStruct.Pull = GPIO_NOPULL;
 1439              		.loc 1 917 0
 1440 0060 0322     		movs	r2, #3
 1441              	.LBB32:
 912:Drivers/STM32F7xx_HAL_Driver/Src/stm32f7xx_hal_rcc.c **** 
 1442              		.loc 1 912 0
 1443 0062 03F00103 		and	r3, r3, #1
 1444              	.LBE32:
 918:Drivers/STM32F7xx_HAL_Driver/Src/stm32f7xx_hal_rcc.c ****     GPIO_InitStruct.Alternate = GPIO_AF0_MCO;
 1445              		.loc 1 918 0
 1446 0066 0590     		str	r0, [sp, #20]
 919:Drivers/STM32F7xx_HAL_Driver/Src/stm32f7xx_hal_rcc.c ****     HAL_GPIO_Init(MCO1_GPIO_PORT, &GPIO_InitStruct);
ARM GAS  /tmp/ccQLX8NK.s 			page 48


 1447              		.loc 1 919 0
 1448 0068 0790     		str	r0, [sp, #28]
 1449              	.LBB33:
 912:Drivers/STM32F7xx_HAL_Driver/Src/stm32f7xx_hal_rcc.c **** 
 1450              		.loc 1 912 0
 1451 006a 0193     		str	r3, [sp, #4]
 1452              	.LBE33:
 920:Drivers/STM32F7xx_HAL_Driver/Src/stm32f7xx_hal_rcc.c **** 
 1453              		.loc 1 920 0
 1454 006c 0848     		ldr	r0, .L197+8
 1455              	.LVL139:
 1456              	.LBB34:
 912:Drivers/STM32F7xx_HAL_Driver/Src/stm32f7xx_hal_rcc.c **** 
 1457              		.loc 1 912 0
 1458 006e 019B     		ldr	r3, [sp, #4]
 1459              	.LBE34:
 916:Drivers/STM32F7xx_HAL_Driver/Src/stm32f7xx_hal_rcc.c ****     GPIO_InitStruct.Speed = GPIO_SPEED_HIGH;
 1460              		.loc 1 916 0
 1461 0070 0497     		str	r7, [sp, #16]
 917:Drivers/STM32F7xx_HAL_Driver/Src/stm32f7xx_hal_rcc.c ****     GPIO_InitStruct.Pull = GPIO_NOPULL;
 1462              		.loc 1 917 0
 1463 0072 0692     		str	r2, [sp, #24]
 920:Drivers/STM32F7xx_HAL_Driver/Src/stm32f7xx_hal_rcc.c **** 
 1464              		.loc 1 920 0
 1465 0074 FFF7FEFF 		bl	HAL_GPIO_Init
 1466              	.LVL140:
 923:Drivers/STM32F7xx_HAL_Driver/Src/stm32f7xx_hal_rcc.c ****   }
 1467              		.loc 1 923 0
 1468 0078 A168     		ldr	r1, [r4, #8]
 1469 007a 21F0EC61 		bic	r1, r1, #123731968
 1470 007e 3143     		orrs	r1, r1, r6
 1471 0080 2943     		orrs	r1, r1, r5
 1472 0082 A160     		str	r1, [r4, #8]
 943:Drivers/STM32F7xx_HAL_Driver/Src/stm32f7xx_hal_rcc.c **** 
 1473              		.loc 1 943 0
 1474 0084 09B0     		add	sp, sp, #36
 1475              	.LCFI16:
 1476              		.cfi_def_cfa_offset 20
 1477              		@ sp needed
 1478 0086 F0BD     		pop	{r4, r5, r6, r7, pc}
 1479              	.LVL141:
 1480              	.L198:
 1481              		.align	2
 1482              	.L197:
 1483 0088 00380240 		.word	1073887232
 1484 008c 00080240 		.word	1073874944
 1485 0090 00000240 		.word	1073872896
 1486              		.cfi_endproc
 1487              	.LFE141:
 1489              		.section	.text.HAL_RCC_EnableCSS,"ax",%progbits
 1490              		.align	1
 1491              		.p2align 2,,3
 1492              		.global	HAL_RCC_EnableCSS
 1493              		.syntax unified
 1494              		.thumb
 1495              		.thumb_func
 1496              		.fpu fpv4-sp-d16
ARM GAS  /tmp/ccQLX8NK.s 			page 49


 1498              	HAL_RCC_EnableCSS:
 1499              	.LFB142:
 955:Drivers/STM32F7xx_HAL_Driver/Src/stm32f7xx_hal_rcc.c ****   SET_BIT(RCC->CR, RCC_CR_CSSON);
 1500              		.loc 1 955 0
 1501              		.cfi_startproc
 1502              		@ args = 0, pretend = 0, frame = 0
 1503              		@ frame_needed = 0, uses_anonymous_args = 0
 1504              		@ link register save eliminated.
 956:Drivers/STM32F7xx_HAL_Driver/Src/stm32f7xx_hal_rcc.c **** }
 1505              		.loc 1 956 0
 1506 0000 024A     		ldr	r2, .L200
 1507 0002 1368     		ldr	r3, [r2]
 1508 0004 43F40023 		orr	r3, r3, #524288
 1509 0008 1360     		str	r3, [r2]
 957:Drivers/STM32F7xx_HAL_Driver/Src/stm32f7xx_hal_rcc.c **** 
 1510              		.loc 1 957 0
 1511 000a 7047     		bx	lr
 1512              	.L201:
 1513              		.align	2
 1514              	.L200:
 1515 000c 00380240 		.word	1073887232
 1516              		.cfi_endproc
 1517              	.LFE142:
 1519              		.section	.text.HAL_RCC_DisableCSS,"ax",%progbits
 1520              		.align	1
 1521              		.p2align 2,,3
 1522              		.global	HAL_RCC_DisableCSS
 1523              		.syntax unified
 1524              		.thumb
 1525              		.thumb_func
 1526              		.fpu fpv4-sp-d16
 1528              	HAL_RCC_DisableCSS:
 1529              	.LFB143:
 964:Drivers/STM32F7xx_HAL_Driver/Src/stm32f7xx_hal_rcc.c ****   CLEAR_BIT(RCC->CR, RCC_CR_CSSON);
 1530              		.loc 1 964 0
 1531              		.cfi_startproc
 1532              		@ args = 0, pretend = 0, frame = 0
 1533              		@ frame_needed = 0, uses_anonymous_args = 0
 1534              		@ link register save eliminated.
 965:Drivers/STM32F7xx_HAL_Driver/Src/stm32f7xx_hal_rcc.c **** }
 1535              		.loc 1 965 0
 1536 0000 024A     		ldr	r2, .L203
 1537 0002 1368     		ldr	r3, [r2]
 1538 0004 23F40023 		bic	r3, r3, #524288
 1539 0008 1360     		str	r3, [r2]
 966:Drivers/STM32F7xx_HAL_Driver/Src/stm32f7xx_hal_rcc.c **** 
 1540              		.loc 1 966 0
 1541 000a 7047     		bx	lr
 1542              	.L204:
 1543              		.align	2
 1544              	.L203:
 1545 000c 00380240 		.word	1073887232
 1546              		.cfi_endproc
 1547              	.LFE143:
 1549              		.section	.text.HAL_RCC_GetSysClockFreq,"ax",%progbits
 1550              		.align	1
 1551              		.p2align 2,,3
ARM GAS  /tmp/ccQLX8NK.s 			page 50


 1552              		.global	HAL_RCC_GetSysClockFreq
 1553              		.syntax unified
 1554              		.thumb
 1555              		.thumb_func
 1556              		.fpu fpv4-sp-d16
 1558              	HAL_RCC_GetSysClockFreq:
 1559              	.LFB144:
 999:Drivers/STM32F7xx_HAL_Driver/Src/stm32f7xx_hal_rcc.c ****   uint32_t pllm = 0, pllvco = 0, pllp = 0;
 1560              		.loc 1 999 0
 1561              		.cfi_startproc
 1562              		@ args = 0, pretend = 0, frame = 0
 1563              		@ frame_needed = 0, uses_anonymous_args = 0
 1564              	.LVL142:
1004:Drivers/STM32F7xx_HAL_Driver/Src/stm32f7xx_hal_rcc.c ****   {
 1565              		.loc 1 1004 0
 1566 0000 1649     		ldr	r1, .L216
 999:Drivers/STM32F7xx_HAL_Driver/Src/stm32f7xx_hal_rcc.c ****   uint32_t pllm = 0, pllvco = 0, pllp = 0;
 1567              		.loc 1 999 0
 1568 0002 08B5     		push	{r3, lr}
 1569              	.LCFI17:
 1570              		.cfi_def_cfa_offset 8
 1571              		.cfi_offset 3, -8
 1572              		.cfi_offset 14, -4
1004:Drivers/STM32F7xx_HAL_Driver/Src/stm32f7xx_hal_rcc.c ****   {
 1573              		.loc 1 1004 0
 1574 0004 8B68     		ldr	r3, [r1, #8]
 1575 0006 03F00C03 		and	r3, r3, #12
 1576 000a 042B     		cmp	r3, #4
 1577 000c 1BD0     		beq	.L207
 1578 000e 082B     		cmp	r3, #8
 1579 0010 17D1     		bne	.L214
 1580              	.LBB37:
 1581              	.LBB38:
1020:Drivers/STM32F7xx_HAL_Driver/Src/stm32f7xx_hal_rcc.c ****       if (__HAL_RCC_GET_PLL_OSCSOURCE() != RCC_PLLCFGR_PLLSRC_HSI)
 1582              		.loc 1 1020 0
 1583 0012 4A68     		ldr	r2, [r1, #4]
1021:Drivers/STM32F7xx_HAL_Driver/Src/stm32f7xx_hal_rcc.c ****       {
 1584              		.loc 1 1021 0
 1585 0014 4B68     		ldr	r3, [r1, #4]
1020:Drivers/STM32F7xx_HAL_Driver/Src/stm32f7xx_hal_rcc.c ****       if (__HAL_RCC_GET_PLL_OSCSOURCE() != RCC_PLLCFGR_PLLSRC_HSI)
 1586              		.loc 1 1020 0
 1587 0016 02F03F02 		and	r2, r2, #63
 1588              	.LVL143:
1024:Drivers/STM32F7xx_HAL_Driver/Src/stm32f7xx_hal_rcc.c ****       }
 1589              		.loc 1 1024 0
 1590 001a 4968     		ldr	r1, [r1, #4]
1021:Drivers/STM32F7xx_HAL_Driver/Src/stm32f7xx_hal_rcc.c ****       {
 1591              		.loc 1 1021 0
 1592 001c 13F48003 		ands	r3, r3, #4194304
 1593 0020 13D1     		bne	.L215
1029:Drivers/STM32F7xx_HAL_Driver/Src/stm32f7xx_hal_rcc.c ****       }
 1594              		.loc 1 1029 0
 1595 0022 0F48     		ldr	r0, .L216+4
 1596 0024 C1F38811 		ubfx	r1, r1, #6, #9
 1597 0028 A1FB0001 		umull	r0, r1, r1, r0
 1598 002c FFF7FEFF 		bl	__aeabi_uldivmod
 1599              	.LVL144:
ARM GAS  /tmp/ccQLX8NK.s 			page 51


 1600              	.L210:
1031:Drivers/STM32F7xx_HAL_Driver/Src/stm32f7xx_hal_rcc.c **** 
 1601              		.loc 1 1031 0
 1602 0030 0A4B     		ldr	r3, .L216
 1603 0032 5B68     		ldr	r3, [r3, #4]
 1604              	.LVL145:
 1605 0034 C3F30143 		ubfx	r3, r3, #16, #2
 1606              	.LVL146:
 1607 0038 0133     		adds	r3, r3, #1
 1608 003a 5B00     		lsls	r3, r3, #1
 1609              		.loc 1 1033 0
 1610 003c B0FBF3F0 		udiv	r0, r0, r3
 1611              	.LVL147:
 1612              	.LBE38:
 1613              	.LBE37:
1034:Drivers/STM32F7xx_HAL_Driver/Src/stm32f7xx_hal_rcc.c ****       break;
1035:Drivers/STM32F7xx_HAL_Driver/Src/stm32f7xx_hal_rcc.c ****     }
1036:Drivers/STM32F7xx_HAL_Driver/Src/stm32f7xx_hal_rcc.c ****     default:
1037:Drivers/STM32F7xx_HAL_Driver/Src/stm32f7xx_hal_rcc.c ****     {
1038:Drivers/STM32F7xx_HAL_Driver/Src/stm32f7xx_hal_rcc.c ****       sysclockfreq = HSI_VALUE;
1039:Drivers/STM32F7xx_HAL_Driver/Src/stm32f7xx_hal_rcc.c ****       break;
1040:Drivers/STM32F7xx_HAL_Driver/Src/stm32f7xx_hal_rcc.c ****     }
1041:Drivers/STM32F7xx_HAL_Driver/Src/stm32f7xx_hal_rcc.c ****   }
1042:Drivers/STM32F7xx_HAL_Driver/Src/stm32f7xx_hal_rcc.c ****   return sysclockfreq;
1043:Drivers/STM32F7xx_HAL_Driver/Src/stm32f7xx_hal_rcc.c **** }
 1614              		.loc 1 1043 0
 1615 0040 08BD     		pop	{r3, pc}
 1616              	.L214:
1008:Drivers/STM32F7xx_HAL_Driver/Src/stm32f7xx_hal_rcc.c ****        break;
 1617              		.loc 1 1008 0
 1618 0042 0748     		ldr	r0, .L216+4
 1619              	.LVL148:
 1620              		.loc 1 1043 0
 1621 0044 08BD     		pop	{r3, pc}
 1622              	.LVL149:
 1623              	.L207:
1013:Drivers/STM32F7xx_HAL_Driver/Src/stm32f7xx_hal_rcc.c ****       break;
 1624              		.loc 1 1013 0
 1625 0046 0748     		ldr	r0, .L216+8
 1626              		.loc 1 1043 0
 1627 0048 08BD     		pop	{r3, pc}
 1628              	.LVL150:
 1629              	.L215:
 1630              	.LBB40:
 1631              	.LBB39:
1024:Drivers/STM32F7xx_HAL_Driver/Src/stm32f7xx_hal_rcc.c ****       }
 1632              		.loc 1 1024 0
 1633 004a 0648     		ldr	r0, .L216+8
 1634 004c C1F38811 		ubfx	r1, r1, #6, #9
 1635 0050 0023     		movs	r3, #0
 1636 0052 A1FB0001 		umull	r0, r1, r1, r0
 1637 0056 FFF7FEFF 		bl	__aeabi_uldivmod
 1638              	.LVL151:
 1639 005a E9E7     		b	.L210
 1640              	.L217:
 1641              		.align	2
 1642              	.L216:
ARM GAS  /tmp/ccQLX8NK.s 			page 52


 1643 005c 00380240 		.word	1073887232
 1644 0060 0024F400 		.word	16000000
 1645 0064 00127A00 		.word	8000000
 1646              	.LBE39:
 1647              	.LBE40:
 1648              		.cfi_endproc
 1649              	.LFE144:
 1651              		.section	.text.HAL_RCC_GetHCLKFreq,"ax",%progbits
 1652              		.align	1
 1653              		.p2align 2,,3
 1654              		.global	HAL_RCC_GetHCLKFreq
 1655              		.syntax unified
 1656              		.thumb
 1657              		.thumb_func
 1658              		.fpu fpv4-sp-d16
 1660              	HAL_RCC_GetHCLKFreq:
 1661              	.LFB145:
1044:Drivers/STM32F7xx_HAL_Driver/Src/stm32f7xx_hal_rcc.c **** 
1045:Drivers/STM32F7xx_HAL_Driver/Src/stm32f7xx_hal_rcc.c **** /**
1046:Drivers/STM32F7xx_HAL_Driver/Src/stm32f7xx_hal_rcc.c ****   * @brief  Returns the HCLK frequency
1047:Drivers/STM32F7xx_HAL_Driver/Src/stm32f7xx_hal_rcc.c ****   * @note   Each time HCLK changes, this function must be called to update the
1048:Drivers/STM32F7xx_HAL_Driver/Src/stm32f7xx_hal_rcc.c ****   *         right HCLK value. Otherwise, any configuration based on this function will be incorrect
1049:Drivers/STM32F7xx_HAL_Driver/Src/stm32f7xx_hal_rcc.c ****   * @note   The SystemCoreClock CMSIS variable is used to store System Clock Frequency.
1050:Drivers/STM32F7xx_HAL_Driver/Src/stm32f7xx_hal_rcc.c ****   * @retval HCLK frequency
1051:Drivers/STM32F7xx_HAL_Driver/Src/stm32f7xx_hal_rcc.c ****   */
1052:Drivers/STM32F7xx_HAL_Driver/Src/stm32f7xx_hal_rcc.c **** uint32_t HAL_RCC_GetHCLKFreq(void)
1053:Drivers/STM32F7xx_HAL_Driver/Src/stm32f7xx_hal_rcc.c **** {
 1662              		.loc 1 1053 0
 1663              		.cfi_startproc
 1664              		@ args = 0, pretend = 0, frame = 0
 1665              		@ frame_needed = 0, uses_anonymous_args = 0
 1666              		@ link register save eliminated.
1054:Drivers/STM32F7xx_HAL_Driver/Src/stm32f7xx_hal_rcc.c ****   return SystemCoreClock;
 1667              		.loc 1 1054 0
 1668 0000 014B     		ldr	r3, .L219
1055:Drivers/STM32F7xx_HAL_Driver/Src/stm32f7xx_hal_rcc.c **** }
 1669              		.loc 1 1055 0
 1670 0002 1868     		ldr	r0, [r3]
 1671 0004 7047     		bx	lr
 1672              	.L220:
 1673 0006 00BF     		.align	2
 1674              	.L219:
 1675 0008 00000000 		.word	SystemCoreClock
 1676              		.cfi_endproc
 1677              	.LFE145:
 1679              		.section	.text.HAL_RCC_GetPCLK1Freq,"ax",%progbits
 1680              		.align	1
 1681              		.p2align 2,,3
 1682              		.global	HAL_RCC_GetPCLK1Freq
 1683              		.syntax unified
 1684              		.thumb
 1685              		.thumb_func
 1686              		.fpu fpv4-sp-d16
 1688              	HAL_RCC_GetPCLK1Freq:
 1689              	.LFB146:
1056:Drivers/STM32F7xx_HAL_Driver/Src/stm32f7xx_hal_rcc.c **** 
1057:Drivers/STM32F7xx_HAL_Driver/Src/stm32f7xx_hal_rcc.c **** /**
ARM GAS  /tmp/ccQLX8NK.s 			page 53


1058:Drivers/STM32F7xx_HAL_Driver/Src/stm32f7xx_hal_rcc.c ****   * @brief  Returns the PCLK1 frequency
1059:Drivers/STM32F7xx_HAL_Driver/Src/stm32f7xx_hal_rcc.c ****   * @note   Each time PCLK1 changes, this function must be called to update the
1060:Drivers/STM32F7xx_HAL_Driver/Src/stm32f7xx_hal_rcc.c ****   *         right PCLK1 value. Otherwise, any configuration based on this function will be incorrec
1061:Drivers/STM32F7xx_HAL_Driver/Src/stm32f7xx_hal_rcc.c ****   * @retval PCLK1 frequency
1062:Drivers/STM32F7xx_HAL_Driver/Src/stm32f7xx_hal_rcc.c ****   */
1063:Drivers/STM32F7xx_HAL_Driver/Src/stm32f7xx_hal_rcc.c **** uint32_t HAL_RCC_GetPCLK1Freq(void)
1064:Drivers/STM32F7xx_HAL_Driver/Src/stm32f7xx_hal_rcc.c **** {
 1690              		.loc 1 1064 0
 1691              		.cfi_startproc
 1692              		@ args = 0, pretend = 0, frame = 0
 1693              		@ frame_needed = 0, uses_anonymous_args = 0
 1694              		@ link register save eliminated.
1065:Drivers/STM32F7xx_HAL_Driver/Src/stm32f7xx_hal_rcc.c ****   /* Get HCLK source and Compute PCLK1 frequency ---------------------------*/
1066:Drivers/STM32F7xx_HAL_Driver/Src/stm32f7xx_hal_rcc.c ****   return (HAL_RCC_GetHCLKFreq() >> APBPrescTable[(RCC->CFGR & RCC_CFGR_PPRE1)>> RCC_CFGR_PPRE1_Pos]
 1695              		.loc 1 1066 0
 1696 0000 044B     		ldr	r3, .L222
 1697 0002 054A     		ldr	r2, .L222+4
 1698 0004 9B68     		ldr	r3, [r3, #8]
 1699              	.LBB41:
 1700              	.LBB42:
1054:Drivers/STM32F7xx_HAL_Driver/Src/stm32f7xx_hal_rcc.c **** }
 1701              		.loc 1 1054 0
 1702 0006 0549     		ldr	r1, .L222+8
 1703              	.LBE42:
 1704              	.LBE41:
 1705              		.loc 1 1066 0
 1706 0008 C3F38223 		ubfx	r3, r3, #10, #3
 1707 000c 0868     		ldr	r0, [r1]
 1708 000e D35C     		ldrb	r3, [r2, r3]	@ zero_extendqisi2
1067:Drivers/STM32F7xx_HAL_Driver/Src/stm32f7xx_hal_rcc.c **** }
 1709              		.loc 1 1067 0
 1710 0010 D840     		lsrs	r0, r0, r3
 1711 0012 7047     		bx	lr
 1712              	.L223:
 1713              		.align	2
 1714              	.L222:
 1715 0014 00380240 		.word	1073887232
 1716 0018 00000000 		.word	APBPrescTable
 1717 001c 00000000 		.word	SystemCoreClock
 1718              		.cfi_endproc
 1719              	.LFE146:
 1721              		.section	.text.HAL_RCC_GetPCLK2Freq,"ax",%progbits
 1722              		.align	1
 1723              		.p2align 2,,3
 1724              		.global	HAL_RCC_GetPCLK2Freq
 1725              		.syntax unified
 1726              		.thumb
 1727              		.thumb_func
 1728              		.fpu fpv4-sp-d16
 1730              	HAL_RCC_GetPCLK2Freq:
 1731              	.LFB147:
1068:Drivers/STM32F7xx_HAL_Driver/Src/stm32f7xx_hal_rcc.c **** 
1069:Drivers/STM32F7xx_HAL_Driver/Src/stm32f7xx_hal_rcc.c **** /**
1070:Drivers/STM32F7xx_HAL_Driver/Src/stm32f7xx_hal_rcc.c ****   * @brief  Returns the PCLK2 frequency
1071:Drivers/STM32F7xx_HAL_Driver/Src/stm32f7xx_hal_rcc.c ****   * @note   Each time PCLK2 changes, this function must be called to update the
1072:Drivers/STM32F7xx_HAL_Driver/Src/stm32f7xx_hal_rcc.c ****   *         right PCLK2 value. Otherwise, any configuration based on this function will be incorrec
1073:Drivers/STM32F7xx_HAL_Driver/Src/stm32f7xx_hal_rcc.c ****   * @retval PCLK2 frequency
ARM GAS  /tmp/ccQLX8NK.s 			page 54


1074:Drivers/STM32F7xx_HAL_Driver/Src/stm32f7xx_hal_rcc.c ****   */
1075:Drivers/STM32F7xx_HAL_Driver/Src/stm32f7xx_hal_rcc.c **** uint32_t HAL_RCC_GetPCLK2Freq(void)
1076:Drivers/STM32F7xx_HAL_Driver/Src/stm32f7xx_hal_rcc.c **** {
 1732              		.loc 1 1076 0
 1733              		.cfi_startproc
 1734              		@ args = 0, pretend = 0, frame = 0
 1735              		@ frame_needed = 0, uses_anonymous_args = 0
 1736              		@ link register save eliminated.
1077:Drivers/STM32F7xx_HAL_Driver/Src/stm32f7xx_hal_rcc.c ****   /* Get HCLK source and Compute PCLK2 frequency ---------------------------*/
1078:Drivers/STM32F7xx_HAL_Driver/Src/stm32f7xx_hal_rcc.c ****   return (HAL_RCC_GetHCLKFreq()>> APBPrescTable[(RCC->CFGR & RCC_CFGR_PPRE2)>> RCC_CFGR_PPRE2_Pos])
 1737              		.loc 1 1078 0
 1738 0000 044B     		ldr	r3, .L225
 1739 0002 054A     		ldr	r2, .L225+4
 1740 0004 9B68     		ldr	r3, [r3, #8]
 1741              	.LBB43:
 1742              	.LBB44:
1054:Drivers/STM32F7xx_HAL_Driver/Src/stm32f7xx_hal_rcc.c **** }
 1743              		.loc 1 1054 0
 1744 0006 0549     		ldr	r1, .L225+8
 1745              	.LBE44:
 1746              	.LBE43:
 1747              		.loc 1 1078 0
 1748 0008 C3F34233 		ubfx	r3, r3, #13, #3
 1749 000c 0868     		ldr	r0, [r1]
 1750 000e D35C     		ldrb	r3, [r2, r3]	@ zero_extendqisi2
1079:Drivers/STM32F7xx_HAL_Driver/Src/stm32f7xx_hal_rcc.c **** }
 1751              		.loc 1 1079 0
 1752 0010 D840     		lsrs	r0, r0, r3
 1753 0012 7047     		bx	lr
 1754              	.L226:
 1755              		.align	2
 1756              	.L225:
 1757 0014 00380240 		.word	1073887232
 1758 0018 00000000 		.word	APBPrescTable
 1759 001c 00000000 		.word	SystemCoreClock
 1760              		.cfi_endproc
 1761              	.LFE147:
 1763              		.section	.text.HAL_RCC_GetOscConfig,"ax",%progbits
 1764              		.align	1
 1765              		.p2align 2,,3
 1766              		.global	HAL_RCC_GetOscConfig
 1767              		.syntax unified
 1768              		.thumb
 1769              		.thumb_func
 1770              		.fpu fpv4-sp-d16
 1772              	HAL_RCC_GetOscConfig:
 1773              	.LFB148:
1080:Drivers/STM32F7xx_HAL_Driver/Src/stm32f7xx_hal_rcc.c **** 
1081:Drivers/STM32F7xx_HAL_Driver/Src/stm32f7xx_hal_rcc.c **** /**
1082:Drivers/STM32F7xx_HAL_Driver/Src/stm32f7xx_hal_rcc.c ****   * @brief  Configures the RCC_OscInitStruct according to the internal
1083:Drivers/STM32F7xx_HAL_Driver/Src/stm32f7xx_hal_rcc.c ****   * RCC configuration registers.
1084:Drivers/STM32F7xx_HAL_Driver/Src/stm32f7xx_hal_rcc.c ****   * @param  RCC_OscInitStruct pointer to an RCC_OscInitTypeDef structure that
1085:Drivers/STM32F7xx_HAL_Driver/Src/stm32f7xx_hal_rcc.c ****   * will be configured.
1086:Drivers/STM32F7xx_HAL_Driver/Src/stm32f7xx_hal_rcc.c ****   * @retval None
1087:Drivers/STM32F7xx_HAL_Driver/Src/stm32f7xx_hal_rcc.c ****   */
1088:Drivers/STM32F7xx_HAL_Driver/Src/stm32f7xx_hal_rcc.c **** void HAL_RCC_GetOscConfig(RCC_OscInitTypeDef  *RCC_OscInitStruct)
1089:Drivers/STM32F7xx_HAL_Driver/Src/stm32f7xx_hal_rcc.c **** {
ARM GAS  /tmp/ccQLX8NK.s 			page 55


 1774              		.loc 1 1089 0
 1775              		.cfi_startproc
 1776              		@ args = 0, pretend = 0, frame = 0
 1777              		@ frame_needed = 0, uses_anonymous_args = 0
 1778              		@ link register save eliminated.
 1779              	.LVL152:
1090:Drivers/STM32F7xx_HAL_Driver/Src/stm32f7xx_hal_rcc.c ****   /* Set all possible values for the Oscillator type parameter ---------------*/
1091:Drivers/STM32F7xx_HAL_Driver/Src/stm32f7xx_hal_rcc.c ****   RCC_OscInitStruct->OscillatorType = RCC_OSCILLATORTYPE_HSE | RCC_OSCILLATORTYPE_HSI | RCC_OSCILLA
 1780              		.loc 1 1091 0
 1781 0000 0F22     		movs	r2, #15
1092:Drivers/STM32F7xx_HAL_Driver/Src/stm32f7xx_hal_rcc.c **** 
1093:Drivers/STM32F7xx_HAL_Driver/Src/stm32f7xx_hal_rcc.c ****   /* Get the HSE configuration -----------------------------------------------*/
1094:Drivers/STM32F7xx_HAL_Driver/Src/stm32f7xx_hal_rcc.c ****   if((RCC->CR &RCC_CR_HSEBYP) == RCC_CR_HSEBYP)
 1782              		.loc 1 1094 0
 1783 0002 244B     		ldr	r3, .L236
1091:Drivers/STM32F7xx_HAL_Driver/Src/stm32f7xx_hal_rcc.c **** 
 1784              		.loc 1 1091 0
 1785 0004 0260     		str	r2, [r0]
 1786              		.loc 1 1094 0
 1787 0006 1A68     		ldr	r2, [r3]
 1788 0008 5103     		lsls	r1, r2, #13
 1789 000a 34D5     		bpl	.L228
1095:Drivers/STM32F7xx_HAL_Driver/Src/stm32f7xx_hal_rcc.c ****   {
1096:Drivers/STM32F7xx_HAL_Driver/Src/stm32f7xx_hal_rcc.c ****     RCC_OscInitStruct->HSEState = RCC_HSE_BYPASS;
 1790              		.loc 1 1096 0
 1791 000c 4FF4A023 		mov	r3, #327680
 1792 0010 4360     		str	r3, [r0, #4]
 1793              	.L229:
1097:Drivers/STM32F7xx_HAL_Driver/Src/stm32f7xx_hal_rcc.c ****   }
1098:Drivers/STM32F7xx_HAL_Driver/Src/stm32f7xx_hal_rcc.c ****   else if((RCC->CR &RCC_CR_HSEON) == RCC_CR_HSEON)
1099:Drivers/STM32F7xx_HAL_Driver/Src/stm32f7xx_hal_rcc.c ****   {
1100:Drivers/STM32F7xx_HAL_Driver/Src/stm32f7xx_hal_rcc.c ****     RCC_OscInitStruct->HSEState = RCC_HSE_ON;
1101:Drivers/STM32F7xx_HAL_Driver/Src/stm32f7xx_hal_rcc.c ****   }
1102:Drivers/STM32F7xx_HAL_Driver/Src/stm32f7xx_hal_rcc.c ****   else
1103:Drivers/STM32F7xx_HAL_Driver/Src/stm32f7xx_hal_rcc.c ****   {
1104:Drivers/STM32F7xx_HAL_Driver/Src/stm32f7xx_hal_rcc.c ****     RCC_OscInitStruct->HSEState = RCC_HSE_OFF;
1105:Drivers/STM32F7xx_HAL_Driver/Src/stm32f7xx_hal_rcc.c ****   }
1106:Drivers/STM32F7xx_HAL_Driver/Src/stm32f7xx_hal_rcc.c **** 
1107:Drivers/STM32F7xx_HAL_Driver/Src/stm32f7xx_hal_rcc.c ****   /* Get the HSI configuration -----------------------------------------------*/
1108:Drivers/STM32F7xx_HAL_Driver/Src/stm32f7xx_hal_rcc.c ****   if((RCC->CR &RCC_CR_HSION) == RCC_CR_HSION)
 1794              		.loc 1 1108 0
 1795 0012 204B     		ldr	r3, .L236
 1796 0014 1A68     		ldr	r2, [r3]
 1797 0016 02F00102 		and	r2, r2, #1
 1798 001a C260     		str	r2, [r0, #12]
1109:Drivers/STM32F7xx_HAL_Driver/Src/stm32f7xx_hal_rcc.c ****   {
1110:Drivers/STM32F7xx_HAL_Driver/Src/stm32f7xx_hal_rcc.c ****     RCC_OscInitStruct->HSIState = RCC_HSI_ON;
1111:Drivers/STM32F7xx_HAL_Driver/Src/stm32f7xx_hal_rcc.c ****   }
1112:Drivers/STM32F7xx_HAL_Driver/Src/stm32f7xx_hal_rcc.c ****   else
1113:Drivers/STM32F7xx_HAL_Driver/Src/stm32f7xx_hal_rcc.c ****   {
1114:Drivers/STM32F7xx_HAL_Driver/Src/stm32f7xx_hal_rcc.c ****     RCC_OscInitStruct->HSIState = RCC_HSI_OFF;
1115:Drivers/STM32F7xx_HAL_Driver/Src/stm32f7xx_hal_rcc.c ****   }
1116:Drivers/STM32F7xx_HAL_Driver/Src/stm32f7xx_hal_rcc.c **** 
1117:Drivers/STM32F7xx_HAL_Driver/Src/stm32f7xx_hal_rcc.c ****   RCC_OscInitStruct->HSICalibrationValue = (uint32_t)((RCC->CR &RCC_CR_HSITRIM) >> RCC_CR_HSITRIM_P
 1799              		.loc 1 1117 0
 1800 001c 1A68     		ldr	r2, [r3]
 1801 001e C2F3C402 		ubfx	r2, r2, #3, #5
ARM GAS  /tmp/ccQLX8NK.s 			page 56


 1802 0022 0261     		str	r2, [r0, #16]
1118:Drivers/STM32F7xx_HAL_Driver/Src/stm32f7xx_hal_rcc.c **** 
1119:Drivers/STM32F7xx_HAL_Driver/Src/stm32f7xx_hal_rcc.c ****   /* Get the LSE configuration -----------------------------------------------*/
1120:Drivers/STM32F7xx_HAL_Driver/Src/stm32f7xx_hal_rcc.c ****   if((RCC->BDCR &RCC_BDCR_LSEBYP) == RCC_BDCR_LSEBYP)
 1803              		.loc 1 1120 0
 1804 0024 1A6F     		ldr	r2, [r3, #112]
 1805 0026 5207     		lsls	r2, r2, #29
 1806 0028 2DD5     		bpl	.L231
1121:Drivers/STM32F7xx_HAL_Driver/Src/stm32f7xx_hal_rcc.c ****   {
1122:Drivers/STM32F7xx_HAL_Driver/Src/stm32f7xx_hal_rcc.c ****     RCC_OscInitStruct->LSEState = RCC_LSE_BYPASS;
 1807              		.loc 1 1122 0
 1808 002a 0523     		movs	r3, #5
 1809 002c 8360     		str	r3, [r0, #8]
 1810              	.L232:
1123:Drivers/STM32F7xx_HAL_Driver/Src/stm32f7xx_hal_rcc.c ****   }
1124:Drivers/STM32F7xx_HAL_Driver/Src/stm32f7xx_hal_rcc.c ****   else if((RCC->BDCR &RCC_BDCR_LSEON) == RCC_BDCR_LSEON)
1125:Drivers/STM32F7xx_HAL_Driver/Src/stm32f7xx_hal_rcc.c ****   {
1126:Drivers/STM32F7xx_HAL_Driver/Src/stm32f7xx_hal_rcc.c ****     RCC_OscInitStruct->LSEState = RCC_LSE_ON;
1127:Drivers/STM32F7xx_HAL_Driver/Src/stm32f7xx_hal_rcc.c ****   }
1128:Drivers/STM32F7xx_HAL_Driver/Src/stm32f7xx_hal_rcc.c ****   else
1129:Drivers/STM32F7xx_HAL_Driver/Src/stm32f7xx_hal_rcc.c ****   {
1130:Drivers/STM32F7xx_HAL_Driver/Src/stm32f7xx_hal_rcc.c ****     RCC_OscInitStruct->LSEState = RCC_LSE_OFF;
1131:Drivers/STM32F7xx_HAL_Driver/Src/stm32f7xx_hal_rcc.c ****   }
1132:Drivers/STM32F7xx_HAL_Driver/Src/stm32f7xx_hal_rcc.c **** 
1133:Drivers/STM32F7xx_HAL_Driver/Src/stm32f7xx_hal_rcc.c ****   /* Get the LSI configuration -----------------------------------------------*/
1134:Drivers/STM32F7xx_HAL_Driver/Src/stm32f7xx_hal_rcc.c ****   if((RCC->CSR &RCC_CSR_LSION) == RCC_CSR_LSION)
 1811              		.loc 1 1134 0
 1812 002e 194B     		ldr	r3, .L236
 1813 0030 5A6F     		ldr	r2, [r3, #116]
 1814 0032 02F00102 		and	r2, r2, #1
 1815 0036 4261     		str	r2, [r0, #20]
1135:Drivers/STM32F7xx_HAL_Driver/Src/stm32f7xx_hal_rcc.c ****   {
1136:Drivers/STM32F7xx_HAL_Driver/Src/stm32f7xx_hal_rcc.c ****     RCC_OscInitStruct->LSIState = RCC_LSI_ON;
1137:Drivers/STM32F7xx_HAL_Driver/Src/stm32f7xx_hal_rcc.c ****   }
1138:Drivers/STM32F7xx_HAL_Driver/Src/stm32f7xx_hal_rcc.c ****   else
1139:Drivers/STM32F7xx_HAL_Driver/Src/stm32f7xx_hal_rcc.c ****   {
1140:Drivers/STM32F7xx_HAL_Driver/Src/stm32f7xx_hal_rcc.c ****     RCC_OscInitStruct->LSIState = RCC_LSI_OFF;
1141:Drivers/STM32F7xx_HAL_Driver/Src/stm32f7xx_hal_rcc.c ****   }
1142:Drivers/STM32F7xx_HAL_Driver/Src/stm32f7xx_hal_rcc.c **** 
1143:Drivers/STM32F7xx_HAL_Driver/Src/stm32f7xx_hal_rcc.c ****   /* Get the PLL configuration -----------------------------------------------*/
1144:Drivers/STM32F7xx_HAL_Driver/Src/stm32f7xx_hal_rcc.c ****   if((RCC->CR &RCC_CR_PLLON) == RCC_CR_PLLON)
 1816              		.loc 1 1144 0
 1817 0038 1A68     		ldr	r2, [r3]
1145:Drivers/STM32F7xx_HAL_Driver/Src/stm32f7xx_hal_rcc.c ****   {
1146:Drivers/STM32F7xx_HAL_Driver/Src/stm32f7xx_hal_rcc.c ****     RCC_OscInitStruct->PLL.PLLState = RCC_PLL_ON;
1147:Drivers/STM32F7xx_HAL_Driver/Src/stm32f7xx_hal_rcc.c ****   }
1148:Drivers/STM32F7xx_HAL_Driver/Src/stm32f7xx_hal_rcc.c ****   else
1149:Drivers/STM32F7xx_HAL_Driver/Src/stm32f7xx_hal_rcc.c ****   {
1150:Drivers/STM32F7xx_HAL_Driver/Src/stm32f7xx_hal_rcc.c ****     RCC_OscInitStruct->PLL.PLLState = RCC_PLL_OFF;
 1818              		.loc 1 1150 0
 1819 003a 12F0807F 		tst	r2, #16777216
 1820 003e 14BF     		ite	ne
 1821 0040 0222     		movne	r2, #2
 1822 0042 0122     		moveq	r2, #1
 1823 0044 8261     		str	r2, [r0, #24]
1151:Drivers/STM32F7xx_HAL_Driver/Src/stm32f7xx_hal_rcc.c ****   }
1152:Drivers/STM32F7xx_HAL_Driver/Src/stm32f7xx_hal_rcc.c ****   RCC_OscInitStruct->PLL.PLLSource = (uint32_t)(RCC->PLLCFGR & RCC_PLLCFGR_PLLSRC);
ARM GAS  /tmp/ccQLX8NK.s 			page 57


 1824              		.loc 1 1152 0
 1825 0046 5A68     		ldr	r2, [r3, #4]
 1826 0048 02F48002 		and	r2, r2, #4194304
 1827 004c C261     		str	r2, [r0, #28]
1153:Drivers/STM32F7xx_HAL_Driver/Src/stm32f7xx_hal_rcc.c ****   RCC_OscInitStruct->PLL.PLLM = (uint32_t)(RCC->PLLCFGR & RCC_PLLCFGR_PLLM);
 1828              		.loc 1 1153 0
 1829 004e 5A68     		ldr	r2, [r3, #4]
 1830 0050 02F03F02 		and	r2, r2, #63
 1831 0054 0262     		str	r2, [r0, #32]
1154:Drivers/STM32F7xx_HAL_Driver/Src/stm32f7xx_hal_rcc.c ****   RCC_OscInitStruct->PLL.PLLN = (uint32_t)((RCC->PLLCFGR & RCC_PLLCFGR_PLLN) >> RCC_PLLCFGR_PLLN_Po
 1832              		.loc 1 1154 0
 1833 0056 5A68     		ldr	r2, [r3, #4]
 1834 0058 C2F38812 		ubfx	r2, r2, #6, #9
 1835 005c 4262     		str	r2, [r0, #36]
1155:Drivers/STM32F7xx_HAL_Driver/Src/stm32f7xx_hal_rcc.c ****   RCC_OscInitStruct->PLL.PLLP = (uint32_t)((((RCC->PLLCFGR & RCC_PLLCFGR_PLLP) + RCC_PLLCFGR_PLLP_0
 1836              		.loc 1 1155 0
 1837 005e 5A68     		ldr	r2, [r3, #4]
 1838 0060 02F44032 		and	r2, r2, #196608
 1839 0064 02F58032 		add	r2, r2, #65536
 1840 0068 D20B     		lsrs	r2, r2, #15
 1841 006a 8262     		str	r2, [r0, #40]
1156:Drivers/STM32F7xx_HAL_Driver/Src/stm32f7xx_hal_rcc.c ****   RCC_OscInitStruct->PLL.PLLQ = (uint32_t)((RCC->PLLCFGR & RCC_PLLCFGR_PLLQ) >> RCC_PLLCFGR_PLLQ_Po
 1842              		.loc 1 1156 0
 1843 006c 5B68     		ldr	r3, [r3, #4]
 1844 006e C3F30363 		ubfx	r3, r3, #24, #4
 1845 0072 C362     		str	r3, [r0, #44]
1157:Drivers/STM32F7xx_HAL_Driver/Src/stm32f7xx_hal_rcc.c **** #if defined (RCC_PLLCFGR_PLLR)
1158:Drivers/STM32F7xx_HAL_Driver/Src/stm32f7xx_hal_rcc.c ****   RCC_OscInitStruct->PLL.PLLR = (uint32_t)((RCC->PLLCFGR & RCC_PLLCFGR_PLLR) >> POSITION_VAL(RCC_PL
1159:Drivers/STM32F7xx_HAL_Driver/Src/stm32f7xx_hal_rcc.c **** #endif
1160:Drivers/STM32F7xx_HAL_Driver/Src/stm32f7xx_hal_rcc.c **** }
 1846              		.loc 1 1160 0
 1847 0074 7047     		bx	lr
 1848              	.L228:
1098:Drivers/STM32F7xx_HAL_Driver/Src/stm32f7xx_hal_rcc.c ****   {
 1849              		.loc 1 1098 0
 1850 0076 1B68     		ldr	r3, [r3]
 1851 0078 13F48033 		ands	r3, r3, #65536
1100:Drivers/STM32F7xx_HAL_Driver/Src/stm32f7xx_hal_rcc.c ****   }
 1852              		.loc 1 1100 0
 1853 007c 18BF     		it	ne
 1854 007e 4FF48033 		movne	r3, #65536
1104:Drivers/STM32F7xx_HAL_Driver/Src/stm32f7xx_hal_rcc.c ****   }
 1855              		.loc 1 1104 0
 1856 0082 4360     		str	r3, [r0, #4]
 1857 0084 C5E7     		b	.L229
 1858              	.L231:
1124:Drivers/STM32F7xx_HAL_Driver/Src/stm32f7xx_hal_rcc.c ****   {
 1859              		.loc 1 1124 0
 1860 0086 1B6F     		ldr	r3, [r3, #112]
 1861 0088 13F00103 		ands	r3, r3, #1
1126:Drivers/STM32F7xx_HAL_Driver/Src/stm32f7xx_hal_rcc.c ****   }
 1862              		.loc 1 1126 0
 1863 008c 18BF     		it	ne
 1864 008e 0123     		movne	r3, #1
1130:Drivers/STM32F7xx_HAL_Driver/Src/stm32f7xx_hal_rcc.c ****   }
 1865              		.loc 1 1130 0
 1866 0090 8360     		str	r3, [r0, #8]
ARM GAS  /tmp/ccQLX8NK.s 			page 58


 1867 0092 CCE7     		b	.L232
 1868              	.L237:
 1869              		.align	2
 1870              	.L236:
 1871 0094 00380240 		.word	1073887232
 1872              		.cfi_endproc
 1873              	.LFE148:
 1875              		.section	.text.HAL_RCC_GetClockConfig,"ax",%progbits
 1876              		.align	1
 1877              		.p2align 2,,3
 1878              		.global	HAL_RCC_GetClockConfig
 1879              		.syntax unified
 1880              		.thumb
 1881              		.thumb_func
 1882              		.fpu fpv4-sp-d16
 1884              	HAL_RCC_GetClockConfig:
 1885              	.LFB149:
1161:Drivers/STM32F7xx_HAL_Driver/Src/stm32f7xx_hal_rcc.c **** 
1162:Drivers/STM32F7xx_HAL_Driver/Src/stm32f7xx_hal_rcc.c **** /**
1163:Drivers/STM32F7xx_HAL_Driver/Src/stm32f7xx_hal_rcc.c ****   * @brief  Configures the RCC_ClkInitStruct according to the internal
1164:Drivers/STM32F7xx_HAL_Driver/Src/stm32f7xx_hal_rcc.c ****   * RCC configuration registers.
1165:Drivers/STM32F7xx_HAL_Driver/Src/stm32f7xx_hal_rcc.c ****   * @param  RCC_ClkInitStruct pointer to an RCC_ClkInitTypeDef structure that
1166:Drivers/STM32F7xx_HAL_Driver/Src/stm32f7xx_hal_rcc.c ****   * will be configured.
1167:Drivers/STM32F7xx_HAL_Driver/Src/stm32f7xx_hal_rcc.c ****   * @param  pFLatency Pointer on the Flash Latency.
1168:Drivers/STM32F7xx_HAL_Driver/Src/stm32f7xx_hal_rcc.c ****   * @retval None
1169:Drivers/STM32F7xx_HAL_Driver/Src/stm32f7xx_hal_rcc.c ****   */
1170:Drivers/STM32F7xx_HAL_Driver/Src/stm32f7xx_hal_rcc.c **** void HAL_RCC_GetClockConfig(RCC_ClkInitTypeDef  *RCC_ClkInitStruct, uint32_t *pFLatency)
1171:Drivers/STM32F7xx_HAL_Driver/Src/stm32f7xx_hal_rcc.c **** {
 1886              		.loc 1 1171 0
 1887              		.cfi_startproc
 1888              		@ args = 0, pretend = 0, frame = 0
 1889              		@ frame_needed = 0, uses_anonymous_args = 0
 1890              		@ link register save eliminated.
 1891              	.LVL153:
1172:Drivers/STM32F7xx_HAL_Driver/Src/stm32f7xx_hal_rcc.c ****   /* Set all possible values for the Clock type parameter --------------------*/
1173:Drivers/STM32F7xx_HAL_Driver/Src/stm32f7xx_hal_rcc.c ****   RCC_ClkInitStruct->ClockType = RCC_CLOCKTYPE_SYSCLK | RCC_CLOCKTYPE_HCLK | RCC_CLOCKTYPE_PCLK1 | 
1174:Drivers/STM32F7xx_HAL_Driver/Src/stm32f7xx_hal_rcc.c **** 
1175:Drivers/STM32F7xx_HAL_Driver/Src/stm32f7xx_hal_rcc.c ****   /* Get the SYSCLK configuration --------------------------------------------*/
1176:Drivers/STM32F7xx_HAL_Driver/Src/stm32f7xx_hal_rcc.c ****   RCC_ClkInitStruct->SYSCLKSource = (uint32_t)(RCC->CFGR & RCC_CFGR_SW);
 1892              		.loc 1 1176 0
 1893 0000 0E4B     		ldr	r3, .L240
1173:Drivers/STM32F7xx_HAL_Driver/Src/stm32f7xx_hal_rcc.c **** 
 1894              		.loc 1 1173 0
 1895 0002 0F22     		movs	r2, #15
 1896 0004 0260     		str	r2, [r0]
 1897              		.loc 1 1176 0
 1898 0006 9A68     		ldr	r2, [r3, #8]
 1899 0008 02F00302 		and	r2, r2, #3
 1900 000c 4260     		str	r2, [r0, #4]
1177:Drivers/STM32F7xx_HAL_Driver/Src/stm32f7xx_hal_rcc.c **** 
1178:Drivers/STM32F7xx_HAL_Driver/Src/stm32f7xx_hal_rcc.c ****   /* Get the HCLK configuration ----------------------------------------------*/
1179:Drivers/STM32F7xx_HAL_Driver/Src/stm32f7xx_hal_rcc.c ****   RCC_ClkInitStruct->AHBCLKDivider = (uint32_t)(RCC->CFGR & RCC_CFGR_HPRE);
 1901              		.loc 1 1179 0
 1902 000e 9A68     		ldr	r2, [r3, #8]
 1903 0010 02F0F002 		and	r2, r2, #240
 1904 0014 8260     		str	r2, [r0, #8]
1180:Drivers/STM32F7xx_HAL_Driver/Src/stm32f7xx_hal_rcc.c **** 
ARM GAS  /tmp/ccQLX8NK.s 			page 59


1181:Drivers/STM32F7xx_HAL_Driver/Src/stm32f7xx_hal_rcc.c ****   /* Get the APB1 configuration ----------------------------------------------*/
1182:Drivers/STM32F7xx_HAL_Driver/Src/stm32f7xx_hal_rcc.c ****   RCC_ClkInitStruct->APB1CLKDivider = (uint32_t)(RCC->CFGR & RCC_CFGR_PPRE1);
 1905              		.loc 1 1182 0
 1906 0016 9A68     		ldr	r2, [r3, #8]
 1907 0018 02F4E052 		and	r2, r2, #7168
 1908 001c C260     		str	r2, [r0, #12]
1183:Drivers/STM32F7xx_HAL_Driver/Src/stm32f7xx_hal_rcc.c **** 
1184:Drivers/STM32F7xx_HAL_Driver/Src/stm32f7xx_hal_rcc.c ****   /* Get the APB2 configuration ----------------------------------------------*/
1185:Drivers/STM32F7xx_HAL_Driver/Src/stm32f7xx_hal_rcc.c ****   RCC_ClkInitStruct->APB2CLKDivider = (uint32_t)((RCC->CFGR & RCC_CFGR_PPRE2) >> 3);
 1909              		.loc 1 1185 0
 1910 001e 9B68     		ldr	r3, [r3, #8]
 1911 0020 DB08     		lsrs	r3, r3, #3
1171:Drivers/STM32F7xx_HAL_Driver/Src/stm32f7xx_hal_rcc.c ****   /* Set all possible values for the Clock type parameter --------------------*/
 1912              		.loc 1 1171 0
 1913 0022 10B4     		push	{r4}
 1914              	.LCFI18:
 1915              		.cfi_def_cfa_offset 4
 1916              		.cfi_offset 4, -4
 1917              		.loc 1 1185 0
 1918 0024 03F4E053 		and	r3, r3, #7168
1186:Drivers/STM32F7xx_HAL_Driver/Src/stm32f7xx_hal_rcc.c **** 
1187:Drivers/STM32F7xx_HAL_Driver/Src/stm32f7xx_hal_rcc.c ****   /* Get the Flash Wait State (Latency) configuration ------------------------*/
1188:Drivers/STM32F7xx_HAL_Driver/Src/stm32f7xx_hal_rcc.c ****   *pFLatency = (uint32_t)(FLASH->ACR & FLASH_ACR_LATENCY);
 1919              		.loc 1 1188 0
 1920 0028 054C     		ldr	r4, .L240+4
1185:Drivers/STM32F7xx_HAL_Driver/Src/stm32f7xx_hal_rcc.c **** 
 1921              		.loc 1 1185 0
 1922 002a 0361     		str	r3, [r0, #16]
 1923              		.loc 1 1188 0
 1924 002c 2368     		ldr	r3, [r4]
1189:Drivers/STM32F7xx_HAL_Driver/Src/stm32f7xx_hal_rcc.c **** }
 1925              		.loc 1 1189 0
 1926 002e 5DF8044B 		ldr	r4, [sp], #4
 1927              	.LCFI19:
 1928              		.cfi_restore 4
 1929              		.cfi_def_cfa_offset 0
1188:Drivers/STM32F7xx_HAL_Driver/Src/stm32f7xx_hal_rcc.c **** }
 1930              		.loc 1 1188 0
 1931 0032 03F00F03 		and	r3, r3, #15
 1932 0036 0B60     		str	r3, [r1]
 1933              		.loc 1 1189 0
 1934 0038 7047     		bx	lr
 1935              	.L241:
 1936 003a 00BF     		.align	2
 1937              	.L240:
 1938 003c 00380240 		.word	1073887232
 1939 0040 003C0240 		.word	1073888256
 1940              		.cfi_endproc
 1941              	.LFE149:
 1943              		.section	.text.HAL_RCC_CSSCallback,"ax",%progbits
 1944              		.align	1
 1945              		.p2align 2,,3
 1946              		.weak	HAL_RCC_CSSCallback
 1947              		.syntax unified
 1948              		.thumb
 1949              		.thumb_func
 1950              		.fpu fpv4-sp-d16
ARM GAS  /tmp/ccQLX8NK.s 			page 60


 1952              	HAL_RCC_CSSCallback:
 1953              	.LFB151:
1190:Drivers/STM32F7xx_HAL_Driver/Src/stm32f7xx_hal_rcc.c **** 
1191:Drivers/STM32F7xx_HAL_Driver/Src/stm32f7xx_hal_rcc.c **** /**
1192:Drivers/STM32F7xx_HAL_Driver/Src/stm32f7xx_hal_rcc.c ****   * @brief This function handles the RCC CSS interrupt request.
1193:Drivers/STM32F7xx_HAL_Driver/Src/stm32f7xx_hal_rcc.c ****   * @note This API should be called under the NMI_Handler().
1194:Drivers/STM32F7xx_HAL_Driver/Src/stm32f7xx_hal_rcc.c ****   * @retval None
1195:Drivers/STM32F7xx_HAL_Driver/Src/stm32f7xx_hal_rcc.c ****   */
1196:Drivers/STM32F7xx_HAL_Driver/Src/stm32f7xx_hal_rcc.c **** void HAL_RCC_NMI_IRQHandler(void)
1197:Drivers/STM32F7xx_HAL_Driver/Src/stm32f7xx_hal_rcc.c **** {
1198:Drivers/STM32F7xx_HAL_Driver/Src/stm32f7xx_hal_rcc.c ****   /* Check RCC CSSF flag  */
1199:Drivers/STM32F7xx_HAL_Driver/Src/stm32f7xx_hal_rcc.c ****   if(__HAL_RCC_GET_IT(RCC_IT_CSS))
1200:Drivers/STM32F7xx_HAL_Driver/Src/stm32f7xx_hal_rcc.c ****   {
1201:Drivers/STM32F7xx_HAL_Driver/Src/stm32f7xx_hal_rcc.c ****     /* RCC Clock Security System interrupt user callback */
1202:Drivers/STM32F7xx_HAL_Driver/Src/stm32f7xx_hal_rcc.c ****     HAL_RCC_CSSCallback();
1203:Drivers/STM32F7xx_HAL_Driver/Src/stm32f7xx_hal_rcc.c **** 
1204:Drivers/STM32F7xx_HAL_Driver/Src/stm32f7xx_hal_rcc.c ****     /* Clear RCC CSS pending bit */
1205:Drivers/STM32F7xx_HAL_Driver/Src/stm32f7xx_hal_rcc.c ****     __HAL_RCC_CLEAR_IT(RCC_IT_CSS);
1206:Drivers/STM32F7xx_HAL_Driver/Src/stm32f7xx_hal_rcc.c ****   }
1207:Drivers/STM32F7xx_HAL_Driver/Src/stm32f7xx_hal_rcc.c **** }
1208:Drivers/STM32F7xx_HAL_Driver/Src/stm32f7xx_hal_rcc.c **** 
1209:Drivers/STM32F7xx_HAL_Driver/Src/stm32f7xx_hal_rcc.c **** /**
1210:Drivers/STM32F7xx_HAL_Driver/Src/stm32f7xx_hal_rcc.c ****   * @brief  RCC Clock Security System interrupt callback
1211:Drivers/STM32F7xx_HAL_Driver/Src/stm32f7xx_hal_rcc.c ****   * @retval None
1212:Drivers/STM32F7xx_HAL_Driver/Src/stm32f7xx_hal_rcc.c ****   */
1213:Drivers/STM32F7xx_HAL_Driver/Src/stm32f7xx_hal_rcc.c **** __weak void HAL_RCC_CSSCallback(void)
1214:Drivers/STM32F7xx_HAL_Driver/Src/stm32f7xx_hal_rcc.c **** {
 1954              		.loc 1 1214 0
 1955              		.cfi_startproc
 1956              		@ args = 0, pretend = 0, frame = 0
 1957              		@ frame_needed = 0, uses_anonymous_args = 0
 1958              		@ link register save eliminated.
1215:Drivers/STM32F7xx_HAL_Driver/Src/stm32f7xx_hal_rcc.c ****   /* NOTE : This function Should not be modified, when the callback is needed,
1216:Drivers/STM32F7xx_HAL_Driver/Src/stm32f7xx_hal_rcc.c ****             the HAL_RCC_CSSCallback could be implemented in the user file
1217:Drivers/STM32F7xx_HAL_Driver/Src/stm32f7xx_hal_rcc.c ****    */
1218:Drivers/STM32F7xx_HAL_Driver/Src/stm32f7xx_hal_rcc.c **** }
 1959              		.loc 1 1218 0
 1960 0000 7047     		bx	lr
 1961              		.cfi_endproc
 1962              	.LFE151:
 1964 0002 00BF     		.section	.text.HAL_RCC_NMI_IRQHandler,"ax",%progbits
 1965              		.align	1
 1966              		.p2align 2,,3
 1967              		.global	HAL_RCC_NMI_IRQHandler
 1968              		.syntax unified
 1969              		.thumb
 1970              		.thumb_func
 1971              		.fpu fpv4-sp-d16
 1973              	HAL_RCC_NMI_IRQHandler:
 1974              	.LFB150:
1197:Drivers/STM32F7xx_HAL_Driver/Src/stm32f7xx_hal_rcc.c ****   /* Check RCC CSSF flag  */
 1975              		.loc 1 1197 0
 1976              		.cfi_startproc
 1977              		@ args = 0, pretend = 0, frame = 0
 1978              		@ frame_needed = 0, uses_anonymous_args = 0
 1979 0000 08B5     		push	{r3, lr}
 1980              	.LCFI20:
ARM GAS  /tmp/ccQLX8NK.s 			page 61


 1981              		.cfi_def_cfa_offset 8
 1982              		.cfi_offset 3, -8
 1983              		.cfi_offset 14, -4
1199:Drivers/STM32F7xx_HAL_Driver/Src/stm32f7xx_hal_rcc.c ****   {
 1984              		.loc 1 1199 0
 1985 0002 054B     		ldr	r3, .L250
 1986 0004 DB68     		ldr	r3, [r3, #12]
 1987 0006 1B06     		lsls	r3, r3, #24
 1988 0008 00D4     		bmi	.L249
1207:Drivers/STM32F7xx_HAL_Driver/Src/stm32f7xx_hal_rcc.c **** 
 1989              		.loc 1 1207 0
 1990 000a 08BD     		pop	{r3, pc}
 1991              	.L249:
1202:Drivers/STM32F7xx_HAL_Driver/Src/stm32f7xx_hal_rcc.c **** 
 1992              		.loc 1 1202 0
 1993 000c FFF7FEFF 		bl	HAL_RCC_CSSCallback
 1994              	.LVL154:
1205:Drivers/STM32F7xx_HAL_Driver/Src/stm32f7xx_hal_rcc.c ****   }
 1995              		.loc 1 1205 0
 1996 0010 024B     		ldr	r3, .L250+4
 1997 0012 8022     		movs	r2, #128
 1998 0014 1A70     		strb	r2, [r3]
1207:Drivers/STM32F7xx_HAL_Driver/Src/stm32f7xx_hal_rcc.c **** 
 1999              		.loc 1 1207 0
 2000 0016 08BD     		pop	{r3, pc}
 2001              	.L251:
 2002              		.align	2
 2003              	.L250:
 2004 0018 00380240 		.word	1073887232
 2005 001c 0E380240 		.word	1073887246
 2006              		.cfi_endproc
 2007              	.LFE150:
 2009              		.comm	UpdateFile,4,4
 2010              		.comm	SpiRxData,4,4
 2011              		.comm	SpiTxData,4,4
 2012              		.text
 2013              	.Letext0:
 2014              		.file 2 "/usr/include/newlib/machine/_default_types.h"
 2015              		.file 3 "/usr/include/newlib/sys/lock.h"
 2016              		.file 4 "/usr/include/newlib/sys/_types.h"
 2017              		.file 5 "/usr/lib/gcc/arm-none-eabi/7.3.1/include/stddef.h"
 2018              		.file 6 "/usr/include/newlib/sys/reent.h"
 2019              		.file 7 "/usr/include/newlib/sys/_stdint.h"
 2020              		.file 8 "Inc/main.h"
 2021              		.file 9 "Drivers/CMSIS/Include/core_cm7.h"
 2022              		.file 10 "Drivers/CMSIS/Device/ST/STM32F7xx/Include/system_stm32f7xx.h"
 2023              		.file 11 "Drivers/CMSIS/Device/ST/STM32F7xx/Include/stm32f746xx.h"
 2024              		.file 12 "Drivers/CMSIS/Device/ST/STM32F7xx/Include/stm32f7xx.h"
 2025              		.file 13 "Drivers/STM32F7xx_HAL_Driver/Inc/stm32f7xx_hal_def.h"
 2026              		.file 14 "Drivers/STM32F7xx_HAL_Driver/Inc/stm32f7xx_hal_rcc_ex.h"
 2027              		.file 15 "Drivers/STM32F7xx_HAL_Driver/Inc/stm32f7xx_hal_rcc.h"
 2028              		.file 16 "Drivers/STM32F7xx_HAL_Driver/Inc/stm32f7xx_hal_gpio.h"
 2029              		.file 17 "Drivers/STM32F7xx_HAL_Driver/Inc/stm32f7xx_hal.h"
ARM GAS  /tmp/ccQLX8NK.s 			page 62

