ARM GAS  /tmp/ccQoHLp2.s 			page 1


   1              		.cpu cortex-m7
   2              		.eabi_attribute 27, 1
   3              		.eabi_attribute 28, 1
   4              		.eabi_attribute 20, 1
   5              		.eabi_attribute 21, 1
   6              		.eabi_attribute 23, 3
   7              		.eabi_attribute 24, 1
   8              		.eabi_attribute 25, 1
   9              		.eabi_attribute 26, 1
  10              		.eabi_attribute 30, 2
  11              		.eabi_attribute 34, 1
  12              		.eabi_attribute 18, 4
  13              		.file	"system_stm32f7xx.c"
  14              		.text
  15              	.Ltext0:
  16              		.cfi_sections	.debug_frame
  17              		.section	.text.SystemInit,"ax",%progbits
  18              		.align	1
  19              		.p2align 2,,3
  20              		.global	SystemInit
  21              		.syntax unified
  22              		.thumb
  23              		.thumb_func
  24              		.fpu fpv4-sp-d16
  26              	SystemInit:
  27              	.LFB138:
  28              		.file 1 "Src/system_stm32f7xx.c"
   1:Src/system_stm32f7xx.c **** /**
   2:Src/system_stm32f7xx.c ****   ******************************************************************************
   3:Src/system_stm32f7xx.c ****   * @file    system_stm32f7xx.c
   4:Src/system_stm32f7xx.c ****   * @author  MCD Application Team
   5:Src/system_stm32f7xx.c ****   * @brief   CMSIS Cortex-M7 Device Peripheral Access Layer System Source File.
   6:Src/system_stm32f7xx.c ****   *
   7:Src/system_stm32f7xx.c ****   *   This file provides two functions and one global variable to be called from 
   8:Src/system_stm32f7xx.c ****   *   user application:
   9:Src/system_stm32f7xx.c ****   *      - SystemInit(): This function is called at startup just after reset and 
  10:Src/system_stm32f7xx.c ****   *                      before branch to main program. This call is made inside
  11:Src/system_stm32f7xx.c ****   *                      the "startup_stm32f7xx.s" file.
  12:Src/system_stm32f7xx.c ****   *
  13:Src/system_stm32f7xx.c ****   *      - SystemCoreClock variable: Contains the core clock (HCLK), it can be used
  14:Src/system_stm32f7xx.c ****   *                                  by the user application to setup the SysTick 
  15:Src/system_stm32f7xx.c ****   *                                  timer or configure other parameters.
  16:Src/system_stm32f7xx.c ****   *                                     
  17:Src/system_stm32f7xx.c ****   *      - SystemCoreClockUpdate(): Updates the variable SystemCoreClock and must
  18:Src/system_stm32f7xx.c ****   *                                 be called whenever the core clock is changed
  19:Src/system_stm32f7xx.c ****   *                                 during program execution.
  20:Src/system_stm32f7xx.c ****   *
  21:Src/system_stm32f7xx.c ****   *
  22:Src/system_stm32f7xx.c ****   ******************************************************************************
  23:Src/system_stm32f7xx.c ****   * @attention
  24:Src/system_stm32f7xx.c ****   *
  25:Src/system_stm32f7xx.c ****   * <h2><center>&copy; COPYRIGHT 2016 STMicroelectronics</center></h2>
  26:Src/system_stm32f7xx.c ****   *
  27:Src/system_stm32f7xx.c ****   * Redistribution and use in source and binary forms, with or without modification,
  28:Src/system_stm32f7xx.c ****   * are permitted provided that the following conditions are met:
  29:Src/system_stm32f7xx.c ****   *   1. Redistributions of source code must retain the above copyright notice,
  30:Src/system_stm32f7xx.c ****   *      this list of conditions and the following disclaimer.
ARM GAS  /tmp/ccQoHLp2.s 			page 2


  31:Src/system_stm32f7xx.c ****   *   2. Redistributions in binary form must reproduce the above copyright notice,
  32:Src/system_stm32f7xx.c ****   *      this list of conditions and the following disclaimer in the documentation
  33:Src/system_stm32f7xx.c ****   *      and/or other materials provided with the distribution.
  34:Src/system_stm32f7xx.c ****   *   3. Neither the name of STMicroelectronics nor the names of its contributors
  35:Src/system_stm32f7xx.c ****   *      may be used to endorse or promote products derived from this software
  36:Src/system_stm32f7xx.c ****   *      without specific prior written permission.
  37:Src/system_stm32f7xx.c ****   *
  38:Src/system_stm32f7xx.c ****   * THIS SOFTWARE IS PROVIDED BY THE COPYRIGHT HOLDERS AND CONTRIBUTORS "AS IS"
  39:Src/system_stm32f7xx.c ****   * AND ANY EXPRESS OR IMPLIED WARRANTIES, INCLUDING, BUT NOT LIMITED TO, THE
  40:Src/system_stm32f7xx.c ****   * IMPLIED WARRANTIES OF MERCHANTABILITY AND FITNESS FOR A PARTICULAR PURPOSE ARE
  41:Src/system_stm32f7xx.c ****   * DISCLAIMED. IN NO EVENT SHALL THE COPYRIGHT HOLDER OR CONTRIBUTORS BE LIABLE
  42:Src/system_stm32f7xx.c ****   * FOR ANY DIRECT, INDIRECT, INCIDENTAL, SPECIAL, EXEMPLARY, OR CONSEQUENTIAL
  43:Src/system_stm32f7xx.c ****   * DAMAGES (INCLUDING, BUT NOT LIMITED TO, PROCUREMENT OF SUBSTITUTE GOODS OR
  44:Src/system_stm32f7xx.c ****   * SERVICES; LOSS OF USE, DATA, OR PROFITS; OR BUSINESS INTERRUPTION) HOWEVER
  45:Src/system_stm32f7xx.c ****   * CAUSED AND ON ANY THEORY OF LIABILITY, WHETHER IN CONTRACT, STRICT LIABILITY,
  46:Src/system_stm32f7xx.c ****   * OR TORT (INCLUDING NEGLIGENCE OR OTHERWISE) ARISING IN ANY WAY OUT OF THE USE
  47:Src/system_stm32f7xx.c ****   * OF THIS SOFTWARE, EVEN IF ADVISED OF THE POSSIBILITY OF SUCH DAMAGE.
  48:Src/system_stm32f7xx.c ****   *
  49:Src/system_stm32f7xx.c ****   ******************************************************************************
  50:Src/system_stm32f7xx.c ****   */
  51:Src/system_stm32f7xx.c **** 
  52:Src/system_stm32f7xx.c **** /** @addtogroup CMSIS
  53:Src/system_stm32f7xx.c ****   * @{
  54:Src/system_stm32f7xx.c ****   */
  55:Src/system_stm32f7xx.c **** 
  56:Src/system_stm32f7xx.c **** /** @addtogroup stm32f7xx_system
  57:Src/system_stm32f7xx.c ****   * @{
  58:Src/system_stm32f7xx.c ****   */  
  59:Src/system_stm32f7xx.c ****   
  60:Src/system_stm32f7xx.c **** /** @addtogroup STM32F7xx_System_Private_Includes
  61:Src/system_stm32f7xx.c ****   * @{
  62:Src/system_stm32f7xx.c ****   */
  63:Src/system_stm32f7xx.c **** 
  64:Src/system_stm32f7xx.c **** #include "stm32f7xx.h"
  65:Src/system_stm32f7xx.c **** 
  66:Src/system_stm32f7xx.c **** #if !defined  (HSE_VALUE) 
  67:Src/system_stm32f7xx.c ****   #define HSE_VALUE    ((uint32_t)25000000) /*!< Default value of the External oscillator in Hz */
  68:Src/system_stm32f7xx.c **** #endif /* HSE_VALUE */
  69:Src/system_stm32f7xx.c **** 
  70:Src/system_stm32f7xx.c **** #if !defined  (HSI_VALUE)
  71:Src/system_stm32f7xx.c ****   #define HSI_VALUE    ((uint32_t)16000000) /*!< Value of the Internal oscillator in Hz*/
  72:Src/system_stm32f7xx.c **** #endif /* HSI_VALUE */
  73:Src/system_stm32f7xx.c **** 
  74:Src/system_stm32f7xx.c **** /**
  75:Src/system_stm32f7xx.c ****   * @}
  76:Src/system_stm32f7xx.c ****   */
  77:Src/system_stm32f7xx.c **** 
  78:Src/system_stm32f7xx.c **** /** @addtogroup STM32F7xx_System_Private_TypesDefinitions
  79:Src/system_stm32f7xx.c ****   * @{
  80:Src/system_stm32f7xx.c ****   */
  81:Src/system_stm32f7xx.c **** 
  82:Src/system_stm32f7xx.c **** /**
  83:Src/system_stm32f7xx.c ****   * @}
  84:Src/system_stm32f7xx.c ****   */
  85:Src/system_stm32f7xx.c **** 
  86:Src/system_stm32f7xx.c **** /** @addtogroup STM32F7xx_System_Private_Defines
  87:Src/system_stm32f7xx.c ****   * @{
ARM GAS  /tmp/ccQoHLp2.s 			page 3


  88:Src/system_stm32f7xx.c ****   */
  89:Src/system_stm32f7xx.c **** 
  90:Src/system_stm32f7xx.c **** /************************* Miscellaneous Configuration ************************/
  91:Src/system_stm32f7xx.c **** 
  92:Src/system_stm32f7xx.c **** /*!< Uncomment the following line if you need to relocate your vector Table in
  93:Src/system_stm32f7xx.c ****      Internal SRAM. */
  94:Src/system_stm32f7xx.c **** /* #define VECT_TAB_SRAM */
  95:Src/system_stm32f7xx.c **** #define VECT_TAB_OFFSET  0x00 /*!< Vector Table base offset field. 
  96:Src/system_stm32f7xx.c ****                                    This value must be a multiple of 0x200. */
  97:Src/system_stm32f7xx.c **** /******************************************************************************/
  98:Src/system_stm32f7xx.c **** 
  99:Src/system_stm32f7xx.c **** /**
 100:Src/system_stm32f7xx.c ****   * @}
 101:Src/system_stm32f7xx.c ****   */
 102:Src/system_stm32f7xx.c **** 
 103:Src/system_stm32f7xx.c **** /** @addtogroup STM32F7xx_System_Private_Macros
 104:Src/system_stm32f7xx.c ****   * @{
 105:Src/system_stm32f7xx.c ****   */
 106:Src/system_stm32f7xx.c **** 
 107:Src/system_stm32f7xx.c **** /**
 108:Src/system_stm32f7xx.c ****   * @}
 109:Src/system_stm32f7xx.c ****   */
 110:Src/system_stm32f7xx.c **** 
 111:Src/system_stm32f7xx.c **** /** @addtogroup STM32F7xx_System_Private_Variables
 112:Src/system_stm32f7xx.c ****   * @{
 113:Src/system_stm32f7xx.c ****   */
 114:Src/system_stm32f7xx.c **** 
 115:Src/system_stm32f7xx.c ****   /* This variable is updated in three ways:
 116:Src/system_stm32f7xx.c ****       1) by calling CMSIS function SystemCoreClockUpdate()
 117:Src/system_stm32f7xx.c ****       2) by calling HAL API function HAL_RCC_GetHCLKFreq()
 118:Src/system_stm32f7xx.c ****       3) each time HAL_RCC_ClockConfig() is called to configure the system clock frequency 
 119:Src/system_stm32f7xx.c ****          Note: If you use this function to configure the system clock; then there
 120:Src/system_stm32f7xx.c ****                is no need to call the 2 first functions listed above, since SystemCoreClock
 121:Src/system_stm32f7xx.c ****                variable is updated automatically.
 122:Src/system_stm32f7xx.c ****   */
 123:Src/system_stm32f7xx.c ****   uint32_t SystemCoreClock = 16000000;
 124:Src/system_stm32f7xx.c ****   const uint8_t AHBPrescTable[16] = {0, 0, 0, 0, 0, 0, 0, 0, 1, 2, 3, 4, 6, 7, 8, 9};
 125:Src/system_stm32f7xx.c ****   const uint8_t APBPrescTable[8] = {0, 0, 0, 0, 1, 2, 3, 4};
 126:Src/system_stm32f7xx.c **** 
 127:Src/system_stm32f7xx.c **** /**
 128:Src/system_stm32f7xx.c ****   * @}
 129:Src/system_stm32f7xx.c ****   */
 130:Src/system_stm32f7xx.c **** 
 131:Src/system_stm32f7xx.c **** /** @addtogroup STM32F7xx_System_Private_FunctionPrototypes
 132:Src/system_stm32f7xx.c ****   * @{
 133:Src/system_stm32f7xx.c ****   */
 134:Src/system_stm32f7xx.c **** 
 135:Src/system_stm32f7xx.c **** /**
 136:Src/system_stm32f7xx.c ****   * @}
 137:Src/system_stm32f7xx.c ****   */
 138:Src/system_stm32f7xx.c **** 
 139:Src/system_stm32f7xx.c **** /** @addtogroup STM32F7xx_System_Private_Functions
 140:Src/system_stm32f7xx.c ****   * @{
 141:Src/system_stm32f7xx.c ****   */
 142:Src/system_stm32f7xx.c **** 
 143:Src/system_stm32f7xx.c **** /**
 144:Src/system_stm32f7xx.c ****   * @brief  Setup the microcontroller system
ARM GAS  /tmp/ccQoHLp2.s 			page 4


 145:Src/system_stm32f7xx.c ****   *         Initialize the Embedded Flash Interface, the PLL and update the 
 146:Src/system_stm32f7xx.c ****   *         SystemFrequency variable.
 147:Src/system_stm32f7xx.c ****   * @param  None
 148:Src/system_stm32f7xx.c ****   * @retval None
 149:Src/system_stm32f7xx.c ****   */
 150:Src/system_stm32f7xx.c **** void SystemInit(void)
 151:Src/system_stm32f7xx.c **** {
  29              		.loc 1 151 0
  30              		.cfi_startproc
  31              		@ args = 0, pretend = 0, frame = 0
  32              		@ frame_needed = 0, uses_anonymous_args = 0
  33              		@ link register save eliminated.
 152:Src/system_stm32f7xx.c ****   /* FPU settings ------------------------------------------------------------*/
 153:Src/system_stm32f7xx.c ****   #if (__FPU_PRESENT == 1) && (__FPU_USED == 1)
 154:Src/system_stm32f7xx.c ****     SCB->CPACR |= ((3UL << 10*2)|(3UL << 11*2));  /* set CP10 and CP11 Full Access */
  34              		.loc 1 154 0
  35 0000 0F4A     		ldr	r2, .L4
 155:Src/system_stm32f7xx.c ****   #endif
 156:Src/system_stm32f7xx.c ****   /* Reset the RCC clock configuration to the default reset state ------------*/
 157:Src/system_stm32f7xx.c ****   /* Set HSION bit */
 158:Src/system_stm32f7xx.c ****   RCC->CR |= (uint32_t)0x00000001;
  36              		.loc 1 158 0
  37 0002 104B     		ldr	r3, .L4+4
 154:Src/system_stm32f7xx.c ****   #endif
  38              		.loc 1 154 0
  39 0004 D2F88800 		ldr	r0, [r2, #136]
 159:Src/system_stm32f7xx.c **** 
 160:Src/system_stm32f7xx.c ****   /* Reset CFGR register */
 161:Src/system_stm32f7xx.c ****   RCC->CFGR = 0x00000000;
 162:Src/system_stm32f7xx.c **** 
 163:Src/system_stm32f7xx.c ****   /* Reset HSEON, CSSON and PLLON bits */
 164:Src/system_stm32f7xx.c ****   RCC->CR &= (uint32_t)0xFEF6FFFF;
  40              		.loc 1 164 0
  41 0008 0F49     		ldr	r1, .L4+8
 154:Src/system_stm32f7xx.c ****   #endif
  42              		.loc 1 154 0
  43 000a 40F47000 		orr	r0, r0, #15728640
 151:Src/system_stm32f7xx.c ****   /* FPU settings ------------------------------------------------------------*/
  44              		.loc 1 151 0
  45 000e 70B4     		push	{r4, r5, r6}
  46              	.LCFI0:
  47              		.cfi_def_cfa_offset 12
  48              		.cfi_offset 4, -12
  49              		.cfi_offset 5, -8
  50              		.cfi_offset 6, -4
 154:Src/system_stm32f7xx.c ****   #endif
  51              		.loc 1 154 0
  52 0010 C2F88800 		str	r0, [r2, #136]
 161:Src/system_stm32f7xx.c **** 
  53              		.loc 1 161 0
  54 0014 0024     		movs	r4, #0
 158:Src/system_stm32f7xx.c **** 
  55              		.loc 1 158 0
  56 0016 1868     		ldr	r0, [r3]
 165:Src/system_stm32f7xx.c **** 
 166:Src/system_stm32f7xx.c ****   /* Reset PLLCFGR register */
 167:Src/system_stm32f7xx.c ****   RCC->PLLCFGR = 0x24003010;
ARM GAS  /tmp/ccQoHLp2.s 			page 5


 168:Src/system_stm32f7xx.c **** 
 169:Src/system_stm32f7xx.c ****   /* Reset HSEBYP bit */
 170:Src/system_stm32f7xx.c ****   RCC->CR &= (uint32_t)0xFFFBFFFF;
 171:Src/system_stm32f7xx.c **** 
 172:Src/system_stm32f7xx.c ****   /* Disable all interrupts */
 173:Src/system_stm32f7xx.c ****   RCC->CIR = 0x00000000;
 174:Src/system_stm32f7xx.c **** 
 175:Src/system_stm32f7xx.c ****   /* Configure the Vector Table location add offset address ------------------*/
 176:Src/system_stm32f7xx.c **** #ifdef VECT_TAB_SRAM
 177:Src/system_stm32f7xx.c ****   SCB->VTOR = RAMDTCM_BASE | VECT_TAB_OFFSET; /* Vector Table Relocation in Internal SRAM */
 178:Src/system_stm32f7xx.c **** #else
 179:Src/system_stm32f7xx.c ****   SCB->VTOR = FLASH_BASE | VECT_TAB_OFFSET; /* Vector Table Relocation in Internal FLASH */
  57              		.loc 1 179 0
  58 0018 4FF00065 		mov	r5, #134217728
 167:Src/system_stm32f7xx.c **** 
  59              		.loc 1 167 0
  60 001c 0B4E     		ldr	r6, .L4+12
 158:Src/system_stm32f7xx.c **** 
  61              		.loc 1 158 0
  62 001e 40F00100 		orr	r0, r0, #1
  63 0022 1860     		str	r0, [r3]
 161:Src/system_stm32f7xx.c **** 
  64              		.loc 1 161 0
  65 0024 9C60     		str	r4, [r3, #8]
 164:Src/system_stm32f7xx.c **** 
  66              		.loc 1 164 0
  67 0026 1868     		ldr	r0, [r3]
  68 0028 0140     		ands	r1, r1, r0
  69 002a 1960     		str	r1, [r3]
 167:Src/system_stm32f7xx.c **** 
  70              		.loc 1 167 0
  71 002c 5E60     		str	r6, [r3, #4]
 170:Src/system_stm32f7xx.c **** 
  72              		.loc 1 170 0
  73 002e 1968     		ldr	r1, [r3]
  74 0030 21F48021 		bic	r1, r1, #262144
  75 0034 1960     		str	r1, [r3]
 173:Src/system_stm32f7xx.c **** 
  76              		.loc 1 173 0
  77 0036 DC60     		str	r4, [r3, #12]
  78              		.loc 1 179 0
  79 0038 9560     		str	r5, [r2, #8]
 180:Src/system_stm32f7xx.c **** #endif
 181:Src/system_stm32f7xx.c **** }
  80              		.loc 1 181 0
  81 003a 70BC     		pop	{r4, r5, r6}
  82              	.LCFI1:
  83              		.cfi_restore 6
  84              		.cfi_restore 5
  85              		.cfi_restore 4
  86              		.cfi_def_cfa_offset 0
  87 003c 7047     		bx	lr
  88              	.L5:
  89 003e 00BF     		.align	2
  90              	.L4:
  91 0040 00ED00E0 		.word	-536810240
  92 0044 00380240 		.word	1073887232
ARM GAS  /tmp/ccQoHLp2.s 			page 6


  93 0048 FFFFF6FE 		.word	-17367041
  94 004c 10300024 		.word	603992080
  95              		.cfi_endproc
  96              	.LFE138:
  98              		.section	.text.SystemCoreClockUpdate,"ax",%progbits
  99              		.align	1
 100              		.p2align 2,,3
 101              		.global	SystemCoreClockUpdate
 102              		.syntax unified
 103              		.thumb
 104              		.thumb_func
 105              		.fpu fpv4-sp-d16
 107              	SystemCoreClockUpdate:
 108              	.LFB139:
 182:Src/system_stm32f7xx.c **** 
 183:Src/system_stm32f7xx.c **** /**
 184:Src/system_stm32f7xx.c ****    * @brief  Update SystemCoreClock variable according to Clock Register Values.
 185:Src/system_stm32f7xx.c ****   *         The SystemCoreClock variable contains the core clock (HCLK), it can
 186:Src/system_stm32f7xx.c ****   *         be used by the user application to setup the SysTick timer or configure
 187:Src/system_stm32f7xx.c ****   *         other parameters.
 188:Src/system_stm32f7xx.c ****   *           
 189:Src/system_stm32f7xx.c ****   * @note   Each time the core clock (HCLK) changes, this function must be called
 190:Src/system_stm32f7xx.c ****   *         to update SystemCoreClock variable value. Otherwise, any configuration
 191:Src/system_stm32f7xx.c ****   *         based on this variable will be incorrect.         
 192:Src/system_stm32f7xx.c ****   *     
 193:Src/system_stm32f7xx.c ****   * @note   - The system frequency computed by this function is not the real 
 194:Src/system_stm32f7xx.c ****   *           frequency in the chip. It is calculated based on the predefined 
 195:Src/system_stm32f7xx.c ****   *           constant and the selected clock source:
 196:Src/system_stm32f7xx.c ****   *             
 197:Src/system_stm32f7xx.c ****   *           - If SYSCLK source is HSI, SystemCoreClock will contain the HSI_VALUE(*)
 198:Src/system_stm32f7xx.c ****   *                                              
 199:Src/system_stm32f7xx.c ****   *           - If SYSCLK source is HSE, SystemCoreClock will contain the HSE_VALUE(**)
 200:Src/system_stm32f7xx.c ****   *                          
 201:Src/system_stm32f7xx.c ****   *           - If SYSCLK source is PLL, SystemCoreClock will contain the HSE_VALUE(**) 
 202:Src/system_stm32f7xx.c ****   *             or HSI_VALUE(*) multiplied/divided by the PLL factors.
 203:Src/system_stm32f7xx.c ****   *         
 204:Src/system_stm32f7xx.c ****   *         (*) HSI_VALUE is a constant defined in stm32f7xx_hal_conf.h file (default value
 205:Src/system_stm32f7xx.c ****   *             16 MHz) but the real value may vary depending on the variations
 206:Src/system_stm32f7xx.c ****   *             in voltage and temperature.   
 207:Src/system_stm32f7xx.c ****   *    
 208:Src/system_stm32f7xx.c ****   *         (**) HSE_VALUE is a constant defined in stm32f7xx_hal_conf.h file (default value
 209:Src/system_stm32f7xx.c ****   *              25 MHz), user has to ensure that HSE_VALUE is same as the real
 210:Src/system_stm32f7xx.c ****   *              frequency of the crystal used. Otherwise, this function may
 211:Src/system_stm32f7xx.c ****   *              have wrong result.
 212:Src/system_stm32f7xx.c ****   *                
 213:Src/system_stm32f7xx.c ****   *         - The result of this function could be not correct when using fractional
 214:Src/system_stm32f7xx.c ****   *           value for HSE crystal.
 215:Src/system_stm32f7xx.c ****   *     
 216:Src/system_stm32f7xx.c ****   * @param  None
 217:Src/system_stm32f7xx.c ****   * @retval None
 218:Src/system_stm32f7xx.c ****   */
 219:Src/system_stm32f7xx.c **** void SystemCoreClockUpdate(void)
 220:Src/system_stm32f7xx.c **** {
 109              		.loc 1 220 0
 110              		.cfi_startproc
 111              		@ args = 0, pretend = 0, frame = 0
 112              		@ frame_needed = 0, uses_anonymous_args = 0
ARM GAS  /tmp/ccQoHLp2.s 			page 7


 113              		@ link register save eliminated.
 114              	.LVL0:
 221:Src/system_stm32f7xx.c ****   uint32_t tmp = 0, pllvco = 0, pllp = 2, pllsource = 0, pllm = 2;
 222:Src/system_stm32f7xx.c ****   
 223:Src/system_stm32f7xx.c ****   /* Get SYSCLK source -------------------------------------------------------*/
 224:Src/system_stm32f7xx.c ****   tmp = RCC->CFGR & RCC_CFGR_SWS;
 115              		.loc 1 224 0
 116 0000 164A     		ldr	r2, .L13
 117 0002 9368     		ldr	r3, [r2, #8]
 118              	.LVL1:
 119 0004 03F00C03 		and	r3, r3, #12
 120              	.LVL2:
 225:Src/system_stm32f7xx.c **** 
 226:Src/system_stm32f7xx.c ****   switch (tmp)
 121              		.loc 1 226 0
 122 0008 042B     		cmp	r3, #4
 123 000a 25D0     		beq	.L12
 124 000c 082B     		cmp	r3, #8
 125 000e 0AD0     		beq	.L9
 126 0010 134B     		ldr	r3, .L13+4
 127              	.LVL3:
 128              	.L8:
 227:Src/system_stm32f7xx.c ****   {
 228:Src/system_stm32f7xx.c ****     case 0x00:  /* HSI used as system clock source */
 229:Src/system_stm32f7xx.c ****       SystemCoreClock = HSI_VALUE;
 230:Src/system_stm32f7xx.c ****       break;
 231:Src/system_stm32f7xx.c ****     case 0x04:  /* HSE used as system clock source */
 232:Src/system_stm32f7xx.c ****       SystemCoreClock = HSE_VALUE;
 233:Src/system_stm32f7xx.c ****       break;
 234:Src/system_stm32f7xx.c ****     case 0x08:  /* PLL used as system clock source */
 235:Src/system_stm32f7xx.c **** 
 236:Src/system_stm32f7xx.c ****       /* PLL_VCO = (HSE_VALUE or HSI_VALUE / PLL_M) * PLL_N
 237:Src/system_stm32f7xx.c ****          SYSCLK = PLL_VCO / PLL_P
 238:Src/system_stm32f7xx.c ****          */    
 239:Src/system_stm32f7xx.c ****       pllsource = (RCC->PLLCFGR & RCC_PLLCFGR_PLLSRC) >> 22;
 240:Src/system_stm32f7xx.c ****       pllm = RCC->PLLCFGR & RCC_PLLCFGR_PLLM;
 241:Src/system_stm32f7xx.c ****       
 242:Src/system_stm32f7xx.c ****       if (pllsource != 0)
 243:Src/system_stm32f7xx.c ****       {
 244:Src/system_stm32f7xx.c ****         /* HSE used as PLL clock source */
 245:Src/system_stm32f7xx.c ****         pllvco = (HSE_VALUE / pllm) * ((RCC->PLLCFGR & RCC_PLLCFGR_PLLN) >> 6);
 246:Src/system_stm32f7xx.c ****       }
 247:Src/system_stm32f7xx.c ****       else
 248:Src/system_stm32f7xx.c ****       {
 249:Src/system_stm32f7xx.c ****         /* HSI used as PLL clock source */
 250:Src/system_stm32f7xx.c ****         pllvco = (HSI_VALUE / pllm) * ((RCC->PLLCFGR & RCC_PLLCFGR_PLLN) >> 6);      
 251:Src/system_stm32f7xx.c ****       }
 252:Src/system_stm32f7xx.c **** 
 253:Src/system_stm32f7xx.c ****       pllp = (((RCC->PLLCFGR & RCC_PLLCFGR_PLLP) >>16) + 1 ) *2;
 254:Src/system_stm32f7xx.c ****       SystemCoreClock = pllvco/pllp;
 255:Src/system_stm32f7xx.c ****       break;
 256:Src/system_stm32f7xx.c ****     default:
 257:Src/system_stm32f7xx.c ****       SystemCoreClock = HSI_VALUE;
 258:Src/system_stm32f7xx.c ****       break;
 259:Src/system_stm32f7xx.c ****   }
 260:Src/system_stm32f7xx.c ****   /* Compute HCLK frequency --------------------------------------------------*/
 261:Src/system_stm32f7xx.c ****   /* Get HCLK prescaler */
ARM GAS  /tmp/ccQoHLp2.s 			page 8


 262:Src/system_stm32f7xx.c ****   tmp = AHBPrescTable[((RCC->CFGR & RCC_CFGR_HPRE) >> 4)];
 129              		.loc 1 262 0
 130 0012 124A     		ldr	r2, .L13
 131 0014 1348     		ldr	r0, .L13+8
 132 0016 9268     		ldr	r2, [r2, #8]
 133              	.LVL4:
 263:Src/system_stm32f7xx.c ****   /* HCLK frequency */
 264:Src/system_stm32f7xx.c ****   SystemCoreClock >>= tmp;
 134              		.loc 1 264 0
 135 0018 1349     		ldr	r1, .L13+12
 262:Src/system_stm32f7xx.c ****   /* HCLK frequency */
 136              		.loc 1 262 0
 137 001a C2F30312 		ubfx	r2, r2, #4, #4
 138              	.LVL5:
 139 001e 825C     		ldrb	r2, [r0, r2]	@ zero_extendqisi2
 140              		.loc 1 264 0
 141 0020 D340     		lsrs	r3, r3, r2
 142 0022 0B60     		str	r3, [r1]
 265:Src/system_stm32f7xx.c **** }
 143              		.loc 1 265 0
 144 0024 7047     		bx	lr
 145              	.LVL6:
 146              	.L9:
 239:Src/system_stm32f7xx.c ****       pllm = RCC->PLLCFGR & RCC_PLLCFGR_PLLM;
 147              		.loc 1 239 0
 148 0026 5068     		ldr	r0, [r2, #4]
 149              	.LVL7:
 240:Src/system_stm32f7xx.c ****       
 150              		.loc 1 240 0
 151 0028 5168     		ldr	r1, [r2, #4]
 242:Src/system_stm32f7xx.c ****       {
 152              		.loc 1 242 0
 153 002a 4302     		lsls	r3, r0, #9
 154              	.LVL8:
 250:Src/system_stm32f7xx.c ****       }
 155              		.loc 1 250 0
 156 002c 5268     		ldr	r2, [r2, #4]
 240:Src/system_stm32f7xx.c ****       
 157              		.loc 1 240 0
 158 002e 01F03F01 		and	r1, r1, #63
 159              	.LVL9:
 245:Src/system_stm32f7xx.c ****       }
 160              		.loc 1 245 0
 161 0032 48BF     		it	mi
 162 0034 0D4B     		ldrmi	r3, .L13+16
 250:Src/system_stm32f7xx.c ****       }
 163              		.loc 1 250 0
 164 0036 C2F38812 		ubfx	r2, r2, #6, #9
 165 003a 58BF     		it	pl
 166 003c 084B     		ldrpl	r3, .L13+4
 167 003e B3FBF1F3 		udiv	r3, r3, r1
 168 0042 03FB02F3 		mul	r3, r3, r2
 169              	.LVL10:
 253:Src/system_stm32f7xx.c ****       SystemCoreClock = pllvco/pllp;
 170              		.loc 1 253 0
 171 0046 054A     		ldr	r2, .L13
 172 0048 5268     		ldr	r2, [r2, #4]
ARM GAS  /tmp/ccQoHLp2.s 			page 9


 173              	.LVL11:
 174 004a C2F30142 		ubfx	r2, r2, #16, #2
 175              	.LVL12:
 176 004e 0132     		adds	r2, r2, #1
 177 0050 5200     		lsls	r2, r2, #1
 254:Src/system_stm32f7xx.c ****       break;
 178              		.loc 1 254 0
 179 0052 B3FBF2F3 		udiv	r3, r3, r2
 180              	.LVL13:
 255:Src/system_stm32f7xx.c ****     default:
 181              		.loc 1 255 0
 182 0056 DCE7     		b	.L8
 183              	.LVL14:
 184              	.L12:
 226:Src/system_stm32f7xx.c ****   {
 185              		.loc 1 226 0
 186 0058 044B     		ldr	r3, .L13+16
 187              	.LVL15:
 188 005a DAE7     		b	.L8
 189              	.L14:
 190              		.align	2
 191              	.L13:
 192 005c 00380240 		.word	1073887232
 193 0060 0024F400 		.word	16000000
 194 0064 00000000 		.word	.LANCHOR1
 195 0068 00000000 		.word	.LANCHOR0
 196 006c 00127A00 		.word	8000000
 197              		.cfi_endproc
 198              	.LFE139:
 200              		.global	APBPrescTable
 201              		.global	AHBPrescTable
 202              		.global	SystemCoreClock
 203              		.comm	UpdateFile,4,4
 204              		.comm	SpiRxData,4,4
 205              		.comm	SpiTxData,4,4
 206              		.section	.data.SystemCoreClock,"aw",%progbits
 207              		.align	2
 208              		.set	.LANCHOR0,. + 0
 211              	SystemCoreClock:
 212 0000 0024F400 		.word	16000000
 213              		.section	.rodata.AHBPrescTable,"a",%progbits
 214              		.align	2
 215              		.set	.LANCHOR1,. + 0
 218              	AHBPrescTable:
 219 0000 00       		.byte	0
 220 0001 00       		.byte	0
 221 0002 00       		.byte	0
 222 0003 00       		.byte	0
 223 0004 00       		.byte	0
 224 0005 00       		.byte	0
 225 0006 00       		.byte	0
 226 0007 00       		.byte	0
 227 0008 01       		.byte	1
 228 0009 02       		.byte	2
 229 000a 03       		.byte	3
 230 000b 04       		.byte	4
 231 000c 06       		.byte	6
ARM GAS  /tmp/ccQoHLp2.s 			page 10


 232 000d 07       		.byte	7
 233 000e 08       		.byte	8
 234 000f 09       		.byte	9
 235              		.section	.rodata.APBPrescTable,"a",%progbits
 236              		.align	2
 239              	APBPrescTable:
 240 0000 00       		.byte	0
 241 0001 00       		.byte	0
 242 0002 00       		.byte	0
 243 0003 00       		.byte	0
 244 0004 01       		.byte	1
 245 0005 02       		.byte	2
 246 0006 03       		.byte	3
 247 0007 04       		.byte	4
 248              		.text
 249              	.Letext0:
 250              		.file 2 "/usr/include/newlib/machine/_default_types.h"
 251              		.file 3 "/usr/include/newlib/sys/_stdint.h"
 252              		.file 4 "Drivers/CMSIS/Include/core_cm7.h"
 253              		.file 5 "Drivers/CMSIS/Device/ST/STM32F7xx/Include/system_stm32f7xx.h"
 254              		.file 6 "Drivers/CMSIS/Device/ST/STM32F7xx/Include/stm32f746xx.h"
 255              		.file 7 "/usr/include/newlib/sys/lock.h"
 256              		.file 8 "/usr/include/newlib/sys/_types.h"
 257              		.file 9 "/usr/lib/gcc/arm-none-eabi/7.3.1/include/stddef.h"
 258              		.file 10 "/usr/include/newlib/sys/reent.h"
 259              		.file 11 "Inc/main.h"
ARM GAS  /tmp/ccQoHLp2.s 			page 11


DEFINED SYMBOLS
                            *ABS*:0000000000000000 system_stm32f7xx.c
     /tmp/ccQoHLp2.s:18     .text.SystemInit:0000000000000000 $t
     /tmp/ccQoHLp2.s:26     .text.SystemInit:0000000000000000 SystemInit
     /tmp/ccQoHLp2.s:91     .text.SystemInit:0000000000000040 $d
     /tmp/ccQoHLp2.s:99     .text.SystemCoreClockUpdate:0000000000000000 $t
     /tmp/ccQoHLp2.s:107    .text.SystemCoreClockUpdate:0000000000000000 SystemCoreClockUpdate
     /tmp/ccQoHLp2.s:192    .text.SystemCoreClockUpdate:000000000000005c $d
     /tmp/ccQoHLp2.s:239    .rodata.APBPrescTable:0000000000000000 APBPrescTable
     /tmp/ccQoHLp2.s:218    .rodata.AHBPrescTable:0000000000000000 AHBPrescTable
     /tmp/ccQoHLp2.s:211    .data.SystemCoreClock:0000000000000000 SystemCoreClock
                            *COM*:0000000000000004 UpdateFile
                            *COM*:0000000000000004 SpiRxData
                            *COM*:0000000000000004 SpiTxData
     /tmp/ccQoHLp2.s:207    .data.SystemCoreClock:0000000000000000 $d
     /tmp/ccQoHLp2.s:214    .rodata.AHBPrescTable:0000000000000000 $d
     /tmp/ccQoHLp2.s:236    .rodata.APBPrescTable:0000000000000000 $d

NO UNDEFINED SYMBOLS
