ARM GAS  /tmp/cc4PyliQ.s 			page 1


   1              		.cpu cortex-m7
   2              		.eabi_attribute 27, 1
   3              		.eabi_attribute 28, 1
   4              		.eabi_attribute 20, 1
   5              		.eabi_attribute 21, 1
   6              		.eabi_attribute 23, 3
   7              		.eabi_attribute 24, 1
   8              		.eabi_attribute 25, 1
   9              		.eabi_attribute 26, 1
  10              		.eabi_attribute 30, 2
  11              		.eabi_attribute 34, 1
  12              		.eabi_attribute 18, 4
  13              		.file	"usart.c"
  14              		.text
  15              	.Ltext0:
  16              		.cfi_sections	.debug_frame
  17              		.section	.text.MX_UART4_Init,"ax",%progbits
  18              		.align	1
  19              		.p2align 2,,3
  20              		.global	MX_UART4_Init
  21              		.syntax unified
  22              		.thumb
  23              		.thumb_func
  24              		.fpu fpv4-sp-d16
  26              	MX_UART4_Init:
  27              	.LFB138:
  28              		.file 1 "Src/usart.c"
   1:Src/usart.c   **** /**
   2:Src/usart.c   ****   ******************************************************************************
   3:Src/usart.c   ****   * File Name          : USART.c
   4:Src/usart.c   ****   * Description        : This file provides code for the configuration
   5:Src/usart.c   ****   *                      of the USART instances.
   6:Src/usart.c   ****   ******************************************************************************
   7:Src/usart.c   ****   ** This notice applies to any and all portions of this file
   8:Src/usart.c   ****   * that are not between comment pairs USER CODE BEGIN and
   9:Src/usart.c   ****   * USER CODE END. Other portions of this file, whether 
  10:Src/usart.c   ****   * inserted by the user or by software development tools
  11:Src/usart.c   ****   * are owned by their respective copyright owners.
  12:Src/usart.c   ****   *
  13:Src/usart.c   ****   * COPYRIGHT(c) 2018 STMicroelectronics
  14:Src/usart.c   ****   *
  15:Src/usart.c   ****   * Redistribution and use in source and binary forms, with or without modification,
  16:Src/usart.c   ****   * are permitted provided that the following conditions are met:
  17:Src/usart.c   ****   *   1. Redistributions of source code must retain the above copyright notice,
  18:Src/usart.c   ****   *      this list of conditions and the following disclaimer.
  19:Src/usart.c   ****   *   2. Redistributions in binary form must reproduce the above copyright notice,
  20:Src/usart.c   ****   *      this list of conditions and the following disclaimer in the documentation
  21:Src/usart.c   ****   *      and/or other materials provided with the distribution.
  22:Src/usart.c   ****   *   3. Neither the name of STMicroelectronics nor the names of its contributors
  23:Src/usart.c   ****   *      may be used to endorse or promote products derived from this software
  24:Src/usart.c   ****   *      without specific prior written permission.
  25:Src/usart.c   ****   *
  26:Src/usart.c   ****   * THIS SOFTWARE IS PROVIDED BY THE COPYRIGHT HOLDERS AND CONTRIBUTORS "AS IS"
  27:Src/usart.c   ****   * AND ANY EXPRESS OR IMPLIED WARRANTIES, INCLUDING, BUT NOT LIMITED TO, THE
  28:Src/usart.c   ****   * IMPLIED WARRANTIES OF MERCHANTABILITY AND FITNESS FOR A PARTICULAR PURPOSE ARE
  29:Src/usart.c   ****   * DISCLAIMED. IN NO EVENT SHALL THE COPYRIGHT HOLDER OR CONTRIBUTORS BE LIABLE
  30:Src/usart.c   ****   * FOR ANY DIRECT, INDIRECT, INCIDENTAL, SPECIAL, EXEMPLARY, OR CONSEQUENTIAL
ARM GAS  /tmp/cc4PyliQ.s 			page 2


  31:Src/usart.c   ****   * DAMAGES (INCLUDING, BUT NOT LIMITED TO, PROCUREMENT OF SUBSTITUTE GOODS OR
  32:Src/usart.c   ****   * SERVICES; LOSS OF USE, DATA, OR PROFITS; OR BUSINESS INTERRUPTION) HOWEVER
  33:Src/usart.c   ****   * CAUSED AND ON ANY THEORY OF LIABILITY, WHETHER IN CONTRACT, STRICT LIABILITY,
  34:Src/usart.c   ****   * OR TORT (INCLUDING NEGLIGENCE OR OTHERWISE) ARISING IN ANY WAY OUT OF THE USE
  35:Src/usart.c   ****   * OF THIS SOFTWARE, EVEN IF ADVISED OF THE POSSIBILITY OF SUCH DAMAGE.
  36:Src/usart.c   ****   *
  37:Src/usart.c   ****   ******************************************************************************
  38:Src/usart.c   ****   */
  39:Src/usart.c   **** 
  40:Src/usart.c   **** /* Includes ------------------------------------------------------------------*/
  41:Src/usart.c   **** #include "usart.h"
  42:Src/usart.c   **** 
  43:Src/usart.c   **** #include "gpio.h"
  44:Src/usart.c   **** 
  45:Src/usart.c   **** /* USER CODE BEGIN 0 */
  46:Src/usart.c   **** 
  47:Src/usart.c   **** /* USER CODE END 0 */
  48:Src/usart.c   **** 
  49:Src/usart.c   **** UART_HandleTypeDef huart4;
  50:Src/usart.c   **** UART_HandleTypeDef huart7;
  51:Src/usart.c   **** UART_HandleTypeDef huart8;
  52:Src/usart.c   **** UART_HandleTypeDef huart1;
  53:Src/usart.c   **** 
  54:Src/usart.c   **** /* UART4 init function */
  55:Src/usart.c   **** void MX_UART4_Init(void)
  56:Src/usart.c   **** {
  29              		.loc 1 56 0
  30              		.cfi_startproc
  31              		@ args = 0, pretend = 0, frame = 0
  32              		@ frame_needed = 0, uses_anonymous_args = 0
  33 0000 38B5     		push	{r3, r4, r5, lr}
  34              	.LCFI0:
  35              		.cfi_def_cfa_offset 16
  36              		.cfi_offset 3, -16
  37              		.cfi_offset 4, -12
  38              		.cfi_offset 5, -8
  39              		.cfi_offset 14, -4
  57:Src/usart.c   **** 
  58:Src/usart.c   ****     huart4.Instance = UART4;
  40              		.loc 1 58 0
  41 0002 0E48     		ldr	r0, .L6
  59:Src/usart.c   ****     huart4.Init.BaudRate = 9600;
  60:Src/usart.c   ****     huart4.Init.WordLength = UART_WORDLENGTH_8B;
  42              		.loc 1 60 0
  43 0004 0022     		movs	r2, #0
  58:Src/usart.c   ****     huart4.Init.BaudRate = 9600;
  44              		.loc 1 58 0
  45 0006 0E4B     		ldr	r3, .L6+4
  59:Src/usart.c   ****     huart4.Init.BaudRate = 9600;
  46              		.loc 1 59 0
  47 0008 4FF41655 		mov	r5, #9600
  61:Src/usart.c   ****     huart4.Init.StopBits = UART_STOPBITS_2;
  48              		.loc 1 61 0
  49 000c 4FF40054 		mov	r4, #8192
  62:Src/usart.c   ****     huart4.Init.Parity = UART_PARITY_NONE;
  63:Src/usart.c   ****     huart4.Init.Mode = UART_MODE_TX_RX;
  50              		.loc 1 63 0
ARM GAS  /tmp/cc4PyliQ.s 			page 3


  51 0010 0C21     		movs	r1, #12
  58:Src/usart.c   ****     huart4.Init.BaudRate = 9600;
  52              		.loc 1 58 0
  53 0012 1860     		str	r0, [r3]
  64:Src/usart.c   ****     huart4.Init.HwFlowCtl = UART_HWCONTROL_NONE;
  65:Src/usart.c   ****     huart4.Init.OverSampling = UART_OVERSAMPLING_16;
  66:Src/usart.c   ****     huart4.Init.OneBitSampling = UART_ONE_BIT_SAMPLE_DISABLE;
  67:Src/usart.c   ****     huart4.AdvancedInit.AdvFeatureInit = UART_ADVFEATURE_NO_INIT;
  68:Src/usart.c   ****     if (HAL_UART_Init(&huart4) != HAL_OK)
  54              		.loc 1 68 0
  55 0014 1846     		mov	r0, r3
  59:Src/usart.c   ****     huart4.Init.WordLength = UART_WORDLENGTH_8B;
  56              		.loc 1 59 0
  57 0016 5D60     		str	r5, [r3, #4]
  61:Src/usart.c   ****     huart4.Init.Parity = UART_PARITY_NONE;
  58              		.loc 1 61 0
  59 0018 DC60     		str	r4, [r3, #12]
  63:Src/usart.c   ****     huart4.Init.HwFlowCtl = UART_HWCONTROL_NONE;
  60              		.loc 1 63 0
  61 001a 5961     		str	r1, [r3, #20]
  60:Src/usart.c   ****     huart4.Init.StopBits = UART_STOPBITS_2;
  62              		.loc 1 60 0
  63 001c 9A60     		str	r2, [r3, #8]
  62:Src/usart.c   ****     huart4.Init.Mode = UART_MODE_TX_RX;
  64              		.loc 1 62 0
  65 001e 1A61     		str	r2, [r3, #16]
  65:Src/usart.c   ****     huart4.Init.OneBitSampling = UART_ONE_BIT_SAMPLE_DISABLE;
  66              		.loc 1 65 0
  67 0020 C3E90622 		strd	r2, r2, [r3, #24]
  67:Src/usart.c   ****     if (HAL_UART_Init(&huart4) != HAL_OK)
  68              		.loc 1 67 0
  69 0024 C3E90822 		strd	r2, r2, [r3, #32]
  70              		.loc 1 68 0
  71 0028 FFF7FEFF 		bl	HAL_UART_Init
  72              	.LVL0:
  73 002c 00B9     		cbnz	r0, .L5
  69:Src/usart.c   ****     {
  70:Src/usart.c   ****       _Error_Handler(__FILE__, __LINE__);
  71:Src/usart.c   ****     }
  72:Src/usart.c   **** 
  73:Src/usart.c   **** }
  74              		.loc 1 73 0
  75 002e 38BD     		pop	{r3, r4, r5, pc}
  76              	.L5:
  70:Src/usart.c   ****     }
  77              		.loc 1 70 0
  78 0030 4621     		movs	r1, #70
  79 0032 0448     		ldr	r0, .L6+8
  80              		.loc 1 73 0
  81 0034 BDE83840 		pop	{r3, r4, r5, lr}
  82              	.LCFI1:
  83              		.cfi_restore 14
  84              		.cfi_restore 5
  85              		.cfi_restore 4
  86              		.cfi_restore 3
  87              		.cfi_def_cfa_offset 0
  70:Src/usart.c   ****     }
ARM GAS  /tmp/cc4PyliQ.s 			page 4


  88              		.loc 1 70 0
  89 0038 FFF7FEBF 		b	_Error_Handler
  90              	.LVL1:
  91              	.L7:
  92              		.align	2
  93              	.L6:
  94 003c 004C0040 		.word	1073761280
  95 0040 00000000 		.word	huart4
  96 0044 00000000 		.word	.LC0
  97              		.cfi_endproc
  98              	.LFE138:
 100              		.section	.text.MX_UART7_Init,"ax",%progbits
 101              		.align	1
 102              		.p2align 2,,3
 103              		.global	MX_UART7_Init
 104              		.syntax unified
 105              		.thumb
 106              		.thumb_func
 107              		.fpu fpv4-sp-d16
 109              	MX_UART7_Init:
 110              	.LFB139:
  74:Src/usart.c   **** /* UART7 init function */
  75:Src/usart.c   **** void MX_UART7_Init(void)
  76:Src/usart.c   **** {
 111              		.loc 1 76 0
 112              		.cfi_startproc
 113              		@ args = 0, pretend = 0, frame = 0
 114              		@ frame_needed = 0, uses_anonymous_args = 0
 115 0000 38B5     		push	{r3, r4, r5, lr}
 116              	.LCFI2:
 117              		.cfi_def_cfa_offset 16
 118              		.cfi_offset 3, -16
 119              		.cfi_offset 4, -12
 120              		.cfi_offset 5, -8
 121              		.cfi_offset 14, -4
  77:Src/usart.c   **** 
  78:Src/usart.c   ****   huart7.Instance = UART7;
 122              		.loc 1 78 0
 123 0002 0E48     		ldr	r0, .L12
  79:Src/usart.c   ****   huart7.Init.BaudRate = 115200;
  80:Src/usart.c   ****   huart7.Init.WordLength = UART_WORDLENGTH_7B;
  81:Src/usart.c   ****   huart7.Init.StopBits = UART_STOPBITS_1;
 124              		.loc 1 81 0
 125 0004 0022     		movs	r2, #0
  78:Src/usart.c   ****   huart7.Init.BaudRate = 115200;
 126              		.loc 1 78 0
 127 0006 0E4B     		ldr	r3, .L12+4
  79:Src/usart.c   ****   huart7.Init.BaudRate = 115200;
 128              		.loc 1 79 0
 129 0008 4FF4E135 		mov	r5, #115200
  80:Src/usart.c   ****   huart7.Init.StopBits = UART_STOPBITS_1;
 130              		.loc 1 80 0
 131 000c 4FF08054 		mov	r4, #268435456
  82:Src/usart.c   ****   huart7.Init.Parity = UART_PARITY_NONE;
  83:Src/usart.c   ****   huart7.Init.Mode = UART_MODE_TX_RX;
 132              		.loc 1 83 0
 133 0010 0C21     		movs	r1, #12
ARM GAS  /tmp/cc4PyliQ.s 			page 5


  78:Src/usart.c   ****   huart7.Init.BaudRate = 115200;
 134              		.loc 1 78 0
 135 0012 1860     		str	r0, [r3]
  84:Src/usart.c   ****   huart7.Init.HwFlowCtl = UART_HWCONTROL_NONE;
  85:Src/usart.c   ****   huart7.Init.OverSampling = UART_OVERSAMPLING_16;
  86:Src/usart.c   ****   huart7.Init.OneBitSampling = UART_ONE_BIT_SAMPLE_DISABLE;
  87:Src/usart.c   ****   huart7.AdvancedInit.AdvFeatureInit = UART_ADVFEATURE_NO_INIT;
  88:Src/usart.c   ****   if (HAL_UART_Init(&huart7) != HAL_OK)
 136              		.loc 1 88 0
 137 0014 1846     		mov	r0, r3
  83:Src/usart.c   ****   huart7.Init.HwFlowCtl = UART_HWCONTROL_NONE;
 138              		.loc 1 83 0
 139 0016 5961     		str	r1, [r3, #20]
  80:Src/usart.c   ****   huart7.Init.StopBits = UART_STOPBITS_1;
 140              		.loc 1 80 0
 141 0018 C3E90154 		strd	r5, r4, [r3, #4]
  82:Src/usart.c   ****   huart7.Init.Mode = UART_MODE_TX_RX;
 142              		.loc 1 82 0
 143 001c C3E90322 		strd	r2, r2, [r3, #12]
  85:Src/usart.c   ****   huart7.Init.OneBitSampling = UART_ONE_BIT_SAMPLE_DISABLE;
 144              		.loc 1 85 0
 145 0020 C3E90622 		strd	r2, r2, [r3, #24]
  87:Src/usart.c   ****   if (HAL_UART_Init(&huart7) != HAL_OK)
 146              		.loc 1 87 0
 147 0024 C3E90822 		strd	r2, r2, [r3, #32]
 148              		.loc 1 88 0
 149 0028 FFF7FEFF 		bl	HAL_UART_Init
 150              	.LVL2:
 151 002c 00B9     		cbnz	r0, .L11
  89:Src/usart.c   ****   {
  90:Src/usart.c   ****     _Error_Handler(__FILE__, __LINE__);
  91:Src/usart.c   ****   }
  92:Src/usart.c   **** 
  93:Src/usart.c   **** }
 152              		.loc 1 93 0
 153 002e 38BD     		pop	{r3, r4, r5, pc}
 154              	.L11:
  90:Src/usart.c   ****   }
 155              		.loc 1 90 0
 156 0030 5A21     		movs	r1, #90
 157 0032 0448     		ldr	r0, .L12+8
 158              		.loc 1 93 0
 159 0034 BDE83840 		pop	{r3, r4, r5, lr}
 160              	.LCFI3:
 161              		.cfi_restore 14
 162              		.cfi_restore 5
 163              		.cfi_restore 4
 164              		.cfi_restore 3
 165              		.cfi_def_cfa_offset 0
  90:Src/usart.c   ****   }
 166              		.loc 1 90 0
 167 0038 FFF7FEBF 		b	_Error_Handler
 168              	.LVL3:
 169              	.L13:
 170              		.align	2
 171              	.L12:
 172 003c 00780040 		.word	1073772544
ARM GAS  /tmp/cc4PyliQ.s 			page 6


 173 0040 00000000 		.word	huart7
 174 0044 00000000 		.word	.LC0
 175              		.cfi_endproc
 176              	.LFE139:
 178              		.section	.text.MX_UART8_Init,"ax",%progbits
 179              		.align	1
 180              		.p2align 2,,3
 181              		.global	MX_UART8_Init
 182              		.syntax unified
 183              		.thumb
 184              		.thumb_func
 185              		.fpu fpv4-sp-d16
 187              	MX_UART8_Init:
 188              	.LFB140:
  94:Src/usart.c   **** /* UART8 init function */
  95:Src/usart.c   **** void MX_UART8_Init(void)
  96:Src/usart.c   **** {
 189              		.loc 1 96 0
 190              		.cfi_startproc
 191              		@ args = 0, pretend = 0, frame = 0
 192              		@ frame_needed = 0, uses_anonymous_args = 0
 193 0000 38B5     		push	{r3, r4, r5, lr}
 194              	.LCFI4:
 195              		.cfi_def_cfa_offset 16
 196              		.cfi_offset 3, -16
 197              		.cfi_offset 4, -12
 198              		.cfi_offset 5, -8
 199              		.cfi_offset 14, -4
  97:Src/usart.c   **** 
  98:Src/usart.c   ****   huart8.Instance = UART8;
 200              		.loc 1 98 0
 201 0002 0E48     		ldr	r0, .L18
  99:Src/usart.c   ****   huart8.Init.BaudRate = 115200;
 100:Src/usart.c   ****   huart8.Init.WordLength = UART_WORDLENGTH_7B;
 101:Src/usart.c   ****   huart8.Init.StopBits = UART_STOPBITS_1;
 202              		.loc 1 101 0
 203 0004 0022     		movs	r2, #0
  98:Src/usart.c   ****   huart8.Init.BaudRate = 115200;
 204              		.loc 1 98 0
 205 0006 0E4B     		ldr	r3, .L18+4
  99:Src/usart.c   ****   huart8.Init.BaudRate = 115200;
 206              		.loc 1 99 0
 207 0008 4FF4E135 		mov	r5, #115200
 100:Src/usart.c   ****   huart8.Init.StopBits = UART_STOPBITS_1;
 208              		.loc 1 100 0
 209 000c 4FF08054 		mov	r4, #268435456
 102:Src/usart.c   ****   huart8.Init.Parity = UART_PARITY_NONE;
 103:Src/usart.c   ****   huart8.Init.Mode = UART_MODE_TX_RX;
 210              		.loc 1 103 0
 211 0010 0C21     		movs	r1, #12
  98:Src/usart.c   ****   huart8.Init.BaudRate = 115200;
 212              		.loc 1 98 0
 213 0012 1860     		str	r0, [r3]
 104:Src/usart.c   ****   huart8.Init.HwFlowCtl = UART_HWCONTROL_NONE;
 105:Src/usart.c   ****   huart8.Init.OverSampling = UART_OVERSAMPLING_16;
 106:Src/usart.c   ****   huart8.Init.OneBitSampling = UART_ONE_BIT_SAMPLE_DISABLE;
 107:Src/usart.c   ****   huart8.AdvancedInit.AdvFeatureInit = UART_ADVFEATURE_NO_INIT;
ARM GAS  /tmp/cc4PyliQ.s 			page 7


 108:Src/usart.c   ****   if (HAL_UART_Init(&huart8) != HAL_OK)
 214              		.loc 1 108 0
 215 0014 1846     		mov	r0, r3
 103:Src/usart.c   ****   huart8.Init.HwFlowCtl = UART_HWCONTROL_NONE;
 216              		.loc 1 103 0
 217 0016 5961     		str	r1, [r3, #20]
 100:Src/usart.c   ****   huart8.Init.StopBits = UART_STOPBITS_1;
 218              		.loc 1 100 0
 219 0018 C3E90154 		strd	r5, r4, [r3, #4]
 102:Src/usart.c   ****   huart8.Init.Mode = UART_MODE_TX_RX;
 220              		.loc 1 102 0
 221 001c C3E90322 		strd	r2, r2, [r3, #12]
 105:Src/usart.c   ****   huart8.Init.OneBitSampling = UART_ONE_BIT_SAMPLE_DISABLE;
 222              		.loc 1 105 0
 223 0020 C3E90622 		strd	r2, r2, [r3, #24]
 107:Src/usart.c   ****   if (HAL_UART_Init(&huart8) != HAL_OK)
 224              		.loc 1 107 0
 225 0024 C3E90822 		strd	r2, r2, [r3, #32]
 226              		.loc 1 108 0
 227 0028 FFF7FEFF 		bl	HAL_UART_Init
 228              	.LVL4:
 229 002c 00B9     		cbnz	r0, .L17
 109:Src/usart.c   ****   {
 110:Src/usart.c   ****     _Error_Handler(__FILE__, __LINE__);
 111:Src/usart.c   ****   }
 112:Src/usart.c   **** 
 113:Src/usart.c   **** }
 230              		.loc 1 113 0
 231 002e 38BD     		pop	{r3, r4, r5, pc}
 232              	.L17:
 110:Src/usart.c   ****   }
 233              		.loc 1 110 0
 234 0030 6E21     		movs	r1, #110
 235 0032 0448     		ldr	r0, .L18+8
 236              		.loc 1 113 0
 237 0034 BDE83840 		pop	{r3, r4, r5, lr}
 238              	.LCFI5:
 239              		.cfi_restore 14
 240              		.cfi_restore 5
 241              		.cfi_restore 4
 242              		.cfi_restore 3
 243              		.cfi_def_cfa_offset 0
 110:Src/usart.c   ****   }
 244              		.loc 1 110 0
 245 0038 FFF7FEBF 		b	_Error_Handler
 246              	.LVL5:
 247              	.L19:
 248              		.align	2
 249              	.L18:
 250 003c 007C0040 		.word	1073773568
 251 0040 00000000 		.word	huart8
 252 0044 00000000 		.word	.LC0
 253              		.cfi_endproc
 254              	.LFE140:
 256              		.section	.text.MX_USART1_UART_Init,"ax",%progbits
 257              		.align	1
 258              		.p2align 2,,3
ARM GAS  /tmp/cc4PyliQ.s 			page 8


 259              		.global	MX_USART1_UART_Init
 260              		.syntax unified
 261              		.thumb
 262              		.thumb_func
 263              		.fpu fpv4-sp-d16
 265              	MX_USART1_UART_Init:
 266              	.LFB141:
 114:Src/usart.c   **** /* USART1 init function */
 115:Src/usart.c   **** 
 116:Src/usart.c   **** void MX_USART1_UART_Init(void)
 117:Src/usart.c   **** {
 267              		.loc 1 117 0
 268              		.cfi_startproc
 269              		@ args = 0, pretend = 0, frame = 0
 270              		@ frame_needed = 0, uses_anonymous_args = 0
 271 0000 38B5     		push	{r3, r4, r5, lr}
 272              	.LCFI6:
 273              		.cfi_def_cfa_offset 16
 274              		.cfi_offset 3, -16
 275              		.cfi_offset 4, -12
 276              		.cfi_offset 5, -8
 277              		.cfi_offset 14, -4
 118:Src/usart.c   **** 
 119:Src/usart.c   ****     huart1.Instance = USART1;
 278              		.loc 1 119 0
 279 0002 0D4B     		ldr	r3, .L24
 120:Src/usart.c   ****     huart1.Init.BaudRate = 115200;
 121:Src/usart.c   ****     huart1.Init.WordLength = UART_WORDLENGTH_8B;
 280              		.loc 1 121 0
 281 0004 0022     		movs	r2, #0
 120:Src/usart.c   ****     huart1.Init.BaudRate = 115200;
 282              		.loc 1 120 0
 283 0006 4FF4E134 		mov	r4, #115200
 119:Src/usart.c   ****     huart1.Init.BaudRate = 115200;
 284              		.loc 1 119 0
 285 000a 0C4D     		ldr	r5, .L24+4
 122:Src/usart.c   ****     huart1.Init.StopBits = UART_STOPBITS_1;
 123:Src/usart.c   ****     huart1.Init.Parity = UART_PARITY_NONE;
 124:Src/usart.c   ****     huart1.Init.Mode = UART_MODE_TX_RX;
 286              		.loc 1 124 0
 287 000c 0C21     		movs	r1, #12
 125:Src/usart.c   ****     huart1.Init.HwFlowCtl = UART_HWCONTROL_NONE;
 126:Src/usart.c   ****     huart1.Init.OverSampling = UART_OVERSAMPLING_16;
 127:Src/usart.c   ****     huart1.Init.OneBitSampling = UART_ONE_BIT_SAMPLE_DISABLE;
 128:Src/usart.c   ****     huart1.AdvancedInit.AdvFeatureInit = UART_ADVFEATURE_NO_INIT;
 129:Src/usart.c   ****     if (HAL_UART_Init(&huart1) != HAL_OK)
 288              		.loc 1 129 0
 289 000e 1846     		mov	r0, r3
 123:Src/usart.c   ****     huart1.Init.Mode = UART_MODE_TX_RX;
 290              		.loc 1 123 0
 291 0010 1A61     		str	r2, [r3, #16]
 124:Src/usart.c   ****     huart1.Init.HwFlowCtl = UART_HWCONTROL_NONE;
 292              		.loc 1 124 0
 293 0012 5961     		str	r1, [r3, #20]
 120:Src/usart.c   ****     huart1.Init.WordLength = UART_WORDLENGTH_8B;
 294              		.loc 1 120 0
 295 0014 C3E90054 		strd	r5, r4, [r3]
ARM GAS  /tmp/cc4PyliQ.s 			page 9


 122:Src/usart.c   ****     huart1.Init.Parity = UART_PARITY_NONE;
 296              		.loc 1 122 0
 297 0018 C3E90222 		strd	r2, r2, [r3, #8]
 126:Src/usart.c   ****     huart1.Init.OneBitSampling = UART_ONE_BIT_SAMPLE_DISABLE;
 298              		.loc 1 126 0
 299 001c C3E90622 		strd	r2, r2, [r3, #24]
 128:Src/usart.c   ****     if (HAL_UART_Init(&huart1) != HAL_OK)
 300              		.loc 1 128 0
 301 0020 C3E90822 		strd	r2, r2, [r3, #32]
 302              		.loc 1 129 0
 303 0024 FFF7FEFF 		bl	HAL_UART_Init
 304              	.LVL6:
 305 0028 00B9     		cbnz	r0, .L23
 130:Src/usart.c   ****     {
 131:Src/usart.c   ****       _Error_Handler(__FILE__, __LINE__);
 132:Src/usart.c   ****     }
 133:Src/usart.c   **** 
 134:Src/usart.c   **** }
 306              		.loc 1 134 0
 307 002a 38BD     		pop	{r3, r4, r5, pc}
 308              	.L23:
 131:Src/usart.c   ****     }
 309              		.loc 1 131 0
 310 002c 8321     		movs	r1, #131
 311 002e 0448     		ldr	r0, .L24+8
 312              		.loc 1 134 0
 313 0030 BDE83840 		pop	{r3, r4, r5, lr}
 314              	.LCFI7:
 315              		.cfi_restore 14
 316              		.cfi_restore 5
 317              		.cfi_restore 4
 318              		.cfi_restore 3
 319              		.cfi_def_cfa_offset 0
 131:Src/usart.c   ****     }
 320              		.loc 1 131 0
 321 0034 FFF7FEBF 		b	_Error_Handler
 322              	.LVL7:
 323              	.L25:
 324              		.align	2
 325              	.L24:
 326 0038 00000000 		.word	huart1
 327 003c 00100140 		.word	1073811456
 328 0040 00000000 		.word	.LC0
 329              		.cfi_endproc
 330              	.LFE141:
 332              		.section	.text.HAL_UART_MspInit,"ax",%progbits
 333              		.align	1
 334              		.p2align 2,,3
 335              		.global	HAL_UART_MspInit
 336              		.syntax unified
 337              		.thumb
 338              		.thumb_func
 339              		.fpu fpv4-sp-d16
 341              	HAL_UART_MspInit:
 342              	.LFB142:
 135:Src/usart.c   **** 
 136:Src/usart.c   **** void HAL_UART_MspInit(UART_HandleTypeDef* uartHandle)
ARM GAS  /tmp/cc4PyliQ.s 			page 10


 137:Src/usart.c   **** {
 343              		.loc 1 137 0
 344              		.cfi_startproc
 345              		@ args = 0, pretend = 0, frame = 40
 346              		@ frame_needed = 0, uses_anonymous_args = 0
 347              	.LVL8:
 138:Src/usart.c   **** 
 139:Src/usart.c   ****   GPIO_InitTypeDef GPIO_InitStruct;
 140:Src/usart.c   ****   if(uartHandle->Instance==UART4)
 348              		.loc 1 140 0
 349 0000 0368     		ldr	r3, [r0]
 350 0002 414A     		ldr	r2, .L36
 351 0004 9342     		cmp	r3, r2
 137:Src/usart.c   **** 
 352              		.loc 1 137 0
 353 0006 70B5     		push	{r4, r5, r6, lr}
 354              	.LCFI8:
 355              		.cfi_def_cfa_offset 16
 356              		.cfi_offset 4, -16
 357              		.cfi_offset 5, -12
 358              		.cfi_offset 6, -8
 359              		.cfi_offset 14, -4
 360 0008 8AB0     		sub	sp, sp, #40
 361              	.LCFI9:
 362              		.cfi_def_cfa_offset 56
 363              		.loc 1 140 0
 364 000a 25D0     		beq	.L32
 141:Src/usart.c   ****   {
 142:Src/usart.c   ****   /* USER CODE BEGIN UART4_MspInit 0 */
 143:Src/usart.c   **** 
 144:Src/usart.c   ****   /* USER CODE END UART4_MspInit 0 */
 145:Src/usart.c   ****     /* UART4 clock enable */
 146:Src/usart.c   ****     __HAL_RCC_UART4_CLK_ENABLE();
 147:Src/usart.c   ****   
 148:Src/usart.c   ****     /**UART4 GPIO Configuration    
 149:Src/usart.c   ****     PC10     ------> UART4_TX
 150:Src/usart.c   ****     PC11     ------> UART4_RX 
 151:Src/usart.c   ****     */
 152:Src/usart.c   ****     GPIO_InitStruct.Pin = GPIO_PIN_10|GPIO_PIN_11;
 153:Src/usart.c   ****     GPIO_InitStruct.Mode = GPIO_MODE_AF_PP;
 154:Src/usart.c   ****     GPIO_InitStruct.Pull = GPIO_NOPULL;
 155:Src/usart.c   ****     GPIO_InitStruct.Speed = GPIO_SPEED_FREQ_VERY_HIGH;
 156:Src/usart.c   ****     GPIO_InitStruct.Alternate = GPIO_AF8_UART4;
 157:Src/usart.c   ****     HAL_GPIO_Init(GPIOC, &GPIO_InitStruct);
 158:Src/usart.c   **** 
 159:Src/usart.c   ****     /* UART4 interrupt Init */
 160:Src/usart.c   ****     HAL_NVIC_SetPriority(UART4_IRQn, 0, 0);
 161:Src/usart.c   ****     HAL_NVIC_EnableIRQ(UART4_IRQn);
 162:Src/usart.c   ****   /* USER CODE BEGIN UART4_MspInit 1 */
 163:Src/usart.c   **** 
 164:Src/usart.c   ****   /* USER CODE END UART4_MspInit 1 */
 165:Src/usart.c   ****   }
 166:Src/usart.c   ****   else if(uartHandle->Instance==UART7)
 365              		.loc 1 166 0
 366 000c 3F4A     		ldr	r2, .L36+4
 367 000e 9342     		cmp	r3, r2
 368 0010 45D0     		beq	.L33
ARM GAS  /tmp/cc4PyliQ.s 			page 11


 167:Src/usart.c   ****   {
 168:Src/usart.c   ****   /* USER CODE BEGIN UART7_MspInit 0 */
 169:Src/usart.c   **** 
 170:Src/usart.c   ****   /* USER CODE END UART7_MspInit 0 */
 171:Src/usart.c   ****     /* UART7 clock enable */
 172:Src/usart.c   ****     __HAL_RCC_UART7_CLK_ENABLE();
 173:Src/usart.c   ****   
 174:Src/usart.c   ****     /**UART7 GPIO Configuration    
 175:Src/usart.c   ****     PE7     ------> UART7_RX
 176:Src/usart.c   ****     PE8     ------> UART7_TX 
 177:Src/usart.c   ****     */
 178:Src/usart.c   ****     GPIO_InitStruct.Pin = GPIO_PIN_7|GPIO_PIN_8;
 179:Src/usart.c   ****     GPIO_InitStruct.Mode = GPIO_MODE_AF_PP;
 180:Src/usart.c   ****     GPIO_InitStruct.Pull = GPIO_NOPULL;
 181:Src/usart.c   ****     GPIO_InitStruct.Speed = GPIO_SPEED_FREQ_VERY_HIGH;
 182:Src/usart.c   ****     GPIO_InitStruct.Alternate = GPIO_AF8_UART7;
 183:Src/usart.c   ****     HAL_GPIO_Init(GPIOE, &GPIO_InitStruct);
 184:Src/usart.c   **** 
 185:Src/usart.c   ****   /* USER CODE BEGIN UART7_MspInit 1 */
 186:Src/usart.c   **** 
 187:Src/usart.c   ****   /* USER CODE END UART7_MspInit 1 */
 188:Src/usart.c   ****   }
 189:Src/usart.c   ****   else if(uartHandle->Instance==UART8)
 369              		.loc 1 189 0
 370 0012 3F4A     		ldr	r2, .L36+8
 371 0014 9342     		cmp	r3, r2
 372 0016 5DD0     		beq	.L34
 190:Src/usart.c   ****   {
 191:Src/usart.c   ****   /* USER CODE BEGIN UART8_MspInit 0 */
 192:Src/usart.c   **** 
 193:Src/usart.c   ****   /* USER CODE END UART8_MspInit 0 */
 194:Src/usart.c   ****     /* UART8 clock enable */
 195:Src/usart.c   ****     __HAL_RCC_UART8_CLK_ENABLE();
 196:Src/usart.c   ****   
 197:Src/usart.c   ****     /**UART8 GPIO Configuration    
 198:Src/usart.c   ****     PE0     ------> UART8_RX
 199:Src/usart.c   ****     PE1     ------> UART8_TX 
 200:Src/usart.c   ****     */
 201:Src/usart.c   ****     GPIO_InitStruct.Pin = GPIO_PIN_0|GPIO_PIN_1;
 202:Src/usart.c   ****     GPIO_InitStruct.Mode = GPIO_MODE_AF_PP;
 203:Src/usart.c   ****     GPIO_InitStruct.Pull = GPIO_NOPULL;
 204:Src/usart.c   ****     GPIO_InitStruct.Speed = GPIO_SPEED_FREQ_VERY_HIGH;
 205:Src/usart.c   ****     GPIO_InitStruct.Alternate = GPIO_AF8_UART8;
 206:Src/usart.c   ****     HAL_GPIO_Init(GPIOE, &GPIO_InitStruct);
 207:Src/usart.c   **** 
 208:Src/usart.c   ****   /* USER CODE BEGIN UART8_MspInit 1 */
 209:Src/usart.c   **** 
 210:Src/usart.c   ****   /* USER CODE END UART8_MspInit 1 */
 211:Src/usart.c   ****   }
 212:Src/usart.c   ****   else if(uartHandle->Instance==USART1)
 373              		.loc 1 212 0
 374 0018 3E4A     		ldr	r2, .L36+12
 375 001a 9342     		cmp	r3, r2
 376 001c 01D0     		beq	.L35
 213:Src/usart.c   ****   {
 214:Src/usart.c   ****   /* USER CODE BEGIN USART1_MspInit 0 */
 215:Src/usart.c   **** 
ARM GAS  /tmp/cc4PyliQ.s 			page 12


 216:Src/usart.c   ****   /* USER CODE END USART1_MspInit 0 */
 217:Src/usart.c   ****     /* USART1 clock enable */
 218:Src/usart.c   ****     __HAL_RCC_USART1_CLK_ENABLE();
 219:Src/usart.c   ****   
 220:Src/usart.c   ****     /**USART1 GPIO Configuration    
 221:Src/usart.c   ****     PA9     ------> USART1_TX
 222:Src/usart.c   ****     PA10     ------> USART1_RX
 223:Src/usart.c   ****     PA11     ------> USART1_CTS
 224:Src/usart.c   ****     PA12     ------> USART1_RTS 
 225:Src/usart.c   ****     */
 226:Src/usart.c   ****     GPIO_InitStruct.Pin = GPIO_PIN_9|GPIO_PIN_10|GPIO_PIN_11|GPIO_PIN_12;
 227:Src/usart.c   ****     GPIO_InitStruct.Mode = GPIO_MODE_AF_PP;
 228:Src/usart.c   ****     GPIO_InitStruct.Pull = GPIO_NOPULL;
 229:Src/usart.c   ****     GPIO_InitStruct.Speed = GPIO_SPEED_FREQ_VERY_HIGH;
 230:Src/usart.c   ****     GPIO_InitStruct.Alternate = GPIO_AF7_USART1;
 231:Src/usart.c   ****     HAL_GPIO_Init(GPIOA, &GPIO_InitStruct);
 232:Src/usart.c   **** 
 233:Src/usart.c   ****   /* USER CODE BEGIN USART1_MspInit 1 */
 234:Src/usart.c   **** 
 235:Src/usart.c   ****   /* USER CODE END USART1_MspInit 1 */
 236:Src/usart.c   ****   }
 237:Src/usart.c   **** }
 377              		.loc 1 237 0
 378 001e 0AB0     		add	sp, sp, #40
 379              	.LCFI10:
 380              		.cfi_remember_state
 381              		.cfi_def_cfa_offset 16
 382              		@ sp needed
 383 0020 70BD     		pop	{r4, r5, r6, pc}
 384              	.L35:
 385              	.LCFI11:
 386              		.cfi_restore_state
 387              	.LBB2:
 218:Src/usart.c   ****   
 388              		.loc 1 218 0
 389 0022 3D4B     		ldr	r3, .L36+16
 390              	.LBE2:
 226:Src/usart.c   ****     GPIO_InitStruct.Mode = GPIO_MODE_AF_PP;
 391              		.loc 1 226 0
 392 0024 4FF4F051 		mov	r1, #7680
 227:Src/usart.c   ****     GPIO_InitStruct.Pull = GPIO_NOPULL;
 393              		.loc 1 227 0
 394 0028 0220     		movs	r0, #2
 395              	.LVL9:
 228:Src/usart.c   ****     GPIO_InitStruct.Speed = GPIO_SPEED_FREQ_VERY_HIGH;
 396              		.loc 1 228 0
 397 002a 0026     		movs	r6, #0
 398              	.LBB3:
 218:Src/usart.c   ****   
 399              		.loc 1 218 0
 400 002c 5A6C     		ldr	r2, [r3, #68]
 401              	.LBE3:
 229:Src/usart.c   ****     GPIO_InitStruct.Alternate = GPIO_AF7_USART1;
 402              		.loc 1 229 0
 403 002e 0325     		movs	r5, #3
 230:Src/usart.c   ****     HAL_GPIO_Init(GPIOA, &GPIO_InitStruct);
 404              		.loc 1 230 0
ARM GAS  /tmp/cc4PyliQ.s 			page 13


 405 0030 0724     		movs	r4, #7
 406              	.LBB4:
 218:Src/usart.c   ****   
 407              		.loc 1 218 0
 408 0032 42F01002 		orr	r2, r2, #16
 409 0036 5A64     		str	r2, [r3, #68]
 410 0038 5B6C     		ldr	r3, [r3, #68]
 411              	.LBE4:
 226:Src/usart.c   ****     GPIO_InitStruct.Mode = GPIO_MODE_AF_PP;
 412              		.loc 1 226 0
 413 003a 0591     		str	r1, [sp, #20]
 231:Src/usart.c   **** 
 414              		.loc 1 231 0
 415 003c 05A9     		add	r1, sp, #20
 416              	.LBB5:
 218:Src/usart.c   ****   
 417              		.loc 1 218 0
 418 003e 03F01003 		and	r3, r3, #16
 419              	.LBE5:
 227:Src/usart.c   ****     GPIO_InitStruct.Pull = GPIO_NOPULL;
 420              		.loc 1 227 0
 421 0042 0690     		str	r0, [sp, #24]
 231:Src/usart.c   **** 
 422              		.loc 1 231 0
 423 0044 3548     		ldr	r0, .L36+20
 424              	.LBB6:
 218:Src/usart.c   ****   
 425              		.loc 1 218 0
 426 0046 0493     		str	r3, [sp, #16]
 427 0048 049B     		ldr	r3, [sp, #16]
 428              	.LBE6:
 230:Src/usart.c   ****     HAL_GPIO_Init(GPIOA, &GPIO_InitStruct);
 429              		.loc 1 230 0
 430 004a 0994     		str	r4, [sp, #36]
 229:Src/usart.c   ****     GPIO_InitStruct.Alternate = GPIO_AF7_USART1;
 431              		.loc 1 229 0
 432 004c CDE90765 		strd	r6, r5, [sp, #28]
 231:Src/usart.c   **** 
 433              		.loc 1 231 0
 434 0050 FFF7FEFF 		bl	HAL_GPIO_Init
 435              	.LVL10:
 436              		.loc 1 237 0
 437 0054 0AB0     		add	sp, sp, #40
 438              	.LCFI12:
 439              		.cfi_remember_state
 440              		.cfi_def_cfa_offset 16
 441              		@ sp needed
 442 0056 70BD     		pop	{r4, r5, r6, pc}
 443              	.LVL11:
 444              	.L32:
 445              	.LCFI13:
 446              		.cfi_restore_state
 447              	.LBB7:
 146:Src/usart.c   ****   
 448              		.loc 1 146 0
 449 0058 2F4B     		ldr	r3, .L36+16
 450              	.LBE7:
ARM GAS  /tmp/cc4PyliQ.s 			page 14


 153:Src/usart.c   ****     GPIO_InitStruct.Pull = GPIO_NOPULL;
 451              		.loc 1 153 0
 452 005a 0220     		movs	r0, #2
 453              	.LVL12:
 154:Src/usart.c   ****     GPIO_InitStruct.Speed = GPIO_SPEED_FREQ_VERY_HIGH;
 454              		.loc 1 154 0
 455 005c 0024     		movs	r4, #0
 156:Src/usart.c   ****     HAL_GPIO_Init(GPIOC, &GPIO_InitStruct);
 456              		.loc 1 156 0
 457 005e 0822     		movs	r2, #8
 458              	.LBB8:
 146:Src/usart.c   ****   
 459              		.loc 1 146 0
 460 0060 196C     		ldr	r1, [r3, #64]
 461              	.LBE8:
 152:Src/usart.c   ****     GPIO_InitStruct.Mode = GPIO_MODE_AF_PP;
 462              		.loc 1 152 0
 463 0062 4FF44066 		mov	r6, #3072
 155:Src/usart.c   ****     GPIO_InitStruct.Alternate = GPIO_AF8_UART4;
 464              		.loc 1 155 0
 465 0066 0325     		movs	r5, #3
 466              	.LBB9:
 146:Src/usart.c   ****   
 467              		.loc 1 146 0
 468 0068 41F40021 		orr	r1, r1, #524288
 469 006c 1964     		str	r1, [r3, #64]
 470              	.LBE9:
 157:Src/usart.c   **** 
 471              		.loc 1 157 0
 472 006e 05A9     		add	r1, sp, #20
 473              	.LBB10:
 146:Src/usart.c   ****   
 474              		.loc 1 146 0
 475 0070 1B6C     		ldr	r3, [r3, #64]
 476              	.LBE10:
 153:Src/usart.c   ****     GPIO_InitStruct.Pull = GPIO_NOPULL;
 477              		.loc 1 153 0
 478 0072 0690     		str	r0, [sp, #24]
 479              	.LBB11:
 146:Src/usart.c   ****   
 480              		.loc 1 146 0
 481 0074 03F40023 		and	r3, r3, #524288
 482              	.LBE11:
 157:Src/usart.c   **** 
 483              		.loc 1 157 0
 484 0078 2948     		ldr	r0, .L36+24
 156:Src/usart.c   ****     HAL_GPIO_Init(GPIOC, &GPIO_InitStruct);
 485              		.loc 1 156 0
 486 007a 0992     		str	r2, [sp, #36]
 487              	.LBB12:
 146:Src/usart.c   ****   
 488              		.loc 1 146 0
 489 007c 0193     		str	r3, [sp, #4]
 490 007e 019B     		ldr	r3, [sp, #4]
 491              	.LBE12:
 152:Src/usart.c   ****     GPIO_InitStruct.Mode = GPIO_MODE_AF_PP;
 492              		.loc 1 152 0
ARM GAS  /tmp/cc4PyliQ.s 			page 15


 493 0080 0596     		str	r6, [sp, #20]
 155:Src/usart.c   ****     GPIO_InitStruct.Alternate = GPIO_AF8_UART4;
 494              		.loc 1 155 0
 495 0082 CDE90745 		strd	r4, r5, [sp, #28]
 157:Src/usart.c   **** 
 496              		.loc 1 157 0
 497 0086 FFF7FEFF 		bl	HAL_GPIO_Init
 498              	.LVL13:
 160:Src/usart.c   ****     HAL_NVIC_EnableIRQ(UART4_IRQn);
 499              		.loc 1 160 0
 500 008a 2246     		mov	r2, r4
 501 008c 2146     		mov	r1, r4
 502 008e 3420     		movs	r0, #52
 503 0090 FFF7FEFF 		bl	HAL_NVIC_SetPriority
 504              	.LVL14:
 161:Src/usart.c   ****   /* USER CODE BEGIN UART4_MspInit 1 */
 505              		.loc 1 161 0
 506 0094 3420     		movs	r0, #52
 507 0096 FFF7FEFF 		bl	HAL_NVIC_EnableIRQ
 508              	.LVL15:
 509              		.loc 1 237 0
 510 009a 0AB0     		add	sp, sp, #40
 511              	.LCFI14:
 512              		.cfi_remember_state
 513              		.cfi_def_cfa_offset 16
 514              		@ sp needed
 515 009c 70BD     		pop	{r4, r5, r6, pc}
 516              	.LVL16:
 517              	.L33:
 518              	.LCFI15:
 519              		.cfi_restore_state
 520              	.LBB13:
 172:Src/usart.c   ****   
 521              		.loc 1 172 0
 522 009e 1E4B     		ldr	r3, .L36+16
 523              	.LBE13:
 178:Src/usart.c   ****     GPIO_InitStruct.Mode = GPIO_MODE_AF_PP;
 524              		.loc 1 178 0
 525 00a0 4FF4C071 		mov	r1, #384
 179:Src/usart.c   ****     GPIO_InitStruct.Pull = GPIO_NOPULL;
 526              		.loc 1 179 0
 527 00a4 0220     		movs	r0, #2
 528              	.LVL17:
 180:Src/usart.c   ****     GPIO_InitStruct.Speed = GPIO_SPEED_FREQ_VERY_HIGH;
 529              		.loc 1 180 0
 530 00a6 0026     		movs	r6, #0
 531              	.LBB14:
 172:Src/usart.c   ****   
 532              		.loc 1 172 0
 533 00a8 1A6C     		ldr	r2, [r3, #64]
 534              	.LBE14:
 181:Src/usart.c   ****     GPIO_InitStruct.Alternate = GPIO_AF8_UART7;
 535              		.loc 1 181 0
 536 00aa 0325     		movs	r5, #3
 182:Src/usart.c   ****     HAL_GPIO_Init(GPIOE, &GPIO_InitStruct);
 537              		.loc 1 182 0
 538 00ac 0824     		movs	r4, #8
ARM GAS  /tmp/cc4PyliQ.s 			page 16


 539              	.LBB15:
 172:Src/usart.c   ****   
 540              		.loc 1 172 0
 541 00ae 42F08042 		orr	r2, r2, #1073741824
 542 00b2 1A64     		str	r2, [r3, #64]
 543 00b4 1B6C     		ldr	r3, [r3, #64]
 544              	.LBE15:
 178:Src/usart.c   ****     GPIO_InitStruct.Mode = GPIO_MODE_AF_PP;
 545              		.loc 1 178 0
 546 00b6 0591     		str	r1, [sp, #20]
 183:Src/usart.c   **** 
 547              		.loc 1 183 0
 548 00b8 05A9     		add	r1, sp, #20
 549              	.LBB16:
 172:Src/usart.c   ****   
 550              		.loc 1 172 0
 551 00ba 03F08043 		and	r3, r3, #1073741824
 552              	.LBE16:
 179:Src/usart.c   ****     GPIO_InitStruct.Pull = GPIO_NOPULL;
 553              		.loc 1 179 0
 554 00be 0690     		str	r0, [sp, #24]
 183:Src/usart.c   **** 
 555              		.loc 1 183 0
 556 00c0 1848     		ldr	r0, .L36+28
 557              	.LBB17:
 172:Src/usart.c   ****   
 558              		.loc 1 172 0
 559 00c2 0293     		str	r3, [sp, #8]
 560 00c4 029B     		ldr	r3, [sp, #8]
 561              	.LBE17:
 182:Src/usart.c   ****     HAL_GPIO_Init(GPIOE, &GPIO_InitStruct);
 562              		.loc 1 182 0
 563 00c6 0994     		str	r4, [sp, #36]
 181:Src/usart.c   ****     GPIO_InitStruct.Alternate = GPIO_AF8_UART7;
 564              		.loc 1 181 0
 565 00c8 CDE90765 		strd	r6, r5, [sp, #28]
 183:Src/usart.c   **** 
 566              		.loc 1 183 0
 567 00cc FFF7FEFF 		bl	HAL_GPIO_Init
 568              	.LVL18:
 569              		.loc 1 237 0
 570 00d0 0AB0     		add	sp, sp, #40
 571              	.LCFI16:
 572              		.cfi_remember_state
 573              		.cfi_def_cfa_offset 16
 574              		@ sp needed
 575 00d2 70BD     		pop	{r4, r5, r6, pc}
 576              	.LVL19:
 577              	.L34:
 578              	.LCFI17:
 579              		.cfi_restore_state
 580              	.LBB18:
 195:Src/usart.c   ****   
 581              		.loc 1 195 0
 582 00d4 104B     		ldr	r3, .L36+16
 583              	.LBE18:
 201:Src/usart.c   ****     GPIO_InitStruct.Mode = GPIO_MODE_AF_PP;
ARM GAS  /tmp/cc4PyliQ.s 			page 17


 584              		.loc 1 201 0
 585 00d6 0320     		movs	r0, #3
 586              	.LVL20:
 202:Src/usart.c   ****     GPIO_InitStruct.Pull = GPIO_NOPULL;
 587              		.loc 1 202 0
 588 00d8 0226     		movs	r6, #2
 203:Src/usart.c   ****     GPIO_InitStruct.Speed = GPIO_SPEED_FREQ_VERY_HIGH;
 589              		.loc 1 203 0
 590 00da 0025     		movs	r5, #0
 591              	.LBB19:
 195:Src/usart.c   ****   
 592              		.loc 1 195 0
 593 00dc 1A6C     		ldr	r2, [r3, #64]
 594              	.LBE19:
 205:Src/usart.c   ****     HAL_GPIO_Init(GPIOE, &GPIO_InitStruct);
 595              		.loc 1 205 0
 596 00de 0824     		movs	r4, #8
 206:Src/usart.c   **** 
 597              		.loc 1 206 0
 598 00e0 05A9     		add	r1, sp, #20
 599              	.LBB20:
 195:Src/usart.c   ****   
 600              		.loc 1 195 0
 601 00e2 42F00042 		orr	r2, r2, #-2147483648
 602 00e6 1A64     		str	r2, [r3, #64]
 603 00e8 1B6C     		ldr	r3, [r3, #64]
 604              	.LBE20:
 201:Src/usart.c   ****     GPIO_InitStruct.Mode = GPIO_MODE_AF_PP;
 605              		.loc 1 201 0
 606 00ea 0590     		str	r0, [sp, #20]
 607              	.LBB21:
 195:Src/usart.c   ****   
 608              		.loc 1 195 0
 609 00ec 03F00043 		and	r3, r3, #-2147483648
 610              	.LBE21:
 204:Src/usart.c   ****     GPIO_InitStruct.Alternate = GPIO_AF8_UART8;
 611              		.loc 1 204 0
 612 00f0 0890     		str	r0, [sp, #32]
 206:Src/usart.c   **** 
 613              		.loc 1 206 0
 614 00f2 0C48     		ldr	r0, .L36+28
 615              	.LBB22:
 195:Src/usart.c   ****   
 616              		.loc 1 195 0
 617 00f4 0393     		str	r3, [sp, #12]
 618 00f6 039B     		ldr	r3, [sp, #12]
 619              	.LBE22:
 205:Src/usart.c   ****     HAL_GPIO_Init(GPIOE, &GPIO_InitStruct);
 620              		.loc 1 205 0
 621 00f8 0994     		str	r4, [sp, #36]
 203:Src/usart.c   ****     GPIO_InitStruct.Speed = GPIO_SPEED_FREQ_VERY_HIGH;
 622              		.loc 1 203 0
 623 00fa CDE90665 		strd	r6, r5, [sp, #24]
 206:Src/usart.c   **** 
 624              		.loc 1 206 0
 625 00fe FFF7FEFF 		bl	HAL_GPIO_Init
 626              	.LVL21:
ARM GAS  /tmp/cc4PyliQ.s 			page 18


 627              		.loc 1 237 0
 628 0102 0AB0     		add	sp, sp, #40
 629              	.LCFI18:
 630              		.cfi_def_cfa_offset 16
 631              		@ sp needed
 632 0104 70BD     		pop	{r4, r5, r6, pc}
 633              	.L37:
 634 0106 00BF     		.align	2
 635              	.L36:
 636 0108 004C0040 		.word	1073761280
 637 010c 00780040 		.word	1073772544
 638 0110 007C0040 		.word	1073773568
 639 0114 00100140 		.word	1073811456
 640 0118 00380240 		.word	1073887232
 641 011c 00000240 		.word	1073872896
 642 0120 00080240 		.word	1073874944
 643 0124 00100240 		.word	1073876992
 644              		.cfi_endproc
 645              	.LFE142:
 647              		.section	.text.HAL_UART_MspDeInit,"ax",%progbits
 648              		.align	1
 649              		.p2align 2,,3
 650              		.global	HAL_UART_MspDeInit
 651              		.syntax unified
 652              		.thumb
 653              		.thumb_func
 654              		.fpu fpv4-sp-d16
 656              	HAL_UART_MspDeInit:
 657              	.LFB143:
 238:Src/usart.c   **** 
 239:Src/usart.c   **** void HAL_UART_MspDeInit(UART_HandleTypeDef* uartHandle)
 240:Src/usart.c   **** {
 658              		.loc 1 240 0
 659              		.cfi_startproc
 660              		@ args = 0, pretend = 0, frame = 0
 661              		@ frame_needed = 0, uses_anonymous_args = 0
 662              	.LVL22:
 663 0000 08B5     		push	{r3, lr}
 664              	.LCFI19:
 665              		.cfi_def_cfa_offset 8
 666              		.cfi_offset 3, -8
 667              		.cfi_offset 14, -4
 241:Src/usart.c   **** 
 242:Src/usart.c   ****   if(uartHandle->Instance==UART4)
 668              		.loc 1 242 0
 669 0002 224A     		ldr	r2, .L48
 670 0004 0368     		ldr	r3, [r0]
 671 0006 9342     		cmp	r3, r2
 672 0008 16D0     		beq	.L44
 243:Src/usart.c   ****   {
 244:Src/usart.c   ****   /* USER CODE BEGIN UART4_MspDeInit 0 */
 245:Src/usart.c   **** 
 246:Src/usart.c   ****   /* USER CODE END UART4_MspDeInit 0 */
 247:Src/usart.c   ****     /* Peripheral clock disable */
 248:Src/usart.c   ****     __HAL_RCC_UART4_CLK_DISABLE();
 249:Src/usart.c   ****   
 250:Src/usart.c   ****     /**UART4 GPIO Configuration    
ARM GAS  /tmp/cc4PyliQ.s 			page 19


 251:Src/usart.c   ****     PC10     ------> UART4_TX
 252:Src/usart.c   ****     PC11     ------> UART4_RX 
 253:Src/usart.c   ****     */
 254:Src/usart.c   ****     HAL_GPIO_DeInit(GPIOC, GPIO_PIN_10|GPIO_PIN_11);
 255:Src/usart.c   **** 
 256:Src/usart.c   ****     /* UART4 interrupt Deinit */
 257:Src/usart.c   ****     HAL_NVIC_DisableIRQ(UART4_IRQn);
 258:Src/usart.c   ****   /* USER CODE BEGIN UART4_MspDeInit 1 */
 259:Src/usart.c   **** 
 260:Src/usart.c   ****   /* USER CODE END UART4_MspDeInit 1 */
 261:Src/usart.c   ****   }
 262:Src/usart.c   ****   else if(uartHandle->Instance==UART7)
 673              		.loc 1 262 0
 674 000a 214A     		ldr	r2, .L48+4
 675 000c 9342     		cmp	r3, r2
 676 000e 23D0     		beq	.L45
 263:Src/usart.c   ****   {
 264:Src/usart.c   ****   /* USER CODE BEGIN UART7_MspDeInit 0 */
 265:Src/usart.c   **** 
 266:Src/usart.c   ****   /* USER CODE END UART7_MspDeInit 0 */
 267:Src/usart.c   ****     /* Peripheral clock disable */
 268:Src/usart.c   ****     __HAL_RCC_UART7_CLK_DISABLE();
 269:Src/usart.c   ****   
 270:Src/usart.c   ****     /**UART7 GPIO Configuration    
 271:Src/usart.c   ****     PE7     ------> UART7_RX
 272:Src/usart.c   ****     PE8     ------> UART7_TX 
 273:Src/usart.c   ****     */
 274:Src/usart.c   ****     HAL_GPIO_DeInit(GPIOE, GPIO_PIN_7|GPIO_PIN_8);
 275:Src/usart.c   **** 
 276:Src/usart.c   ****   /* USER CODE BEGIN UART7_MspDeInit 1 */
 277:Src/usart.c   **** 
 278:Src/usart.c   ****   /* USER CODE END UART7_MspDeInit 1 */
 279:Src/usart.c   ****   }
 280:Src/usart.c   ****   else if(uartHandle->Instance==UART8)
 677              		.loc 1 280 0
 678 0010 204A     		ldr	r2, .L48+8
 679 0012 9342     		cmp	r3, r2
 680 0014 2DD0     		beq	.L46
 281:Src/usart.c   ****   {
 282:Src/usart.c   ****   /* USER CODE BEGIN UART8_MspDeInit 0 */
 283:Src/usart.c   **** 
 284:Src/usart.c   ****   /* USER CODE END UART8_MspDeInit 0 */
 285:Src/usart.c   ****     /* Peripheral clock disable */
 286:Src/usart.c   ****     __HAL_RCC_UART8_CLK_DISABLE();
 287:Src/usart.c   ****   
 288:Src/usart.c   ****     /**UART8 GPIO Configuration    
 289:Src/usart.c   ****     PE0     ------> UART8_RX
 290:Src/usart.c   ****     PE1     ------> UART8_TX 
 291:Src/usart.c   ****     */
 292:Src/usart.c   ****     HAL_GPIO_DeInit(GPIOE, GPIO_PIN_0|GPIO_PIN_1);
 293:Src/usart.c   **** 
 294:Src/usart.c   ****   /* USER CODE BEGIN UART8_MspDeInit 1 */
 295:Src/usart.c   **** 
 296:Src/usart.c   ****   /* USER CODE END UART8_MspDeInit 1 */
 297:Src/usart.c   ****   }
 298:Src/usart.c   ****   else if(uartHandle->Instance==USART1)
 681              		.loc 1 298 0
ARM GAS  /tmp/cc4PyliQ.s 			page 20


 682 0016 204A     		ldr	r2, .L48+12
 683 0018 9342     		cmp	r3, r2
 684 001a 00D0     		beq	.L47
 299:Src/usart.c   ****   {
 300:Src/usart.c   ****   /* USER CODE BEGIN USART1_MspDeInit 0 */
 301:Src/usart.c   **** 
 302:Src/usart.c   ****   /* USER CODE END USART1_MspDeInit 0 */
 303:Src/usart.c   ****     /* Peripheral clock disable */
 304:Src/usart.c   ****     __HAL_RCC_USART1_CLK_DISABLE();
 305:Src/usart.c   ****   
 306:Src/usart.c   ****     /**USART1 GPIO Configuration    
 307:Src/usart.c   ****     PA9     ------> USART1_TX
 308:Src/usart.c   ****     PA10     ------> USART1_RX
 309:Src/usart.c   ****     PA11     ------> USART1_CTS
 310:Src/usart.c   ****     PA12     ------> USART1_RTS 
 311:Src/usart.c   ****     */
 312:Src/usart.c   ****     HAL_GPIO_DeInit(GPIOA, GPIO_PIN_9|GPIO_PIN_10|GPIO_PIN_11|GPIO_PIN_12);
 313:Src/usart.c   **** 
 314:Src/usart.c   ****   /* USER CODE BEGIN USART1_MspDeInit 1 */
 315:Src/usart.c   **** 
 316:Src/usart.c   ****   /* USER CODE END USART1_MspDeInit 1 */
 317:Src/usart.c   ****   }
 318:Src/usart.c   **** } 
 685              		.loc 1 318 0
 686 001c 08BD     		pop	{r3, pc}
 687              	.L47:
 304:Src/usart.c   ****   
 688              		.loc 1 304 0
 689 001e 02F59432 		add	r2, r2, #75776
 312:Src/usart.c   **** 
 690              		.loc 1 312 0
 691 0022 4FF4F051 		mov	r1, #7680
 692 0026 1D48     		ldr	r0, .L48+16
 693              	.LVL23:
 304:Src/usart.c   ****   
 694              		.loc 1 304 0
 695 0028 536C     		ldr	r3, [r2, #68]
 696 002a 23F01003 		bic	r3, r3, #16
 697 002e 5364     		str	r3, [r2, #68]
 698              		.loc 1 318 0
 699 0030 BDE80840 		pop	{r3, lr}
 700              	.LCFI20:
 701              		.cfi_remember_state
 702              		.cfi_restore 14
 703              		.cfi_restore 3
 704              		.cfi_def_cfa_offset 0
 312:Src/usart.c   **** 
 705              		.loc 1 312 0
 706 0034 FFF7FEBF 		b	HAL_GPIO_DeInit
 707              	.LVL24:
 708              	.L44:
 709              	.LCFI21:
 710              		.cfi_restore_state
 248:Src/usart.c   ****   
 711              		.loc 1 248 0
 712 0038 02F5F632 		add	r2, r2, #125952
 254:Src/usart.c   **** 
ARM GAS  /tmp/cc4PyliQ.s 			page 21


 713              		.loc 1 254 0
 714 003c 1848     		ldr	r0, .L48+20
 715              	.LVL25:
 716 003e 4FF44061 		mov	r1, #3072
 248:Src/usart.c   ****   
 717              		.loc 1 248 0
 718 0042 136C     		ldr	r3, [r2, #64]
 719 0044 23F40023 		bic	r3, r3, #524288
 720 0048 1364     		str	r3, [r2, #64]
 254:Src/usart.c   **** 
 721              		.loc 1 254 0
 722 004a FFF7FEFF 		bl	HAL_GPIO_DeInit
 723              	.LVL26:
 257:Src/usart.c   ****   /* USER CODE BEGIN UART4_MspDeInit 1 */
 724              		.loc 1 257 0
 725 004e 3420     		movs	r0, #52
 726              		.loc 1 318 0
 727 0050 BDE80840 		pop	{r3, lr}
 728              	.LCFI22:
 729              		.cfi_remember_state
 730              		.cfi_restore 14
 731              		.cfi_restore 3
 732              		.cfi_def_cfa_offset 0
 257:Src/usart.c   ****   /* USER CODE BEGIN UART4_MspDeInit 1 */
 733              		.loc 1 257 0
 734 0054 FFF7FEBF 		b	HAL_NVIC_DisableIRQ
 735              	.LVL27:
 736              	.L45:
 737              	.LCFI23:
 738              		.cfi_restore_state
 268:Src/usart.c   ****   
 739              		.loc 1 268 0
 740 0058 02F5E032 		add	r2, r2, #114688
 274:Src/usart.c   **** 
 741              		.loc 1 274 0
 742 005c 4FF4C071 		mov	r1, #384
 743 0060 1048     		ldr	r0, .L48+24
 744              	.LVL28:
 268:Src/usart.c   ****   
 745              		.loc 1 268 0
 746 0062 136C     		ldr	r3, [r2, #64]
 747 0064 23F08043 		bic	r3, r3, #1073741824
 748 0068 1364     		str	r3, [r2, #64]
 749              		.loc 1 318 0
 750 006a BDE80840 		pop	{r3, lr}
 751              	.LCFI24:
 752              		.cfi_remember_state
 753              		.cfi_restore 14
 754              		.cfi_restore 3
 755              		.cfi_def_cfa_offset 0
 274:Src/usart.c   **** 
 756              		.loc 1 274 0
 757 006e FFF7FEBF 		b	HAL_GPIO_DeInit
 758              	.LVL29:
 759              	.L46:
 760              	.LCFI25:
 761              		.cfi_restore_state
ARM GAS  /tmp/cc4PyliQ.s 			page 22


 286:Src/usart.c   ****   
 762              		.loc 1 286 0
 763 0072 02F5DE32 		add	r2, r2, #113664
 292:Src/usart.c   **** 
 764              		.loc 1 292 0
 765 0076 0321     		movs	r1, #3
 766 0078 0A48     		ldr	r0, .L48+24
 767              	.LVL30:
 286:Src/usart.c   ****   
 768              		.loc 1 286 0
 769 007a 136C     		ldr	r3, [r2, #64]
 770 007c 23F00043 		bic	r3, r3, #-2147483648
 771 0080 1364     		str	r3, [r2, #64]
 772              		.loc 1 318 0
 773 0082 BDE80840 		pop	{r3, lr}
 774              	.LCFI26:
 775              		.cfi_restore 14
 776              		.cfi_restore 3
 777              		.cfi_def_cfa_offset 0
 292:Src/usart.c   **** 
 778              		.loc 1 292 0
 779 0086 FFF7FEBF 		b	HAL_GPIO_DeInit
 780              	.LVL31:
 781              	.L49:
 782 008a 00BF     		.align	2
 783              	.L48:
 784 008c 004C0040 		.word	1073761280
 785 0090 00780040 		.word	1073772544
 786 0094 007C0040 		.word	1073773568
 787 0098 00100140 		.word	1073811456
 788 009c 00000240 		.word	1073872896
 789 00a0 00080240 		.word	1073874944
 790 00a4 00100240 		.word	1073876992
 791              		.cfi_endproc
 792              	.LFE143:
 794              		.comm	huart1,112,4
 795              		.comm	huart8,112,4
 796              		.comm	huart7,112,4
 797              		.comm	huart4,112,4
 798              		.comm	UpdateFile,4,4
 799              		.comm	SpiRxData,4,4
 800              		.comm	SpiTxData,4,4
 801              		.section	.rodata.MX_UART4_Init.str1.4,"aMS",%progbits,1
 802              		.align	2
 803              	.LC0:
 804 0000 5372632F 		.ascii	"Src/usart.c\000"
 804      75736172 
 804      742E6300 
 805              		.text
 806              	.Letext0:
 807              		.file 2 "/usr/include/newlib/machine/_default_types.h"
 808              		.file 3 "/usr/include/newlib/sys/lock.h"
 809              		.file 4 "/usr/include/newlib/sys/_types.h"
 810              		.file 5 "/usr/lib/gcc/arm-none-eabi/7.3.1/include/stddef.h"
 811              		.file 6 "/usr/include/newlib/sys/reent.h"
 812              		.file 7 "/usr/include/newlib/sys/_stdint.h"
 813              		.file 8 "Inc/main.h"
ARM GAS  /tmp/cc4PyliQ.s 			page 23


 814              		.file 9 "Drivers/CMSIS/Include/core_cm7.h"
 815              		.file 10 "Drivers/CMSIS/Device/ST/STM32F7xx/Include/system_stm32f7xx.h"
 816              		.file 11 "Drivers/CMSIS/Device/ST/STM32F7xx/Include/stm32f746xx.h"
 817              		.file 12 "Drivers/STM32F7xx_HAL_Driver/Inc/stm32f7xx_hal_def.h"
 818              		.file 13 "Drivers/STM32F7xx_HAL_Driver/Inc/stm32f7xx_hal_gpio.h"
 819              		.file 14 "Drivers/STM32F7xx_HAL_Driver/Inc/stm32f7xx_hal_dma.h"
 820              		.file 15 "Drivers/STM32F7xx_HAL_Driver/Inc/stm32f7xx_hal_uart.h"
 821              		.file 16 "Inc/usart.h"
 822              		.file 17 "Drivers/STM32F7xx_HAL_Driver/Inc/stm32f7xx_hal_cortex.h"
ARM GAS  /tmp/cc4PyliQ.s 			page 24


DEFINED SYMBOLS
                            *ABS*:0000000000000000 usart.c
     /tmp/cc4PyliQ.s:18     .text.MX_UART4_Init:0000000000000000 $t
     /tmp/cc4PyliQ.s:26     .text.MX_UART4_Init:0000000000000000 MX_UART4_Init
     /tmp/cc4PyliQ.s:94     .text.MX_UART4_Init:000000000000003c $d
                            *COM*:0000000000000070 huart4
     /tmp/cc4PyliQ.s:101    .text.MX_UART7_Init:0000000000000000 $t
     /tmp/cc4PyliQ.s:109    .text.MX_UART7_Init:0000000000000000 MX_UART7_Init
     /tmp/cc4PyliQ.s:172    .text.MX_UART7_Init:000000000000003c $d
                            *COM*:0000000000000070 huart7
     /tmp/cc4PyliQ.s:179    .text.MX_UART8_Init:0000000000000000 $t
     /tmp/cc4PyliQ.s:187    .text.MX_UART8_Init:0000000000000000 MX_UART8_Init
     /tmp/cc4PyliQ.s:250    .text.MX_UART8_Init:000000000000003c $d
                            *COM*:0000000000000070 huart8
     /tmp/cc4PyliQ.s:257    .text.MX_USART1_UART_Init:0000000000000000 $t
     /tmp/cc4PyliQ.s:265    .text.MX_USART1_UART_Init:0000000000000000 MX_USART1_UART_Init
     /tmp/cc4PyliQ.s:326    .text.MX_USART1_UART_Init:0000000000000038 $d
                            *COM*:0000000000000070 huart1
     /tmp/cc4PyliQ.s:333    .text.HAL_UART_MspInit:0000000000000000 $t
     /tmp/cc4PyliQ.s:341    .text.HAL_UART_MspInit:0000000000000000 HAL_UART_MspInit
     /tmp/cc4PyliQ.s:636    .text.HAL_UART_MspInit:0000000000000108 $d
     /tmp/cc4PyliQ.s:648    .text.HAL_UART_MspDeInit:0000000000000000 $t
     /tmp/cc4PyliQ.s:656    .text.HAL_UART_MspDeInit:0000000000000000 HAL_UART_MspDeInit
     /tmp/cc4PyliQ.s:784    .text.HAL_UART_MspDeInit:000000000000008c $d
                            *COM*:0000000000000004 UpdateFile
                            *COM*:0000000000000004 SpiRxData
                            *COM*:0000000000000004 SpiTxData
     /tmp/cc4PyliQ.s:802    .rodata.MX_UART4_Init.str1.4:0000000000000000 $d

UNDEFINED SYMBOLS
HAL_UART_Init
_Error_Handler
HAL_GPIO_Init
HAL_NVIC_SetPriority
HAL_NVIC_EnableIRQ
HAL_GPIO_DeInit
HAL_NVIC_DisableIRQ
