ARM GAS  /tmp/ccCL7dHh.s 			page 1


   1              		.cpu cortex-m7
   2              		.eabi_attribute 27, 1
   3              		.eabi_attribute 28, 1
   4              		.eabi_attribute 20, 1
   5              		.eabi_attribute 21, 1
   6              		.eabi_attribute 23, 3
   7              		.eabi_attribute 24, 1
   8              		.eabi_attribute 25, 1
   9              		.eabi_attribute 26, 1
  10              		.eabi_attribute 30, 6
  11              		.eabi_attribute 34, 1
  12              		.eabi_attribute 18, 4
  13              		.file	"eth.c"
  14              		.text
  15              	.Ltext0:
  16              		.cfi_sections	.debug_frame
  17              		.comm	heth,72,4
  18              		.section	.rodata
  19              		.align	2
  20              	.LC0:
  21 0000 5372632F 		.ascii	"Src/eth.c\000"
  21      6574682E 
  21      6300
  22              		.section	.text.MX_ETH_Init,"ax",%progbits
  23              		.align	1
  24              		.global	MX_ETH_Init
  25              		.syntax unified
  26              		.thumb
  27              		.thumb_func
  28              		.fpu fpv4-sp-d16
  30              	MX_ETH_Init:
  31              	.LFB138:
  32              		.file 1 "Src/eth.c"
   1:Src/eth.c     **** /**
   2:Src/eth.c     ****   ******************************************************************************
   3:Src/eth.c     ****   * File Name          : ETH.c
   4:Src/eth.c     ****   * Description        : This file provides code for the configuration
   5:Src/eth.c     ****   *                      of the ETH instances.
   6:Src/eth.c     ****   ******************************************************************************
   7:Src/eth.c     ****   * This notice applies to any and all portions of this file
   8:Src/eth.c     ****   * that are not between comment pairs USER CODE BEGIN and
   9:Src/eth.c     ****   * USER CODE END. Other portions of this file, whether 
  10:Src/eth.c     ****   * inserted by the user or by software development tools
  11:Src/eth.c     ****   * are owned by their respective copyright owners.
  12:Src/eth.c     ****   *
  13:Src/eth.c     ****   * Copyright (c) 2018 STMicroelectronics International N.V. 
  14:Src/eth.c     ****   * All rights reserved.
  15:Src/eth.c     ****   *
  16:Src/eth.c     ****   * Redistribution and use in source and binary forms, with or without 
  17:Src/eth.c     ****   * modification, are permitted, provided that the following conditions are met:
  18:Src/eth.c     ****   *
  19:Src/eth.c     ****   * 1. Redistribution of source code must retain the above copyright notice, 
  20:Src/eth.c     ****   *    this list of conditions and the following disclaimer.
  21:Src/eth.c     ****   * 2. Redistributions in binary form must reproduce the above copyright notice,
  22:Src/eth.c     ****   *    this list of conditions and the following disclaimer in the documentation
  23:Src/eth.c     ****   *    and/or other materials provided with the distribution.
  24:Src/eth.c     ****   * 3. Neither the name of STMicroelectronics nor the names of other 
ARM GAS  /tmp/ccCL7dHh.s 			page 2


  25:Src/eth.c     ****   *    contributors to this software may be used to endorse or promote products 
  26:Src/eth.c     ****   *    derived from this software without specific written permission.
  27:Src/eth.c     ****   * 4. This software, including modifications and/or derivative works of this 
  28:Src/eth.c     ****   *    software, must execute solely and exclusively on microcontroller or
  29:Src/eth.c     ****   *    microprocessor devices manufactured by or for STMicroelectronics.
  30:Src/eth.c     ****   * 5. Redistribution and use of this software other than as permitted under 
  31:Src/eth.c     ****   *    this license is void and will automatically terminate your rights under 
  32:Src/eth.c     ****   *    this license. 
  33:Src/eth.c     ****   *
  34:Src/eth.c     ****   * THIS SOFTWARE IS PROVIDED BY STMICROELECTRONICS AND CONTRIBUTORS "AS IS" 
  35:Src/eth.c     ****   * AND ANY EXPRESS, IMPLIED OR STATUTORY WARRANTIES, INCLUDING, BUT NOT 
  36:Src/eth.c     ****   * LIMITED TO, THE IMPLIED WARRANTIES OF MERCHANTABILITY, FITNESS FOR A 
  37:Src/eth.c     ****   * PARTICULAR PURPOSE AND NON-INFRINGEMENT OF THIRD PARTY INTELLECTUAL PROPERTY
  38:Src/eth.c     ****   * RIGHTS ARE DISCLAIMED TO THE FULLEST EXTENT PERMITTED BY LAW. IN NO EVENT 
  39:Src/eth.c     ****   * SHALL STMICROELECTRONICS OR CONTRIBUTORS BE LIABLE FOR ANY DIRECT, INDIRECT,
  40:Src/eth.c     ****   * INCIDENTAL, SPECIAL, EXEMPLARY, OR CONSEQUENTIAL DAMAGES (INCLUDING, BUT NOT
  41:Src/eth.c     ****   * LIMITED TO, PROCUREMENT OF SUBSTITUTE GOODS OR SERVICES; LOSS OF USE, DATA, 
  42:Src/eth.c     ****   * OR PROFITS; OR BUSINESS INTERRUPTION) HOWEVER CAUSED AND ON ANY THEORY OF 
  43:Src/eth.c     ****   * LIABILITY, WHETHER IN CONTRACT, STRICT LIABILITY, OR TORT (INCLUDING 
  44:Src/eth.c     ****   * NEGLIGENCE OR OTHERWISE) ARISING IN ANY WAY OUT OF THE USE OF THIS SOFTWARE,
  45:Src/eth.c     ****   * EVEN IF ADVISED OF THE POSSIBILITY OF SUCH DAMAGE.
  46:Src/eth.c     ****   *
  47:Src/eth.c     ****   ******************************************************************************
  48:Src/eth.c     ****   */
  49:Src/eth.c     **** 
  50:Src/eth.c     **** /* Includes ------------------------------------------------------------------*/
  51:Src/eth.c     **** #include "eth.h"
  52:Src/eth.c     **** 
  53:Src/eth.c     **** #include "gpio.h"
  54:Src/eth.c     **** 
  55:Src/eth.c     **** /* USER CODE BEGIN 0 */
  56:Src/eth.c     **** 
  57:Src/eth.c     **** /* USER CODE END 0 */
  58:Src/eth.c     **** 
  59:Src/eth.c     **** ETH_HandleTypeDef heth;
  60:Src/eth.c     **** 
  61:Src/eth.c     **** /* ETH init function */
  62:Src/eth.c     **** void MX_ETH_Init(void)
  63:Src/eth.c     **** {
  33              		.loc 1 63 0
  34              		.cfi_startproc
  35              		@ args = 0, pretend = 0, frame = 8
  36              		@ frame_needed = 1, uses_anonymous_args = 0
  37 0000 80B5     		push	{r7, lr}
  38              	.LCFI0:
  39              		.cfi_def_cfa_offset 8
  40              		.cfi_offset 7, -8
  41              		.cfi_offset 14, -4
  42 0002 82B0     		sub	sp, sp, #8
  43              	.LCFI1:
  44              		.cfi_def_cfa_offset 16
  45 0004 00AF     		add	r7, sp, #0
  46              	.LCFI2:
  47              		.cfi_def_cfa_register 7
  64:Src/eth.c     ****    uint8_t MACAddr[6] ;
  65:Src/eth.c     **** 
  66:Src/eth.c     ****   heth.Instance = ETH;
ARM GAS  /tmp/ccCL7dHh.s 			page 3


  48              		.loc 1 66 0
  49 0006 184B     		ldr	r3, .L4
  50 0008 184A     		ldr	r2, .L4+4
  51 000a 1A60     		str	r2, [r3]
  67:Src/eth.c     ****   heth.Init.AutoNegotiation = ETH_AUTONEGOTIATION_ENABLE;
  52              		.loc 1 67 0
  53 000c 164B     		ldr	r3, .L4
  54 000e 0122     		movs	r2, #1
  55 0010 5A60     		str	r2, [r3, #4]
  68:Src/eth.c     ****   heth.Init.PhyAddress = LAN8742A_PHY_ADDRESS;
  56              		.loc 1 68 0
  57 0012 154B     		ldr	r3, .L4
  58 0014 0122     		movs	r2, #1
  59 0016 1A82     		strh	r2, [r3, #16]	@ movhi
  69:Src/eth.c     ****   MACAddr[0] = 0x00;
  60              		.loc 1 69 0
  61 0018 0023     		movs	r3, #0
  62 001a 3B70     		strb	r3, [r7]
  70:Src/eth.c     ****   MACAddr[1] = 0x80;
  63              		.loc 1 70 0
  64 001c 8023     		movs	r3, #128
  65 001e 7B70     		strb	r3, [r7, #1]
  71:Src/eth.c     ****   MACAddr[2] = 0xE1;
  66              		.loc 1 71 0
  67 0020 E123     		movs	r3, #225
  68 0022 BB70     		strb	r3, [r7, #2]
  72:Src/eth.c     ****   MACAddr[3] = 0x00;
  69              		.loc 1 72 0
  70 0024 0023     		movs	r3, #0
  71 0026 FB70     		strb	r3, [r7, #3]
  73:Src/eth.c     ****   MACAddr[4] = 0x00;
  72              		.loc 1 73 0
  73 0028 0023     		movs	r3, #0
  74 002a 3B71     		strb	r3, [r7, #4]
  74:Src/eth.c     ****   MACAddr[5] = 0x00;
  75              		.loc 1 74 0
  76 002c 0023     		movs	r3, #0
  77 002e 7B71     		strb	r3, [r7, #5]
  75:Src/eth.c     ****   heth.Init.MACAddr = &MACAddr[0];
  78              		.loc 1 75 0
  79 0030 0D4A     		ldr	r2, .L4
  80 0032 3B46     		mov	r3, r7
  81 0034 5361     		str	r3, [r2, #20]
  76:Src/eth.c     ****   heth.Init.RxMode = ETH_RXPOLLING_MODE;
  82              		.loc 1 76 0
  83 0036 0C4B     		ldr	r3, .L4
  84 0038 0022     		movs	r2, #0
  85 003a 9A61     		str	r2, [r3, #24]
  77:Src/eth.c     ****   heth.Init.ChecksumMode = ETH_CHECKSUM_BY_HARDWARE;
  86              		.loc 1 77 0
  87 003c 0A4B     		ldr	r3, .L4
  88 003e 0022     		movs	r2, #0
  89 0040 DA61     		str	r2, [r3, #28]
  78:Src/eth.c     ****   heth.Init.MediaInterface = ETH_MEDIA_INTERFACE_RMII;
  90              		.loc 1 78 0
  91 0042 094B     		ldr	r3, .L4
  92 0044 4FF40002 		mov	r2, #8388608
ARM GAS  /tmp/ccCL7dHh.s 			page 4


  93 0048 1A62     		str	r2, [r3, #32]
  79:Src/eth.c     **** 
  80:Src/eth.c     ****   /* USER CODE BEGIN MACADDRESS */
  81:Src/eth.c     ****     
  82:Src/eth.c     ****   /* USER CODE END MACADDRESS */
  83:Src/eth.c     **** 
  84:Src/eth.c     ****   if (HAL_ETH_Init(&heth) != HAL_OK)
  94              		.loc 1 84 0
  95 004a 0748     		ldr	r0, .L4
  96 004c FFF7FEFF 		bl	HAL_ETH_Init
  97 0050 0346     		mov	r3, r0
  98 0052 002B     		cmp	r3, #0
  99 0054 03D0     		beq	.L3
  85:Src/eth.c     ****   {
  86:Src/eth.c     ****     _Error_Handler(__FILE__, __LINE__);
 100              		.loc 1 86 0
 101 0056 5621     		movs	r1, #86
 102 0058 0548     		ldr	r0, .L4+8
 103 005a FFF7FEFF 		bl	_Error_Handler
 104              	.L3:
  87:Src/eth.c     ****   }
  88:Src/eth.c     **** 
  89:Src/eth.c     **** }
 105              		.loc 1 89 0
 106 005e 00BF     		nop
 107 0060 0837     		adds	r7, r7, #8
 108              	.LCFI3:
 109              		.cfi_def_cfa_offset 8
 110 0062 BD46     		mov	sp, r7
 111              	.LCFI4:
 112              		.cfi_def_cfa_register 13
 113              		@ sp needed
 114 0064 80BD     		pop	{r7, pc}
 115              	.L5:
 116 0066 00BF     		.align	2
 117              	.L4:
 118 0068 00000000 		.word	heth
 119 006c 00800240 		.word	1073905664
 120 0070 00000000 		.word	.LC0
 121              		.cfi_endproc
 122              	.LFE138:
 124              		.section	.text.HAL_ETH_MspInit,"ax",%progbits
 125              		.align	1
 126              		.global	HAL_ETH_MspInit
 127              		.syntax unified
 128              		.thumb
 129              		.thumb_func
 130              		.fpu fpv4-sp-d16
 132              	HAL_ETH_MspInit:
 133              	.LFB139:
  90:Src/eth.c     **** 
  91:Src/eth.c     **** void HAL_ETH_MspInit(ETH_HandleTypeDef* ethHandle)
  92:Src/eth.c     **** {
 134              		.loc 1 92 0
 135              		.cfi_startproc
 136              		@ args = 0, pretend = 0, frame = 40
 137              		@ frame_needed = 1, uses_anonymous_args = 0
ARM GAS  /tmp/ccCL7dHh.s 			page 5


 138 0000 80B5     		push	{r7, lr}
 139              	.LCFI5:
 140              		.cfi_def_cfa_offset 8
 141              		.cfi_offset 7, -8
 142              		.cfi_offset 14, -4
 143 0002 8AB0     		sub	sp, sp, #40
 144              	.LCFI6:
 145              		.cfi_def_cfa_offset 48
 146 0004 00AF     		add	r7, sp, #0
 147              	.LCFI7:
 148              		.cfi_def_cfa_register 7
 149 0006 7860     		str	r0, [r7, #4]
  93:Src/eth.c     **** 
  94:Src/eth.c     ****   GPIO_InitTypeDef GPIO_InitStruct;
  95:Src/eth.c     ****   if(ethHandle->Instance==ETH)
 150              		.loc 1 95 0
 151 0008 7B68     		ldr	r3, [r7, #4]
 152 000a 1B68     		ldr	r3, [r3]
 153 000c 2D4A     		ldr	r2, .L9
 154 000e 9342     		cmp	r3, r2
 155 0010 54D1     		bne	.L8
 156              	.LBB2:
  96:Src/eth.c     ****   {
  97:Src/eth.c     ****   /* USER CODE BEGIN ETH_MspInit 0 */
  98:Src/eth.c     **** 
  99:Src/eth.c     ****   /* USER CODE END ETH_MspInit 0 */
 100:Src/eth.c     ****     /* ETH clock enable */
 101:Src/eth.c     ****     __HAL_RCC_ETH_CLK_ENABLE();
 157              		.loc 1 101 0
 158 0012 2D4B     		ldr	r3, .L9+4
 159 0014 1B6B     		ldr	r3, [r3, #48]
 160 0016 2C4A     		ldr	r2, .L9+4
 161 0018 43F00073 		orr	r3, r3, #33554432
 162 001c 1363     		str	r3, [r2, #48]
 163 001e 2A4B     		ldr	r3, .L9+4
 164 0020 1B6B     		ldr	r3, [r3, #48]
 165 0022 03F00073 		and	r3, r3, #33554432
 166 0026 3B61     		str	r3, [r7, #16]
 167 0028 3B69     		ldr	r3, [r7, #16]
 168              	.LBE2:
 169              	.LBB3:
 170 002a 274B     		ldr	r3, .L9+4
 171 002c 1B6B     		ldr	r3, [r3, #48]
 172 002e 264A     		ldr	r2, .L9+4
 173 0030 43F08063 		orr	r3, r3, #67108864
 174 0034 1363     		str	r3, [r2, #48]
 175 0036 244B     		ldr	r3, .L9+4
 176 0038 1B6B     		ldr	r3, [r3, #48]
 177 003a 03F08063 		and	r3, r3, #67108864
 178 003e FB60     		str	r3, [r7, #12]
 179 0040 FB68     		ldr	r3, [r7, #12]
 180              	.LBE3:
 181              	.LBB4:
 182 0042 214B     		ldr	r3, .L9+4
 183 0044 1B6B     		ldr	r3, [r3, #48]
 184 0046 204A     		ldr	r2, .L9+4
 185 0048 43F00063 		orr	r3, r3, #134217728
ARM GAS  /tmp/ccCL7dHh.s 			page 6


 186 004c 1363     		str	r3, [r2, #48]
 187 004e 1E4B     		ldr	r3, .L9+4
 188 0050 1B6B     		ldr	r3, [r3, #48]
 189 0052 03F00063 		and	r3, r3, #134217728
 190 0056 BB60     		str	r3, [r7, #8]
 191 0058 BB68     		ldr	r3, [r7, #8]
 192              	.LBE4:
 102:Src/eth.c     ****   
 103:Src/eth.c     ****     /**ETH GPIO Configuration    
 104:Src/eth.c     ****     PC1     ------> ETH_MDC
 105:Src/eth.c     ****     PA1     ------> ETH_REF_CLK
 106:Src/eth.c     ****     PA2     ------> ETH_MDIO
 107:Src/eth.c     ****     PA7     ------> ETH_CRS_DV
 108:Src/eth.c     ****     PC4     ------> ETH_RXD0
 109:Src/eth.c     ****     PC5     ------> ETH_RXD1
 110:Src/eth.c     ****     PG11     ------> ETH_TX_EN
 111:Src/eth.c     ****     PG13     ------> ETH_TXD0
 112:Src/eth.c     ****     PG14     ------> ETH_TXD1 
 113:Src/eth.c     ****     */
 114:Src/eth.c     ****     GPIO_InitStruct.Pin = GPIO_PIN_1|GPIO_PIN_4|GPIO_PIN_5;
 193              		.loc 1 114 0
 194 005a 3223     		movs	r3, #50
 195 005c 7B61     		str	r3, [r7, #20]
 115:Src/eth.c     ****     GPIO_InitStruct.Mode = GPIO_MODE_AF_PP;
 196              		.loc 1 115 0
 197 005e 0223     		movs	r3, #2
 198 0060 BB61     		str	r3, [r7, #24]
 116:Src/eth.c     ****     GPIO_InitStruct.Pull = GPIO_NOPULL;
 199              		.loc 1 116 0
 200 0062 0023     		movs	r3, #0
 201 0064 FB61     		str	r3, [r7, #28]
 117:Src/eth.c     ****     GPIO_InitStruct.Speed = GPIO_SPEED_FREQ_VERY_HIGH;
 202              		.loc 1 117 0
 203 0066 0323     		movs	r3, #3
 204 0068 3B62     		str	r3, [r7, #32]
 118:Src/eth.c     ****     GPIO_InitStruct.Alternate = GPIO_AF11_ETH;
 205              		.loc 1 118 0
 206 006a 0B23     		movs	r3, #11
 207 006c 7B62     		str	r3, [r7, #36]
 119:Src/eth.c     ****     HAL_GPIO_Init(GPIOC, &GPIO_InitStruct);
 208              		.loc 1 119 0
 209 006e 07F11403 		add	r3, r7, #20
 210 0072 1946     		mov	r1, r3
 211 0074 1548     		ldr	r0, .L9+8
 212 0076 FFF7FEFF 		bl	HAL_GPIO_Init
 120:Src/eth.c     **** 
 121:Src/eth.c     ****     GPIO_InitStruct.Pin = GPIO_PIN_1|GPIO_PIN_2|GPIO_PIN_7;
 213              		.loc 1 121 0
 214 007a 8623     		movs	r3, #134
 215 007c 7B61     		str	r3, [r7, #20]
 122:Src/eth.c     ****     GPIO_InitStruct.Mode = GPIO_MODE_AF_PP;
 216              		.loc 1 122 0
 217 007e 0223     		movs	r3, #2
 218 0080 BB61     		str	r3, [r7, #24]
 123:Src/eth.c     ****     GPIO_InitStruct.Pull = GPIO_NOPULL;
 219              		.loc 1 123 0
 220 0082 0023     		movs	r3, #0
ARM GAS  /tmp/ccCL7dHh.s 			page 7


 221 0084 FB61     		str	r3, [r7, #28]
 124:Src/eth.c     ****     GPIO_InitStruct.Speed = GPIO_SPEED_FREQ_VERY_HIGH;
 222              		.loc 1 124 0
 223 0086 0323     		movs	r3, #3
 224 0088 3B62     		str	r3, [r7, #32]
 125:Src/eth.c     ****     GPIO_InitStruct.Alternate = GPIO_AF11_ETH;
 225              		.loc 1 125 0
 226 008a 0B23     		movs	r3, #11
 227 008c 7B62     		str	r3, [r7, #36]
 126:Src/eth.c     ****     HAL_GPIO_Init(GPIOA, &GPIO_InitStruct);
 228              		.loc 1 126 0
 229 008e 07F11403 		add	r3, r7, #20
 230 0092 1946     		mov	r1, r3
 231 0094 0E48     		ldr	r0, .L9+12
 232 0096 FFF7FEFF 		bl	HAL_GPIO_Init
 127:Src/eth.c     **** 
 128:Src/eth.c     ****     GPIO_InitStruct.Pin = GPIO_PIN_11|GPIO_PIN_13|GPIO_PIN_14;
 233              		.loc 1 128 0
 234 009a 4FF4D043 		mov	r3, #26624
 235 009e 7B61     		str	r3, [r7, #20]
 129:Src/eth.c     ****     GPIO_InitStruct.Mode = GPIO_MODE_AF_PP;
 236              		.loc 1 129 0
 237 00a0 0223     		movs	r3, #2
 238 00a2 BB61     		str	r3, [r7, #24]
 130:Src/eth.c     ****     GPIO_InitStruct.Pull = GPIO_NOPULL;
 239              		.loc 1 130 0
 240 00a4 0023     		movs	r3, #0
 241 00a6 FB61     		str	r3, [r7, #28]
 131:Src/eth.c     ****     GPIO_InitStruct.Speed = GPIO_SPEED_FREQ_VERY_HIGH;
 242              		.loc 1 131 0
 243 00a8 0323     		movs	r3, #3
 244 00aa 3B62     		str	r3, [r7, #32]
 132:Src/eth.c     ****     GPIO_InitStruct.Alternate = GPIO_AF11_ETH;
 245              		.loc 1 132 0
 246 00ac 0B23     		movs	r3, #11
 247 00ae 7B62     		str	r3, [r7, #36]
 133:Src/eth.c     ****     HAL_GPIO_Init(GPIOG, &GPIO_InitStruct);
 248              		.loc 1 133 0
 249 00b0 07F11403 		add	r3, r7, #20
 250 00b4 1946     		mov	r1, r3
 251 00b6 0748     		ldr	r0, .L9+16
 252 00b8 FFF7FEFF 		bl	HAL_GPIO_Init
 253              	.L8:
 134:Src/eth.c     **** 
 135:Src/eth.c     ****   /* USER CODE BEGIN ETH_MspInit 1 */
 136:Src/eth.c     **** 
 137:Src/eth.c     ****   /* USER CODE END ETH_MspInit 1 */
 138:Src/eth.c     ****   }
 139:Src/eth.c     **** }
 254              		.loc 1 139 0
 255 00bc 00BF     		nop
 256 00be 2837     		adds	r7, r7, #40
 257              	.LCFI8:
 258              		.cfi_def_cfa_offset 8
 259 00c0 BD46     		mov	sp, r7
 260              	.LCFI9:
 261              		.cfi_def_cfa_register 13
ARM GAS  /tmp/ccCL7dHh.s 			page 8


 262              		@ sp needed
 263 00c2 80BD     		pop	{r7, pc}
 264              	.L10:
 265              		.align	2
 266              	.L9:
 267 00c4 00800240 		.word	1073905664
 268 00c8 00380240 		.word	1073887232
 269 00cc 00080240 		.word	1073874944
 270 00d0 00000240 		.word	1073872896
 271 00d4 00180240 		.word	1073879040
 272              		.cfi_endproc
 273              	.LFE139:
 275              		.section	.text.HAL_ETH_MspDeInit,"ax",%progbits
 276              		.align	1
 277              		.global	HAL_ETH_MspDeInit
 278              		.syntax unified
 279              		.thumb
 280              		.thumb_func
 281              		.fpu fpv4-sp-d16
 283              	HAL_ETH_MspDeInit:
 284              	.LFB140:
 140:Src/eth.c     **** 
 141:Src/eth.c     **** void HAL_ETH_MspDeInit(ETH_HandleTypeDef* ethHandle)
 142:Src/eth.c     **** {
 285              		.loc 1 142 0
 286              		.cfi_startproc
 287              		@ args = 0, pretend = 0, frame = 8
 288              		@ frame_needed = 1, uses_anonymous_args = 0
 289 0000 80B5     		push	{r7, lr}
 290              	.LCFI10:
 291              		.cfi_def_cfa_offset 8
 292              		.cfi_offset 7, -8
 293              		.cfi_offset 14, -4
 294 0002 82B0     		sub	sp, sp, #8
 295              	.LCFI11:
 296              		.cfi_def_cfa_offset 16
 297 0004 00AF     		add	r7, sp, #0
 298              	.LCFI12:
 299              		.cfi_def_cfa_register 7
 300 0006 7860     		str	r0, [r7, #4]
 143:Src/eth.c     **** 
 144:Src/eth.c     ****   if(ethHandle->Instance==ETH)
 301              		.loc 1 144 0
 302 0008 7B68     		ldr	r3, [r7, #4]
 303 000a 1B68     		ldr	r3, [r3]
 304 000c 124A     		ldr	r2, .L14
 305 000e 9342     		cmp	r3, r2
 306 0010 1ED1     		bne	.L13
 145:Src/eth.c     ****   {
 146:Src/eth.c     ****   /* USER CODE BEGIN ETH_MspDeInit 0 */
 147:Src/eth.c     **** 
 148:Src/eth.c     ****   /* USER CODE END ETH_MspDeInit 0 */
 149:Src/eth.c     ****     /* Peripheral clock disable */
 150:Src/eth.c     ****     __HAL_RCC_ETH_CLK_DISABLE();
 307              		.loc 1 150 0
 308 0012 124B     		ldr	r3, .L14+4
 309 0014 1B6B     		ldr	r3, [r3, #48]
ARM GAS  /tmp/ccCL7dHh.s 			page 9


 310 0016 114A     		ldr	r2, .L14+4
 311 0018 23F08063 		bic	r3, r3, #67108864
 312 001c 1363     		str	r3, [r2, #48]
 313 001e 0F4B     		ldr	r3, .L14+4
 314 0020 1B6B     		ldr	r3, [r3, #48]
 315 0022 0E4A     		ldr	r2, .L14+4
 316 0024 23F00063 		bic	r3, r3, #134217728
 317 0028 1363     		str	r3, [r2, #48]
 318 002a 0C4B     		ldr	r3, .L14+4
 319 002c 1B6B     		ldr	r3, [r3, #48]
 320 002e 0B4A     		ldr	r2, .L14+4
 321 0030 23F00073 		bic	r3, r3, #33554432
 322 0034 1363     		str	r3, [r2, #48]
 151:Src/eth.c     ****   
 152:Src/eth.c     ****     /**ETH GPIO Configuration    
 153:Src/eth.c     ****     PC1     ------> ETH_MDC
 154:Src/eth.c     ****     PA1     ------> ETH_REF_CLK
 155:Src/eth.c     ****     PA2     ------> ETH_MDIO
 156:Src/eth.c     ****     PA7     ------> ETH_CRS_DV
 157:Src/eth.c     ****     PC4     ------> ETH_RXD0
 158:Src/eth.c     ****     PC5     ------> ETH_RXD1
 159:Src/eth.c     ****     PG11     ------> ETH_TX_EN
 160:Src/eth.c     ****     PG13     ------> ETH_TXD0
 161:Src/eth.c     ****     PG14     ------> ETH_TXD1 
 162:Src/eth.c     ****     */
 163:Src/eth.c     ****     HAL_GPIO_DeInit(GPIOC, GPIO_PIN_1|GPIO_PIN_4|GPIO_PIN_5);
 323              		.loc 1 163 0
 324 0036 3221     		movs	r1, #50
 325 0038 0948     		ldr	r0, .L14+8
 326 003a FFF7FEFF 		bl	HAL_GPIO_DeInit
 164:Src/eth.c     **** 
 165:Src/eth.c     ****     HAL_GPIO_DeInit(GPIOA, GPIO_PIN_1|GPIO_PIN_2|GPIO_PIN_7);
 327              		.loc 1 165 0
 328 003e 8621     		movs	r1, #134
 329 0040 0848     		ldr	r0, .L14+12
 330 0042 FFF7FEFF 		bl	HAL_GPIO_DeInit
 166:Src/eth.c     **** 
 167:Src/eth.c     ****     HAL_GPIO_DeInit(GPIOG, GPIO_PIN_11|GPIO_PIN_13|GPIO_PIN_14);
 331              		.loc 1 167 0
 332 0046 4FF4D041 		mov	r1, #26624
 333 004a 0748     		ldr	r0, .L14+16
 334 004c FFF7FEFF 		bl	HAL_GPIO_DeInit
 335              	.L13:
 168:Src/eth.c     **** 
 169:Src/eth.c     ****   /* USER CODE BEGIN ETH_MspDeInit 1 */
 170:Src/eth.c     **** 
 171:Src/eth.c     ****   /* USER CODE END ETH_MspDeInit 1 */
 172:Src/eth.c     ****   }
 173:Src/eth.c     **** } 
 336              		.loc 1 173 0
 337 0050 00BF     		nop
 338 0052 0837     		adds	r7, r7, #8
 339              	.LCFI13:
 340              		.cfi_def_cfa_offset 8
 341 0054 BD46     		mov	sp, r7
 342              	.LCFI14:
 343              		.cfi_def_cfa_register 13
ARM GAS  /tmp/ccCL7dHh.s 			page 10


 344              		@ sp needed
 345 0056 80BD     		pop	{r7, pc}
 346              	.L15:
 347              		.align	2
 348              	.L14:
 349 0058 00800240 		.word	1073905664
 350 005c 00380240 		.word	1073887232
 351 0060 00080240 		.word	1073874944
 352 0064 00000240 		.word	1073872896
 353 0068 00180240 		.word	1073879040
 354              		.cfi_endproc
 355              	.LFE140:
 357              		.text
 358              	.Letext0:
 359              		.file 2 "/usr/lib/gcc/arm-none-eabi/7.3.1/include/stdint-gcc.h"
 360              		.file 3 "Drivers/CMSIS/Include/core_cm7.h"
 361              		.file 4 "Drivers/CMSIS/Device/ST/STM32F7xx/Include/system_stm32f7xx.h"
 362              		.file 5 "Drivers/CMSIS/Device/ST/STM32F7xx/Include/stm32f746xx.h"
 363              		.file 6 "/usr/include/newlib/sys/lock.h"
 364              		.file 7 "/usr/include/newlib/sys/_types.h"
 365              		.file 8 "/usr/lib/gcc/arm-none-eabi/7.3.1/include/stddef.h"
 366              		.file 9 "/usr/include/newlib/sys/reent.h"
 367              		.file 10 "Drivers/STM32F7xx_HAL_Driver/Inc/stm32f7xx_hal_def.h"
 368              		.file 11 "Drivers/STM32F7xx_HAL_Driver/Inc/stm32f7xx_hal_gpio.h"
 369              		.file 12 "Drivers/STM32F7xx_HAL_Driver/Inc/stm32f7xx_hal_eth.h"
 370              		.file 13 "Inc/eth.h"
ARM GAS  /tmp/ccCL7dHh.s 			page 11

