ARM GAS  /tmp/ccJiNVdi.s 			page 1


   1              		.cpu cortex-m7
   2              		.eabi_attribute 27, 1
   3              		.eabi_attribute 28, 1
   4              		.eabi_attribute 20, 1
   5              		.eabi_attribute 21, 1
   6              		.eabi_attribute 23, 3
   7              		.eabi_attribute 24, 1
   8              		.eabi_attribute 25, 1
   9              		.eabi_attribute 26, 1
  10              		.eabi_attribute 30, 6
  11              		.eabi_attribute 34, 1
  12              		.eabi_attribute 18, 4
  13              		.file	"stm32f7xx_hal_eth.c"
  14              		.text
  15              	.Ltext0:
  16              		.cfi_sections	.debug_frame
  17              		.section	.text.HAL_ETH_Init,"ax",%progbits
  18              		.align	1
  19              		.global	HAL_ETH_Init
  20              		.syntax unified
  21              		.thumb
  22              		.thumb_func
  23              		.fpu fpv4-sp-d16
  25              	HAL_ETH_Init:
  26              	.LFB136:
  27              		.file 1 "Drivers/STM32F7xx_HAL_Driver/Src/stm32f7xx_hal_eth.c"
   1:Drivers/STM32F7xx_HAL_Driver/Src/stm32f7xx_hal_eth.c **** /**
   2:Drivers/STM32F7xx_HAL_Driver/Src/stm32f7xx_hal_eth.c ****   ******************************************************************************
   3:Drivers/STM32F7xx_HAL_Driver/Src/stm32f7xx_hal_eth.c ****   * @file    stm32f7xx_hal_eth.c
   4:Drivers/STM32F7xx_HAL_Driver/Src/stm32f7xx_hal_eth.c ****   * @author  MCD Application Team
   5:Drivers/STM32F7xx_HAL_Driver/Src/stm32f7xx_hal_eth.c ****   * @brief   ETH HAL module driver.
   6:Drivers/STM32F7xx_HAL_Driver/Src/stm32f7xx_hal_eth.c ****   *          This file provides firmware functions to manage the following 
   7:Drivers/STM32F7xx_HAL_Driver/Src/stm32f7xx_hal_eth.c ****   *          functionalities of the Ethernet (ETH) peripheral:
   8:Drivers/STM32F7xx_HAL_Driver/Src/stm32f7xx_hal_eth.c ****   *           + Initialization and de-initialization functions
   9:Drivers/STM32F7xx_HAL_Driver/Src/stm32f7xx_hal_eth.c ****   *           + IO operation functions
  10:Drivers/STM32F7xx_HAL_Driver/Src/stm32f7xx_hal_eth.c ****   *           + Peripheral Control functions 
  11:Drivers/STM32F7xx_HAL_Driver/Src/stm32f7xx_hal_eth.c ****   *           + Peripheral State and Errors functions
  12:Drivers/STM32F7xx_HAL_Driver/Src/stm32f7xx_hal_eth.c ****   *
  13:Drivers/STM32F7xx_HAL_Driver/Src/stm32f7xx_hal_eth.c ****   @verbatim
  14:Drivers/STM32F7xx_HAL_Driver/Src/stm32f7xx_hal_eth.c ****   ==============================================================================
  15:Drivers/STM32F7xx_HAL_Driver/Src/stm32f7xx_hal_eth.c ****                     ##### How to use this driver #####
  16:Drivers/STM32F7xx_HAL_Driver/Src/stm32f7xx_hal_eth.c ****   ==============================================================================
  17:Drivers/STM32F7xx_HAL_Driver/Src/stm32f7xx_hal_eth.c ****     [..]
  18:Drivers/STM32F7xx_HAL_Driver/Src/stm32f7xx_hal_eth.c ****       (#)Declare a ETH_HandleTypeDef handle structure, for example:
  19:Drivers/STM32F7xx_HAL_Driver/Src/stm32f7xx_hal_eth.c ****          ETH_HandleTypeDef  heth;
  20:Drivers/STM32F7xx_HAL_Driver/Src/stm32f7xx_hal_eth.c ****         
  21:Drivers/STM32F7xx_HAL_Driver/Src/stm32f7xx_hal_eth.c ****       (#)Fill parameters of Init structure in heth handle
  22:Drivers/STM32F7xx_HAL_Driver/Src/stm32f7xx_hal_eth.c ****   
  23:Drivers/STM32F7xx_HAL_Driver/Src/stm32f7xx_hal_eth.c ****       (#)Call HAL_ETH_Init() API to initialize the Ethernet peripheral (MAC, DMA, ...) 
  24:Drivers/STM32F7xx_HAL_Driver/Src/stm32f7xx_hal_eth.c **** 
  25:Drivers/STM32F7xx_HAL_Driver/Src/stm32f7xx_hal_eth.c ****       (#)Initialize the ETH low level resources through the HAL_ETH_MspInit() API:
  26:Drivers/STM32F7xx_HAL_Driver/Src/stm32f7xx_hal_eth.c ****           (##) Enable the Ethernet interface clock using 
  27:Drivers/STM32F7xx_HAL_Driver/Src/stm32f7xx_hal_eth.c ****                (+++) __HAL_RCC_ETHMAC_CLK_ENABLE();
  28:Drivers/STM32F7xx_HAL_Driver/Src/stm32f7xx_hal_eth.c ****                (+++) __HAL_RCC_ETHMACTX_CLK_ENABLE();
  29:Drivers/STM32F7xx_HAL_Driver/Src/stm32f7xx_hal_eth.c ****                (+++) __HAL_RCC_ETHMACRX_CLK_ENABLE();
  30:Drivers/STM32F7xx_HAL_Driver/Src/stm32f7xx_hal_eth.c ****            
  31:Drivers/STM32F7xx_HAL_Driver/Src/stm32f7xx_hal_eth.c ****           (##) Initialize the related GPIO clocks
ARM GAS  /tmp/ccJiNVdi.s 			page 2


  32:Drivers/STM32F7xx_HAL_Driver/Src/stm32f7xx_hal_eth.c ****           (##) Configure Ethernet pin-out
  33:Drivers/STM32F7xx_HAL_Driver/Src/stm32f7xx_hal_eth.c ****           (##) Configure Ethernet NVIC interrupt (IT mode)   
  34:Drivers/STM32F7xx_HAL_Driver/Src/stm32f7xx_hal_eth.c ****     
  35:Drivers/STM32F7xx_HAL_Driver/Src/stm32f7xx_hal_eth.c ****       (#)Initialize Ethernet DMA Descriptors in chain mode and point to allocated buffers:
  36:Drivers/STM32F7xx_HAL_Driver/Src/stm32f7xx_hal_eth.c ****           (##) HAL_ETH_DMATxDescListInit(); for Transmission process
  37:Drivers/STM32F7xx_HAL_Driver/Src/stm32f7xx_hal_eth.c ****           (##) HAL_ETH_DMARxDescListInit(); for Reception process
  38:Drivers/STM32F7xx_HAL_Driver/Src/stm32f7xx_hal_eth.c **** 
  39:Drivers/STM32F7xx_HAL_Driver/Src/stm32f7xx_hal_eth.c ****       (#)Enable MAC and DMA transmission and reception:
  40:Drivers/STM32F7xx_HAL_Driver/Src/stm32f7xx_hal_eth.c ****           (##) HAL_ETH_Start();
  41:Drivers/STM32F7xx_HAL_Driver/Src/stm32f7xx_hal_eth.c **** 
  42:Drivers/STM32F7xx_HAL_Driver/Src/stm32f7xx_hal_eth.c ****       (#)Prepare ETH DMA TX Descriptors and give the hand to ETH DMA to transfer 
  43:Drivers/STM32F7xx_HAL_Driver/Src/stm32f7xx_hal_eth.c ****          the frame to MAC TX FIFO:
  44:Drivers/STM32F7xx_HAL_Driver/Src/stm32f7xx_hal_eth.c ****          (##) HAL_ETH_TransmitFrame();
  45:Drivers/STM32F7xx_HAL_Driver/Src/stm32f7xx_hal_eth.c **** 
  46:Drivers/STM32F7xx_HAL_Driver/Src/stm32f7xx_hal_eth.c ****       (#)Poll for a received frame in ETH RX DMA Descriptors and get received 
  47:Drivers/STM32F7xx_HAL_Driver/Src/stm32f7xx_hal_eth.c ****          frame parameters
  48:Drivers/STM32F7xx_HAL_Driver/Src/stm32f7xx_hal_eth.c ****          (##) HAL_ETH_GetReceivedFrame(); (should be called into an infinite loop)
  49:Drivers/STM32F7xx_HAL_Driver/Src/stm32f7xx_hal_eth.c **** 
  50:Drivers/STM32F7xx_HAL_Driver/Src/stm32f7xx_hal_eth.c ****       (#) Get a received frame when an ETH RX interrupt occurs:
  51:Drivers/STM32F7xx_HAL_Driver/Src/stm32f7xx_hal_eth.c ****          (##) HAL_ETH_GetReceivedFrame_IT(); (called in IT mode only)
  52:Drivers/STM32F7xx_HAL_Driver/Src/stm32f7xx_hal_eth.c **** 
  53:Drivers/STM32F7xx_HAL_Driver/Src/stm32f7xx_hal_eth.c ****       (#) Communicate with external PHY device:
  54:Drivers/STM32F7xx_HAL_Driver/Src/stm32f7xx_hal_eth.c ****          (##) Read a specific register from the PHY  
  55:Drivers/STM32F7xx_HAL_Driver/Src/stm32f7xx_hal_eth.c ****               HAL_ETH_ReadPHYRegister();
  56:Drivers/STM32F7xx_HAL_Driver/Src/stm32f7xx_hal_eth.c ****          (##) Write data to a specific RHY register:
  57:Drivers/STM32F7xx_HAL_Driver/Src/stm32f7xx_hal_eth.c ****               HAL_ETH_WritePHYRegister();
  58:Drivers/STM32F7xx_HAL_Driver/Src/stm32f7xx_hal_eth.c **** 
  59:Drivers/STM32F7xx_HAL_Driver/Src/stm32f7xx_hal_eth.c ****       (#) Configure the Ethernet MAC after ETH peripheral initialization
  60:Drivers/STM32F7xx_HAL_Driver/Src/stm32f7xx_hal_eth.c ****           HAL_ETH_ConfigMAC(); all MAC parameters should be filled.
  61:Drivers/STM32F7xx_HAL_Driver/Src/stm32f7xx_hal_eth.c ****       
  62:Drivers/STM32F7xx_HAL_Driver/Src/stm32f7xx_hal_eth.c ****       (#) Configure the Ethernet DMA after ETH peripheral initialization
  63:Drivers/STM32F7xx_HAL_Driver/Src/stm32f7xx_hal_eth.c ****           HAL_ETH_ConfigDMA(); all DMA parameters should be filled.
  64:Drivers/STM32F7xx_HAL_Driver/Src/stm32f7xx_hal_eth.c **** 
  65:Drivers/STM32F7xx_HAL_Driver/Src/stm32f7xx_hal_eth.c ****   @endverbatim
  66:Drivers/STM32F7xx_HAL_Driver/Src/stm32f7xx_hal_eth.c ****   ******************************************************************************
  67:Drivers/STM32F7xx_HAL_Driver/Src/stm32f7xx_hal_eth.c ****   * @attention
  68:Drivers/STM32F7xx_HAL_Driver/Src/stm32f7xx_hal_eth.c ****   *
  69:Drivers/STM32F7xx_HAL_Driver/Src/stm32f7xx_hal_eth.c ****   * <h2><center>&copy; COPYRIGHT(c) 2017 STMicroelectronics</center></h2>
  70:Drivers/STM32F7xx_HAL_Driver/Src/stm32f7xx_hal_eth.c ****   *
  71:Drivers/STM32F7xx_HAL_Driver/Src/stm32f7xx_hal_eth.c ****   * Redistribution and use in source and binary forms, with or without modification,
  72:Drivers/STM32F7xx_HAL_Driver/Src/stm32f7xx_hal_eth.c ****   * are permitted provided that the following conditions are met:
  73:Drivers/STM32F7xx_HAL_Driver/Src/stm32f7xx_hal_eth.c ****   *   1. Redistributions of source code must retain the above copyright notice,
  74:Drivers/STM32F7xx_HAL_Driver/Src/stm32f7xx_hal_eth.c ****   *      this list of conditions and the following disclaimer.
  75:Drivers/STM32F7xx_HAL_Driver/Src/stm32f7xx_hal_eth.c ****   *   2. Redistributions in binary form must reproduce the above copyright notice,
  76:Drivers/STM32F7xx_HAL_Driver/Src/stm32f7xx_hal_eth.c ****   *      this list of conditions and the following disclaimer in the documentation
  77:Drivers/STM32F7xx_HAL_Driver/Src/stm32f7xx_hal_eth.c ****   *      and/or other materials provided with the distribution.
  78:Drivers/STM32F7xx_HAL_Driver/Src/stm32f7xx_hal_eth.c ****   *   3. Neither the name of STMicroelectronics nor the names of its contributors
  79:Drivers/STM32F7xx_HAL_Driver/Src/stm32f7xx_hal_eth.c ****   *      may be used to endorse or promote products derived from this software
  80:Drivers/STM32F7xx_HAL_Driver/Src/stm32f7xx_hal_eth.c ****   *      without specific prior written permission.
  81:Drivers/STM32F7xx_HAL_Driver/Src/stm32f7xx_hal_eth.c ****   *
  82:Drivers/STM32F7xx_HAL_Driver/Src/stm32f7xx_hal_eth.c ****   * THIS SOFTWARE IS PROVIDED BY THE COPYRIGHT HOLDERS AND CONTRIBUTORS "AS IS"
  83:Drivers/STM32F7xx_HAL_Driver/Src/stm32f7xx_hal_eth.c ****   * AND ANY EXPRESS OR IMPLIED WARRANTIES, INCLUDING, BUT NOT LIMITED TO, THE
  84:Drivers/STM32F7xx_HAL_Driver/Src/stm32f7xx_hal_eth.c ****   * IMPLIED WARRANTIES OF MERCHANTABILITY AND FITNESS FOR A PARTICULAR PURPOSE ARE
  85:Drivers/STM32F7xx_HAL_Driver/Src/stm32f7xx_hal_eth.c ****   * DISCLAIMED. IN NO EVENT SHALL THE COPYRIGHT HOLDER OR CONTRIBUTORS BE LIABLE
  86:Drivers/STM32F7xx_HAL_Driver/Src/stm32f7xx_hal_eth.c ****   * FOR ANY DIRECT, INDIRECT, INCIDENTAL, SPECIAL, EXEMPLARY, OR CONSEQUENTIAL
  87:Drivers/STM32F7xx_HAL_Driver/Src/stm32f7xx_hal_eth.c ****   * DAMAGES (INCLUDING, BUT NOT LIMITED TO, PROCUREMENT OF SUBSTITUTE GOODS OR
  88:Drivers/STM32F7xx_HAL_Driver/Src/stm32f7xx_hal_eth.c ****   * SERVICES; LOSS OF USE, DATA, OR PROFITS; OR BUSINESS INTERRUPTION) HOWEVER
ARM GAS  /tmp/ccJiNVdi.s 			page 3


  89:Drivers/STM32F7xx_HAL_Driver/Src/stm32f7xx_hal_eth.c ****   * CAUSED AND ON ANY THEORY OF LIABILITY, WHETHER IN CONTRACT, STRICT LIABILITY,
  90:Drivers/STM32F7xx_HAL_Driver/Src/stm32f7xx_hal_eth.c ****   * OR TORT (INCLUDING NEGLIGENCE OR OTHERWISE) ARISING IN ANY WAY OUT OF THE USE
  91:Drivers/STM32F7xx_HAL_Driver/Src/stm32f7xx_hal_eth.c ****   * OF THIS SOFTWARE, EVEN IF ADVISED OF THE POSSIBILITY OF SUCH DAMAGE.
  92:Drivers/STM32F7xx_HAL_Driver/Src/stm32f7xx_hal_eth.c ****   *
  93:Drivers/STM32F7xx_HAL_Driver/Src/stm32f7xx_hal_eth.c ****   ******************************************************************************
  94:Drivers/STM32F7xx_HAL_Driver/Src/stm32f7xx_hal_eth.c ****   */ 
  95:Drivers/STM32F7xx_HAL_Driver/Src/stm32f7xx_hal_eth.c **** 
  96:Drivers/STM32F7xx_HAL_Driver/Src/stm32f7xx_hal_eth.c **** /* Includes ------------------------------------------------------------------*/
  97:Drivers/STM32F7xx_HAL_Driver/Src/stm32f7xx_hal_eth.c **** #include "stm32f7xx_hal.h"
  98:Drivers/STM32F7xx_HAL_Driver/Src/stm32f7xx_hal_eth.c **** 
  99:Drivers/STM32F7xx_HAL_Driver/Src/stm32f7xx_hal_eth.c **** /** @addtogroup STM32F7xx_HAL_Driver
 100:Drivers/STM32F7xx_HAL_Driver/Src/stm32f7xx_hal_eth.c ****   * @{
 101:Drivers/STM32F7xx_HAL_Driver/Src/stm32f7xx_hal_eth.c ****   */
 102:Drivers/STM32F7xx_HAL_Driver/Src/stm32f7xx_hal_eth.c **** 
 103:Drivers/STM32F7xx_HAL_Driver/Src/stm32f7xx_hal_eth.c **** /** @defgroup ETH ETH 
 104:Drivers/STM32F7xx_HAL_Driver/Src/stm32f7xx_hal_eth.c ****   * @brief ETH HAL module driver
 105:Drivers/STM32F7xx_HAL_Driver/Src/stm32f7xx_hal_eth.c ****   * @{
 106:Drivers/STM32F7xx_HAL_Driver/Src/stm32f7xx_hal_eth.c ****   */
 107:Drivers/STM32F7xx_HAL_Driver/Src/stm32f7xx_hal_eth.c **** 
 108:Drivers/STM32F7xx_HAL_Driver/Src/stm32f7xx_hal_eth.c **** #ifdef HAL_ETH_MODULE_ENABLED
 109:Drivers/STM32F7xx_HAL_Driver/Src/stm32f7xx_hal_eth.c **** #if defined (ETH)
 110:Drivers/STM32F7xx_HAL_Driver/Src/stm32f7xx_hal_eth.c **** 
 111:Drivers/STM32F7xx_HAL_Driver/Src/stm32f7xx_hal_eth.c **** /* Private typedef -----------------------------------------------------------*/
 112:Drivers/STM32F7xx_HAL_Driver/Src/stm32f7xx_hal_eth.c **** /* Private define ------------------------------------------------------------*/
 113:Drivers/STM32F7xx_HAL_Driver/Src/stm32f7xx_hal_eth.c **** /** @defgroup ETH_Private_Constants ETH Private Constants
 114:Drivers/STM32F7xx_HAL_Driver/Src/stm32f7xx_hal_eth.c ****   * @{
 115:Drivers/STM32F7xx_HAL_Driver/Src/stm32f7xx_hal_eth.c ****   */
 116:Drivers/STM32F7xx_HAL_Driver/Src/stm32f7xx_hal_eth.c **** #define ETH_TIMEOUT_SWRESET                 ((uint32_t)500)  
 117:Drivers/STM32F7xx_HAL_Driver/Src/stm32f7xx_hal_eth.c **** #define ETH_TIMEOUT_LINKED_STATE          ((uint32_t)5000)  
 118:Drivers/STM32F7xx_HAL_Driver/Src/stm32f7xx_hal_eth.c **** #define ETH_TIMEOUT_AUTONEGO_COMPLETED    ((uint32_t)5000) 
 119:Drivers/STM32F7xx_HAL_Driver/Src/stm32f7xx_hal_eth.c **** 
 120:Drivers/STM32F7xx_HAL_Driver/Src/stm32f7xx_hal_eth.c **** /**
 121:Drivers/STM32F7xx_HAL_Driver/Src/stm32f7xx_hal_eth.c ****   * @}
 122:Drivers/STM32F7xx_HAL_Driver/Src/stm32f7xx_hal_eth.c ****   */
 123:Drivers/STM32F7xx_HAL_Driver/Src/stm32f7xx_hal_eth.c **** /* Private macro -------------------------------------------------------------*/
 124:Drivers/STM32F7xx_HAL_Driver/Src/stm32f7xx_hal_eth.c **** /* Private variables ---------------------------------------------------------*/
 125:Drivers/STM32F7xx_HAL_Driver/Src/stm32f7xx_hal_eth.c **** /* Private function prototypes -----------------------------------------------*/
 126:Drivers/STM32F7xx_HAL_Driver/Src/stm32f7xx_hal_eth.c **** /** @defgroup ETH_Private_Functions ETH Private Functions
 127:Drivers/STM32F7xx_HAL_Driver/Src/stm32f7xx_hal_eth.c ****   * @{
 128:Drivers/STM32F7xx_HAL_Driver/Src/stm32f7xx_hal_eth.c ****   */
 129:Drivers/STM32F7xx_HAL_Driver/Src/stm32f7xx_hal_eth.c **** static void ETH_MACDMAConfig(ETH_HandleTypeDef *heth, uint32_t err);
 130:Drivers/STM32F7xx_HAL_Driver/Src/stm32f7xx_hal_eth.c **** static void ETH_MACAddressConfig(ETH_HandleTypeDef *heth, uint32_t MacAddr, uint8_t *Addr);
 131:Drivers/STM32F7xx_HAL_Driver/Src/stm32f7xx_hal_eth.c **** static void ETH_MACReceptionEnable(ETH_HandleTypeDef *heth);
 132:Drivers/STM32F7xx_HAL_Driver/Src/stm32f7xx_hal_eth.c **** static void ETH_MACReceptionDisable(ETH_HandleTypeDef *heth);
 133:Drivers/STM32F7xx_HAL_Driver/Src/stm32f7xx_hal_eth.c **** static void ETH_MACTransmissionEnable(ETH_HandleTypeDef *heth);
 134:Drivers/STM32F7xx_HAL_Driver/Src/stm32f7xx_hal_eth.c **** static void ETH_MACTransmissionDisable(ETH_HandleTypeDef *heth);
 135:Drivers/STM32F7xx_HAL_Driver/Src/stm32f7xx_hal_eth.c **** static void ETH_DMATransmissionEnable(ETH_HandleTypeDef *heth);
 136:Drivers/STM32F7xx_HAL_Driver/Src/stm32f7xx_hal_eth.c **** static void ETH_DMATransmissionDisable(ETH_HandleTypeDef *heth);
 137:Drivers/STM32F7xx_HAL_Driver/Src/stm32f7xx_hal_eth.c **** static void ETH_DMAReceptionEnable(ETH_HandleTypeDef *heth);
 138:Drivers/STM32F7xx_HAL_Driver/Src/stm32f7xx_hal_eth.c **** static void ETH_DMAReceptionDisable(ETH_HandleTypeDef *heth);
 139:Drivers/STM32F7xx_HAL_Driver/Src/stm32f7xx_hal_eth.c **** static void ETH_FlushTransmitFIFO(ETH_HandleTypeDef *heth);
 140:Drivers/STM32F7xx_HAL_Driver/Src/stm32f7xx_hal_eth.c **** 
 141:Drivers/STM32F7xx_HAL_Driver/Src/stm32f7xx_hal_eth.c **** /**
 142:Drivers/STM32F7xx_HAL_Driver/Src/stm32f7xx_hal_eth.c ****   * @}
 143:Drivers/STM32F7xx_HAL_Driver/Src/stm32f7xx_hal_eth.c ****   */
 144:Drivers/STM32F7xx_HAL_Driver/Src/stm32f7xx_hal_eth.c **** /* Private functions ---------------------------------------------------------*/
 145:Drivers/STM32F7xx_HAL_Driver/Src/stm32f7xx_hal_eth.c **** 
ARM GAS  /tmp/ccJiNVdi.s 			page 4


 146:Drivers/STM32F7xx_HAL_Driver/Src/stm32f7xx_hal_eth.c **** /** @defgroup ETH_Exported_Functions ETH Exported Functions
 147:Drivers/STM32F7xx_HAL_Driver/Src/stm32f7xx_hal_eth.c ****   * @{
 148:Drivers/STM32F7xx_HAL_Driver/Src/stm32f7xx_hal_eth.c ****   */
 149:Drivers/STM32F7xx_HAL_Driver/Src/stm32f7xx_hal_eth.c **** 
 150:Drivers/STM32F7xx_HAL_Driver/Src/stm32f7xx_hal_eth.c **** /** @defgroup ETH_Exported_Functions_Group1 Initialization and de-initialization functions 
 151:Drivers/STM32F7xx_HAL_Driver/Src/stm32f7xx_hal_eth.c ****   *  @brief   Initialization and Configuration functions 
 152:Drivers/STM32F7xx_HAL_Driver/Src/stm32f7xx_hal_eth.c ****   *
 153:Drivers/STM32F7xx_HAL_Driver/Src/stm32f7xx_hal_eth.c ****   @verbatim    
 154:Drivers/STM32F7xx_HAL_Driver/Src/stm32f7xx_hal_eth.c ****   ===============================================================================
 155:Drivers/STM32F7xx_HAL_Driver/Src/stm32f7xx_hal_eth.c ****             ##### Initialization and de-initialization functions #####
 156:Drivers/STM32F7xx_HAL_Driver/Src/stm32f7xx_hal_eth.c ****   ===============================================================================
 157:Drivers/STM32F7xx_HAL_Driver/Src/stm32f7xx_hal_eth.c ****   [..]  This section provides functions allowing to:
 158:Drivers/STM32F7xx_HAL_Driver/Src/stm32f7xx_hal_eth.c ****       (+) Initialize and configure the Ethernet peripheral
 159:Drivers/STM32F7xx_HAL_Driver/Src/stm32f7xx_hal_eth.c ****       (+) De-initialize the Ethernet peripheral
 160:Drivers/STM32F7xx_HAL_Driver/Src/stm32f7xx_hal_eth.c **** 
 161:Drivers/STM32F7xx_HAL_Driver/Src/stm32f7xx_hal_eth.c ****   @endverbatim
 162:Drivers/STM32F7xx_HAL_Driver/Src/stm32f7xx_hal_eth.c ****   * @{
 163:Drivers/STM32F7xx_HAL_Driver/Src/stm32f7xx_hal_eth.c ****   */
 164:Drivers/STM32F7xx_HAL_Driver/Src/stm32f7xx_hal_eth.c **** 
 165:Drivers/STM32F7xx_HAL_Driver/Src/stm32f7xx_hal_eth.c **** /**
 166:Drivers/STM32F7xx_HAL_Driver/Src/stm32f7xx_hal_eth.c ****   * @brief  Initializes the Ethernet MAC and DMA according to default
 167:Drivers/STM32F7xx_HAL_Driver/Src/stm32f7xx_hal_eth.c ****   *         parameters.
 168:Drivers/STM32F7xx_HAL_Driver/Src/stm32f7xx_hal_eth.c ****   * @param  heth pointer to a ETH_HandleTypeDef structure that contains
 169:Drivers/STM32F7xx_HAL_Driver/Src/stm32f7xx_hal_eth.c ****   *         the configuration information for ETHERNET module
 170:Drivers/STM32F7xx_HAL_Driver/Src/stm32f7xx_hal_eth.c ****   * @retval HAL status
 171:Drivers/STM32F7xx_HAL_Driver/Src/stm32f7xx_hal_eth.c ****   */
 172:Drivers/STM32F7xx_HAL_Driver/Src/stm32f7xx_hal_eth.c **** HAL_StatusTypeDef HAL_ETH_Init(ETH_HandleTypeDef *heth)
 173:Drivers/STM32F7xx_HAL_Driver/Src/stm32f7xx_hal_eth.c **** {
  28              		.loc 1 173 0
  29              		.cfi_startproc
  30              		@ args = 0, pretend = 0, frame = 32
  31              		@ frame_needed = 1, uses_anonymous_args = 0
  32 0000 80B5     		push	{r7, lr}
  33              	.LCFI0:
  34              		.cfi_def_cfa_offset 8
  35              		.cfi_offset 7, -8
  36              		.cfi_offset 14, -4
  37 0002 88B0     		sub	sp, sp, #32
  38              	.LCFI1:
  39              		.cfi_def_cfa_offset 40
  40 0004 00AF     		add	r7, sp, #0
  41              	.LCFI2:
  42              		.cfi_def_cfa_register 7
  43 0006 7860     		str	r0, [r7, #4]
 174:Drivers/STM32F7xx_HAL_Driver/Src/stm32f7xx_hal_eth.c ****   uint32_t tempreg = 0, phyreg = 0;
  44              		.loc 1 174 0
  45 0008 0023     		movs	r3, #0
  46 000a FB61     		str	r3, [r7, #28]
  47 000c 0023     		movs	r3, #0
  48 000e FB60     		str	r3, [r7, #12]
 175:Drivers/STM32F7xx_HAL_Driver/Src/stm32f7xx_hal_eth.c ****   uint32_t hclk = 60000000;
  49              		.loc 1 175 0
  50 0010 A94B     		ldr	r3, .L28
  51 0012 BB61     		str	r3, [r7, #24]
 176:Drivers/STM32F7xx_HAL_Driver/Src/stm32f7xx_hal_eth.c ****   uint32_t tickstart = 0;
  52              		.loc 1 176 0
  53 0014 0023     		movs	r3, #0
ARM GAS  /tmp/ccJiNVdi.s 			page 5


  54 0016 7B61     		str	r3, [r7, #20]
 177:Drivers/STM32F7xx_HAL_Driver/Src/stm32f7xx_hal_eth.c ****   uint32_t err = ETH_SUCCESS;
  55              		.loc 1 177 0
  56 0018 0023     		movs	r3, #0
  57 001a 3B61     		str	r3, [r7, #16]
 178:Drivers/STM32F7xx_HAL_Driver/Src/stm32f7xx_hal_eth.c ****   
 179:Drivers/STM32F7xx_HAL_Driver/Src/stm32f7xx_hal_eth.c ****   /* Check the ETH peripheral state */
 180:Drivers/STM32F7xx_HAL_Driver/Src/stm32f7xx_hal_eth.c ****   if(heth == NULL)
  58              		.loc 1 180 0
  59 001c 7B68     		ldr	r3, [r7, #4]
  60 001e 002B     		cmp	r3, #0
  61 0020 01D1     		bne	.L2
 181:Drivers/STM32F7xx_HAL_Driver/Src/stm32f7xx_hal_eth.c ****   {
 182:Drivers/STM32F7xx_HAL_Driver/Src/stm32f7xx_hal_eth.c ****     return HAL_ERROR;
  62              		.loc 1 182 0
  63 0022 0123     		movs	r3, #1
  64 0024 83E1     		b	.L26
  65              	.L2:
 183:Drivers/STM32F7xx_HAL_Driver/Src/stm32f7xx_hal_eth.c ****   }
 184:Drivers/STM32F7xx_HAL_Driver/Src/stm32f7xx_hal_eth.c ****   
 185:Drivers/STM32F7xx_HAL_Driver/Src/stm32f7xx_hal_eth.c ****   /* Check parameters */
 186:Drivers/STM32F7xx_HAL_Driver/Src/stm32f7xx_hal_eth.c ****   assert_param(IS_ETH_AUTONEGOTIATION(heth->Init.AutoNegotiation));
 187:Drivers/STM32F7xx_HAL_Driver/Src/stm32f7xx_hal_eth.c ****   assert_param(IS_ETH_RX_MODE(heth->Init.RxMode));
 188:Drivers/STM32F7xx_HAL_Driver/Src/stm32f7xx_hal_eth.c ****   assert_param(IS_ETH_CHECKSUM_MODE(heth->Init.ChecksumMode));
 189:Drivers/STM32F7xx_HAL_Driver/Src/stm32f7xx_hal_eth.c ****   assert_param(IS_ETH_MEDIA_INTERFACE(heth->Init.MediaInterface));  
 190:Drivers/STM32F7xx_HAL_Driver/Src/stm32f7xx_hal_eth.c ****   
 191:Drivers/STM32F7xx_HAL_Driver/Src/stm32f7xx_hal_eth.c ****   if(heth->State == HAL_ETH_STATE_RESET)
  66              		.loc 1 191 0
  67 0026 7B68     		ldr	r3, [r7, #4]
  68 0028 93F84430 		ldrb	r3, [r3, #68]
  69 002c DBB2     		uxtb	r3, r3
  70 002e 002B     		cmp	r3, #0
  71 0030 06D1     		bne	.L4
 192:Drivers/STM32F7xx_HAL_Driver/Src/stm32f7xx_hal_eth.c ****   {
 193:Drivers/STM32F7xx_HAL_Driver/Src/stm32f7xx_hal_eth.c ****     /* Allocate lock resource and initialize it */
 194:Drivers/STM32F7xx_HAL_Driver/Src/stm32f7xx_hal_eth.c ****     heth->Lock = HAL_UNLOCKED;
  72              		.loc 1 194 0
  73 0032 7B68     		ldr	r3, [r7, #4]
  74 0034 0022     		movs	r2, #0
  75 0036 83F84520 		strb	r2, [r3, #69]
 195:Drivers/STM32F7xx_HAL_Driver/Src/stm32f7xx_hal_eth.c ****     /* Init the low level hardware : GPIO, CLOCK, NVIC. */
 196:Drivers/STM32F7xx_HAL_Driver/Src/stm32f7xx_hal_eth.c ****     HAL_ETH_MspInit(heth);
  76              		.loc 1 196 0
  77 003a 7868     		ldr	r0, [r7, #4]
  78 003c FFF7FEFF 		bl	HAL_ETH_MspInit
  79              	.L4:
  80              	.LBB2:
 197:Drivers/STM32F7xx_HAL_Driver/Src/stm32f7xx_hal_eth.c ****   }
 198:Drivers/STM32F7xx_HAL_Driver/Src/stm32f7xx_hal_eth.c ****   
 199:Drivers/STM32F7xx_HAL_Driver/Src/stm32f7xx_hal_eth.c ****   /* Enable SYSCFG Clock */
 200:Drivers/STM32F7xx_HAL_Driver/Src/stm32f7xx_hal_eth.c ****   __HAL_RCC_SYSCFG_CLK_ENABLE();
  81              		.loc 1 200 0
  82 0040 9E4A     		ldr	r2, .L28+4
  83 0042 9E4B     		ldr	r3, .L28+4
  84 0044 5B6C     		ldr	r3, [r3, #68]
  85 0046 43F48043 		orr	r3, r3, #16384
  86 004a 5364     		str	r3, [r2, #68]
ARM GAS  /tmp/ccJiNVdi.s 			page 6


  87 004c 9B4B     		ldr	r3, .L28+4
  88 004e 5B6C     		ldr	r3, [r3, #68]
  89 0050 03F48043 		and	r3, r3, #16384
  90 0054 BB60     		str	r3, [r7, #8]
  91 0056 BB68     		ldr	r3, [r7, #8]
  92              	.LBE2:
 201:Drivers/STM32F7xx_HAL_Driver/Src/stm32f7xx_hal_eth.c ****   
 202:Drivers/STM32F7xx_HAL_Driver/Src/stm32f7xx_hal_eth.c ****   /* Select MII or RMII Mode*/
 203:Drivers/STM32F7xx_HAL_Driver/Src/stm32f7xx_hal_eth.c ****   SYSCFG->PMC &= ~(SYSCFG_PMC_MII_RMII_SEL);
  93              		.loc 1 203 0
  94 0058 994A     		ldr	r2, .L28+8
  95 005a 994B     		ldr	r3, .L28+8
  96 005c 5B68     		ldr	r3, [r3, #4]
  97 005e 23F40003 		bic	r3, r3, #8388608
  98 0062 5360     		str	r3, [r2, #4]
 204:Drivers/STM32F7xx_HAL_Driver/Src/stm32f7xx_hal_eth.c ****   SYSCFG->PMC |= (uint32_t)heth->Init.MediaInterface;
  99              		.loc 1 204 0
 100 0064 9649     		ldr	r1, .L28+8
 101 0066 964B     		ldr	r3, .L28+8
 102 0068 5A68     		ldr	r2, [r3, #4]
 103 006a 7B68     		ldr	r3, [r7, #4]
 104 006c 1B6A     		ldr	r3, [r3, #32]
 105 006e 1343     		orrs	r3, r3, r2
 106 0070 4B60     		str	r3, [r1, #4]
 205:Drivers/STM32F7xx_HAL_Driver/Src/stm32f7xx_hal_eth.c ****   
 206:Drivers/STM32F7xx_HAL_Driver/Src/stm32f7xx_hal_eth.c ****   /* Ethernet Software reset */
 207:Drivers/STM32F7xx_HAL_Driver/Src/stm32f7xx_hal_eth.c ****   /* Set the SWR bit: resets all MAC subsystem internal registers and logic */
 208:Drivers/STM32F7xx_HAL_Driver/Src/stm32f7xx_hal_eth.c ****   /* After reset all the registers holds their respective reset values */
 209:Drivers/STM32F7xx_HAL_Driver/Src/stm32f7xx_hal_eth.c ****   (heth->Instance)->DMABMR |= ETH_DMABMR_SR;
 107              		.loc 1 209 0
 108 0072 7B68     		ldr	r3, [r7, #4]
 109 0074 1B68     		ldr	r3, [r3]
 110 0076 7A68     		ldr	r2, [r7, #4]
 111 0078 1268     		ldr	r2, [r2]
 112 007a 02F58052 		add	r2, r2, #4096
 113 007e 1268     		ldr	r2, [r2]
 114 0080 42F00102 		orr	r2, r2, #1
 115 0084 03F58053 		add	r3, r3, #4096
 116 0088 1A60     		str	r2, [r3]
 210:Drivers/STM32F7xx_HAL_Driver/Src/stm32f7xx_hal_eth.c ****   
 211:Drivers/STM32F7xx_HAL_Driver/Src/stm32f7xx_hal_eth.c ****   /* Get tick */
 212:Drivers/STM32F7xx_HAL_Driver/Src/stm32f7xx_hal_eth.c ****   tickstart = HAL_GetTick();
 117              		.loc 1 212 0
 118 008a FFF7FEFF 		bl	HAL_GetTick
 119 008e 7861     		str	r0, [r7, #20]
 213:Drivers/STM32F7xx_HAL_Driver/Src/stm32f7xx_hal_eth.c ****   
 214:Drivers/STM32F7xx_HAL_Driver/Src/stm32f7xx_hal_eth.c ****   /* Wait for software reset */
 215:Drivers/STM32F7xx_HAL_Driver/Src/stm32f7xx_hal_eth.c ****   while (((heth->Instance)->DMABMR & ETH_DMABMR_SR) != (uint32_t)RESET)
 120              		.loc 1 215 0
 121 0090 11E0     		b	.L5
 122              	.L6:
 216:Drivers/STM32F7xx_HAL_Driver/Src/stm32f7xx_hal_eth.c ****   {
 217:Drivers/STM32F7xx_HAL_Driver/Src/stm32f7xx_hal_eth.c ****     /* Check for the Timeout */
 218:Drivers/STM32F7xx_HAL_Driver/Src/stm32f7xx_hal_eth.c ****     if((HAL_GetTick() - tickstart ) > ETH_TIMEOUT_SWRESET)
 123              		.loc 1 218 0
 124 0092 FFF7FEFF 		bl	HAL_GetTick
 125 0096 0246     		mov	r2, r0
ARM GAS  /tmp/ccJiNVdi.s 			page 7


 126 0098 7B69     		ldr	r3, [r7, #20]
 127 009a D31A     		subs	r3, r2, r3
 128 009c B3F5FA7F 		cmp	r3, #500
 129 00a0 09D9     		bls	.L5
 219:Drivers/STM32F7xx_HAL_Driver/Src/stm32f7xx_hal_eth.c ****     {     
 220:Drivers/STM32F7xx_HAL_Driver/Src/stm32f7xx_hal_eth.c ****       heth->State= HAL_ETH_STATE_TIMEOUT;
 130              		.loc 1 220 0
 131 00a2 7B68     		ldr	r3, [r7, #4]
 132 00a4 0322     		movs	r2, #3
 133 00a6 83F84420 		strb	r2, [r3, #68]
 221:Drivers/STM32F7xx_HAL_Driver/Src/stm32f7xx_hal_eth.c ****   
 222:Drivers/STM32F7xx_HAL_Driver/Src/stm32f7xx_hal_eth.c ****       /* Process Unlocked */
 223:Drivers/STM32F7xx_HAL_Driver/Src/stm32f7xx_hal_eth.c ****       __HAL_UNLOCK(heth);
 134              		.loc 1 223 0
 135 00aa 7B68     		ldr	r3, [r7, #4]
 136 00ac 0022     		movs	r2, #0
 137 00ae 83F84520 		strb	r2, [r3, #69]
 224:Drivers/STM32F7xx_HAL_Driver/Src/stm32f7xx_hal_eth.c ****     
 225:Drivers/STM32F7xx_HAL_Driver/Src/stm32f7xx_hal_eth.c ****       /* Note: The SWR is not performed if the ETH_RX_CLK or the ETH_TX_CLK are  
 226:Drivers/STM32F7xx_HAL_Driver/Src/stm32f7xx_hal_eth.c ****          not available, please check your external PHY or the IO configuration */
 227:Drivers/STM32F7xx_HAL_Driver/Src/stm32f7xx_hal_eth.c ****                
 228:Drivers/STM32F7xx_HAL_Driver/Src/stm32f7xx_hal_eth.c ****       return HAL_TIMEOUT;
 138              		.loc 1 228 0
 139 00b2 0323     		movs	r3, #3
 140 00b4 3BE1     		b	.L26
 141              	.L5:
 215:Drivers/STM32F7xx_HAL_Driver/Src/stm32f7xx_hal_eth.c ****   {
 142              		.loc 1 215 0
 143 00b6 7B68     		ldr	r3, [r7, #4]
 144 00b8 1B68     		ldr	r3, [r3]
 145 00ba 03F58053 		add	r3, r3, #4096
 146 00be 1B68     		ldr	r3, [r3]
 147 00c0 03F00103 		and	r3, r3, #1
 148 00c4 002B     		cmp	r3, #0
 149 00c6 E4D1     		bne	.L6
 229:Drivers/STM32F7xx_HAL_Driver/Src/stm32f7xx_hal_eth.c ****     }
 230:Drivers/STM32F7xx_HAL_Driver/Src/stm32f7xx_hal_eth.c ****   }
 231:Drivers/STM32F7xx_HAL_Driver/Src/stm32f7xx_hal_eth.c ****   
 232:Drivers/STM32F7xx_HAL_Driver/Src/stm32f7xx_hal_eth.c ****   /*-------------------------------- MAC Initialization ----------------------*/
 233:Drivers/STM32F7xx_HAL_Driver/Src/stm32f7xx_hal_eth.c ****   /* Get the ETHERNET MACMIIAR value */
 234:Drivers/STM32F7xx_HAL_Driver/Src/stm32f7xx_hal_eth.c ****   tempreg = (heth->Instance)->MACMIIAR;
 150              		.loc 1 234 0
 151 00c8 7B68     		ldr	r3, [r7, #4]
 152 00ca 1B68     		ldr	r3, [r3]
 153 00cc 1B69     		ldr	r3, [r3, #16]
 154 00ce FB61     		str	r3, [r7, #28]
 235:Drivers/STM32F7xx_HAL_Driver/Src/stm32f7xx_hal_eth.c ****   /* Clear CSR Clock Range CR[2:0] bits */
 236:Drivers/STM32F7xx_HAL_Driver/Src/stm32f7xx_hal_eth.c ****   tempreg &= ETH_MACMIIAR_CR_MASK;
 155              		.loc 1 236 0
 156 00d0 FB69     		ldr	r3, [r7, #28]
 157 00d2 23F01C03 		bic	r3, r3, #28
 158 00d6 FB61     		str	r3, [r7, #28]
 237:Drivers/STM32F7xx_HAL_Driver/Src/stm32f7xx_hal_eth.c ****   
 238:Drivers/STM32F7xx_HAL_Driver/Src/stm32f7xx_hal_eth.c ****   /* Get hclk frequency value */
 239:Drivers/STM32F7xx_HAL_Driver/Src/stm32f7xx_hal_eth.c ****   hclk = HAL_RCC_GetHCLKFreq();
 159              		.loc 1 239 0
 160 00d8 FFF7FEFF 		bl	HAL_RCC_GetHCLKFreq
ARM GAS  /tmp/ccJiNVdi.s 			page 8


 161 00dc B861     		str	r0, [r7, #24]
 240:Drivers/STM32F7xx_HAL_Driver/Src/stm32f7xx_hal_eth.c ****   
 241:Drivers/STM32F7xx_HAL_Driver/Src/stm32f7xx_hal_eth.c ****   /* Set CR bits depending on hclk value */
 242:Drivers/STM32F7xx_HAL_Driver/Src/stm32f7xx_hal_eth.c ****   if((hclk >= 20000000)&&(hclk < 35000000))
 162              		.loc 1 242 0
 163 00de BB69     		ldr	r3, [r7, #24]
 164 00e0 784A     		ldr	r2, .L28+12
 165 00e2 9342     		cmp	r3, r2
 166 00e4 08D9     		bls	.L7
 167              		.loc 1 242 0 is_stmt 0 discriminator 1
 168 00e6 BB69     		ldr	r3, [r7, #24]
 169 00e8 774A     		ldr	r2, .L28+16
 170 00ea 9342     		cmp	r3, r2
 171 00ec 04D8     		bhi	.L7
 243:Drivers/STM32F7xx_HAL_Driver/Src/stm32f7xx_hal_eth.c ****   {
 244:Drivers/STM32F7xx_HAL_Driver/Src/stm32f7xx_hal_eth.c ****     /* CSR Clock Range between 20-35 MHz */
 245:Drivers/STM32F7xx_HAL_Driver/Src/stm32f7xx_hal_eth.c ****     tempreg |= (uint32_t)ETH_MACMIIAR_CR_Div16;
 172              		.loc 1 245 0 is_stmt 1
 173 00ee FB69     		ldr	r3, [r7, #28]
 174 00f0 43F00803 		orr	r3, r3, #8
 175 00f4 FB61     		str	r3, [r7, #28]
 176 00f6 27E0     		b	.L8
 177              	.L7:
 246:Drivers/STM32F7xx_HAL_Driver/Src/stm32f7xx_hal_eth.c ****   }
 247:Drivers/STM32F7xx_HAL_Driver/Src/stm32f7xx_hal_eth.c ****   else if((hclk >= 35000000)&&(hclk < 60000000))
 178              		.loc 1 247 0
 179 00f8 BB69     		ldr	r3, [r7, #24]
 180 00fa 734A     		ldr	r2, .L28+16
 181 00fc 9342     		cmp	r3, r2
 182 00fe 08D9     		bls	.L9
 183              		.loc 1 247 0 is_stmt 0 discriminator 1
 184 0100 BB69     		ldr	r3, [r7, #24]
 185 0102 724A     		ldr	r2, .L28+20
 186 0104 9342     		cmp	r3, r2
 187 0106 04D8     		bhi	.L9
 248:Drivers/STM32F7xx_HAL_Driver/Src/stm32f7xx_hal_eth.c ****   {
 249:Drivers/STM32F7xx_HAL_Driver/Src/stm32f7xx_hal_eth.c ****     /* CSR Clock Range between 35-60 MHz */ 
 250:Drivers/STM32F7xx_HAL_Driver/Src/stm32f7xx_hal_eth.c ****     tempreg |= (uint32_t)ETH_MACMIIAR_CR_Div26;
 188              		.loc 1 250 0 is_stmt 1
 189 0108 FB69     		ldr	r3, [r7, #28]
 190 010a 43F00C03 		orr	r3, r3, #12
 191 010e FB61     		str	r3, [r7, #28]
 192 0110 1AE0     		b	.L8
 193              	.L9:
 251:Drivers/STM32F7xx_HAL_Driver/Src/stm32f7xx_hal_eth.c ****   }  
 252:Drivers/STM32F7xx_HAL_Driver/Src/stm32f7xx_hal_eth.c ****   else if((hclk >= 60000000)&&(hclk < 100000000))
 194              		.loc 1 252 0
 195 0112 BB69     		ldr	r3, [r7, #24]
 196 0114 6D4A     		ldr	r2, .L28+20
 197 0116 9342     		cmp	r3, r2
 198 0118 03D9     		bls	.L10
 199              		.loc 1 252 0 is_stmt 0 discriminator 1
 200 011a BB69     		ldr	r3, [r7, #24]
 201 011c 6C4A     		ldr	r2, .L28+24
 202 011e 9342     		cmp	r3, r2
 203 0120 11D9     		bls	.L27
 204              	.L10:
ARM GAS  /tmp/ccJiNVdi.s 			page 9


 253:Drivers/STM32F7xx_HAL_Driver/Src/stm32f7xx_hal_eth.c ****   {
 254:Drivers/STM32F7xx_HAL_Driver/Src/stm32f7xx_hal_eth.c ****     /* CSR Clock Range between 60-100 MHz */ 
 255:Drivers/STM32F7xx_HAL_Driver/Src/stm32f7xx_hal_eth.c ****     tempreg |= (uint32_t)ETH_MACMIIAR_CR_Div42;
 256:Drivers/STM32F7xx_HAL_Driver/Src/stm32f7xx_hal_eth.c ****   }  
 257:Drivers/STM32F7xx_HAL_Driver/Src/stm32f7xx_hal_eth.c ****   else if((hclk >= 100000000)&&(hclk < 150000000))
 205              		.loc 1 257 0 is_stmt 1
 206 0122 BB69     		ldr	r3, [r7, #24]
 207 0124 6A4A     		ldr	r2, .L28+24
 208 0126 9342     		cmp	r3, r2
 209 0128 08D9     		bls	.L11
 210              		.loc 1 257 0 is_stmt 0 discriminator 1
 211 012a BB69     		ldr	r3, [r7, #24]
 212 012c 694A     		ldr	r2, .L28+28
 213 012e 9342     		cmp	r3, r2
 214 0130 04D8     		bhi	.L11
 258:Drivers/STM32F7xx_HAL_Driver/Src/stm32f7xx_hal_eth.c ****   {
 259:Drivers/STM32F7xx_HAL_Driver/Src/stm32f7xx_hal_eth.c ****     /* CSR Clock Range between 100-150 MHz */ 
 260:Drivers/STM32F7xx_HAL_Driver/Src/stm32f7xx_hal_eth.c ****     tempreg |= (uint32_t)ETH_MACMIIAR_CR_Div62;
 215              		.loc 1 260 0 is_stmt 1
 216 0132 FB69     		ldr	r3, [r7, #28]
 217 0134 43F00403 		orr	r3, r3, #4
 218 0138 FB61     		str	r3, [r7, #28]
 219 013a 05E0     		b	.L8
 220              	.L11:
 261:Drivers/STM32F7xx_HAL_Driver/Src/stm32f7xx_hal_eth.c ****   }
 262:Drivers/STM32F7xx_HAL_Driver/Src/stm32f7xx_hal_eth.c ****   else /* ((hclk >= 150000000)&&(hclk <= 216000000)) */
 263:Drivers/STM32F7xx_HAL_Driver/Src/stm32f7xx_hal_eth.c ****   {
 264:Drivers/STM32F7xx_HAL_Driver/Src/stm32f7xx_hal_eth.c ****     /* CSR Clock Range between 150-216 MHz */ 
 265:Drivers/STM32F7xx_HAL_Driver/Src/stm32f7xx_hal_eth.c ****     tempreg |= (uint32_t)ETH_MACMIIAR_CR_Div102;    
 221              		.loc 1 265 0
 222 013c FB69     		ldr	r3, [r7, #28]
 223 013e 43F01003 		orr	r3, r3, #16
 224 0142 FB61     		str	r3, [r7, #28]
 225 0144 00E0     		b	.L8
 226              	.L27:
 255:Drivers/STM32F7xx_HAL_Driver/Src/stm32f7xx_hal_eth.c ****   }  
 227              		.loc 1 255 0
 228 0146 00BF     		nop
 229              	.L8:
 266:Drivers/STM32F7xx_HAL_Driver/Src/stm32f7xx_hal_eth.c ****   }
 267:Drivers/STM32F7xx_HAL_Driver/Src/stm32f7xx_hal_eth.c ****   
 268:Drivers/STM32F7xx_HAL_Driver/Src/stm32f7xx_hal_eth.c ****   /* Write to ETHERNET MAC MIIAR: Configure the ETHERNET CSR Clock Range */
 269:Drivers/STM32F7xx_HAL_Driver/Src/stm32f7xx_hal_eth.c ****   (heth->Instance)->MACMIIAR = (uint32_t)tempreg;
 230              		.loc 1 269 0
 231 0148 7B68     		ldr	r3, [r7, #4]
 232 014a 1B68     		ldr	r3, [r3]
 233 014c FA69     		ldr	r2, [r7, #28]
 234 014e 1A61     		str	r2, [r3, #16]
 270:Drivers/STM32F7xx_HAL_Driver/Src/stm32f7xx_hal_eth.c ****   
 271:Drivers/STM32F7xx_HAL_Driver/Src/stm32f7xx_hal_eth.c ****   /*-------------------- PHY initialization and configuration ----------------*/
 272:Drivers/STM32F7xx_HAL_Driver/Src/stm32f7xx_hal_eth.c ****   /* Put the PHY in reset mode */
 273:Drivers/STM32F7xx_HAL_Driver/Src/stm32f7xx_hal_eth.c ****   if((HAL_ETH_WritePHYRegister(heth, PHY_BCR, PHY_RESET)) != HAL_OK)
 235              		.loc 1 273 0
 236 0150 4FF40042 		mov	r2, #32768
 237 0154 0021     		movs	r1, #0
 238 0156 7868     		ldr	r0, [r7, #4]
 239 0158 FFF7FEFF 		bl	HAL_ETH_WritePHYRegister
ARM GAS  /tmp/ccJiNVdi.s 			page 10


 240 015c 0346     		mov	r3, r0
 241 015e 002B     		cmp	r3, #0
 242 0160 0BD0     		beq	.L12
 274:Drivers/STM32F7xx_HAL_Driver/Src/stm32f7xx_hal_eth.c ****   {
 275:Drivers/STM32F7xx_HAL_Driver/Src/stm32f7xx_hal_eth.c ****     /* In case of write timeout */
 276:Drivers/STM32F7xx_HAL_Driver/Src/stm32f7xx_hal_eth.c ****     err = ETH_ERROR;
 243              		.loc 1 276 0
 244 0162 0123     		movs	r3, #1
 245 0164 3B61     		str	r3, [r7, #16]
 277:Drivers/STM32F7xx_HAL_Driver/Src/stm32f7xx_hal_eth.c ****     
 278:Drivers/STM32F7xx_HAL_Driver/Src/stm32f7xx_hal_eth.c ****     /* Config MAC and DMA */
 279:Drivers/STM32F7xx_HAL_Driver/Src/stm32f7xx_hal_eth.c ****     ETH_MACDMAConfig(heth, err);
 246              		.loc 1 279 0
 247 0166 3969     		ldr	r1, [r7, #16]
 248 0168 7868     		ldr	r0, [r7, #4]
 249 016a FFF7FEFF 		bl	ETH_MACDMAConfig
 280:Drivers/STM32F7xx_HAL_Driver/Src/stm32f7xx_hal_eth.c ****     
 281:Drivers/STM32F7xx_HAL_Driver/Src/stm32f7xx_hal_eth.c ****     /* Set the ETH peripheral state to READY */
 282:Drivers/STM32F7xx_HAL_Driver/Src/stm32f7xx_hal_eth.c ****     heth->State = HAL_ETH_STATE_READY;
 250              		.loc 1 282 0
 251 016e 7B68     		ldr	r3, [r7, #4]
 252 0170 0122     		movs	r2, #1
 253 0172 83F84420 		strb	r2, [r3, #68]
 283:Drivers/STM32F7xx_HAL_Driver/Src/stm32f7xx_hal_eth.c ****     
 284:Drivers/STM32F7xx_HAL_Driver/Src/stm32f7xx_hal_eth.c ****     /* Return HAL_ERROR */
 285:Drivers/STM32F7xx_HAL_Driver/Src/stm32f7xx_hal_eth.c ****     return HAL_ERROR;
 254              		.loc 1 285 0
 255 0176 0123     		movs	r3, #1
 256 0178 D9E0     		b	.L26
 257              	.L12:
 286:Drivers/STM32F7xx_HAL_Driver/Src/stm32f7xx_hal_eth.c ****   }
 287:Drivers/STM32F7xx_HAL_Driver/Src/stm32f7xx_hal_eth.c ****   
 288:Drivers/STM32F7xx_HAL_Driver/Src/stm32f7xx_hal_eth.c ****   /* Delay to assure PHY reset */
 289:Drivers/STM32F7xx_HAL_Driver/Src/stm32f7xx_hal_eth.c ****   HAL_Delay(PHY_RESET_DELAY);
 258              		.loc 1 289 0
 259 017a FF20     		movs	r0, #255
 260 017c FFF7FEFF 		bl	HAL_Delay
 290:Drivers/STM32F7xx_HAL_Driver/Src/stm32f7xx_hal_eth.c ****   
 291:Drivers/STM32F7xx_HAL_Driver/Src/stm32f7xx_hal_eth.c ****   if((heth->Init).AutoNegotiation != ETH_AUTONEGOTIATION_DISABLE)
 261              		.loc 1 291 0
 262 0180 7B68     		ldr	r3, [r7, #4]
 263 0182 5B68     		ldr	r3, [r3, #4]
 264 0184 002B     		cmp	r3, #0
 265 0186 00F0A780 		beq	.L13
 292:Drivers/STM32F7xx_HAL_Driver/Src/stm32f7xx_hal_eth.c ****   {
 293:Drivers/STM32F7xx_HAL_Driver/Src/stm32f7xx_hal_eth.c ****     /* Get tick */
 294:Drivers/STM32F7xx_HAL_Driver/Src/stm32f7xx_hal_eth.c ****     tickstart = HAL_GetTick();
 266              		.loc 1 294 0
 267 018a FFF7FEFF 		bl	HAL_GetTick
 268 018e 7861     		str	r0, [r7, #20]
 269              	.L15:
 295:Drivers/STM32F7xx_HAL_Driver/Src/stm32f7xx_hal_eth.c ****     
 296:Drivers/STM32F7xx_HAL_Driver/Src/stm32f7xx_hal_eth.c ****     /* We wait for linked status */
 297:Drivers/STM32F7xx_HAL_Driver/Src/stm32f7xx_hal_eth.c ****     do
 298:Drivers/STM32F7xx_HAL_Driver/Src/stm32f7xx_hal_eth.c ****     {
 299:Drivers/STM32F7xx_HAL_Driver/Src/stm32f7xx_hal_eth.c ****       HAL_ETH_ReadPHYRegister(heth, PHY_BSR, &phyreg);
 270              		.loc 1 299 0
ARM GAS  /tmp/ccJiNVdi.s 			page 11


 271 0190 07F10C03 		add	r3, r7, #12
 272 0194 1A46     		mov	r2, r3
 273 0196 0121     		movs	r1, #1
 274 0198 7868     		ldr	r0, [r7, #4]
 275 019a FFF7FEFF 		bl	HAL_ETH_ReadPHYRegister
 300:Drivers/STM32F7xx_HAL_Driver/Src/stm32f7xx_hal_eth.c ****       
 301:Drivers/STM32F7xx_HAL_Driver/Src/stm32f7xx_hal_eth.c ****       /* Check for the Timeout */
 302:Drivers/STM32F7xx_HAL_Driver/Src/stm32f7xx_hal_eth.c ****       if((HAL_GetTick() - tickstart ) > ETH_TIMEOUT_LINKED_STATE)
 276              		.loc 1 302 0
 277 019e FFF7FEFF 		bl	HAL_GetTick
 278 01a2 0246     		mov	r2, r0
 279 01a4 7B69     		ldr	r3, [r7, #20]
 280 01a6 D31A     		subs	r3, r2, r3
 281 01a8 41F28832 		movw	r2, #5000
 282 01ac 9342     		cmp	r3, r2
 283 01ae 0FD9     		bls	.L14
 303:Drivers/STM32F7xx_HAL_Driver/Src/stm32f7xx_hal_eth.c ****       {
 304:Drivers/STM32F7xx_HAL_Driver/Src/stm32f7xx_hal_eth.c ****         /* In case of write timeout */
 305:Drivers/STM32F7xx_HAL_Driver/Src/stm32f7xx_hal_eth.c ****         err = ETH_ERROR;
 284              		.loc 1 305 0
 285 01b0 0123     		movs	r3, #1
 286 01b2 3B61     		str	r3, [r7, #16]
 306:Drivers/STM32F7xx_HAL_Driver/Src/stm32f7xx_hal_eth.c ****       
 307:Drivers/STM32F7xx_HAL_Driver/Src/stm32f7xx_hal_eth.c ****         /* Config MAC and DMA */
 308:Drivers/STM32F7xx_HAL_Driver/Src/stm32f7xx_hal_eth.c ****         ETH_MACDMAConfig(heth, err);
 287              		.loc 1 308 0
 288 01b4 3969     		ldr	r1, [r7, #16]
 289 01b6 7868     		ldr	r0, [r7, #4]
 290 01b8 FFF7FEFF 		bl	ETH_MACDMAConfig
 309:Drivers/STM32F7xx_HAL_Driver/Src/stm32f7xx_hal_eth.c ****         
 310:Drivers/STM32F7xx_HAL_Driver/Src/stm32f7xx_hal_eth.c ****         heth->State= HAL_ETH_STATE_READY;
 291              		.loc 1 310 0
 292 01bc 7B68     		ldr	r3, [r7, #4]
 293 01be 0122     		movs	r2, #1
 294 01c0 83F84420 		strb	r2, [r3, #68]
 311:Drivers/STM32F7xx_HAL_Driver/Src/stm32f7xx_hal_eth.c ****   
 312:Drivers/STM32F7xx_HAL_Driver/Src/stm32f7xx_hal_eth.c ****         /* Process Unlocked */
 313:Drivers/STM32F7xx_HAL_Driver/Src/stm32f7xx_hal_eth.c ****         __HAL_UNLOCK(heth);
 295              		.loc 1 313 0
 296 01c4 7B68     		ldr	r3, [r7, #4]
 297 01c6 0022     		movs	r2, #0
 298 01c8 83F84520 		strb	r2, [r3, #69]
 314:Drivers/STM32F7xx_HAL_Driver/Src/stm32f7xx_hal_eth.c ****     
 315:Drivers/STM32F7xx_HAL_Driver/Src/stm32f7xx_hal_eth.c ****         return HAL_TIMEOUT;
 299              		.loc 1 315 0
 300 01cc 0323     		movs	r3, #3
 301 01ce AEE0     		b	.L26
 302              	.L14:
 316:Drivers/STM32F7xx_HAL_Driver/Src/stm32f7xx_hal_eth.c ****       }
 317:Drivers/STM32F7xx_HAL_Driver/Src/stm32f7xx_hal_eth.c ****     } while (((phyreg & PHY_LINKED_STATUS) != PHY_LINKED_STATUS));
 303              		.loc 1 317 0
 304 01d0 FB68     		ldr	r3, [r7, #12]
 305 01d2 03F00403 		and	r3, r3, #4
 306 01d6 002B     		cmp	r3, #0
 307 01d8 DAD0     		beq	.L15
 318:Drivers/STM32F7xx_HAL_Driver/Src/stm32f7xx_hal_eth.c **** 
 319:Drivers/STM32F7xx_HAL_Driver/Src/stm32f7xx_hal_eth.c ****     
ARM GAS  /tmp/ccJiNVdi.s 			page 12


 320:Drivers/STM32F7xx_HAL_Driver/Src/stm32f7xx_hal_eth.c ****     /* Enable Auto-Negotiation */
 321:Drivers/STM32F7xx_HAL_Driver/Src/stm32f7xx_hal_eth.c ****     if((HAL_ETH_WritePHYRegister(heth, PHY_BCR, PHY_AUTONEGOTIATION)) != HAL_OK)
 308              		.loc 1 321 0
 309 01da 4FF48052 		mov	r2, #4096
 310 01de 0021     		movs	r1, #0
 311 01e0 7868     		ldr	r0, [r7, #4]
 312 01e2 FFF7FEFF 		bl	HAL_ETH_WritePHYRegister
 313 01e6 0346     		mov	r3, r0
 314 01e8 002B     		cmp	r3, #0
 315 01ea 0BD0     		beq	.L16
 322:Drivers/STM32F7xx_HAL_Driver/Src/stm32f7xx_hal_eth.c ****     {
 323:Drivers/STM32F7xx_HAL_Driver/Src/stm32f7xx_hal_eth.c ****       /* In case of write timeout */
 324:Drivers/STM32F7xx_HAL_Driver/Src/stm32f7xx_hal_eth.c ****       err = ETH_ERROR;
 316              		.loc 1 324 0
 317 01ec 0123     		movs	r3, #1
 318 01ee 3B61     		str	r3, [r7, #16]
 325:Drivers/STM32F7xx_HAL_Driver/Src/stm32f7xx_hal_eth.c ****       
 326:Drivers/STM32F7xx_HAL_Driver/Src/stm32f7xx_hal_eth.c ****       /* Config MAC and DMA */
 327:Drivers/STM32F7xx_HAL_Driver/Src/stm32f7xx_hal_eth.c ****       ETH_MACDMAConfig(heth, err);
 319              		.loc 1 327 0
 320 01f0 3969     		ldr	r1, [r7, #16]
 321 01f2 7868     		ldr	r0, [r7, #4]
 322 01f4 FFF7FEFF 		bl	ETH_MACDMAConfig
 328:Drivers/STM32F7xx_HAL_Driver/Src/stm32f7xx_hal_eth.c ****       
 329:Drivers/STM32F7xx_HAL_Driver/Src/stm32f7xx_hal_eth.c ****       /* Set the ETH peripheral state to READY */
 330:Drivers/STM32F7xx_HAL_Driver/Src/stm32f7xx_hal_eth.c ****       heth->State = HAL_ETH_STATE_READY;
 323              		.loc 1 330 0
 324 01f8 7B68     		ldr	r3, [r7, #4]
 325 01fa 0122     		movs	r2, #1
 326 01fc 83F84420 		strb	r2, [r3, #68]
 331:Drivers/STM32F7xx_HAL_Driver/Src/stm32f7xx_hal_eth.c ****       
 332:Drivers/STM32F7xx_HAL_Driver/Src/stm32f7xx_hal_eth.c ****       /* Return HAL_ERROR */
 333:Drivers/STM32F7xx_HAL_Driver/Src/stm32f7xx_hal_eth.c ****       return HAL_ERROR;   
 327              		.loc 1 333 0
 328 0200 0123     		movs	r3, #1
 329 0202 94E0     		b	.L26
 330              	.L16:
 334:Drivers/STM32F7xx_HAL_Driver/Src/stm32f7xx_hal_eth.c ****     }
 335:Drivers/STM32F7xx_HAL_Driver/Src/stm32f7xx_hal_eth.c ****     
 336:Drivers/STM32F7xx_HAL_Driver/Src/stm32f7xx_hal_eth.c ****     /* Get tick */
 337:Drivers/STM32F7xx_HAL_Driver/Src/stm32f7xx_hal_eth.c ****     tickstart = HAL_GetTick();
 331              		.loc 1 337 0
 332 0204 FFF7FEFF 		bl	HAL_GetTick
 333 0208 7861     		str	r0, [r7, #20]
 334              	.L18:
 338:Drivers/STM32F7xx_HAL_Driver/Src/stm32f7xx_hal_eth.c ****     
 339:Drivers/STM32F7xx_HAL_Driver/Src/stm32f7xx_hal_eth.c ****     /* Wait until the auto-negotiation will be completed */
 340:Drivers/STM32F7xx_HAL_Driver/Src/stm32f7xx_hal_eth.c ****     do
 341:Drivers/STM32F7xx_HAL_Driver/Src/stm32f7xx_hal_eth.c ****     {
 342:Drivers/STM32F7xx_HAL_Driver/Src/stm32f7xx_hal_eth.c ****       HAL_ETH_ReadPHYRegister(heth, PHY_BSR, &phyreg);
 335              		.loc 1 342 0
 336 020a 07F10C03 		add	r3, r7, #12
 337 020e 1A46     		mov	r2, r3
 338 0210 0121     		movs	r1, #1
 339 0212 7868     		ldr	r0, [r7, #4]
 340 0214 FFF7FEFF 		bl	HAL_ETH_ReadPHYRegister
 343:Drivers/STM32F7xx_HAL_Driver/Src/stm32f7xx_hal_eth.c ****       
ARM GAS  /tmp/ccJiNVdi.s 			page 13


 344:Drivers/STM32F7xx_HAL_Driver/Src/stm32f7xx_hal_eth.c ****       /* Check for the Timeout */
 345:Drivers/STM32F7xx_HAL_Driver/Src/stm32f7xx_hal_eth.c ****       if((HAL_GetTick() - tickstart ) > ETH_TIMEOUT_AUTONEGO_COMPLETED)
 341              		.loc 1 345 0
 342 0218 FFF7FEFF 		bl	HAL_GetTick
 343 021c 0246     		mov	r2, r0
 344 021e 7B69     		ldr	r3, [r7, #20]
 345 0220 D31A     		subs	r3, r2, r3
 346 0222 41F28832 		movw	r2, #5000
 347 0226 9342     		cmp	r3, r2
 348 0228 0FD9     		bls	.L17
 346:Drivers/STM32F7xx_HAL_Driver/Src/stm32f7xx_hal_eth.c ****       {
 347:Drivers/STM32F7xx_HAL_Driver/Src/stm32f7xx_hal_eth.c ****         /* In case of write timeout */
 348:Drivers/STM32F7xx_HAL_Driver/Src/stm32f7xx_hal_eth.c ****         err = ETH_ERROR;
 349              		.loc 1 348 0
 350 022a 0123     		movs	r3, #1
 351 022c 3B61     		str	r3, [r7, #16]
 349:Drivers/STM32F7xx_HAL_Driver/Src/stm32f7xx_hal_eth.c ****       
 350:Drivers/STM32F7xx_HAL_Driver/Src/stm32f7xx_hal_eth.c ****         /* Config MAC and DMA */
 351:Drivers/STM32F7xx_HAL_Driver/Src/stm32f7xx_hal_eth.c ****         ETH_MACDMAConfig(heth, err);
 352              		.loc 1 351 0
 353 022e 3969     		ldr	r1, [r7, #16]
 354 0230 7868     		ldr	r0, [r7, #4]
 355 0232 FFF7FEFF 		bl	ETH_MACDMAConfig
 352:Drivers/STM32F7xx_HAL_Driver/Src/stm32f7xx_hal_eth.c ****         
 353:Drivers/STM32F7xx_HAL_Driver/Src/stm32f7xx_hal_eth.c ****         heth->State= HAL_ETH_STATE_READY;
 356              		.loc 1 353 0
 357 0236 7B68     		ldr	r3, [r7, #4]
 358 0238 0122     		movs	r2, #1
 359 023a 83F84420 		strb	r2, [r3, #68]
 354:Drivers/STM32F7xx_HAL_Driver/Src/stm32f7xx_hal_eth.c ****   
 355:Drivers/STM32F7xx_HAL_Driver/Src/stm32f7xx_hal_eth.c ****         /* Process Unlocked */
 356:Drivers/STM32F7xx_HAL_Driver/Src/stm32f7xx_hal_eth.c ****         __HAL_UNLOCK(heth);
 360              		.loc 1 356 0
 361 023e 7B68     		ldr	r3, [r7, #4]
 362 0240 0022     		movs	r2, #0
 363 0242 83F84520 		strb	r2, [r3, #69]
 357:Drivers/STM32F7xx_HAL_Driver/Src/stm32f7xx_hal_eth.c ****     
 358:Drivers/STM32F7xx_HAL_Driver/Src/stm32f7xx_hal_eth.c ****         return HAL_TIMEOUT;
 364              		.loc 1 358 0
 365 0246 0323     		movs	r3, #3
 366 0248 71E0     		b	.L26
 367              	.L17:
 359:Drivers/STM32F7xx_HAL_Driver/Src/stm32f7xx_hal_eth.c ****       }
 360:Drivers/STM32F7xx_HAL_Driver/Src/stm32f7xx_hal_eth.c ****       
 361:Drivers/STM32F7xx_HAL_Driver/Src/stm32f7xx_hal_eth.c ****     } while (((phyreg & PHY_AUTONEGO_COMPLETE) != PHY_AUTONEGO_COMPLETE));
 368              		.loc 1 361 0
 369 024a FB68     		ldr	r3, [r7, #12]
 370 024c 03F02003 		and	r3, r3, #32
 371 0250 002B     		cmp	r3, #0
 372 0252 DAD0     		beq	.L18
 362:Drivers/STM32F7xx_HAL_Driver/Src/stm32f7xx_hal_eth.c ****     
 363:Drivers/STM32F7xx_HAL_Driver/Src/stm32f7xx_hal_eth.c ****     /* Read the result of the auto-negotiation */
 364:Drivers/STM32F7xx_HAL_Driver/Src/stm32f7xx_hal_eth.c ****     if((HAL_ETH_ReadPHYRegister(heth, PHY_SR, &phyreg)) != HAL_OK)
 373              		.loc 1 364 0
 374 0254 07F10C03 		add	r3, r7, #12
 375 0258 1A46     		mov	r2, r3
 376 025a 1021     		movs	r1, #16
ARM GAS  /tmp/ccJiNVdi.s 			page 14


 377 025c 7868     		ldr	r0, [r7, #4]
 378 025e FFF7FEFF 		bl	HAL_ETH_ReadPHYRegister
 379 0262 0346     		mov	r3, r0
 380 0264 002B     		cmp	r3, #0
 381 0266 0BD0     		beq	.L19
 365:Drivers/STM32F7xx_HAL_Driver/Src/stm32f7xx_hal_eth.c ****     {
 366:Drivers/STM32F7xx_HAL_Driver/Src/stm32f7xx_hal_eth.c ****       /* In case of write timeout */
 367:Drivers/STM32F7xx_HAL_Driver/Src/stm32f7xx_hal_eth.c ****       err = ETH_ERROR;
 382              		.loc 1 367 0
 383 0268 0123     		movs	r3, #1
 384 026a 3B61     		str	r3, [r7, #16]
 368:Drivers/STM32F7xx_HAL_Driver/Src/stm32f7xx_hal_eth.c ****       
 369:Drivers/STM32F7xx_HAL_Driver/Src/stm32f7xx_hal_eth.c ****       /* Config MAC and DMA */
 370:Drivers/STM32F7xx_HAL_Driver/Src/stm32f7xx_hal_eth.c ****       ETH_MACDMAConfig(heth, err);
 385              		.loc 1 370 0
 386 026c 3969     		ldr	r1, [r7, #16]
 387 026e 7868     		ldr	r0, [r7, #4]
 388 0270 FFF7FEFF 		bl	ETH_MACDMAConfig
 371:Drivers/STM32F7xx_HAL_Driver/Src/stm32f7xx_hal_eth.c ****       
 372:Drivers/STM32F7xx_HAL_Driver/Src/stm32f7xx_hal_eth.c ****       /* Set the ETH peripheral state to READY */
 373:Drivers/STM32F7xx_HAL_Driver/Src/stm32f7xx_hal_eth.c ****       heth->State = HAL_ETH_STATE_READY;
 389              		.loc 1 373 0
 390 0274 7B68     		ldr	r3, [r7, #4]
 391 0276 0122     		movs	r2, #1
 392 0278 83F84420 		strb	r2, [r3, #68]
 374:Drivers/STM32F7xx_HAL_Driver/Src/stm32f7xx_hal_eth.c ****       
 375:Drivers/STM32F7xx_HAL_Driver/Src/stm32f7xx_hal_eth.c ****       /* Return HAL_ERROR */
 376:Drivers/STM32F7xx_HAL_Driver/Src/stm32f7xx_hal_eth.c ****       return HAL_ERROR;   
 393              		.loc 1 376 0
 394 027c 0123     		movs	r3, #1
 395 027e 56E0     		b	.L26
 396              	.L19:
 377:Drivers/STM32F7xx_HAL_Driver/Src/stm32f7xx_hal_eth.c ****     }
 378:Drivers/STM32F7xx_HAL_Driver/Src/stm32f7xx_hal_eth.c ****     
 379:Drivers/STM32F7xx_HAL_Driver/Src/stm32f7xx_hal_eth.c ****     /* Configure the MAC with the Duplex Mode fixed by the auto-negotiation process */
 380:Drivers/STM32F7xx_HAL_Driver/Src/stm32f7xx_hal_eth.c ****     if((phyreg & PHY_DUPLEX_STATUS) != (uint32_t)RESET)
 397              		.loc 1 380 0
 398 0280 FB68     		ldr	r3, [r7, #12]
 399 0282 03F00403 		and	r3, r3, #4
 400 0286 002B     		cmp	r3, #0
 401 0288 04D0     		beq	.L20
 381:Drivers/STM32F7xx_HAL_Driver/Src/stm32f7xx_hal_eth.c ****     {
 382:Drivers/STM32F7xx_HAL_Driver/Src/stm32f7xx_hal_eth.c ****       /* Set Ethernet duplex mode to Full-duplex following the auto-negotiation */
 383:Drivers/STM32F7xx_HAL_Driver/Src/stm32f7xx_hal_eth.c ****       (heth->Init).DuplexMode = ETH_MODE_FULLDUPLEX;  
 402              		.loc 1 383 0
 403 028a 7B68     		ldr	r3, [r7, #4]
 404 028c 4FF40062 		mov	r2, #2048
 405 0290 DA60     		str	r2, [r3, #12]
 406 0292 02E0     		b	.L21
 407              	.L20:
 384:Drivers/STM32F7xx_HAL_Driver/Src/stm32f7xx_hal_eth.c ****     }
 385:Drivers/STM32F7xx_HAL_Driver/Src/stm32f7xx_hal_eth.c ****     else
 386:Drivers/STM32F7xx_HAL_Driver/Src/stm32f7xx_hal_eth.c ****     {
 387:Drivers/STM32F7xx_HAL_Driver/Src/stm32f7xx_hal_eth.c ****       /* Set Ethernet duplex mode to Half-duplex following the auto-negotiation */
 388:Drivers/STM32F7xx_HAL_Driver/Src/stm32f7xx_hal_eth.c ****       (heth->Init).DuplexMode = ETH_MODE_HALFDUPLEX;           
 408              		.loc 1 388 0
 409 0294 7B68     		ldr	r3, [r7, #4]
ARM GAS  /tmp/ccJiNVdi.s 			page 15


 410 0296 0022     		movs	r2, #0
 411 0298 DA60     		str	r2, [r3, #12]
 412              	.L21:
 389:Drivers/STM32F7xx_HAL_Driver/Src/stm32f7xx_hal_eth.c ****     }
 390:Drivers/STM32F7xx_HAL_Driver/Src/stm32f7xx_hal_eth.c ****     /* Configure the MAC with the speed fixed by the auto-negotiation process */
 391:Drivers/STM32F7xx_HAL_Driver/Src/stm32f7xx_hal_eth.c ****     if((phyreg & PHY_SPEED_STATUS) == PHY_SPEED_STATUS)
 413              		.loc 1 391 0
 414 029a FB68     		ldr	r3, [r7, #12]
 415 029c 03F00203 		and	r3, r3, #2
 416 02a0 002B     		cmp	r3, #0
 417 02a2 03D0     		beq	.L22
 392:Drivers/STM32F7xx_HAL_Driver/Src/stm32f7xx_hal_eth.c ****     {  
 393:Drivers/STM32F7xx_HAL_Driver/Src/stm32f7xx_hal_eth.c ****       /* Set Ethernet speed to 10M following the auto-negotiation */
 394:Drivers/STM32F7xx_HAL_Driver/Src/stm32f7xx_hal_eth.c ****       (heth->Init).Speed = ETH_SPEED_10M; 
 418              		.loc 1 394 0
 419 02a4 7B68     		ldr	r3, [r7, #4]
 420 02a6 0022     		movs	r2, #0
 421 02a8 9A60     		str	r2, [r3, #8]
 422 02aa 37E0     		b	.L24
 423              	.L22:
 395:Drivers/STM32F7xx_HAL_Driver/Src/stm32f7xx_hal_eth.c ****     }
 396:Drivers/STM32F7xx_HAL_Driver/Src/stm32f7xx_hal_eth.c ****     else
 397:Drivers/STM32F7xx_HAL_Driver/Src/stm32f7xx_hal_eth.c ****     {   
 398:Drivers/STM32F7xx_HAL_Driver/Src/stm32f7xx_hal_eth.c ****       /* Set Ethernet speed to 100M following the auto-negotiation */ 
 399:Drivers/STM32F7xx_HAL_Driver/Src/stm32f7xx_hal_eth.c ****       (heth->Init).Speed = ETH_SPEED_100M;
 424              		.loc 1 399 0
 425 02ac 7B68     		ldr	r3, [r7, #4]
 426 02ae 4FF48042 		mov	r2, #16384
 427 02b2 9A60     		str	r2, [r3, #8]
 428 02b4 32E0     		b	.L24
 429              	.L29:
 430 02b6 00BF     		.align	2
 431              	.L28:
 432 02b8 00879303 		.word	60000000
 433 02bc 00380240 		.word	1073887232
 434 02c0 00380140 		.word	1073821696
 435 02c4 FF2C3101 		.word	19999999
 436 02c8 BF0E1602 		.word	34999999
 437 02cc FF869303 		.word	59999999
 438 02d0 FFE0F505 		.word	99999999
 439 02d4 7FD1F008 		.word	149999999
 440              	.L13:
 400:Drivers/STM32F7xx_HAL_Driver/Src/stm32f7xx_hal_eth.c ****     }
 401:Drivers/STM32F7xx_HAL_Driver/Src/stm32f7xx_hal_eth.c ****   }
 402:Drivers/STM32F7xx_HAL_Driver/Src/stm32f7xx_hal_eth.c ****   else /* AutoNegotiation Disable */
 403:Drivers/STM32F7xx_HAL_Driver/Src/stm32f7xx_hal_eth.c ****   {
 404:Drivers/STM32F7xx_HAL_Driver/Src/stm32f7xx_hal_eth.c ****     /* Check parameters */
 405:Drivers/STM32F7xx_HAL_Driver/Src/stm32f7xx_hal_eth.c ****     assert_param(IS_ETH_SPEED(heth->Init.Speed));
 406:Drivers/STM32F7xx_HAL_Driver/Src/stm32f7xx_hal_eth.c ****     assert_param(IS_ETH_DUPLEX_MODE(heth->Init.DuplexMode));
 407:Drivers/STM32F7xx_HAL_Driver/Src/stm32f7xx_hal_eth.c ****     
 408:Drivers/STM32F7xx_HAL_Driver/Src/stm32f7xx_hal_eth.c ****     /* Set MAC Speed and Duplex Mode */
 409:Drivers/STM32F7xx_HAL_Driver/Src/stm32f7xx_hal_eth.c ****     if(HAL_ETH_WritePHYRegister(heth, PHY_BCR, ((uint16_t)((heth->Init).DuplexMode >> 3) |
 441              		.loc 1 409 0
 442 02d8 7B68     		ldr	r3, [r7, #4]
 443 02da DB68     		ldr	r3, [r3, #12]
 444 02dc DB08     		lsrs	r3, r3, #3
 445 02de 9AB2     		uxth	r2, r3
ARM GAS  /tmp/ccJiNVdi.s 			page 16


 410:Drivers/STM32F7xx_HAL_Driver/Src/stm32f7xx_hal_eth.c ****                                                 (uint16_t)((heth->Init).Speed >> 1))) != HAL_OK)
 446              		.loc 1 410 0
 447 02e0 7B68     		ldr	r3, [r7, #4]
 448 02e2 9B68     		ldr	r3, [r3, #8]
 449 02e4 5B08     		lsrs	r3, r3, #1
 450 02e6 9BB2     		uxth	r3, r3
 409:Drivers/STM32F7xx_HAL_Driver/Src/stm32f7xx_hal_eth.c ****                                                 (uint16_t)((heth->Init).Speed >> 1))) != HAL_OK)
 451              		.loc 1 409 0
 452 02e8 1343     		orrs	r3, r3, r2
 453 02ea 9BB2     		uxth	r3, r3
 454 02ec 1A46     		mov	r2, r3
 455 02ee 0021     		movs	r1, #0
 456 02f0 7868     		ldr	r0, [r7, #4]
 457 02f2 FFF7FEFF 		bl	HAL_ETH_WritePHYRegister
 458 02f6 0346     		mov	r3, r0
 459 02f8 002B     		cmp	r3, #0
 460 02fa 0BD0     		beq	.L25
 411:Drivers/STM32F7xx_HAL_Driver/Src/stm32f7xx_hal_eth.c ****     {
 412:Drivers/STM32F7xx_HAL_Driver/Src/stm32f7xx_hal_eth.c ****       /* In case of write timeout */
 413:Drivers/STM32F7xx_HAL_Driver/Src/stm32f7xx_hal_eth.c ****       err = ETH_ERROR;
 461              		.loc 1 413 0
 462 02fc 0123     		movs	r3, #1
 463 02fe 3B61     		str	r3, [r7, #16]
 414:Drivers/STM32F7xx_HAL_Driver/Src/stm32f7xx_hal_eth.c ****       
 415:Drivers/STM32F7xx_HAL_Driver/Src/stm32f7xx_hal_eth.c ****       /* Config MAC and DMA */
 416:Drivers/STM32F7xx_HAL_Driver/Src/stm32f7xx_hal_eth.c ****       ETH_MACDMAConfig(heth, err);
 464              		.loc 1 416 0
 465 0300 3969     		ldr	r1, [r7, #16]
 466 0302 7868     		ldr	r0, [r7, #4]
 467 0304 FFF7FEFF 		bl	ETH_MACDMAConfig
 417:Drivers/STM32F7xx_HAL_Driver/Src/stm32f7xx_hal_eth.c ****       
 418:Drivers/STM32F7xx_HAL_Driver/Src/stm32f7xx_hal_eth.c ****       /* Set the ETH peripheral state to READY */
 419:Drivers/STM32F7xx_HAL_Driver/Src/stm32f7xx_hal_eth.c ****       heth->State = HAL_ETH_STATE_READY;
 468              		.loc 1 419 0
 469 0308 7B68     		ldr	r3, [r7, #4]
 470 030a 0122     		movs	r2, #1
 471 030c 83F84420 		strb	r2, [r3, #68]
 420:Drivers/STM32F7xx_HAL_Driver/Src/stm32f7xx_hal_eth.c ****       
 421:Drivers/STM32F7xx_HAL_Driver/Src/stm32f7xx_hal_eth.c ****       /* Return HAL_ERROR */
 422:Drivers/STM32F7xx_HAL_Driver/Src/stm32f7xx_hal_eth.c ****       return HAL_ERROR;
 472              		.loc 1 422 0
 473 0310 0123     		movs	r3, #1
 474 0312 0CE0     		b	.L26
 475              	.L25:
 423:Drivers/STM32F7xx_HAL_Driver/Src/stm32f7xx_hal_eth.c ****     }  
 424:Drivers/STM32F7xx_HAL_Driver/Src/stm32f7xx_hal_eth.c ****     
 425:Drivers/STM32F7xx_HAL_Driver/Src/stm32f7xx_hal_eth.c ****     /* Delay to assure PHY configuration */
 426:Drivers/STM32F7xx_HAL_Driver/Src/stm32f7xx_hal_eth.c ****     HAL_Delay(PHY_CONFIG_DELAY);
 476              		.loc 1 426 0
 477 0314 40F6FF70 		movw	r0, #4095
 478 0318 FFF7FEFF 		bl	HAL_Delay
 479              	.L24:
 427:Drivers/STM32F7xx_HAL_Driver/Src/stm32f7xx_hal_eth.c ****   }
 428:Drivers/STM32F7xx_HAL_Driver/Src/stm32f7xx_hal_eth.c ****   
 429:Drivers/STM32F7xx_HAL_Driver/Src/stm32f7xx_hal_eth.c ****   /* Config MAC and DMA */
 430:Drivers/STM32F7xx_HAL_Driver/Src/stm32f7xx_hal_eth.c ****   ETH_MACDMAConfig(heth, err);
 480              		.loc 1 430 0
ARM GAS  /tmp/ccJiNVdi.s 			page 17


 481 031c 3969     		ldr	r1, [r7, #16]
 482 031e 7868     		ldr	r0, [r7, #4]
 483 0320 FFF7FEFF 		bl	ETH_MACDMAConfig
 431:Drivers/STM32F7xx_HAL_Driver/Src/stm32f7xx_hal_eth.c ****   
 432:Drivers/STM32F7xx_HAL_Driver/Src/stm32f7xx_hal_eth.c ****   /* Set ETH HAL State to Ready */
 433:Drivers/STM32F7xx_HAL_Driver/Src/stm32f7xx_hal_eth.c ****   heth->State= HAL_ETH_STATE_READY;
 484              		.loc 1 433 0
 485 0324 7B68     		ldr	r3, [r7, #4]
 486 0326 0122     		movs	r2, #1
 487 0328 83F84420 		strb	r2, [r3, #68]
 434:Drivers/STM32F7xx_HAL_Driver/Src/stm32f7xx_hal_eth.c ****   
 435:Drivers/STM32F7xx_HAL_Driver/Src/stm32f7xx_hal_eth.c ****   /* Return function status */
 436:Drivers/STM32F7xx_HAL_Driver/Src/stm32f7xx_hal_eth.c ****   return HAL_OK;
 488              		.loc 1 436 0
 489 032c 0023     		movs	r3, #0
 490              	.L26:
 437:Drivers/STM32F7xx_HAL_Driver/Src/stm32f7xx_hal_eth.c **** }
 491              		.loc 1 437 0 discriminator 1
 492 032e 1846     		mov	r0, r3
 493 0330 2037     		adds	r7, r7, #32
 494              	.LCFI3:
 495              		.cfi_def_cfa_offset 8
 496 0332 BD46     		mov	sp, r7
 497              	.LCFI4:
 498              		.cfi_def_cfa_register 13
 499              		@ sp needed
 500 0334 80BD     		pop	{r7, pc}
 501              		.cfi_endproc
 502              	.LFE136:
 504 0336 00BF     		.section	.text.HAL_ETH_DeInit,"ax",%progbits
 505              		.align	1
 506              		.global	HAL_ETH_DeInit
 507              		.syntax unified
 508              		.thumb
 509              		.thumb_func
 510              		.fpu fpv4-sp-d16
 512              	HAL_ETH_DeInit:
 513              	.LFB137:
 438:Drivers/STM32F7xx_HAL_Driver/Src/stm32f7xx_hal_eth.c **** 
 439:Drivers/STM32F7xx_HAL_Driver/Src/stm32f7xx_hal_eth.c **** /**
 440:Drivers/STM32F7xx_HAL_Driver/Src/stm32f7xx_hal_eth.c ****   * @brief  De-Initializes the ETH peripheral. 
 441:Drivers/STM32F7xx_HAL_Driver/Src/stm32f7xx_hal_eth.c ****   * @param  heth pointer to a ETH_HandleTypeDef structure that contains
 442:Drivers/STM32F7xx_HAL_Driver/Src/stm32f7xx_hal_eth.c ****   *         the configuration information for ETHERNET module
 443:Drivers/STM32F7xx_HAL_Driver/Src/stm32f7xx_hal_eth.c ****   * @retval HAL status
 444:Drivers/STM32F7xx_HAL_Driver/Src/stm32f7xx_hal_eth.c ****   */
 445:Drivers/STM32F7xx_HAL_Driver/Src/stm32f7xx_hal_eth.c **** HAL_StatusTypeDef HAL_ETH_DeInit(ETH_HandleTypeDef *heth)
 446:Drivers/STM32F7xx_HAL_Driver/Src/stm32f7xx_hal_eth.c **** {
 514              		.loc 1 446 0
 515              		.cfi_startproc
 516              		@ args = 0, pretend = 0, frame = 8
 517              		@ frame_needed = 1, uses_anonymous_args = 0
 518 0000 80B5     		push	{r7, lr}
 519              	.LCFI5:
 520              		.cfi_def_cfa_offset 8
 521              		.cfi_offset 7, -8
 522              		.cfi_offset 14, -4
 523 0002 82B0     		sub	sp, sp, #8
ARM GAS  /tmp/ccJiNVdi.s 			page 18


 524              	.LCFI6:
 525              		.cfi_def_cfa_offset 16
 526 0004 00AF     		add	r7, sp, #0
 527              	.LCFI7:
 528              		.cfi_def_cfa_register 7
 529 0006 7860     		str	r0, [r7, #4]
 447:Drivers/STM32F7xx_HAL_Driver/Src/stm32f7xx_hal_eth.c ****   /* Set the ETH peripheral state to BUSY */
 448:Drivers/STM32F7xx_HAL_Driver/Src/stm32f7xx_hal_eth.c ****   heth->State = HAL_ETH_STATE_BUSY;
 530              		.loc 1 448 0
 531 0008 7B68     		ldr	r3, [r7, #4]
 532 000a 0222     		movs	r2, #2
 533 000c 83F84420 		strb	r2, [r3, #68]
 449:Drivers/STM32F7xx_HAL_Driver/Src/stm32f7xx_hal_eth.c ****   
 450:Drivers/STM32F7xx_HAL_Driver/Src/stm32f7xx_hal_eth.c ****   /* De-Init the low level hardware : GPIO, CLOCK, NVIC. */
 451:Drivers/STM32F7xx_HAL_Driver/Src/stm32f7xx_hal_eth.c ****   HAL_ETH_MspDeInit(heth);
 534              		.loc 1 451 0
 535 0010 7868     		ldr	r0, [r7, #4]
 536 0012 FFF7FEFF 		bl	HAL_ETH_MspDeInit
 452:Drivers/STM32F7xx_HAL_Driver/Src/stm32f7xx_hal_eth.c ****   
 453:Drivers/STM32F7xx_HAL_Driver/Src/stm32f7xx_hal_eth.c ****   /* Set ETH HAL state to Disabled */
 454:Drivers/STM32F7xx_HAL_Driver/Src/stm32f7xx_hal_eth.c ****   heth->State= HAL_ETH_STATE_RESET;
 537              		.loc 1 454 0
 538 0016 7B68     		ldr	r3, [r7, #4]
 539 0018 0022     		movs	r2, #0
 540 001a 83F84420 		strb	r2, [r3, #68]
 455:Drivers/STM32F7xx_HAL_Driver/Src/stm32f7xx_hal_eth.c **** 
 456:Drivers/STM32F7xx_HAL_Driver/Src/stm32f7xx_hal_eth.c ****   /* Release Lock */
 457:Drivers/STM32F7xx_HAL_Driver/Src/stm32f7xx_hal_eth.c ****   __HAL_UNLOCK(heth);
 541              		.loc 1 457 0
 542 001e 7B68     		ldr	r3, [r7, #4]
 543 0020 0022     		movs	r2, #0
 544 0022 83F84520 		strb	r2, [r3, #69]
 458:Drivers/STM32F7xx_HAL_Driver/Src/stm32f7xx_hal_eth.c **** 
 459:Drivers/STM32F7xx_HAL_Driver/Src/stm32f7xx_hal_eth.c ****   /* Return function status */
 460:Drivers/STM32F7xx_HAL_Driver/Src/stm32f7xx_hal_eth.c ****   return HAL_OK;
 545              		.loc 1 460 0
 546 0026 0023     		movs	r3, #0
 461:Drivers/STM32F7xx_HAL_Driver/Src/stm32f7xx_hal_eth.c **** }
 547              		.loc 1 461 0
 548 0028 1846     		mov	r0, r3
 549 002a 0837     		adds	r7, r7, #8
 550              	.LCFI8:
 551              		.cfi_def_cfa_offset 8
 552 002c BD46     		mov	sp, r7
 553              	.LCFI9:
 554              		.cfi_def_cfa_register 13
 555              		@ sp needed
 556 002e 80BD     		pop	{r7, pc}
 557              		.cfi_endproc
 558              	.LFE137:
 560              		.section	.text.HAL_ETH_DMATxDescListInit,"ax",%progbits
 561              		.align	1
 562              		.global	HAL_ETH_DMATxDescListInit
 563              		.syntax unified
 564              		.thumb
 565              		.thumb_func
 566              		.fpu fpv4-sp-d16
ARM GAS  /tmp/ccJiNVdi.s 			page 19


 568              	HAL_ETH_DMATxDescListInit:
 569              	.LFB138:
 462:Drivers/STM32F7xx_HAL_Driver/Src/stm32f7xx_hal_eth.c **** 
 463:Drivers/STM32F7xx_HAL_Driver/Src/stm32f7xx_hal_eth.c **** /**
 464:Drivers/STM32F7xx_HAL_Driver/Src/stm32f7xx_hal_eth.c ****   * @brief  Initializes the DMA Tx descriptors in chain mode.
 465:Drivers/STM32F7xx_HAL_Driver/Src/stm32f7xx_hal_eth.c ****   * @param  heth pointer to a ETH_HandleTypeDef structure that contains
 466:Drivers/STM32F7xx_HAL_Driver/Src/stm32f7xx_hal_eth.c ****   *         the configuration information for ETHERNET module  
 467:Drivers/STM32F7xx_HAL_Driver/Src/stm32f7xx_hal_eth.c ****   * @param  DMATxDescTab Pointer to the first Tx desc list 
 468:Drivers/STM32F7xx_HAL_Driver/Src/stm32f7xx_hal_eth.c ****   * @param  TxBuff Pointer to the first TxBuffer list
 469:Drivers/STM32F7xx_HAL_Driver/Src/stm32f7xx_hal_eth.c ****   * @param  TxBuffCount Number of the used Tx desc in the list
 470:Drivers/STM32F7xx_HAL_Driver/Src/stm32f7xx_hal_eth.c ****   * @retval HAL status
 471:Drivers/STM32F7xx_HAL_Driver/Src/stm32f7xx_hal_eth.c ****   */
 472:Drivers/STM32F7xx_HAL_Driver/Src/stm32f7xx_hal_eth.c **** HAL_StatusTypeDef HAL_ETH_DMATxDescListInit(ETH_HandleTypeDef *heth, ETH_DMADescTypeDef *DMATxDescT
 473:Drivers/STM32F7xx_HAL_Driver/Src/stm32f7xx_hal_eth.c **** {
 570              		.loc 1 473 0
 571              		.cfi_startproc
 572              		@ args = 0, pretend = 0, frame = 24
 573              		@ frame_needed = 1, uses_anonymous_args = 0
 574              		@ link register save eliminated.
 575 0000 80B4     		push	{r7}
 576              	.LCFI10:
 577              		.cfi_def_cfa_offset 4
 578              		.cfi_offset 7, -4
 579 0002 87B0     		sub	sp, sp, #28
 580              	.LCFI11:
 581              		.cfi_def_cfa_offset 32
 582 0004 00AF     		add	r7, sp, #0
 583              	.LCFI12:
 584              		.cfi_def_cfa_register 7
 585 0006 F860     		str	r0, [r7, #12]
 586 0008 B960     		str	r1, [r7, #8]
 587 000a 7A60     		str	r2, [r7, #4]
 588 000c 3B60     		str	r3, [r7]
 474:Drivers/STM32F7xx_HAL_Driver/Src/stm32f7xx_hal_eth.c ****   uint32_t i = 0;
 589              		.loc 1 474 0
 590 000e 0023     		movs	r3, #0
 591 0010 7B61     		str	r3, [r7, #20]
 475:Drivers/STM32F7xx_HAL_Driver/Src/stm32f7xx_hal_eth.c ****   ETH_DMADescTypeDef *dmatxdesc;
 476:Drivers/STM32F7xx_HAL_Driver/Src/stm32f7xx_hal_eth.c ****   
 477:Drivers/STM32F7xx_HAL_Driver/Src/stm32f7xx_hal_eth.c ****   /* Process Locked */
 478:Drivers/STM32F7xx_HAL_Driver/Src/stm32f7xx_hal_eth.c ****   __HAL_LOCK(heth);
 592              		.loc 1 478 0
 593 0012 FB68     		ldr	r3, [r7, #12]
 594 0014 93F84530 		ldrb	r3, [r3, #69]	@ zero_extendqisi2
 595 0018 012B     		cmp	r3, #1
 596 001a 01D1     		bne	.L33
 597              		.loc 1 478 0 is_stmt 0 discriminator 1
 598 001c 0223     		movs	r3, #2
 599 001e 52E0     		b	.L34
 600              	.L33:
 601              		.loc 1 478 0 discriminator 2
 602 0020 FB68     		ldr	r3, [r7, #12]
 603 0022 0122     		movs	r2, #1
 604 0024 83F84520 		strb	r2, [r3, #69]
 479:Drivers/STM32F7xx_HAL_Driver/Src/stm32f7xx_hal_eth.c ****   
 480:Drivers/STM32F7xx_HAL_Driver/Src/stm32f7xx_hal_eth.c ****   /* Set the ETH peripheral state to BUSY */
 481:Drivers/STM32F7xx_HAL_Driver/Src/stm32f7xx_hal_eth.c ****   heth->State = HAL_ETH_STATE_BUSY;
ARM GAS  /tmp/ccJiNVdi.s 			page 20


 605              		.loc 1 481 0 is_stmt 1 discriminator 2
 606 0028 FB68     		ldr	r3, [r7, #12]
 607 002a 0222     		movs	r2, #2
 608 002c 83F84420 		strb	r2, [r3, #68]
 482:Drivers/STM32F7xx_HAL_Driver/Src/stm32f7xx_hal_eth.c ****   
 483:Drivers/STM32F7xx_HAL_Driver/Src/stm32f7xx_hal_eth.c ****   /* Set the DMATxDescToSet pointer with the first one of the DMATxDescTab list */
 484:Drivers/STM32F7xx_HAL_Driver/Src/stm32f7xx_hal_eth.c ****   heth->TxDesc = DMATxDescTab;
 609              		.loc 1 484 0 discriminator 2
 610 0030 FB68     		ldr	r3, [r7, #12]
 611 0032 BA68     		ldr	r2, [r7, #8]
 612 0034 DA62     		str	r2, [r3, #44]
 485:Drivers/STM32F7xx_HAL_Driver/Src/stm32f7xx_hal_eth.c ****   
 486:Drivers/STM32F7xx_HAL_Driver/Src/stm32f7xx_hal_eth.c ****   /* Fill each DMATxDesc descriptor with the right values */   
 487:Drivers/STM32F7xx_HAL_Driver/Src/stm32f7xx_hal_eth.c ****   for(i=0; i < TxBuffCount; i++)
 613              		.loc 1 487 0 discriminator 2
 614 0036 0023     		movs	r3, #0
 615 0038 7B61     		str	r3, [r7, #20]
 616 003a 30E0     		b	.L35
 617              	.L39:
 488:Drivers/STM32F7xx_HAL_Driver/Src/stm32f7xx_hal_eth.c ****   {
 489:Drivers/STM32F7xx_HAL_Driver/Src/stm32f7xx_hal_eth.c ****     /* Get the pointer on the ith member of the Tx Desc list */
 490:Drivers/STM32F7xx_HAL_Driver/Src/stm32f7xx_hal_eth.c ****     dmatxdesc = DMATxDescTab + i;
 618              		.loc 1 490 0
 619 003c 7B69     		ldr	r3, [r7, #20]
 620 003e 5B01     		lsls	r3, r3, #5
 621 0040 BA68     		ldr	r2, [r7, #8]
 622 0042 1344     		add	r3, r3, r2
 623 0044 3B61     		str	r3, [r7, #16]
 491:Drivers/STM32F7xx_HAL_Driver/Src/stm32f7xx_hal_eth.c ****     
 492:Drivers/STM32F7xx_HAL_Driver/Src/stm32f7xx_hal_eth.c ****     /* Set Second Address Chained bit */
 493:Drivers/STM32F7xx_HAL_Driver/Src/stm32f7xx_hal_eth.c ****     dmatxdesc->Status = ETH_DMATXDESC_TCH;  
 624              		.loc 1 493 0
 625 0046 3B69     		ldr	r3, [r7, #16]
 626 0048 4FF48012 		mov	r2, #1048576
 627 004c 1A60     		str	r2, [r3]
 494:Drivers/STM32F7xx_HAL_Driver/Src/stm32f7xx_hal_eth.c ****     
 495:Drivers/STM32F7xx_HAL_Driver/Src/stm32f7xx_hal_eth.c ****     /* Set Buffer1 address pointer */
 496:Drivers/STM32F7xx_HAL_Driver/Src/stm32f7xx_hal_eth.c ****     dmatxdesc->Buffer1Addr = (uint32_t)(&TxBuff[i*ETH_TX_BUF_SIZE]);
 628              		.loc 1 496 0
 629 004e 7B69     		ldr	r3, [r7, #20]
 630 0050 40F2F452 		movw	r2, #1524
 631 0054 02FB03F3 		mul	r3, r2, r3
 632 0058 7A68     		ldr	r2, [r7, #4]
 633 005a 1344     		add	r3, r3, r2
 634 005c 1A46     		mov	r2, r3
 635 005e 3B69     		ldr	r3, [r7, #16]
 636 0060 9A60     		str	r2, [r3, #8]
 497:Drivers/STM32F7xx_HAL_Driver/Src/stm32f7xx_hal_eth.c ****     
 498:Drivers/STM32F7xx_HAL_Driver/Src/stm32f7xx_hal_eth.c ****     if ((heth->Init).ChecksumMode == ETH_CHECKSUM_BY_HARDWARE)
 637              		.loc 1 498 0
 638 0062 FB68     		ldr	r3, [r7, #12]
 639 0064 DB69     		ldr	r3, [r3, #28]
 640 0066 002B     		cmp	r3, #0
 641 0068 05D1     		bne	.L36
 499:Drivers/STM32F7xx_HAL_Driver/Src/stm32f7xx_hal_eth.c ****     {
 500:Drivers/STM32F7xx_HAL_Driver/Src/stm32f7xx_hal_eth.c ****       /* Set the DMA Tx descriptors checksum insertion */
 501:Drivers/STM32F7xx_HAL_Driver/Src/stm32f7xx_hal_eth.c ****       dmatxdesc->Status |= ETH_DMATXDESC_CHECKSUMTCPUDPICMPFULL;
ARM GAS  /tmp/ccJiNVdi.s 			page 21


 642              		.loc 1 501 0
 643 006a 3B69     		ldr	r3, [r7, #16]
 644 006c 1B68     		ldr	r3, [r3]
 645 006e 43F44002 		orr	r2, r3, #12582912
 646 0072 3B69     		ldr	r3, [r7, #16]
 647 0074 1A60     		str	r2, [r3]
 648              	.L36:
 502:Drivers/STM32F7xx_HAL_Driver/Src/stm32f7xx_hal_eth.c ****     }
 503:Drivers/STM32F7xx_HAL_Driver/Src/stm32f7xx_hal_eth.c ****     
 504:Drivers/STM32F7xx_HAL_Driver/Src/stm32f7xx_hal_eth.c ****     /* Initialize the next descriptor with the Next Descriptor Polling Enable */
 505:Drivers/STM32F7xx_HAL_Driver/Src/stm32f7xx_hal_eth.c ****     if(i < (TxBuffCount-1))
 649              		.loc 1 505 0
 650 0076 3B68     		ldr	r3, [r7]
 651 0078 5A1E     		subs	r2, r3, #1
 652 007a 7B69     		ldr	r3, [r7, #20]
 653 007c 9A42     		cmp	r2, r3
 654 007e 08D9     		bls	.L37
 506:Drivers/STM32F7xx_HAL_Driver/Src/stm32f7xx_hal_eth.c ****     {
 507:Drivers/STM32F7xx_HAL_Driver/Src/stm32f7xx_hal_eth.c ****       /* Set next descriptor address register with next descriptor base address */
 508:Drivers/STM32F7xx_HAL_Driver/Src/stm32f7xx_hal_eth.c ****       dmatxdesc->Buffer2NextDescAddr = (uint32_t)(DMATxDescTab+i+1);
 655              		.loc 1 508 0
 656 0080 7B69     		ldr	r3, [r7, #20]
 657 0082 0133     		adds	r3, r3, #1
 658 0084 5B01     		lsls	r3, r3, #5
 659 0086 BA68     		ldr	r2, [r7, #8]
 660 0088 1344     		add	r3, r3, r2
 661 008a 1A46     		mov	r2, r3
 662 008c 3B69     		ldr	r3, [r7, #16]
 663 008e DA60     		str	r2, [r3, #12]
 664 0090 02E0     		b	.L38
 665              	.L37:
 509:Drivers/STM32F7xx_HAL_Driver/Src/stm32f7xx_hal_eth.c ****     }
 510:Drivers/STM32F7xx_HAL_Driver/Src/stm32f7xx_hal_eth.c ****     else
 511:Drivers/STM32F7xx_HAL_Driver/Src/stm32f7xx_hal_eth.c ****     {
 512:Drivers/STM32F7xx_HAL_Driver/Src/stm32f7xx_hal_eth.c ****       /* For last descriptor, set next descriptor address register equal to the first descriptor ba
 513:Drivers/STM32F7xx_HAL_Driver/Src/stm32f7xx_hal_eth.c ****       dmatxdesc->Buffer2NextDescAddr = (uint32_t) DMATxDescTab;  
 666              		.loc 1 513 0
 667 0092 BA68     		ldr	r2, [r7, #8]
 668 0094 3B69     		ldr	r3, [r7, #16]
 669 0096 DA60     		str	r2, [r3, #12]
 670              	.L38:
 487:Drivers/STM32F7xx_HAL_Driver/Src/stm32f7xx_hal_eth.c ****   {
 671              		.loc 1 487 0 discriminator 2
 672 0098 7B69     		ldr	r3, [r7, #20]
 673 009a 0133     		adds	r3, r3, #1
 674 009c 7B61     		str	r3, [r7, #20]
 675              	.L35:
 487:Drivers/STM32F7xx_HAL_Driver/Src/stm32f7xx_hal_eth.c ****   {
 676              		.loc 1 487 0 is_stmt 0 discriminator 1
 677 009e 7A69     		ldr	r2, [r7, #20]
 678 00a0 3B68     		ldr	r3, [r7]
 679 00a2 9A42     		cmp	r2, r3
 680 00a4 CAD3     		bcc	.L39
 514:Drivers/STM32F7xx_HAL_Driver/Src/stm32f7xx_hal_eth.c ****     }
 515:Drivers/STM32F7xx_HAL_Driver/Src/stm32f7xx_hal_eth.c ****   }
 516:Drivers/STM32F7xx_HAL_Driver/Src/stm32f7xx_hal_eth.c ****   
 517:Drivers/STM32F7xx_HAL_Driver/Src/stm32f7xx_hal_eth.c ****   /* Set Transmit Descriptor List Address Register */
ARM GAS  /tmp/ccJiNVdi.s 			page 22


 518:Drivers/STM32F7xx_HAL_Driver/Src/stm32f7xx_hal_eth.c ****   (heth->Instance)->DMATDLAR = (uint32_t) DMATxDescTab;
 681              		.loc 1 518 0 is_stmt 1
 682 00a6 FB68     		ldr	r3, [r7, #12]
 683 00a8 1968     		ldr	r1, [r3]
 684 00aa BA68     		ldr	r2, [r7, #8]
 685 00ac 41F21003 		movw	r3, #4112
 686 00b0 0B44     		add	r3, r3, r1
 687 00b2 1A60     		str	r2, [r3]
 519:Drivers/STM32F7xx_HAL_Driver/Src/stm32f7xx_hal_eth.c ****   
 520:Drivers/STM32F7xx_HAL_Driver/Src/stm32f7xx_hal_eth.c ****   /* Set ETH HAL State to Ready */
 521:Drivers/STM32F7xx_HAL_Driver/Src/stm32f7xx_hal_eth.c ****   heth->State= HAL_ETH_STATE_READY;
 688              		.loc 1 521 0
 689 00b4 FB68     		ldr	r3, [r7, #12]
 690 00b6 0122     		movs	r2, #1
 691 00b8 83F84420 		strb	r2, [r3, #68]
 522:Drivers/STM32F7xx_HAL_Driver/Src/stm32f7xx_hal_eth.c ****   
 523:Drivers/STM32F7xx_HAL_Driver/Src/stm32f7xx_hal_eth.c ****   /* Process Unlocked */
 524:Drivers/STM32F7xx_HAL_Driver/Src/stm32f7xx_hal_eth.c ****   __HAL_UNLOCK(heth);
 692              		.loc 1 524 0
 693 00bc FB68     		ldr	r3, [r7, #12]
 694 00be 0022     		movs	r2, #0
 695 00c0 83F84520 		strb	r2, [r3, #69]
 525:Drivers/STM32F7xx_HAL_Driver/Src/stm32f7xx_hal_eth.c ****   
 526:Drivers/STM32F7xx_HAL_Driver/Src/stm32f7xx_hal_eth.c ****   /* Return function status */
 527:Drivers/STM32F7xx_HAL_Driver/Src/stm32f7xx_hal_eth.c ****   return HAL_OK;
 696              		.loc 1 527 0
 697 00c4 0023     		movs	r3, #0
 698              	.L34:
 528:Drivers/STM32F7xx_HAL_Driver/Src/stm32f7xx_hal_eth.c **** }
 699              		.loc 1 528 0
 700 00c6 1846     		mov	r0, r3
 701 00c8 1C37     		adds	r7, r7, #28
 702              	.LCFI13:
 703              		.cfi_def_cfa_offset 4
 704 00ca BD46     		mov	sp, r7
 705              	.LCFI14:
 706              		.cfi_def_cfa_register 13
 707              		@ sp needed
 708 00cc 5DF8047B 		ldr	r7, [sp], #4
 709              	.LCFI15:
 710              		.cfi_restore 7
 711              		.cfi_def_cfa_offset 0
 712 00d0 7047     		bx	lr
 713              		.cfi_endproc
 714              	.LFE138:
 716              		.section	.text.HAL_ETH_DMARxDescListInit,"ax",%progbits
 717              		.align	1
 718              		.global	HAL_ETH_DMARxDescListInit
 719              		.syntax unified
 720              		.thumb
 721              		.thumb_func
 722              		.fpu fpv4-sp-d16
 724              	HAL_ETH_DMARxDescListInit:
 725              	.LFB139:
 529:Drivers/STM32F7xx_HAL_Driver/Src/stm32f7xx_hal_eth.c **** 
 530:Drivers/STM32F7xx_HAL_Driver/Src/stm32f7xx_hal_eth.c **** /**
 531:Drivers/STM32F7xx_HAL_Driver/Src/stm32f7xx_hal_eth.c ****   * @brief  Initializes the DMA Rx descriptors in chain mode.
ARM GAS  /tmp/ccJiNVdi.s 			page 23


 532:Drivers/STM32F7xx_HAL_Driver/Src/stm32f7xx_hal_eth.c ****   * @param  heth pointer to a ETH_HandleTypeDef structure that contains
 533:Drivers/STM32F7xx_HAL_Driver/Src/stm32f7xx_hal_eth.c ****   *         the configuration information for ETHERNET module  
 534:Drivers/STM32F7xx_HAL_Driver/Src/stm32f7xx_hal_eth.c ****   * @param  DMARxDescTab Pointer to the first Rx desc list 
 535:Drivers/STM32F7xx_HAL_Driver/Src/stm32f7xx_hal_eth.c ****   * @param  RxBuff Pointer to the first RxBuffer list
 536:Drivers/STM32F7xx_HAL_Driver/Src/stm32f7xx_hal_eth.c ****   * @param  RxBuffCount Number of the used Rx desc in the list
 537:Drivers/STM32F7xx_HAL_Driver/Src/stm32f7xx_hal_eth.c ****   * @retval HAL status
 538:Drivers/STM32F7xx_HAL_Driver/Src/stm32f7xx_hal_eth.c ****   */
 539:Drivers/STM32F7xx_HAL_Driver/Src/stm32f7xx_hal_eth.c **** HAL_StatusTypeDef HAL_ETH_DMARxDescListInit(ETH_HandleTypeDef *heth, ETH_DMADescTypeDef *DMARxDescT
 540:Drivers/STM32F7xx_HAL_Driver/Src/stm32f7xx_hal_eth.c **** {
 726              		.loc 1 540 0
 727              		.cfi_startproc
 728              		@ args = 0, pretend = 0, frame = 24
 729              		@ frame_needed = 1, uses_anonymous_args = 0
 730              		@ link register save eliminated.
 731 0000 80B4     		push	{r7}
 732              	.LCFI16:
 733              		.cfi_def_cfa_offset 4
 734              		.cfi_offset 7, -4
 735 0002 87B0     		sub	sp, sp, #28
 736              	.LCFI17:
 737              		.cfi_def_cfa_offset 32
 738 0004 00AF     		add	r7, sp, #0
 739              	.LCFI18:
 740              		.cfi_def_cfa_register 7
 741 0006 F860     		str	r0, [r7, #12]
 742 0008 B960     		str	r1, [r7, #8]
 743 000a 7A60     		str	r2, [r7, #4]
 744 000c 3B60     		str	r3, [r7]
 541:Drivers/STM32F7xx_HAL_Driver/Src/stm32f7xx_hal_eth.c ****   uint32_t i = 0;
 745              		.loc 1 541 0
 746 000e 0023     		movs	r3, #0
 747 0010 7B61     		str	r3, [r7, #20]
 542:Drivers/STM32F7xx_HAL_Driver/Src/stm32f7xx_hal_eth.c ****   ETH_DMADescTypeDef *DMARxDesc;
 543:Drivers/STM32F7xx_HAL_Driver/Src/stm32f7xx_hal_eth.c ****   
 544:Drivers/STM32F7xx_HAL_Driver/Src/stm32f7xx_hal_eth.c ****   /* Process Locked */
 545:Drivers/STM32F7xx_HAL_Driver/Src/stm32f7xx_hal_eth.c ****   __HAL_LOCK(heth);
 748              		.loc 1 545 0
 749 0012 FB68     		ldr	r3, [r7, #12]
 750 0014 93F84530 		ldrb	r3, [r3, #69]	@ zero_extendqisi2
 751 0018 012B     		cmp	r3, #1
 752 001a 01D1     		bne	.L41
 753              		.loc 1 545 0 is_stmt 0 discriminator 1
 754 001c 0223     		movs	r3, #2
 755 001e 56E0     		b	.L42
 756              	.L41:
 757              		.loc 1 545 0 discriminator 2
 758 0020 FB68     		ldr	r3, [r7, #12]
 759 0022 0122     		movs	r2, #1
 760 0024 83F84520 		strb	r2, [r3, #69]
 546:Drivers/STM32F7xx_HAL_Driver/Src/stm32f7xx_hal_eth.c ****   
 547:Drivers/STM32F7xx_HAL_Driver/Src/stm32f7xx_hal_eth.c ****   /* Set the ETH peripheral state to BUSY */
 548:Drivers/STM32F7xx_HAL_Driver/Src/stm32f7xx_hal_eth.c ****   heth->State = HAL_ETH_STATE_BUSY;
 761              		.loc 1 548 0 is_stmt 1 discriminator 2
 762 0028 FB68     		ldr	r3, [r7, #12]
 763 002a 0222     		movs	r2, #2
 764 002c 83F84420 		strb	r2, [r3, #68]
 549:Drivers/STM32F7xx_HAL_Driver/Src/stm32f7xx_hal_eth.c ****   
ARM GAS  /tmp/ccJiNVdi.s 			page 24


 550:Drivers/STM32F7xx_HAL_Driver/Src/stm32f7xx_hal_eth.c ****   /* Set the Ethernet RxDesc pointer with the first one of the DMARxDescTab list */
 551:Drivers/STM32F7xx_HAL_Driver/Src/stm32f7xx_hal_eth.c ****   heth->RxDesc = DMARxDescTab; 
 765              		.loc 1 551 0 discriminator 2
 766 0030 FB68     		ldr	r3, [r7, #12]
 767 0032 BA68     		ldr	r2, [r7, #8]
 768 0034 9A62     		str	r2, [r3, #40]
 552:Drivers/STM32F7xx_HAL_Driver/Src/stm32f7xx_hal_eth.c ****   
 553:Drivers/STM32F7xx_HAL_Driver/Src/stm32f7xx_hal_eth.c ****   /* Fill each DMARxDesc descriptor with the right values */
 554:Drivers/STM32F7xx_HAL_Driver/Src/stm32f7xx_hal_eth.c ****   for(i=0; i < RxBuffCount; i++)
 769              		.loc 1 554 0 discriminator 2
 770 0036 0023     		movs	r3, #0
 771 0038 7B61     		str	r3, [r7, #20]
 772 003a 34E0     		b	.L43
 773              	.L47:
 555:Drivers/STM32F7xx_HAL_Driver/Src/stm32f7xx_hal_eth.c ****   {
 556:Drivers/STM32F7xx_HAL_Driver/Src/stm32f7xx_hal_eth.c ****     /* Get the pointer on the ith member of the Rx Desc list */
 557:Drivers/STM32F7xx_HAL_Driver/Src/stm32f7xx_hal_eth.c ****     DMARxDesc = DMARxDescTab+i;
 774              		.loc 1 557 0
 775 003c 7B69     		ldr	r3, [r7, #20]
 776 003e 5B01     		lsls	r3, r3, #5
 777 0040 BA68     		ldr	r2, [r7, #8]
 778 0042 1344     		add	r3, r3, r2
 779 0044 3B61     		str	r3, [r7, #16]
 558:Drivers/STM32F7xx_HAL_Driver/Src/stm32f7xx_hal_eth.c ****     
 559:Drivers/STM32F7xx_HAL_Driver/Src/stm32f7xx_hal_eth.c ****     /* Set Own bit of the Rx descriptor Status */
 560:Drivers/STM32F7xx_HAL_Driver/Src/stm32f7xx_hal_eth.c ****     DMARxDesc->Status = ETH_DMARXDESC_OWN;
 780              		.loc 1 560 0
 781 0046 3B69     		ldr	r3, [r7, #16]
 782 0048 4FF00042 		mov	r2, #-2147483648
 783 004c 1A60     		str	r2, [r3]
 561:Drivers/STM32F7xx_HAL_Driver/Src/stm32f7xx_hal_eth.c ****     
 562:Drivers/STM32F7xx_HAL_Driver/Src/stm32f7xx_hal_eth.c ****     /* Set Buffer1 size and Second Address Chained bit */
 563:Drivers/STM32F7xx_HAL_Driver/Src/stm32f7xx_hal_eth.c ****     DMARxDesc->ControlBufferSize = ETH_DMARXDESC_RCH | ETH_RX_BUF_SIZE;  
 784              		.loc 1 563 0
 785 004e 3B69     		ldr	r3, [r7, #16]
 786 0050 44F2F452 		movw	r2, #17908
 787 0054 5A60     		str	r2, [r3, #4]
 564:Drivers/STM32F7xx_HAL_Driver/Src/stm32f7xx_hal_eth.c ****     
 565:Drivers/STM32F7xx_HAL_Driver/Src/stm32f7xx_hal_eth.c ****     /* Set Buffer1 address pointer */
 566:Drivers/STM32F7xx_HAL_Driver/Src/stm32f7xx_hal_eth.c ****     DMARxDesc->Buffer1Addr = (uint32_t)(&RxBuff[i*ETH_RX_BUF_SIZE]);
 788              		.loc 1 566 0
 789 0056 7B69     		ldr	r3, [r7, #20]
 790 0058 40F2F452 		movw	r2, #1524
 791 005c 02FB03F3 		mul	r3, r2, r3
 792 0060 7A68     		ldr	r2, [r7, #4]
 793 0062 1344     		add	r3, r3, r2
 794 0064 1A46     		mov	r2, r3
 795 0066 3B69     		ldr	r3, [r7, #16]
 796 0068 9A60     		str	r2, [r3, #8]
 567:Drivers/STM32F7xx_HAL_Driver/Src/stm32f7xx_hal_eth.c ****     
 568:Drivers/STM32F7xx_HAL_Driver/Src/stm32f7xx_hal_eth.c ****     if((heth->Init).RxMode == ETH_RXINTERRUPT_MODE)
 797              		.loc 1 568 0
 798 006a FB68     		ldr	r3, [r7, #12]
 799 006c 9B69     		ldr	r3, [r3, #24]
 800 006e 012B     		cmp	r3, #1
 801 0070 05D1     		bne	.L44
 569:Drivers/STM32F7xx_HAL_Driver/Src/stm32f7xx_hal_eth.c ****     {
ARM GAS  /tmp/ccJiNVdi.s 			page 25


 570:Drivers/STM32F7xx_HAL_Driver/Src/stm32f7xx_hal_eth.c ****       /* Enable Ethernet DMA Rx Descriptor interrupt */
 571:Drivers/STM32F7xx_HAL_Driver/Src/stm32f7xx_hal_eth.c ****       DMARxDesc->ControlBufferSize &= ~ETH_DMARXDESC_DIC;
 802              		.loc 1 571 0
 803 0072 3B69     		ldr	r3, [r7, #16]
 804 0074 5B68     		ldr	r3, [r3, #4]
 805 0076 23F00042 		bic	r2, r3, #-2147483648
 806 007a 3B69     		ldr	r3, [r7, #16]
 807 007c 5A60     		str	r2, [r3, #4]
 808              	.L44:
 572:Drivers/STM32F7xx_HAL_Driver/Src/stm32f7xx_hal_eth.c ****     }
 573:Drivers/STM32F7xx_HAL_Driver/Src/stm32f7xx_hal_eth.c ****     
 574:Drivers/STM32F7xx_HAL_Driver/Src/stm32f7xx_hal_eth.c ****     /* Initialize the next descriptor with the Next Descriptor Polling Enable */
 575:Drivers/STM32F7xx_HAL_Driver/Src/stm32f7xx_hal_eth.c ****     if(i < (RxBuffCount-1))
 809              		.loc 1 575 0
 810 007e 3B68     		ldr	r3, [r7]
 811 0080 5A1E     		subs	r2, r3, #1
 812 0082 7B69     		ldr	r3, [r7, #20]
 813 0084 9A42     		cmp	r2, r3
 814 0086 08D9     		bls	.L45
 576:Drivers/STM32F7xx_HAL_Driver/Src/stm32f7xx_hal_eth.c ****     {
 577:Drivers/STM32F7xx_HAL_Driver/Src/stm32f7xx_hal_eth.c ****       /* Set next descriptor address register with next descriptor base address */
 578:Drivers/STM32F7xx_HAL_Driver/Src/stm32f7xx_hal_eth.c ****       DMARxDesc->Buffer2NextDescAddr = (uint32_t)(DMARxDescTab+i+1); 
 815              		.loc 1 578 0
 816 0088 7B69     		ldr	r3, [r7, #20]
 817 008a 0133     		adds	r3, r3, #1
 818 008c 5B01     		lsls	r3, r3, #5
 819 008e BA68     		ldr	r2, [r7, #8]
 820 0090 1344     		add	r3, r3, r2
 821 0092 1A46     		mov	r2, r3
 822 0094 3B69     		ldr	r3, [r7, #16]
 823 0096 DA60     		str	r2, [r3, #12]
 824 0098 02E0     		b	.L46
 825              	.L45:
 579:Drivers/STM32F7xx_HAL_Driver/Src/stm32f7xx_hal_eth.c ****     }
 580:Drivers/STM32F7xx_HAL_Driver/Src/stm32f7xx_hal_eth.c ****     else
 581:Drivers/STM32F7xx_HAL_Driver/Src/stm32f7xx_hal_eth.c ****     {
 582:Drivers/STM32F7xx_HAL_Driver/Src/stm32f7xx_hal_eth.c ****       /* For last descriptor, set next descriptor address register equal to the first descriptor ba
 583:Drivers/STM32F7xx_HAL_Driver/Src/stm32f7xx_hal_eth.c ****       DMARxDesc->Buffer2NextDescAddr = (uint32_t)(DMARxDescTab); 
 826              		.loc 1 583 0
 827 009a BA68     		ldr	r2, [r7, #8]
 828 009c 3B69     		ldr	r3, [r7, #16]
 829 009e DA60     		str	r2, [r3, #12]
 830              	.L46:
 554:Drivers/STM32F7xx_HAL_Driver/Src/stm32f7xx_hal_eth.c ****   {
 831              		.loc 1 554 0 discriminator 2
 832 00a0 7B69     		ldr	r3, [r7, #20]
 833 00a2 0133     		adds	r3, r3, #1
 834 00a4 7B61     		str	r3, [r7, #20]
 835              	.L43:
 554:Drivers/STM32F7xx_HAL_Driver/Src/stm32f7xx_hal_eth.c ****   {
 836              		.loc 1 554 0 is_stmt 0 discriminator 1
 837 00a6 7A69     		ldr	r2, [r7, #20]
 838 00a8 3B68     		ldr	r3, [r7]
 839 00aa 9A42     		cmp	r2, r3
 840 00ac C6D3     		bcc	.L47
 584:Drivers/STM32F7xx_HAL_Driver/Src/stm32f7xx_hal_eth.c ****     }
 585:Drivers/STM32F7xx_HAL_Driver/Src/stm32f7xx_hal_eth.c ****   }
ARM GAS  /tmp/ccJiNVdi.s 			page 26


 586:Drivers/STM32F7xx_HAL_Driver/Src/stm32f7xx_hal_eth.c ****   
 587:Drivers/STM32F7xx_HAL_Driver/Src/stm32f7xx_hal_eth.c ****   /* Set Receive Descriptor List Address Register */
 588:Drivers/STM32F7xx_HAL_Driver/Src/stm32f7xx_hal_eth.c ****   (heth->Instance)->DMARDLAR = (uint32_t) DMARxDescTab;
 841              		.loc 1 588 0 is_stmt 1
 842 00ae FB68     		ldr	r3, [r7, #12]
 843 00b0 1968     		ldr	r1, [r3]
 844 00b2 BA68     		ldr	r2, [r7, #8]
 845 00b4 41F20C03 		movw	r3, #4108
 846 00b8 0B44     		add	r3, r3, r1
 847 00ba 1A60     		str	r2, [r3]
 589:Drivers/STM32F7xx_HAL_Driver/Src/stm32f7xx_hal_eth.c ****   
 590:Drivers/STM32F7xx_HAL_Driver/Src/stm32f7xx_hal_eth.c ****   /* Set ETH HAL State to Ready */
 591:Drivers/STM32F7xx_HAL_Driver/Src/stm32f7xx_hal_eth.c ****   heth->State= HAL_ETH_STATE_READY;
 848              		.loc 1 591 0
 849 00bc FB68     		ldr	r3, [r7, #12]
 850 00be 0122     		movs	r2, #1
 851 00c0 83F84420 		strb	r2, [r3, #68]
 592:Drivers/STM32F7xx_HAL_Driver/Src/stm32f7xx_hal_eth.c ****   
 593:Drivers/STM32F7xx_HAL_Driver/Src/stm32f7xx_hal_eth.c ****   /* Process Unlocked */
 594:Drivers/STM32F7xx_HAL_Driver/Src/stm32f7xx_hal_eth.c ****   __HAL_UNLOCK(heth);
 852              		.loc 1 594 0
 853 00c4 FB68     		ldr	r3, [r7, #12]
 854 00c6 0022     		movs	r2, #0
 855 00c8 83F84520 		strb	r2, [r3, #69]
 595:Drivers/STM32F7xx_HAL_Driver/Src/stm32f7xx_hal_eth.c ****   
 596:Drivers/STM32F7xx_HAL_Driver/Src/stm32f7xx_hal_eth.c ****   /* Return function status */
 597:Drivers/STM32F7xx_HAL_Driver/Src/stm32f7xx_hal_eth.c ****   return HAL_OK;
 856              		.loc 1 597 0
 857 00cc 0023     		movs	r3, #0
 858              	.L42:
 598:Drivers/STM32F7xx_HAL_Driver/Src/stm32f7xx_hal_eth.c **** }
 859              		.loc 1 598 0
 860 00ce 1846     		mov	r0, r3
 861 00d0 1C37     		adds	r7, r7, #28
 862              	.LCFI19:
 863              		.cfi_def_cfa_offset 4
 864 00d2 BD46     		mov	sp, r7
 865              	.LCFI20:
 866              		.cfi_def_cfa_register 13
 867              		@ sp needed
 868 00d4 5DF8047B 		ldr	r7, [sp], #4
 869              	.LCFI21:
 870              		.cfi_restore 7
 871              		.cfi_def_cfa_offset 0
 872 00d8 7047     		bx	lr
 873              		.cfi_endproc
 874              	.LFE139:
 876              		.section	.text.HAL_ETH_MspInit,"ax",%progbits
 877              		.align	1
 878              		.weak	HAL_ETH_MspInit
 879              		.syntax unified
 880              		.thumb
 881              		.thumb_func
 882              		.fpu fpv4-sp-d16
 884              	HAL_ETH_MspInit:
 885              	.LFB140:
 599:Drivers/STM32F7xx_HAL_Driver/Src/stm32f7xx_hal_eth.c **** 
ARM GAS  /tmp/ccJiNVdi.s 			page 27


 600:Drivers/STM32F7xx_HAL_Driver/Src/stm32f7xx_hal_eth.c **** /**
 601:Drivers/STM32F7xx_HAL_Driver/Src/stm32f7xx_hal_eth.c ****   * @brief  Initializes the ETH MSP.
 602:Drivers/STM32F7xx_HAL_Driver/Src/stm32f7xx_hal_eth.c ****   * @param  heth pointer to a ETH_HandleTypeDef structure that contains
 603:Drivers/STM32F7xx_HAL_Driver/Src/stm32f7xx_hal_eth.c ****   *         the configuration information for ETHERNET module
 604:Drivers/STM32F7xx_HAL_Driver/Src/stm32f7xx_hal_eth.c ****   * @retval None
 605:Drivers/STM32F7xx_HAL_Driver/Src/stm32f7xx_hal_eth.c ****   */
 606:Drivers/STM32F7xx_HAL_Driver/Src/stm32f7xx_hal_eth.c **** __weak void HAL_ETH_MspInit(ETH_HandleTypeDef *heth)
 607:Drivers/STM32F7xx_HAL_Driver/Src/stm32f7xx_hal_eth.c **** {
 886              		.loc 1 607 0
 887              		.cfi_startproc
 888              		@ args = 0, pretend = 0, frame = 8
 889              		@ frame_needed = 1, uses_anonymous_args = 0
 890              		@ link register save eliminated.
 891 0000 80B4     		push	{r7}
 892              	.LCFI22:
 893              		.cfi_def_cfa_offset 4
 894              		.cfi_offset 7, -4
 895 0002 83B0     		sub	sp, sp, #12
 896              	.LCFI23:
 897              		.cfi_def_cfa_offset 16
 898 0004 00AF     		add	r7, sp, #0
 899              	.LCFI24:
 900              		.cfi_def_cfa_register 7
 901 0006 7860     		str	r0, [r7, #4]
 608:Drivers/STM32F7xx_HAL_Driver/Src/stm32f7xx_hal_eth.c ****   /* Prevent unused argument(s) compilation warning */
 609:Drivers/STM32F7xx_HAL_Driver/Src/stm32f7xx_hal_eth.c ****   UNUSED(heth);
 610:Drivers/STM32F7xx_HAL_Driver/Src/stm32f7xx_hal_eth.c ****  
 611:Drivers/STM32F7xx_HAL_Driver/Src/stm32f7xx_hal_eth.c ****   /* NOTE : This function Should not be modified, when the callback is needed,
 612:Drivers/STM32F7xx_HAL_Driver/Src/stm32f7xx_hal_eth.c ****   the HAL_ETH_MspInit could be implemented in the user file
 613:Drivers/STM32F7xx_HAL_Driver/Src/stm32f7xx_hal_eth.c ****   */
 614:Drivers/STM32F7xx_HAL_Driver/Src/stm32f7xx_hal_eth.c **** }
 902              		.loc 1 614 0
 903 0008 00BF     		nop
 904 000a 0C37     		adds	r7, r7, #12
 905              	.LCFI25:
 906              		.cfi_def_cfa_offset 4
 907 000c BD46     		mov	sp, r7
 908              	.LCFI26:
 909              		.cfi_def_cfa_register 13
 910              		@ sp needed
 911 000e 5DF8047B 		ldr	r7, [sp], #4
 912              	.LCFI27:
 913              		.cfi_restore 7
 914              		.cfi_def_cfa_offset 0
 915 0012 7047     		bx	lr
 916              		.cfi_endproc
 917              	.LFE140:
 919              		.section	.text.HAL_ETH_MspDeInit,"ax",%progbits
 920              		.align	1
 921              		.weak	HAL_ETH_MspDeInit
 922              		.syntax unified
 923              		.thumb
 924              		.thumb_func
 925              		.fpu fpv4-sp-d16
 927              	HAL_ETH_MspDeInit:
 928              	.LFB141:
 615:Drivers/STM32F7xx_HAL_Driver/Src/stm32f7xx_hal_eth.c **** 
ARM GAS  /tmp/ccJiNVdi.s 			page 28


 616:Drivers/STM32F7xx_HAL_Driver/Src/stm32f7xx_hal_eth.c **** /**
 617:Drivers/STM32F7xx_HAL_Driver/Src/stm32f7xx_hal_eth.c ****   * @brief  DeInitializes ETH MSP.
 618:Drivers/STM32F7xx_HAL_Driver/Src/stm32f7xx_hal_eth.c ****   * @param  heth pointer to a ETH_HandleTypeDef structure that contains
 619:Drivers/STM32F7xx_HAL_Driver/Src/stm32f7xx_hal_eth.c ****   *         the configuration information for ETHERNET module
 620:Drivers/STM32F7xx_HAL_Driver/Src/stm32f7xx_hal_eth.c ****   * @retval None
 621:Drivers/STM32F7xx_HAL_Driver/Src/stm32f7xx_hal_eth.c ****   */
 622:Drivers/STM32F7xx_HAL_Driver/Src/stm32f7xx_hal_eth.c **** __weak void HAL_ETH_MspDeInit(ETH_HandleTypeDef *heth)
 623:Drivers/STM32F7xx_HAL_Driver/Src/stm32f7xx_hal_eth.c **** {
 929              		.loc 1 623 0
 930              		.cfi_startproc
 931              		@ args = 0, pretend = 0, frame = 8
 932              		@ frame_needed = 1, uses_anonymous_args = 0
 933              		@ link register save eliminated.
 934 0000 80B4     		push	{r7}
 935              	.LCFI28:
 936              		.cfi_def_cfa_offset 4
 937              		.cfi_offset 7, -4
 938 0002 83B0     		sub	sp, sp, #12
 939              	.LCFI29:
 940              		.cfi_def_cfa_offset 16
 941 0004 00AF     		add	r7, sp, #0
 942              	.LCFI30:
 943              		.cfi_def_cfa_register 7
 944 0006 7860     		str	r0, [r7, #4]
 624:Drivers/STM32F7xx_HAL_Driver/Src/stm32f7xx_hal_eth.c ****   /* Prevent unused argument(s) compilation warning */
 625:Drivers/STM32F7xx_HAL_Driver/Src/stm32f7xx_hal_eth.c ****   UNUSED(heth);
 626:Drivers/STM32F7xx_HAL_Driver/Src/stm32f7xx_hal_eth.c ****  
 627:Drivers/STM32F7xx_HAL_Driver/Src/stm32f7xx_hal_eth.c ****   /* NOTE : This function Should not be modified, when the callback is needed,
 628:Drivers/STM32F7xx_HAL_Driver/Src/stm32f7xx_hal_eth.c ****   the HAL_ETH_MspDeInit could be implemented in the user file
 629:Drivers/STM32F7xx_HAL_Driver/Src/stm32f7xx_hal_eth.c ****   */
 630:Drivers/STM32F7xx_HAL_Driver/Src/stm32f7xx_hal_eth.c **** }
 945              		.loc 1 630 0
 946 0008 00BF     		nop
 947 000a 0C37     		adds	r7, r7, #12
 948              	.LCFI31:
 949              		.cfi_def_cfa_offset 4
 950 000c BD46     		mov	sp, r7
 951              	.LCFI32:
 952              		.cfi_def_cfa_register 13
 953              		@ sp needed
 954 000e 5DF8047B 		ldr	r7, [sp], #4
 955              	.LCFI33:
 956              		.cfi_restore 7
 957              		.cfi_def_cfa_offset 0
 958 0012 7047     		bx	lr
 959              		.cfi_endproc
 960              	.LFE141:
 962              		.section	.text.HAL_ETH_TransmitFrame,"ax",%progbits
 963              		.align	1
 964              		.global	HAL_ETH_TransmitFrame
 965              		.syntax unified
 966              		.thumb
 967              		.thumb_func
 968              		.fpu fpv4-sp-d16
 970              	HAL_ETH_TransmitFrame:
 971              	.LFB142:
 631:Drivers/STM32F7xx_HAL_Driver/Src/stm32f7xx_hal_eth.c **** 
ARM GAS  /tmp/ccJiNVdi.s 			page 29


 632:Drivers/STM32F7xx_HAL_Driver/Src/stm32f7xx_hal_eth.c **** /**
 633:Drivers/STM32F7xx_HAL_Driver/Src/stm32f7xx_hal_eth.c ****   * @}
 634:Drivers/STM32F7xx_HAL_Driver/Src/stm32f7xx_hal_eth.c ****   */
 635:Drivers/STM32F7xx_HAL_Driver/Src/stm32f7xx_hal_eth.c **** 
 636:Drivers/STM32F7xx_HAL_Driver/Src/stm32f7xx_hal_eth.c **** /** @defgroup ETH_Exported_Functions_Group2 IO operation functions 
 637:Drivers/STM32F7xx_HAL_Driver/Src/stm32f7xx_hal_eth.c ****   *  @brief   Data transfers functions 
 638:Drivers/STM32F7xx_HAL_Driver/Src/stm32f7xx_hal_eth.c ****   *
 639:Drivers/STM32F7xx_HAL_Driver/Src/stm32f7xx_hal_eth.c ****   @verbatim   
 640:Drivers/STM32F7xx_HAL_Driver/Src/stm32f7xx_hal_eth.c ****   ==============================================================================
 641:Drivers/STM32F7xx_HAL_Driver/Src/stm32f7xx_hal_eth.c ****                           ##### IO operation functions #####
 642:Drivers/STM32F7xx_HAL_Driver/Src/stm32f7xx_hal_eth.c ****   ==============================================================================  
 643:Drivers/STM32F7xx_HAL_Driver/Src/stm32f7xx_hal_eth.c ****   [..]  This section provides functions allowing to:
 644:Drivers/STM32F7xx_HAL_Driver/Src/stm32f7xx_hal_eth.c ****         (+) Transmit a frame
 645:Drivers/STM32F7xx_HAL_Driver/Src/stm32f7xx_hal_eth.c ****             HAL_ETH_TransmitFrame();
 646:Drivers/STM32F7xx_HAL_Driver/Src/stm32f7xx_hal_eth.c ****         (+) Receive a frame
 647:Drivers/STM32F7xx_HAL_Driver/Src/stm32f7xx_hal_eth.c ****             HAL_ETH_GetReceivedFrame();
 648:Drivers/STM32F7xx_HAL_Driver/Src/stm32f7xx_hal_eth.c ****             HAL_ETH_GetReceivedFrame_IT();
 649:Drivers/STM32F7xx_HAL_Driver/Src/stm32f7xx_hal_eth.c ****         (+) Read from an External PHY register
 650:Drivers/STM32F7xx_HAL_Driver/Src/stm32f7xx_hal_eth.c ****             HAL_ETH_ReadPHYRegister();
 651:Drivers/STM32F7xx_HAL_Driver/Src/stm32f7xx_hal_eth.c ****         (+) Write to an External PHY register
 652:Drivers/STM32F7xx_HAL_Driver/Src/stm32f7xx_hal_eth.c ****             HAL_ETH_WritePHYRegister();
 653:Drivers/STM32F7xx_HAL_Driver/Src/stm32f7xx_hal_eth.c **** 
 654:Drivers/STM32F7xx_HAL_Driver/Src/stm32f7xx_hal_eth.c ****   @endverbatim
 655:Drivers/STM32F7xx_HAL_Driver/Src/stm32f7xx_hal_eth.c ****   
 656:Drivers/STM32F7xx_HAL_Driver/Src/stm32f7xx_hal_eth.c ****   * @{
 657:Drivers/STM32F7xx_HAL_Driver/Src/stm32f7xx_hal_eth.c ****   */
 658:Drivers/STM32F7xx_HAL_Driver/Src/stm32f7xx_hal_eth.c **** 
 659:Drivers/STM32F7xx_HAL_Driver/Src/stm32f7xx_hal_eth.c **** /**
 660:Drivers/STM32F7xx_HAL_Driver/Src/stm32f7xx_hal_eth.c ****   * @brief  Sends an Ethernet frame. 
 661:Drivers/STM32F7xx_HAL_Driver/Src/stm32f7xx_hal_eth.c ****   * @param  heth pointer to a ETH_HandleTypeDef structure that contains
 662:Drivers/STM32F7xx_HAL_Driver/Src/stm32f7xx_hal_eth.c ****   *         the configuration information for ETHERNET module
 663:Drivers/STM32F7xx_HAL_Driver/Src/stm32f7xx_hal_eth.c ****   * @param  FrameLength Amount of data to be sent
 664:Drivers/STM32F7xx_HAL_Driver/Src/stm32f7xx_hal_eth.c ****   * @retval HAL status
 665:Drivers/STM32F7xx_HAL_Driver/Src/stm32f7xx_hal_eth.c ****   */
 666:Drivers/STM32F7xx_HAL_Driver/Src/stm32f7xx_hal_eth.c **** HAL_StatusTypeDef HAL_ETH_TransmitFrame(ETH_HandleTypeDef *heth, uint32_t FrameLength)
 667:Drivers/STM32F7xx_HAL_Driver/Src/stm32f7xx_hal_eth.c **** {
 972              		.loc 1 667 0
 973              		.cfi_startproc
 974              		@ args = 0, pretend = 0, frame = 24
 975              		@ frame_needed = 1, uses_anonymous_args = 0
 976              		@ link register save eliminated.
 977 0000 80B4     		push	{r7}
 978              	.LCFI34:
 979              		.cfi_def_cfa_offset 4
 980              		.cfi_offset 7, -4
 981 0002 87B0     		sub	sp, sp, #28
 982              	.LCFI35:
 983              		.cfi_def_cfa_offset 32
 984 0004 00AF     		add	r7, sp, #0
 985              	.LCFI36:
 986              		.cfi_def_cfa_register 7
 987 0006 7860     		str	r0, [r7, #4]
 988 0008 3960     		str	r1, [r7]
 668:Drivers/STM32F7xx_HAL_Driver/Src/stm32f7xx_hal_eth.c ****   uint32_t bufcount = 0, size = 0, i = 0;
 989              		.loc 1 668 0
 990 000a 0023     		movs	r3, #0
 991 000c 7B61     		str	r3, [r7, #20]
ARM GAS  /tmp/ccJiNVdi.s 			page 30


 992 000e 0023     		movs	r3, #0
 993 0010 FB60     		str	r3, [r7, #12]
 994 0012 0023     		movs	r3, #0
 995 0014 3B61     		str	r3, [r7, #16]
 669:Drivers/STM32F7xx_HAL_Driver/Src/stm32f7xx_hal_eth.c ****   
 670:Drivers/STM32F7xx_HAL_Driver/Src/stm32f7xx_hal_eth.c ****   /* Process Locked */
 671:Drivers/STM32F7xx_HAL_Driver/Src/stm32f7xx_hal_eth.c ****   __HAL_LOCK(heth);
 996              		.loc 1 671 0
 997 0016 7B68     		ldr	r3, [r7, #4]
 998 0018 93F84530 		ldrb	r3, [r3, #69]	@ zero_extendqisi2
 999 001c 012B     		cmp	r3, #1
 1000 001e 01D1     		bne	.L51
 1001              		.loc 1 671 0 is_stmt 0 discriminator 1
 1002 0020 0223     		movs	r3, #2
 1003 0022 CDE0     		b	.L52
 1004              	.L51:
 1005              		.loc 1 671 0 discriminator 2
 1006 0024 7B68     		ldr	r3, [r7, #4]
 1007 0026 0122     		movs	r2, #1
 1008 0028 83F84520 		strb	r2, [r3, #69]
 672:Drivers/STM32F7xx_HAL_Driver/Src/stm32f7xx_hal_eth.c ****   
 673:Drivers/STM32F7xx_HAL_Driver/Src/stm32f7xx_hal_eth.c ****   /* Set the ETH peripheral state to BUSY */
 674:Drivers/STM32F7xx_HAL_Driver/Src/stm32f7xx_hal_eth.c ****   heth->State = HAL_ETH_STATE_BUSY;
 1009              		.loc 1 674 0 is_stmt 1 discriminator 2
 1010 002c 7B68     		ldr	r3, [r7, #4]
 1011 002e 0222     		movs	r2, #2
 1012 0030 83F84420 		strb	r2, [r3, #68]
 675:Drivers/STM32F7xx_HAL_Driver/Src/stm32f7xx_hal_eth.c ****   
 676:Drivers/STM32F7xx_HAL_Driver/Src/stm32f7xx_hal_eth.c ****   if (FrameLength == 0) 
 1013              		.loc 1 676 0 discriminator 2
 1014 0034 3B68     		ldr	r3, [r7]
 1015 0036 002B     		cmp	r3, #0
 1016 0038 09D1     		bne	.L53
 677:Drivers/STM32F7xx_HAL_Driver/Src/stm32f7xx_hal_eth.c ****   {
 678:Drivers/STM32F7xx_HAL_Driver/Src/stm32f7xx_hal_eth.c ****     /* Set ETH HAL state to READY */
 679:Drivers/STM32F7xx_HAL_Driver/Src/stm32f7xx_hal_eth.c ****     heth->State = HAL_ETH_STATE_READY;
 1017              		.loc 1 679 0
 1018 003a 7B68     		ldr	r3, [r7, #4]
 1019 003c 0122     		movs	r2, #1
 1020 003e 83F84420 		strb	r2, [r3, #68]
 680:Drivers/STM32F7xx_HAL_Driver/Src/stm32f7xx_hal_eth.c ****     
 681:Drivers/STM32F7xx_HAL_Driver/Src/stm32f7xx_hal_eth.c ****     /* Process Unlocked */
 682:Drivers/STM32F7xx_HAL_Driver/Src/stm32f7xx_hal_eth.c ****     __HAL_UNLOCK(heth);
 1021              		.loc 1 682 0
 1022 0042 7B68     		ldr	r3, [r7, #4]
 1023 0044 0022     		movs	r2, #0
 1024 0046 83F84520 		strb	r2, [r3, #69]
 683:Drivers/STM32F7xx_HAL_Driver/Src/stm32f7xx_hal_eth.c ****     
 684:Drivers/STM32F7xx_HAL_Driver/Src/stm32f7xx_hal_eth.c ****     return  HAL_ERROR;                                    
 1025              		.loc 1 684 0
 1026 004a 0123     		movs	r3, #1
 1027 004c B8E0     		b	.L52
 1028              	.L53:
 685:Drivers/STM32F7xx_HAL_Driver/Src/stm32f7xx_hal_eth.c ****   }  
 686:Drivers/STM32F7xx_HAL_Driver/Src/stm32f7xx_hal_eth.c ****   
 687:Drivers/STM32F7xx_HAL_Driver/Src/stm32f7xx_hal_eth.c ****   /* Check if the descriptor is owned by the ETHERNET DMA (when set) or CPU (when reset) */
 688:Drivers/STM32F7xx_HAL_Driver/Src/stm32f7xx_hal_eth.c ****   if(((heth->TxDesc)->Status & ETH_DMATXDESC_OWN) != (uint32_t)RESET)
ARM GAS  /tmp/ccJiNVdi.s 			page 31


 1029              		.loc 1 688 0
 1030 004e 7B68     		ldr	r3, [r7, #4]
 1031 0050 DB6A     		ldr	r3, [r3, #44]
 1032 0052 1B68     		ldr	r3, [r3]
 1033 0054 002B     		cmp	r3, #0
 1034 0056 09DA     		bge	.L54
 689:Drivers/STM32F7xx_HAL_Driver/Src/stm32f7xx_hal_eth.c ****   {  
 690:Drivers/STM32F7xx_HAL_Driver/Src/stm32f7xx_hal_eth.c ****     /* OWN bit set */
 691:Drivers/STM32F7xx_HAL_Driver/Src/stm32f7xx_hal_eth.c ****     heth->State = HAL_ETH_STATE_BUSY_TX;
 1035              		.loc 1 691 0
 1036 0058 7B68     		ldr	r3, [r7, #4]
 1037 005a 1222     		movs	r2, #18
 1038 005c 83F84420 		strb	r2, [r3, #68]
 692:Drivers/STM32F7xx_HAL_Driver/Src/stm32f7xx_hal_eth.c ****     
 693:Drivers/STM32F7xx_HAL_Driver/Src/stm32f7xx_hal_eth.c ****     /* Process Unlocked */
 694:Drivers/STM32F7xx_HAL_Driver/Src/stm32f7xx_hal_eth.c ****     __HAL_UNLOCK(heth);
 1039              		.loc 1 694 0
 1040 0060 7B68     		ldr	r3, [r7, #4]
 1041 0062 0022     		movs	r2, #0
 1042 0064 83F84520 		strb	r2, [r3, #69]
 695:Drivers/STM32F7xx_HAL_Driver/Src/stm32f7xx_hal_eth.c ****     
 696:Drivers/STM32F7xx_HAL_Driver/Src/stm32f7xx_hal_eth.c ****     return HAL_ERROR;
 1043              		.loc 1 696 0
 1044 0068 0123     		movs	r3, #1
 1045 006a A9E0     		b	.L52
 1046              	.L54:
 697:Drivers/STM32F7xx_HAL_Driver/Src/stm32f7xx_hal_eth.c ****   }
 698:Drivers/STM32F7xx_HAL_Driver/Src/stm32f7xx_hal_eth.c ****   
 699:Drivers/STM32F7xx_HAL_Driver/Src/stm32f7xx_hal_eth.c ****   /* Get the number of needed Tx buffers for the current frame */
 700:Drivers/STM32F7xx_HAL_Driver/Src/stm32f7xx_hal_eth.c ****   if (FrameLength > ETH_TX_BUF_SIZE)
 1047              		.loc 1 700 0
 1048 006c 3B68     		ldr	r3, [r7]
 1049 006e 40F2F452 		movw	r2, #1524
 1050 0072 9342     		cmp	r3, r2
 1051 0074 15D9     		bls	.L55
 701:Drivers/STM32F7xx_HAL_Driver/Src/stm32f7xx_hal_eth.c ****   {
 702:Drivers/STM32F7xx_HAL_Driver/Src/stm32f7xx_hal_eth.c ****     bufcount = FrameLength/ETH_TX_BUF_SIZE;
 1052              		.loc 1 702 0
 1053 0076 3B68     		ldr	r3, [r7]
 1054 0078 544A     		ldr	r2, .L65
 1055 007a A2FB0323 		umull	r2, r3, r2, r3
 1056 007e 9B0A     		lsrs	r3, r3, #10
 1057 0080 7B61     		str	r3, [r7, #20]
 703:Drivers/STM32F7xx_HAL_Driver/Src/stm32f7xx_hal_eth.c ****     if (FrameLength % ETH_TX_BUF_SIZE) 
 1058              		.loc 1 703 0
 1059 0082 3A68     		ldr	r2, [r7]
 1060 0084 514B     		ldr	r3, .L65
 1061 0086 A3FB0213 		umull	r1, r3, r3, r2
 1062 008a 9B0A     		lsrs	r3, r3, #10
 1063 008c 40F2F451 		movw	r1, #1524
 1064 0090 01FB03F3 		mul	r3, r1, r3
 1065 0094 D31A     		subs	r3, r2, r3
 1066 0096 002B     		cmp	r3, #0
 1067 0098 05D0     		beq	.L57
 704:Drivers/STM32F7xx_HAL_Driver/Src/stm32f7xx_hal_eth.c ****     {
 705:Drivers/STM32F7xx_HAL_Driver/Src/stm32f7xx_hal_eth.c ****       bufcount++;
 1068              		.loc 1 705 0
ARM GAS  /tmp/ccJiNVdi.s 			page 32


 1069 009a 7B69     		ldr	r3, [r7, #20]
 1070 009c 0133     		adds	r3, r3, #1
 1071 009e 7B61     		str	r3, [r7, #20]
 1072 00a0 01E0     		b	.L57
 1073              	.L55:
 706:Drivers/STM32F7xx_HAL_Driver/Src/stm32f7xx_hal_eth.c ****     }
 707:Drivers/STM32F7xx_HAL_Driver/Src/stm32f7xx_hal_eth.c ****   }
 708:Drivers/STM32F7xx_HAL_Driver/Src/stm32f7xx_hal_eth.c ****   else 
 709:Drivers/STM32F7xx_HAL_Driver/Src/stm32f7xx_hal_eth.c ****   {  
 710:Drivers/STM32F7xx_HAL_Driver/Src/stm32f7xx_hal_eth.c ****     bufcount = 1;
 1074              		.loc 1 710 0
 1075 00a2 0123     		movs	r3, #1
 1076 00a4 7B61     		str	r3, [r7, #20]
 1077              	.L57:
 711:Drivers/STM32F7xx_HAL_Driver/Src/stm32f7xx_hal_eth.c ****   }
 712:Drivers/STM32F7xx_HAL_Driver/Src/stm32f7xx_hal_eth.c ****   if (bufcount == 1)
 1078              		.loc 1 712 0
 1079 00a6 7B69     		ldr	r3, [r7, #20]
 1080 00a8 012B     		cmp	r3, #1
 1081 00aa 1CD1     		bne	.L58
 713:Drivers/STM32F7xx_HAL_Driver/Src/stm32f7xx_hal_eth.c ****   {
 714:Drivers/STM32F7xx_HAL_Driver/Src/stm32f7xx_hal_eth.c ****     /* Set LAST and FIRST segment */
 715:Drivers/STM32F7xx_HAL_Driver/Src/stm32f7xx_hal_eth.c ****     heth->TxDesc->Status |=ETH_DMATXDESC_FS|ETH_DMATXDESC_LS;
 1082              		.loc 1 715 0
 1083 00ac 7B68     		ldr	r3, [r7, #4]
 1084 00ae DB6A     		ldr	r3, [r3, #44]
 1085 00b0 7A68     		ldr	r2, [r7, #4]
 1086 00b2 D26A     		ldr	r2, [r2, #44]
 1087 00b4 1268     		ldr	r2, [r2]
 1088 00b6 42F04052 		orr	r2, r2, #805306368
 1089 00ba 1A60     		str	r2, [r3]
 716:Drivers/STM32F7xx_HAL_Driver/Src/stm32f7xx_hal_eth.c ****     /* Set frame size */
 717:Drivers/STM32F7xx_HAL_Driver/Src/stm32f7xx_hal_eth.c ****     heth->TxDesc->ControlBufferSize = (FrameLength & ETH_DMATXDESC_TBS1);
 1090              		.loc 1 717 0
 1091 00bc 7B68     		ldr	r3, [r7, #4]
 1092 00be DB6A     		ldr	r3, [r3, #44]
 1093 00c0 3A68     		ldr	r2, [r7]
 1094 00c2 C2F30C02 		ubfx	r2, r2, #0, #13
 1095 00c6 5A60     		str	r2, [r3, #4]
 718:Drivers/STM32F7xx_HAL_Driver/Src/stm32f7xx_hal_eth.c ****     /* Set Own bit of the Tx descriptor Status: gives the buffer back to ETHERNET DMA */
 719:Drivers/STM32F7xx_HAL_Driver/Src/stm32f7xx_hal_eth.c ****     heth->TxDesc->Status |= ETH_DMATXDESC_OWN;
 1096              		.loc 1 719 0
 1097 00c8 7B68     		ldr	r3, [r7, #4]
 1098 00ca DB6A     		ldr	r3, [r3, #44]
 1099 00cc 7A68     		ldr	r2, [r7, #4]
 1100 00ce D26A     		ldr	r2, [r2, #44]
 1101 00d0 1268     		ldr	r2, [r2]
 1102 00d2 42F00042 		orr	r2, r2, #-2147483648
 1103 00d6 1A60     		str	r2, [r3]
 720:Drivers/STM32F7xx_HAL_Driver/Src/stm32f7xx_hal_eth.c ****     /* Point to next descriptor */
 721:Drivers/STM32F7xx_HAL_Driver/Src/stm32f7xx_hal_eth.c ****     heth->TxDesc= (ETH_DMADescTypeDef *)(heth->TxDesc->Buffer2NextDescAddr);
 1104              		.loc 1 721 0
 1105 00d8 7B68     		ldr	r3, [r7, #4]
 1106 00da DB6A     		ldr	r3, [r3, #44]
 1107 00dc DB68     		ldr	r3, [r3, #12]
 1108 00de 1A46     		mov	r2, r3
 1109 00e0 7B68     		ldr	r3, [r7, #4]
ARM GAS  /tmp/ccJiNVdi.s 			page 33


 1110 00e2 DA62     		str	r2, [r3, #44]
 1111 00e4 4BE0     		b	.L59
 1112              	.L58:
 722:Drivers/STM32F7xx_HAL_Driver/Src/stm32f7xx_hal_eth.c ****   }
 723:Drivers/STM32F7xx_HAL_Driver/Src/stm32f7xx_hal_eth.c ****   else
 724:Drivers/STM32F7xx_HAL_Driver/Src/stm32f7xx_hal_eth.c ****   {
 725:Drivers/STM32F7xx_HAL_Driver/Src/stm32f7xx_hal_eth.c ****     for (i=0; i< bufcount; i++)
 1113              		.loc 1 725 0
 1114 00e6 0023     		movs	r3, #0
 1115 00e8 3B61     		str	r3, [r7, #16]
 1116 00ea 44E0     		b	.L60
 1117              	.L63:
 726:Drivers/STM32F7xx_HAL_Driver/Src/stm32f7xx_hal_eth.c ****     {
 727:Drivers/STM32F7xx_HAL_Driver/Src/stm32f7xx_hal_eth.c ****       /* Clear FIRST and LAST segment bits */
 728:Drivers/STM32F7xx_HAL_Driver/Src/stm32f7xx_hal_eth.c ****       heth->TxDesc->Status &= ~(ETH_DMATXDESC_FS | ETH_DMATXDESC_LS);
 1118              		.loc 1 728 0
 1119 00ec 7B68     		ldr	r3, [r7, #4]
 1120 00ee DB6A     		ldr	r3, [r3, #44]
 1121 00f0 7A68     		ldr	r2, [r7, #4]
 1122 00f2 D26A     		ldr	r2, [r2, #44]
 1123 00f4 1268     		ldr	r2, [r2]
 1124 00f6 22F04052 		bic	r2, r2, #805306368
 1125 00fa 1A60     		str	r2, [r3]
 729:Drivers/STM32F7xx_HAL_Driver/Src/stm32f7xx_hal_eth.c ****       
 730:Drivers/STM32F7xx_HAL_Driver/Src/stm32f7xx_hal_eth.c ****       if (i == 0) 
 1126              		.loc 1 730 0
 1127 00fc 3B69     		ldr	r3, [r7, #16]
 1128 00fe 002B     		cmp	r3, #0
 1129 0100 07D1     		bne	.L61
 731:Drivers/STM32F7xx_HAL_Driver/Src/stm32f7xx_hal_eth.c ****       {
 732:Drivers/STM32F7xx_HAL_Driver/Src/stm32f7xx_hal_eth.c ****         /* Setting the first segment bit */
 733:Drivers/STM32F7xx_HAL_Driver/Src/stm32f7xx_hal_eth.c ****         heth->TxDesc->Status |= ETH_DMATXDESC_FS;  
 1130              		.loc 1 733 0
 1131 0102 7B68     		ldr	r3, [r7, #4]
 1132 0104 DB6A     		ldr	r3, [r3, #44]
 1133 0106 7A68     		ldr	r2, [r7, #4]
 1134 0108 D26A     		ldr	r2, [r2, #44]
 1135 010a 1268     		ldr	r2, [r2]
 1136 010c 42F08052 		orr	r2, r2, #268435456
 1137 0110 1A60     		str	r2, [r3]
 1138              	.L61:
 734:Drivers/STM32F7xx_HAL_Driver/Src/stm32f7xx_hal_eth.c ****       }
 735:Drivers/STM32F7xx_HAL_Driver/Src/stm32f7xx_hal_eth.c ****       
 736:Drivers/STM32F7xx_HAL_Driver/Src/stm32f7xx_hal_eth.c ****       /* Program size */
 737:Drivers/STM32F7xx_HAL_Driver/Src/stm32f7xx_hal_eth.c ****       heth->TxDesc->ControlBufferSize = (ETH_TX_BUF_SIZE & ETH_DMATXDESC_TBS1);
 1139              		.loc 1 737 0
 1140 0112 7B68     		ldr	r3, [r7, #4]
 1141 0114 DB6A     		ldr	r3, [r3, #44]
 1142 0116 40F2F452 		movw	r2, #1524
 1143 011a 5A60     		str	r2, [r3, #4]
 738:Drivers/STM32F7xx_HAL_Driver/Src/stm32f7xx_hal_eth.c ****       
 739:Drivers/STM32F7xx_HAL_Driver/Src/stm32f7xx_hal_eth.c ****       if (i == (bufcount-1))
 1144              		.loc 1 739 0
 1145 011c 7B69     		ldr	r3, [r7, #20]
 1146 011e 5A1E     		subs	r2, r3, #1
 1147 0120 3B69     		ldr	r3, [r7, #16]
 1148 0122 9A42     		cmp	r2, r3
ARM GAS  /tmp/ccJiNVdi.s 			page 34


 1149 0124 16D1     		bne	.L62
 740:Drivers/STM32F7xx_HAL_Driver/Src/stm32f7xx_hal_eth.c ****       {
 741:Drivers/STM32F7xx_HAL_Driver/Src/stm32f7xx_hal_eth.c ****         /* Setting the last segment bit */
 742:Drivers/STM32F7xx_HAL_Driver/Src/stm32f7xx_hal_eth.c ****         heth->TxDesc->Status |= ETH_DMATXDESC_LS;
 1150              		.loc 1 742 0
 1151 0126 7B68     		ldr	r3, [r7, #4]
 1152 0128 DB6A     		ldr	r3, [r3, #44]
 1153 012a 7A68     		ldr	r2, [r7, #4]
 1154 012c D26A     		ldr	r2, [r2, #44]
 1155 012e 1268     		ldr	r2, [r2]
 1156 0130 42F00052 		orr	r2, r2, #536870912
 1157 0134 1A60     		str	r2, [r3]
 743:Drivers/STM32F7xx_HAL_Driver/Src/stm32f7xx_hal_eth.c ****         size = FrameLength - (bufcount-1)*ETH_TX_BUF_SIZE;
 1158              		.loc 1 743 0
 1159 0136 7B69     		ldr	r3, [r7, #20]
 1160 0138 254A     		ldr	r2, .L65+4
 1161 013a 02FB03F2 		mul	r2, r2, r3
 1162 013e 3B68     		ldr	r3, [r7]
 1163 0140 1344     		add	r3, r3, r2
 1164 0142 03F2F453 		addw	r3, r3, #1524
 1165 0146 FB60     		str	r3, [r7, #12]
 744:Drivers/STM32F7xx_HAL_Driver/Src/stm32f7xx_hal_eth.c ****         heth->TxDesc->ControlBufferSize = (size & ETH_DMATXDESC_TBS1);
 1166              		.loc 1 744 0
 1167 0148 7B68     		ldr	r3, [r7, #4]
 1168 014a DB6A     		ldr	r3, [r3, #44]
 1169 014c FA68     		ldr	r2, [r7, #12]
 1170 014e C2F30C02 		ubfx	r2, r2, #0, #13
 1171 0152 5A60     		str	r2, [r3, #4]
 1172              	.L62:
 745:Drivers/STM32F7xx_HAL_Driver/Src/stm32f7xx_hal_eth.c ****       }
 746:Drivers/STM32F7xx_HAL_Driver/Src/stm32f7xx_hal_eth.c ****       
 747:Drivers/STM32F7xx_HAL_Driver/Src/stm32f7xx_hal_eth.c ****       /* Set Own bit of the Tx descriptor Status: gives the buffer back to ETHERNET DMA */
 748:Drivers/STM32F7xx_HAL_Driver/Src/stm32f7xx_hal_eth.c ****       heth->TxDesc->Status |= ETH_DMATXDESC_OWN;
 1173              		.loc 1 748 0 discriminator 2
 1174 0154 7B68     		ldr	r3, [r7, #4]
 1175 0156 DB6A     		ldr	r3, [r3, #44]
 1176 0158 7A68     		ldr	r2, [r7, #4]
 1177 015a D26A     		ldr	r2, [r2, #44]
 1178 015c 1268     		ldr	r2, [r2]
 1179 015e 42F00042 		orr	r2, r2, #-2147483648
 1180 0162 1A60     		str	r2, [r3]
 749:Drivers/STM32F7xx_HAL_Driver/Src/stm32f7xx_hal_eth.c ****       /* point to next descriptor */
 750:Drivers/STM32F7xx_HAL_Driver/Src/stm32f7xx_hal_eth.c ****       heth->TxDesc = (ETH_DMADescTypeDef *)(heth->TxDesc->Buffer2NextDescAddr);
 1181              		.loc 1 750 0 discriminator 2
 1182 0164 7B68     		ldr	r3, [r7, #4]
 1183 0166 DB6A     		ldr	r3, [r3, #44]
 1184 0168 DB68     		ldr	r3, [r3, #12]
 1185 016a 1A46     		mov	r2, r3
 1186 016c 7B68     		ldr	r3, [r7, #4]
 1187 016e DA62     		str	r2, [r3, #44]
 725:Drivers/STM32F7xx_HAL_Driver/Src/stm32f7xx_hal_eth.c ****     {
 1188              		.loc 1 725 0 discriminator 2
 1189 0170 3B69     		ldr	r3, [r7, #16]
 1190 0172 0133     		adds	r3, r3, #1
 1191 0174 3B61     		str	r3, [r7, #16]
 1192              	.L60:
 725:Drivers/STM32F7xx_HAL_Driver/Src/stm32f7xx_hal_eth.c ****     {
ARM GAS  /tmp/ccJiNVdi.s 			page 35


 1193              		.loc 1 725 0 is_stmt 0 discriminator 1
 1194 0176 3A69     		ldr	r2, [r7, #16]
 1195 0178 7B69     		ldr	r3, [r7, #20]
 1196 017a 9A42     		cmp	r2, r3
 1197 017c B6D3     		bcc	.L63
 1198              	.L59:
 751:Drivers/STM32F7xx_HAL_Driver/Src/stm32f7xx_hal_eth.c ****     }
 752:Drivers/STM32F7xx_HAL_Driver/Src/stm32f7xx_hal_eth.c ****   }
 753:Drivers/STM32F7xx_HAL_Driver/Src/stm32f7xx_hal_eth.c ****   
 754:Drivers/STM32F7xx_HAL_Driver/Src/stm32f7xx_hal_eth.c ****   /* When Tx Buffer unavailable flag is set: clear it and resume transmission */
 755:Drivers/STM32F7xx_HAL_Driver/Src/stm32f7xx_hal_eth.c ****   if (((heth->Instance)->DMASR & ETH_DMASR_TBUS) != (uint32_t)RESET)
 1199              		.loc 1 755 0 is_stmt 1
 1200 017e 7B68     		ldr	r3, [r7, #4]
 1201 0180 1A68     		ldr	r2, [r3]
 1202 0182 41F21403 		movw	r3, #4116
 1203 0186 1344     		add	r3, r3, r2
 1204 0188 1B68     		ldr	r3, [r3]
 1205 018a 03F00403 		and	r3, r3, #4
 1206 018e 002B     		cmp	r3, #0
 1207 0190 0DD0     		beq	.L64
 756:Drivers/STM32F7xx_HAL_Driver/Src/stm32f7xx_hal_eth.c ****   {
 757:Drivers/STM32F7xx_HAL_Driver/Src/stm32f7xx_hal_eth.c ****     /* Clear TBUS ETHERNET DMA flag */
 758:Drivers/STM32F7xx_HAL_Driver/Src/stm32f7xx_hal_eth.c ****     (heth->Instance)->DMASR = ETH_DMASR_TBUS;
 1208              		.loc 1 758 0
 1209 0192 7B68     		ldr	r3, [r7, #4]
 1210 0194 1A68     		ldr	r2, [r3]
 1211 0196 41F21403 		movw	r3, #4116
 1212 019a 1344     		add	r3, r3, r2
 1213 019c 0422     		movs	r2, #4
 1214 019e 1A60     		str	r2, [r3]
 759:Drivers/STM32F7xx_HAL_Driver/Src/stm32f7xx_hal_eth.c ****     /* Resume DMA transmission*/
 760:Drivers/STM32F7xx_HAL_Driver/Src/stm32f7xx_hal_eth.c ****     (heth->Instance)->DMATPDR = 0;
 1215              		.loc 1 760 0
 1216 01a0 7B68     		ldr	r3, [r7, #4]
 1217 01a2 1A68     		ldr	r2, [r3]
 1218 01a4 41F20403 		movw	r3, #4100
 1219 01a8 1344     		add	r3, r3, r2
 1220 01aa 0022     		movs	r2, #0
 1221 01ac 1A60     		str	r2, [r3]
 1222              	.L64:
 761:Drivers/STM32F7xx_HAL_Driver/Src/stm32f7xx_hal_eth.c ****   }
 762:Drivers/STM32F7xx_HAL_Driver/Src/stm32f7xx_hal_eth.c ****   
 763:Drivers/STM32F7xx_HAL_Driver/Src/stm32f7xx_hal_eth.c ****   /* Set ETH HAL State to Ready */
 764:Drivers/STM32F7xx_HAL_Driver/Src/stm32f7xx_hal_eth.c ****   heth->State = HAL_ETH_STATE_READY;
 1223              		.loc 1 764 0
 1224 01ae 7B68     		ldr	r3, [r7, #4]
 1225 01b0 0122     		movs	r2, #1
 1226 01b2 83F84420 		strb	r2, [r3, #68]
 765:Drivers/STM32F7xx_HAL_Driver/Src/stm32f7xx_hal_eth.c ****   
 766:Drivers/STM32F7xx_HAL_Driver/Src/stm32f7xx_hal_eth.c ****   /* Process Unlocked */
 767:Drivers/STM32F7xx_HAL_Driver/Src/stm32f7xx_hal_eth.c ****   __HAL_UNLOCK(heth);
 1227              		.loc 1 767 0
 1228 01b6 7B68     		ldr	r3, [r7, #4]
 1229 01b8 0022     		movs	r2, #0
 1230 01ba 83F84520 		strb	r2, [r3, #69]
 768:Drivers/STM32F7xx_HAL_Driver/Src/stm32f7xx_hal_eth.c ****   
 769:Drivers/STM32F7xx_HAL_Driver/Src/stm32f7xx_hal_eth.c ****   /* Return function status */
ARM GAS  /tmp/ccJiNVdi.s 			page 36


 770:Drivers/STM32F7xx_HAL_Driver/Src/stm32f7xx_hal_eth.c ****   return HAL_OK;
 1231              		.loc 1 770 0
 1232 01be 0023     		movs	r3, #0
 1233              	.L52:
 771:Drivers/STM32F7xx_HAL_Driver/Src/stm32f7xx_hal_eth.c **** }
 1234              		.loc 1 771 0
 1235 01c0 1846     		mov	r0, r3
 1236 01c2 1C37     		adds	r7, r7, #28
 1237              	.LCFI37:
 1238              		.cfi_def_cfa_offset 4
 1239 01c4 BD46     		mov	sp, r7
 1240              	.LCFI38:
 1241              		.cfi_def_cfa_register 13
 1242              		@ sp needed
 1243 01c6 5DF8047B 		ldr	r7, [sp], #4
 1244              	.LCFI39:
 1245              		.cfi_restore 7
 1246              		.cfi_def_cfa_offset 0
 1247 01ca 7047     		bx	lr
 1248              	.L66:
 1249              		.align	2
 1250              	.L65:
 1251 01cc 0BB002AC 		.word	-1409110005
 1252 01d0 0CFAFFFF 		.word	-1524
 1253              		.cfi_endproc
 1254              	.LFE142:
 1256              		.section	.text.HAL_ETH_GetReceivedFrame,"ax",%progbits
 1257              		.align	1
 1258              		.global	HAL_ETH_GetReceivedFrame
 1259              		.syntax unified
 1260              		.thumb
 1261              		.thumb_func
 1262              		.fpu fpv4-sp-d16
 1264              	HAL_ETH_GetReceivedFrame:
 1265              	.LFB143:
 772:Drivers/STM32F7xx_HAL_Driver/Src/stm32f7xx_hal_eth.c **** 
 773:Drivers/STM32F7xx_HAL_Driver/Src/stm32f7xx_hal_eth.c **** /**
 774:Drivers/STM32F7xx_HAL_Driver/Src/stm32f7xx_hal_eth.c ****   * @brief  Checks for received frames. 
 775:Drivers/STM32F7xx_HAL_Driver/Src/stm32f7xx_hal_eth.c ****   * @param  heth pointer to a ETH_HandleTypeDef structure that contains
 776:Drivers/STM32F7xx_HAL_Driver/Src/stm32f7xx_hal_eth.c ****   *         the configuration information for ETHERNET module
 777:Drivers/STM32F7xx_HAL_Driver/Src/stm32f7xx_hal_eth.c ****   * @retval HAL status
 778:Drivers/STM32F7xx_HAL_Driver/Src/stm32f7xx_hal_eth.c ****   */
 779:Drivers/STM32F7xx_HAL_Driver/Src/stm32f7xx_hal_eth.c **** HAL_StatusTypeDef HAL_ETH_GetReceivedFrame(ETH_HandleTypeDef *heth)
 780:Drivers/STM32F7xx_HAL_Driver/Src/stm32f7xx_hal_eth.c **** {
 1266              		.loc 1 780 0
 1267              		.cfi_startproc
 1268              		@ args = 0, pretend = 0, frame = 16
 1269              		@ frame_needed = 1, uses_anonymous_args = 0
 1270              		@ link register save eliminated.
 1271 0000 80B4     		push	{r7}
 1272              	.LCFI40:
 1273              		.cfi_def_cfa_offset 4
 1274              		.cfi_offset 7, -4
 1275 0002 85B0     		sub	sp, sp, #20
 1276              	.LCFI41:
 1277              		.cfi_def_cfa_offset 24
 1278 0004 00AF     		add	r7, sp, #0
ARM GAS  /tmp/ccJiNVdi.s 			page 37


 1279              	.LCFI42:
 1280              		.cfi_def_cfa_register 7
 1281 0006 7860     		str	r0, [r7, #4]
 781:Drivers/STM32F7xx_HAL_Driver/Src/stm32f7xx_hal_eth.c ****   uint32_t framelength = 0;
 1282              		.loc 1 781 0
 1283 0008 0023     		movs	r3, #0
 1284 000a FB60     		str	r3, [r7, #12]
 782:Drivers/STM32F7xx_HAL_Driver/Src/stm32f7xx_hal_eth.c ****   
 783:Drivers/STM32F7xx_HAL_Driver/Src/stm32f7xx_hal_eth.c ****   /* Process Locked */
 784:Drivers/STM32F7xx_HAL_Driver/Src/stm32f7xx_hal_eth.c ****   __HAL_LOCK(heth);
 1285              		.loc 1 784 0
 1286 000c 7B68     		ldr	r3, [r7, #4]
 1287 000e 93F84530 		ldrb	r3, [r3, #69]	@ zero_extendqisi2
 1288 0012 012B     		cmp	r3, #1
 1289 0014 01D1     		bne	.L68
 1290              		.loc 1 784 0 is_stmt 0 discriminator 1
 1291 0016 0223     		movs	r3, #2
 1292 0018 70E0     		b	.L69
 1293              	.L68:
 1294              		.loc 1 784 0 discriminator 2
 1295 001a 7B68     		ldr	r3, [r7, #4]
 1296 001c 0122     		movs	r2, #1
 1297 001e 83F84520 		strb	r2, [r3, #69]
 785:Drivers/STM32F7xx_HAL_Driver/Src/stm32f7xx_hal_eth.c ****   
 786:Drivers/STM32F7xx_HAL_Driver/Src/stm32f7xx_hal_eth.c ****   /* Check the ETH state to BUSY */
 787:Drivers/STM32F7xx_HAL_Driver/Src/stm32f7xx_hal_eth.c ****   heth->State = HAL_ETH_STATE_BUSY;
 1298              		.loc 1 787 0 is_stmt 1 discriminator 2
 1299 0022 7B68     		ldr	r3, [r7, #4]
 1300 0024 0222     		movs	r2, #2
 1301 0026 83F84420 		strb	r2, [r3, #68]
 788:Drivers/STM32F7xx_HAL_Driver/Src/stm32f7xx_hal_eth.c ****   
 789:Drivers/STM32F7xx_HAL_Driver/Src/stm32f7xx_hal_eth.c ****   /* Check if segment is not owned by DMA */
 790:Drivers/STM32F7xx_HAL_Driver/Src/stm32f7xx_hal_eth.c ****   /* (((heth->RxDesc->Status & ETH_DMARXDESC_OWN) == (uint32_t)RESET) && ((heth->RxDesc->Status & E
 791:Drivers/STM32F7xx_HAL_Driver/Src/stm32f7xx_hal_eth.c ****   if(((heth->RxDesc->Status & ETH_DMARXDESC_OWN) == (uint32_t)RESET))
 1302              		.loc 1 791 0 discriminator 2
 1303 002a 7B68     		ldr	r3, [r7, #4]
 1304 002c 9B6A     		ldr	r3, [r3, #40]
 1305 002e 1B68     		ldr	r3, [r3]
 1306 0030 002B     		cmp	r3, #0
 1307 0032 5ADB     		blt	.L70
 792:Drivers/STM32F7xx_HAL_Driver/Src/stm32f7xx_hal_eth.c ****   {
 793:Drivers/STM32F7xx_HAL_Driver/Src/stm32f7xx_hal_eth.c ****     /* Check if last segment */
 794:Drivers/STM32F7xx_HAL_Driver/Src/stm32f7xx_hal_eth.c ****     if(((heth->RxDesc->Status & ETH_DMARXDESC_LS) != (uint32_t)RESET)) 
 1308              		.loc 1 794 0
 1309 0034 7B68     		ldr	r3, [r7, #4]
 1310 0036 9B6A     		ldr	r3, [r3, #40]
 1311 0038 1B68     		ldr	r3, [r3]
 1312 003a 03F48073 		and	r3, r3, #256
 1313 003e 002B     		cmp	r3, #0
 1314 0040 30D0     		beq	.L71
 795:Drivers/STM32F7xx_HAL_Driver/Src/stm32f7xx_hal_eth.c ****     {
 796:Drivers/STM32F7xx_HAL_Driver/Src/stm32f7xx_hal_eth.c ****       /* increment segment count */
 797:Drivers/STM32F7xx_HAL_Driver/Src/stm32f7xx_hal_eth.c ****       (heth->RxFrameInfos).SegCount++;
 1315              		.loc 1 797 0
 1316 0042 7B68     		ldr	r3, [r7, #4]
 1317 0044 9B6B     		ldr	r3, [r3, #56]
 1318 0046 5A1C     		adds	r2, r3, #1
ARM GAS  /tmp/ccJiNVdi.s 			page 38


 1319 0048 7B68     		ldr	r3, [r7, #4]
 1320 004a 9A63     		str	r2, [r3, #56]
 798:Drivers/STM32F7xx_HAL_Driver/Src/stm32f7xx_hal_eth.c ****       
 799:Drivers/STM32F7xx_HAL_Driver/Src/stm32f7xx_hal_eth.c ****       /* Check if last segment is first segment: one segment contains the frame */
 800:Drivers/STM32F7xx_HAL_Driver/Src/stm32f7xx_hal_eth.c ****       if ((heth->RxFrameInfos).SegCount == 1)
 1321              		.loc 1 800 0
 1322 004c 7B68     		ldr	r3, [r7, #4]
 1323 004e 9B6B     		ldr	r3, [r3, #56]
 1324 0050 012B     		cmp	r3, #1
 1325 0052 03D1     		bne	.L72
 801:Drivers/STM32F7xx_HAL_Driver/Src/stm32f7xx_hal_eth.c ****       {
 802:Drivers/STM32F7xx_HAL_Driver/Src/stm32f7xx_hal_eth.c ****         (heth->RxFrameInfos).FSRxDesc =heth->RxDesc;
 1326              		.loc 1 802 0
 1327 0054 7B68     		ldr	r3, [r7, #4]
 1328 0056 9A6A     		ldr	r2, [r3, #40]
 1329 0058 7B68     		ldr	r3, [r7, #4]
 1330 005a 1A63     		str	r2, [r3, #48]
 1331              	.L72:
 803:Drivers/STM32F7xx_HAL_Driver/Src/stm32f7xx_hal_eth.c ****       }
 804:Drivers/STM32F7xx_HAL_Driver/Src/stm32f7xx_hal_eth.c ****       
 805:Drivers/STM32F7xx_HAL_Driver/Src/stm32f7xx_hal_eth.c ****       heth->RxFrameInfos.LSRxDesc = heth->RxDesc;
 1332              		.loc 1 805 0
 1333 005c 7B68     		ldr	r3, [r7, #4]
 1334 005e 9A6A     		ldr	r2, [r3, #40]
 1335 0060 7B68     		ldr	r3, [r7, #4]
 1336 0062 5A63     		str	r2, [r3, #52]
 806:Drivers/STM32F7xx_HAL_Driver/Src/stm32f7xx_hal_eth.c ****       
 807:Drivers/STM32F7xx_HAL_Driver/Src/stm32f7xx_hal_eth.c ****       /* Get the Frame Length of the received packet: substruct 4 bytes of the CRC */
 808:Drivers/STM32F7xx_HAL_Driver/Src/stm32f7xx_hal_eth.c ****       framelength = (((heth->RxDesc)->Status & ETH_DMARXDESC_FL) >> ETH_DMARXDESC_FRAMELENGTHSHIFT)
 1337              		.loc 1 808 0
 1338 0064 7B68     		ldr	r3, [r7, #4]
 1339 0066 9B6A     		ldr	r3, [r3, #40]
 1340 0068 1B68     		ldr	r3, [r3]
 1341 006a 1B0C     		lsrs	r3, r3, #16
 1342 006c C3F30D03 		ubfx	r3, r3, #0, #14
 1343 0070 043B     		subs	r3, r3, #4
 1344 0072 FB60     		str	r3, [r7, #12]
 809:Drivers/STM32F7xx_HAL_Driver/Src/stm32f7xx_hal_eth.c ****       heth->RxFrameInfos.length = framelength;
 1345              		.loc 1 809 0
 1346 0074 7B68     		ldr	r3, [r7, #4]
 1347 0076 FA68     		ldr	r2, [r7, #12]
 1348 0078 DA63     		str	r2, [r3, #60]
 810:Drivers/STM32F7xx_HAL_Driver/Src/stm32f7xx_hal_eth.c ****       
 811:Drivers/STM32F7xx_HAL_Driver/Src/stm32f7xx_hal_eth.c ****       /* Get the address of the buffer start address */
 812:Drivers/STM32F7xx_HAL_Driver/Src/stm32f7xx_hal_eth.c ****       heth->RxFrameInfos.buffer = ((heth->RxFrameInfos).FSRxDesc)->Buffer1Addr;
 1349              		.loc 1 812 0
 1350 007a 7B68     		ldr	r3, [r7, #4]
 1351 007c 1B6B     		ldr	r3, [r3, #48]
 1352 007e 9A68     		ldr	r2, [r3, #8]
 1353 0080 7B68     		ldr	r3, [r7, #4]
 1354 0082 1A64     		str	r2, [r3, #64]
 813:Drivers/STM32F7xx_HAL_Driver/Src/stm32f7xx_hal_eth.c ****       /* point to next descriptor */
 814:Drivers/STM32F7xx_HAL_Driver/Src/stm32f7xx_hal_eth.c ****       heth->RxDesc = (ETH_DMADescTypeDef*) ((heth->RxDesc)->Buffer2NextDescAddr);
 1355              		.loc 1 814 0
 1356 0084 7B68     		ldr	r3, [r7, #4]
 1357 0086 9B6A     		ldr	r3, [r3, #40]
 1358 0088 DB68     		ldr	r3, [r3, #12]
ARM GAS  /tmp/ccJiNVdi.s 			page 39


 1359 008a 1A46     		mov	r2, r3
 1360 008c 7B68     		ldr	r3, [r7, #4]
 1361 008e 9A62     		str	r2, [r3, #40]
 815:Drivers/STM32F7xx_HAL_Driver/Src/stm32f7xx_hal_eth.c ****       
 816:Drivers/STM32F7xx_HAL_Driver/Src/stm32f7xx_hal_eth.c ****       /* Set HAL State to Ready */
 817:Drivers/STM32F7xx_HAL_Driver/Src/stm32f7xx_hal_eth.c ****       heth->State = HAL_ETH_STATE_READY;
 1362              		.loc 1 817 0
 1363 0090 7B68     		ldr	r3, [r7, #4]
 1364 0092 0122     		movs	r2, #1
 1365 0094 83F84420 		strb	r2, [r3, #68]
 818:Drivers/STM32F7xx_HAL_Driver/Src/stm32f7xx_hal_eth.c ****       
 819:Drivers/STM32F7xx_HAL_Driver/Src/stm32f7xx_hal_eth.c ****       /* Process Unlocked */
 820:Drivers/STM32F7xx_HAL_Driver/Src/stm32f7xx_hal_eth.c ****       __HAL_UNLOCK(heth);
 1366              		.loc 1 820 0
 1367 0098 7B68     		ldr	r3, [r7, #4]
 1368 009a 0022     		movs	r2, #0
 1369 009c 83F84520 		strb	r2, [r3, #69]
 821:Drivers/STM32F7xx_HAL_Driver/Src/stm32f7xx_hal_eth.c ****       
 822:Drivers/STM32F7xx_HAL_Driver/Src/stm32f7xx_hal_eth.c ****       /* Return function status */
 823:Drivers/STM32F7xx_HAL_Driver/Src/stm32f7xx_hal_eth.c ****       return HAL_OK;
 1370              		.loc 1 823 0
 1371 00a0 0023     		movs	r3, #0
 1372 00a2 2BE0     		b	.L69
 1373              	.L71:
 824:Drivers/STM32F7xx_HAL_Driver/Src/stm32f7xx_hal_eth.c ****     }
 825:Drivers/STM32F7xx_HAL_Driver/Src/stm32f7xx_hal_eth.c ****     /* Check if first segment */
 826:Drivers/STM32F7xx_HAL_Driver/Src/stm32f7xx_hal_eth.c ****     else if((heth->RxDesc->Status & ETH_DMARXDESC_FS) != (uint32_t)RESET)
 1374              		.loc 1 826 0
 1375 00a4 7B68     		ldr	r3, [r7, #4]
 1376 00a6 9B6A     		ldr	r3, [r3, #40]
 1377 00a8 1B68     		ldr	r3, [r3]
 1378 00aa 03F40073 		and	r3, r3, #512
 1379 00ae 002B     		cmp	r3, #0
 1380 00b0 10D0     		beq	.L73
 827:Drivers/STM32F7xx_HAL_Driver/Src/stm32f7xx_hal_eth.c ****     {
 828:Drivers/STM32F7xx_HAL_Driver/Src/stm32f7xx_hal_eth.c ****       (heth->RxFrameInfos).FSRxDesc = heth->RxDesc;
 1381              		.loc 1 828 0
 1382 00b2 7B68     		ldr	r3, [r7, #4]
 1383 00b4 9A6A     		ldr	r2, [r3, #40]
 1384 00b6 7B68     		ldr	r3, [r7, #4]
 1385 00b8 1A63     		str	r2, [r3, #48]
 829:Drivers/STM32F7xx_HAL_Driver/Src/stm32f7xx_hal_eth.c ****       (heth->RxFrameInfos).LSRxDesc = NULL;
 1386              		.loc 1 829 0
 1387 00ba 7B68     		ldr	r3, [r7, #4]
 1388 00bc 0022     		movs	r2, #0
 1389 00be 5A63     		str	r2, [r3, #52]
 830:Drivers/STM32F7xx_HAL_Driver/Src/stm32f7xx_hal_eth.c ****       (heth->RxFrameInfos).SegCount = 1;
 1390              		.loc 1 830 0
 1391 00c0 7B68     		ldr	r3, [r7, #4]
 1392 00c2 0122     		movs	r2, #1
 1393 00c4 9A63     		str	r2, [r3, #56]
 831:Drivers/STM32F7xx_HAL_Driver/Src/stm32f7xx_hal_eth.c ****       /* Point to next descriptor */
 832:Drivers/STM32F7xx_HAL_Driver/Src/stm32f7xx_hal_eth.c ****       heth->RxDesc = (ETH_DMADescTypeDef*) (heth->RxDesc->Buffer2NextDescAddr);
 1394              		.loc 1 832 0
 1395 00c6 7B68     		ldr	r3, [r7, #4]
 1396 00c8 9B6A     		ldr	r3, [r3, #40]
 1397 00ca DB68     		ldr	r3, [r3, #12]
ARM GAS  /tmp/ccJiNVdi.s 			page 40


 1398 00cc 1A46     		mov	r2, r3
 1399 00ce 7B68     		ldr	r3, [r7, #4]
 1400 00d0 9A62     		str	r2, [r3, #40]
 1401 00d2 0AE0     		b	.L70
 1402              	.L73:
 833:Drivers/STM32F7xx_HAL_Driver/Src/stm32f7xx_hal_eth.c ****     }
 834:Drivers/STM32F7xx_HAL_Driver/Src/stm32f7xx_hal_eth.c ****     /* Check if intermediate segment */ 
 835:Drivers/STM32F7xx_HAL_Driver/Src/stm32f7xx_hal_eth.c ****     else
 836:Drivers/STM32F7xx_HAL_Driver/Src/stm32f7xx_hal_eth.c ****     {
 837:Drivers/STM32F7xx_HAL_Driver/Src/stm32f7xx_hal_eth.c ****       (heth->RxFrameInfos).SegCount++;
 1403              		.loc 1 837 0
 1404 00d4 7B68     		ldr	r3, [r7, #4]
 1405 00d6 9B6B     		ldr	r3, [r3, #56]
 1406 00d8 5A1C     		adds	r2, r3, #1
 1407 00da 7B68     		ldr	r3, [r7, #4]
 1408 00dc 9A63     		str	r2, [r3, #56]
 838:Drivers/STM32F7xx_HAL_Driver/Src/stm32f7xx_hal_eth.c ****       /* Point to next descriptor */
 839:Drivers/STM32F7xx_HAL_Driver/Src/stm32f7xx_hal_eth.c ****       heth->RxDesc = (ETH_DMADescTypeDef*) (heth->RxDesc->Buffer2NextDescAddr);
 1409              		.loc 1 839 0
 1410 00de 7B68     		ldr	r3, [r7, #4]
 1411 00e0 9B6A     		ldr	r3, [r3, #40]
 1412 00e2 DB68     		ldr	r3, [r3, #12]
 1413 00e4 1A46     		mov	r2, r3
 1414 00e6 7B68     		ldr	r3, [r7, #4]
 1415 00e8 9A62     		str	r2, [r3, #40]
 1416              	.L70:
 840:Drivers/STM32F7xx_HAL_Driver/Src/stm32f7xx_hal_eth.c ****     } 
 841:Drivers/STM32F7xx_HAL_Driver/Src/stm32f7xx_hal_eth.c ****   }
 842:Drivers/STM32F7xx_HAL_Driver/Src/stm32f7xx_hal_eth.c ****   
 843:Drivers/STM32F7xx_HAL_Driver/Src/stm32f7xx_hal_eth.c ****   /* Set ETH HAL State to Ready */
 844:Drivers/STM32F7xx_HAL_Driver/Src/stm32f7xx_hal_eth.c ****   heth->State = HAL_ETH_STATE_READY;
 1417              		.loc 1 844 0
 1418 00ea 7B68     		ldr	r3, [r7, #4]
 1419 00ec 0122     		movs	r2, #1
 1420 00ee 83F84420 		strb	r2, [r3, #68]
 845:Drivers/STM32F7xx_HAL_Driver/Src/stm32f7xx_hal_eth.c ****   
 846:Drivers/STM32F7xx_HAL_Driver/Src/stm32f7xx_hal_eth.c ****   /* Process Unlocked */
 847:Drivers/STM32F7xx_HAL_Driver/Src/stm32f7xx_hal_eth.c ****   __HAL_UNLOCK(heth);
 1421              		.loc 1 847 0
 1422 00f2 7B68     		ldr	r3, [r7, #4]
 1423 00f4 0022     		movs	r2, #0
 1424 00f6 83F84520 		strb	r2, [r3, #69]
 848:Drivers/STM32F7xx_HAL_Driver/Src/stm32f7xx_hal_eth.c ****   
 849:Drivers/STM32F7xx_HAL_Driver/Src/stm32f7xx_hal_eth.c ****   /* Return function status */
 850:Drivers/STM32F7xx_HAL_Driver/Src/stm32f7xx_hal_eth.c ****   return HAL_ERROR;
 1425              		.loc 1 850 0
 1426 00fa 0123     		movs	r3, #1
 1427              	.L69:
 851:Drivers/STM32F7xx_HAL_Driver/Src/stm32f7xx_hal_eth.c **** }
 1428              		.loc 1 851 0
 1429 00fc 1846     		mov	r0, r3
 1430 00fe 1437     		adds	r7, r7, #20
 1431              	.LCFI43:
 1432              		.cfi_def_cfa_offset 4
 1433 0100 BD46     		mov	sp, r7
 1434              	.LCFI44:
 1435              		.cfi_def_cfa_register 13
ARM GAS  /tmp/ccJiNVdi.s 			page 41


 1436              		@ sp needed
 1437 0102 5DF8047B 		ldr	r7, [sp], #4
 1438              	.LCFI45:
 1439              		.cfi_restore 7
 1440              		.cfi_def_cfa_offset 0
 1441 0106 7047     		bx	lr
 1442              		.cfi_endproc
 1443              	.LFE143:
 1445              		.section	.text.HAL_ETH_GetReceivedFrame_IT,"ax",%progbits
 1446              		.align	1
 1447              		.global	HAL_ETH_GetReceivedFrame_IT
 1448              		.syntax unified
 1449              		.thumb
 1450              		.thumb_func
 1451              		.fpu fpv4-sp-d16
 1453              	HAL_ETH_GetReceivedFrame_IT:
 1454              	.LFB144:
 852:Drivers/STM32F7xx_HAL_Driver/Src/stm32f7xx_hal_eth.c **** 
 853:Drivers/STM32F7xx_HAL_Driver/Src/stm32f7xx_hal_eth.c **** /**
 854:Drivers/STM32F7xx_HAL_Driver/Src/stm32f7xx_hal_eth.c ****   * @brief  Gets the Received frame in interrupt mode. 
 855:Drivers/STM32F7xx_HAL_Driver/Src/stm32f7xx_hal_eth.c ****   * @param  heth pointer to a ETH_HandleTypeDef structure that contains
 856:Drivers/STM32F7xx_HAL_Driver/Src/stm32f7xx_hal_eth.c ****   *         the configuration information for ETHERNET module
 857:Drivers/STM32F7xx_HAL_Driver/Src/stm32f7xx_hal_eth.c ****   * @retval HAL status
 858:Drivers/STM32F7xx_HAL_Driver/Src/stm32f7xx_hal_eth.c ****   */
 859:Drivers/STM32F7xx_HAL_Driver/Src/stm32f7xx_hal_eth.c **** HAL_StatusTypeDef HAL_ETH_GetReceivedFrame_IT(ETH_HandleTypeDef *heth)
 860:Drivers/STM32F7xx_HAL_Driver/Src/stm32f7xx_hal_eth.c **** {
 1455              		.loc 1 860 0
 1456              		.cfi_startproc
 1457              		@ args = 0, pretend = 0, frame = 16
 1458              		@ frame_needed = 1, uses_anonymous_args = 0
 1459              		@ link register save eliminated.
 1460 0000 80B4     		push	{r7}
 1461              	.LCFI46:
 1462              		.cfi_def_cfa_offset 4
 1463              		.cfi_offset 7, -4
 1464 0002 85B0     		sub	sp, sp, #20
 1465              	.LCFI47:
 1466              		.cfi_def_cfa_offset 24
 1467 0004 00AF     		add	r7, sp, #0
 1468              	.LCFI48:
 1469              		.cfi_def_cfa_register 7
 1470 0006 7860     		str	r0, [r7, #4]
 861:Drivers/STM32F7xx_HAL_Driver/Src/stm32f7xx_hal_eth.c ****   uint32_t descriptorscancounter = 0;
 1471              		.loc 1 861 0
 1472 0008 0023     		movs	r3, #0
 1473 000a FB60     		str	r3, [r7, #12]
 862:Drivers/STM32F7xx_HAL_Driver/Src/stm32f7xx_hal_eth.c ****   
 863:Drivers/STM32F7xx_HAL_Driver/Src/stm32f7xx_hal_eth.c ****   /* Process Locked */
 864:Drivers/STM32F7xx_HAL_Driver/Src/stm32f7xx_hal_eth.c ****   __HAL_LOCK(heth);
 1474              		.loc 1 864 0
 1475 000c 7B68     		ldr	r3, [r7, #4]
 1476 000e 93F84530 		ldrb	r3, [r3, #69]	@ zero_extendqisi2
 1477 0012 012B     		cmp	r3, #1
 1478 0014 01D1     		bne	.L75
 1479              		.loc 1 864 0 is_stmt 0 discriminator 1
 1480 0016 0223     		movs	r3, #2
 1481 0018 74E0     		b	.L76
ARM GAS  /tmp/ccJiNVdi.s 			page 42


 1482              	.L75:
 1483              		.loc 1 864 0 discriminator 2
 1484 001a 7B68     		ldr	r3, [r7, #4]
 1485 001c 0122     		movs	r2, #1
 1486 001e 83F84520 		strb	r2, [r3, #69]
 865:Drivers/STM32F7xx_HAL_Driver/Src/stm32f7xx_hal_eth.c ****   
 866:Drivers/STM32F7xx_HAL_Driver/Src/stm32f7xx_hal_eth.c ****   /* Set ETH HAL State to BUSY */
 867:Drivers/STM32F7xx_HAL_Driver/Src/stm32f7xx_hal_eth.c ****   heth->State = HAL_ETH_STATE_BUSY;
 1487              		.loc 1 867 0 is_stmt 1 discriminator 2
 1488 0022 7B68     		ldr	r3, [r7, #4]
 1489 0024 0222     		movs	r2, #2
 1490 0026 83F84420 		strb	r2, [r3, #68]
 868:Drivers/STM32F7xx_HAL_Driver/Src/stm32f7xx_hal_eth.c ****   
 869:Drivers/STM32F7xx_HAL_Driver/Src/stm32f7xx_hal_eth.c ****   /* Scan descriptors owned by CPU */
 870:Drivers/STM32F7xx_HAL_Driver/Src/stm32f7xx_hal_eth.c ****   while (((heth->RxDesc->Status & ETH_DMARXDESC_OWN) == (uint32_t)RESET) && (descriptorscancounter 
 1491              		.loc 1 870 0 discriminator 2
 1492 002a 5AE0     		b	.L77
 1493              	.L82:
 871:Drivers/STM32F7xx_HAL_Driver/Src/stm32f7xx_hal_eth.c ****   {
 872:Drivers/STM32F7xx_HAL_Driver/Src/stm32f7xx_hal_eth.c ****     /* Just for security */
 873:Drivers/STM32F7xx_HAL_Driver/Src/stm32f7xx_hal_eth.c ****     descriptorscancounter++;
 1494              		.loc 1 873 0
 1495 002c FB68     		ldr	r3, [r7, #12]
 1496 002e 0133     		adds	r3, r3, #1
 1497 0030 FB60     		str	r3, [r7, #12]
 874:Drivers/STM32F7xx_HAL_Driver/Src/stm32f7xx_hal_eth.c ****     
 875:Drivers/STM32F7xx_HAL_Driver/Src/stm32f7xx_hal_eth.c ****     /* Check if first segment in frame */
 876:Drivers/STM32F7xx_HAL_Driver/Src/stm32f7xx_hal_eth.c ****     /* ((heth->RxDesc->Status & ETH_DMARXDESC_FS) != (uint32_t)RESET) && ((heth->RxDesc->Status & E
 877:Drivers/STM32F7xx_HAL_Driver/Src/stm32f7xx_hal_eth.c ****     if((heth->RxDesc->Status & (ETH_DMARXDESC_FS | ETH_DMARXDESC_LS)) == (uint32_t)ETH_DMARXDESC_FS
 1498              		.loc 1 877 0
 1499 0032 7B68     		ldr	r3, [r7, #4]
 1500 0034 9B6A     		ldr	r3, [r3, #40]
 1501 0036 1B68     		ldr	r3, [r3]
 1502 0038 03F44073 		and	r3, r3, #768
 1503 003c B3F5007F 		cmp	r3, #512
 1504 0040 0DD1     		bne	.L78
 878:Drivers/STM32F7xx_HAL_Driver/Src/stm32f7xx_hal_eth.c ****     { 
 879:Drivers/STM32F7xx_HAL_Driver/Src/stm32f7xx_hal_eth.c ****       heth->RxFrameInfos.FSRxDesc = heth->RxDesc;
 1505              		.loc 1 879 0
 1506 0042 7B68     		ldr	r3, [r7, #4]
 1507 0044 9A6A     		ldr	r2, [r3, #40]
 1508 0046 7B68     		ldr	r3, [r7, #4]
 1509 0048 1A63     		str	r2, [r3, #48]
 880:Drivers/STM32F7xx_HAL_Driver/Src/stm32f7xx_hal_eth.c ****       heth->RxFrameInfos.SegCount = 1;   
 1510              		.loc 1 880 0
 1511 004a 7B68     		ldr	r3, [r7, #4]
 1512 004c 0122     		movs	r2, #1
 1513 004e 9A63     		str	r2, [r3, #56]
 881:Drivers/STM32F7xx_HAL_Driver/Src/stm32f7xx_hal_eth.c ****       /* Point to next descriptor */
 882:Drivers/STM32F7xx_HAL_Driver/Src/stm32f7xx_hal_eth.c ****       heth->RxDesc = (ETH_DMADescTypeDef*) (heth->RxDesc->Buffer2NextDescAddr);
 1514              		.loc 1 882 0
 1515 0050 7B68     		ldr	r3, [r7, #4]
 1516 0052 9B6A     		ldr	r3, [r3, #40]
 1517 0054 DB68     		ldr	r3, [r3, #12]
 1518 0056 1A46     		mov	r2, r3
 1519 0058 7B68     		ldr	r3, [r7, #4]
 1520 005a 9A62     		str	r2, [r3, #40]
ARM GAS  /tmp/ccJiNVdi.s 			page 43


 1521 005c 41E0     		b	.L77
 1522              	.L78:
 883:Drivers/STM32F7xx_HAL_Driver/Src/stm32f7xx_hal_eth.c ****     }
 884:Drivers/STM32F7xx_HAL_Driver/Src/stm32f7xx_hal_eth.c ****     /* Check if intermediate segment */
 885:Drivers/STM32F7xx_HAL_Driver/Src/stm32f7xx_hal_eth.c ****     /* ((heth->RxDesc->Status & ETH_DMARXDESC_LS) == (uint32_t)RESET)&& ((heth->RxDesc->Status & ET
 886:Drivers/STM32F7xx_HAL_Driver/Src/stm32f7xx_hal_eth.c ****     else if ((heth->RxDesc->Status & (ETH_DMARXDESC_LS | ETH_DMARXDESC_FS)) == (uint32_t)RESET)
 1523              		.loc 1 886 0
 1524 005e 7B68     		ldr	r3, [r7, #4]
 1525 0060 9B6A     		ldr	r3, [r3, #40]
 1526 0062 1B68     		ldr	r3, [r3]
 1527 0064 03F44073 		and	r3, r3, #768
 1528 0068 002B     		cmp	r3, #0
 1529 006a 0BD1     		bne	.L79
 887:Drivers/STM32F7xx_HAL_Driver/Src/stm32f7xx_hal_eth.c ****     {
 888:Drivers/STM32F7xx_HAL_Driver/Src/stm32f7xx_hal_eth.c ****       /* Increment segment count */
 889:Drivers/STM32F7xx_HAL_Driver/Src/stm32f7xx_hal_eth.c ****       (heth->RxFrameInfos.SegCount)++;
 1530              		.loc 1 889 0
 1531 006c 7B68     		ldr	r3, [r7, #4]
 1532 006e 9B6B     		ldr	r3, [r3, #56]
 1533 0070 5A1C     		adds	r2, r3, #1
 1534 0072 7B68     		ldr	r3, [r7, #4]
 1535 0074 9A63     		str	r2, [r3, #56]
 890:Drivers/STM32F7xx_HAL_Driver/Src/stm32f7xx_hal_eth.c ****       /* Point to next descriptor */
 891:Drivers/STM32F7xx_HAL_Driver/Src/stm32f7xx_hal_eth.c ****       heth->RxDesc = (ETH_DMADescTypeDef*)(heth->RxDesc->Buffer2NextDescAddr);
 1536              		.loc 1 891 0
 1537 0076 7B68     		ldr	r3, [r7, #4]
 1538 0078 9B6A     		ldr	r3, [r3, #40]
 1539 007a DB68     		ldr	r3, [r3, #12]
 1540 007c 1A46     		mov	r2, r3
 1541 007e 7B68     		ldr	r3, [r7, #4]
 1542 0080 9A62     		str	r2, [r3, #40]
 1543 0082 2EE0     		b	.L77
 1544              	.L79:
 892:Drivers/STM32F7xx_HAL_Driver/Src/stm32f7xx_hal_eth.c ****     }
 893:Drivers/STM32F7xx_HAL_Driver/Src/stm32f7xx_hal_eth.c ****     /* Should be last segment */
 894:Drivers/STM32F7xx_HAL_Driver/Src/stm32f7xx_hal_eth.c ****     else
 895:Drivers/STM32F7xx_HAL_Driver/Src/stm32f7xx_hal_eth.c ****     { 
 896:Drivers/STM32F7xx_HAL_Driver/Src/stm32f7xx_hal_eth.c ****       /* Last segment */
 897:Drivers/STM32F7xx_HAL_Driver/Src/stm32f7xx_hal_eth.c ****       heth->RxFrameInfos.LSRxDesc = heth->RxDesc;
 1545              		.loc 1 897 0
 1546 0084 7B68     		ldr	r3, [r7, #4]
 1547 0086 9A6A     		ldr	r2, [r3, #40]
 1548 0088 7B68     		ldr	r3, [r7, #4]
 1549 008a 5A63     		str	r2, [r3, #52]
 898:Drivers/STM32F7xx_HAL_Driver/Src/stm32f7xx_hal_eth.c ****       
 899:Drivers/STM32F7xx_HAL_Driver/Src/stm32f7xx_hal_eth.c ****       /* Increment segment count */
 900:Drivers/STM32F7xx_HAL_Driver/Src/stm32f7xx_hal_eth.c ****       (heth->RxFrameInfos.SegCount)++;
 1550              		.loc 1 900 0
 1551 008c 7B68     		ldr	r3, [r7, #4]
 1552 008e 9B6B     		ldr	r3, [r3, #56]
 1553 0090 5A1C     		adds	r2, r3, #1
 1554 0092 7B68     		ldr	r3, [r7, #4]
 1555 0094 9A63     		str	r2, [r3, #56]
 901:Drivers/STM32F7xx_HAL_Driver/Src/stm32f7xx_hal_eth.c ****       
 902:Drivers/STM32F7xx_HAL_Driver/Src/stm32f7xx_hal_eth.c ****       /* Check if last segment is first segment: one segment contains the frame */
 903:Drivers/STM32F7xx_HAL_Driver/Src/stm32f7xx_hal_eth.c ****       if ((heth->RxFrameInfos.SegCount) == 1)
 1556              		.loc 1 903 0
ARM GAS  /tmp/ccJiNVdi.s 			page 44


 1557 0096 7B68     		ldr	r3, [r7, #4]
 1558 0098 9B6B     		ldr	r3, [r3, #56]
 1559 009a 012B     		cmp	r3, #1
 1560 009c 03D1     		bne	.L80
 904:Drivers/STM32F7xx_HAL_Driver/Src/stm32f7xx_hal_eth.c ****       {
 905:Drivers/STM32F7xx_HAL_Driver/Src/stm32f7xx_hal_eth.c ****         heth->RxFrameInfos.FSRxDesc = heth->RxDesc;
 1561              		.loc 1 905 0
 1562 009e 7B68     		ldr	r3, [r7, #4]
 1563 00a0 9A6A     		ldr	r2, [r3, #40]
 1564 00a2 7B68     		ldr	r3, [r7, #4]
 1565 00a4 1A63     		str	r2, [r3, #48]
 1566              	.L80:
 906:Drivers/STM32F7xx_HAL_Driver/Src/stm32f7xx_hal_eth.c ****       }
 907:Drivers/STM32F7xx_HAL_Driver/Src/stm32f7xx_hal_eth.c ****       
 908:Drivers/STM32F7xx_HAL_Driver/Src/stm32f7xx_hal_eth.c ****       /* Get the Frame Length of the received packet: substruct 4 bytes of the CRC */
 909:Drivers/STM32F7xx_HAL_Driver/Src/stm32f7xx_hal_eth.c ****       heth->RxFrameInfos.length = (((heth->RxDesc)->Status & ETH_DMARXDESC_FL) >> ETH_DMARXDESC_FRA
 1567              		.loc 1 909 0
 1568 00a6 7B68     		ldr	r3, [r7, #4]
 1569 00a8 9B6A     		ldr	r3, [r3, #40]
 1570 00aa 1B68     		ldr	r3, [r3]
 1571 00ac 1B0C     		lsrs	r3, r3, #16
 1572 00ae C3F30D03 		ubfx	r3, r3, #0, #14
 1573 00b2 1A1F     		subs	r2, r3, #4
 1574 00b4 7B68     		ldr	r3, [r7, #4]
 1575 00b6 DA63     		str	r2, [r3, #60]
 910:Drivers/STM32F7xx_HAL_Driver/Src/stm32f7xx_hal_eth.c ****       
 911:Drivers/STM32F7xx_HAL_Driver/Src/stm32f7xx_hal_eth.c ****       /* Get the address of the buffer start address */ 
 912:Drivers/STM32F7xx_HAL_Driver/Src/stm32f7xx_hal_eth.c ****       heth->RxFrameInfos.buffer =((heth->RxFrameInfos).FSRxDesc)->Buffer1Addr;
 1576              		.loc 1 912 0
 1577 00b8 7B68     		ldr	r3, [r7, #4]
 1578 00ba 1B6B     		ldr	r3, [r3, #48]
 1579 00bc 9A68     		ldr	r2, [r3, #8]
 1580 00be 7B68     		ldr	r3, [r7, #4]
 1581 00c0 1A64     		str	r2, [r3, #64]
 913:Drivers/STM32F7xx_HAL_Driver/Src/stm32f7xx_hal_eth.c ****       
 914:Drivers/STM32F7xx_HAL_Driver/Src/stm32f7xx_hal_eth.c ****       /* Point to next descriptor */      
 915:Drivers/STM32F7xx_HAL_Driver/Src/stm32f7xx_hal_eth.c ****       heth->RxDesc = (ETH_DMADescTypeDef*) (heth->RxDesc->Buffer2NextDescAddr);
 1582              		.loc 1 915 0
 1583 00c2 7B68     		ldr	r3, [r7, #4]
 1584 00c4 9B6A     		ldr	r3, [r3, #40]
 1585 00c6 DB68     		ldr	r3, [r3, #12]
 1586 00c8 1A46     		mov	r2, r3
 1587 00ca 7B68     		ldr	r3, [r7, #4]
 1588 00cc 9A62     		str	r2, [r3, #40]
 916:Drivers/STM32F7xx_HAL_Driver/Src/stm32f7xx_hal_eth.c ****       
 917:Drivers/STM32F7xx_HAL_Driver/Src/stm32f7xx_hal_eth.c ****       /* Set HAL State to Ready */
 918:Drivers/STM32F7xx_HAL_Driver/Src/stm32f7xx_hal_eth.c ****       heth->State = HAL_ETH_STATE_READY;
 1589              		.loc 1 918 0
 1590 00ce 7B68     		ldr	r3, [r7, #4]
 1591 00d0 0122     		movs	r2, #1
 1592 00d2 83F84420 		strb	r2, [r3, #68]
 919:Drivers/STM32F7xx_HAL_Driver/Src/stm32f7xx_hal_eth.c ****       
 920:Drivers/STM32F7xx_HAL_Driver/Src/stm32f7xx_hal_eth.c ****       /* Process Unlocked */
 921:Drivers/STM32F7xx_HAL_Driver/Src/stm32f7xx_hal_eth.c ****       __HAL_UNLOCK(heth);
 1593              		.loc 1 921 0
 1594 00d6 7B68     		ldr	r3, [r7, #4]
 1595 00d8 0022     		movs	r2, #0
ARM GAS  /tmp/ccJiNVdi.s 			page 45


 1596 00da 83F84520 		strb	r2, [r3, #69]
 922:Drivers/STM32F7xx_HAL_Driver/Src/stm32f7xx_hal_eth.c ****   
 923:Drivers/STM32F7xx_HAL_Driver/Src/stm32f7xx_hal_eth.c ****       /* Return function status */
 924:Drivers/STM32F7xx_HAL_Driver/Src/stm32f7xx_hal_eth.c ****       return HAL_OK;
 1597              		.loc 1 924 0
 1598 00de 0023     		movs	r3, #0
 1599 00e0 10E0     		b	.L76
 1600              	.L77:
 870:Drivers/STM32F7xx_HAL_Driver/Src/stm32f7xx_hal_eth.c ****   {
 1601              		.loc 1 870 0
 1602 00e2 7B68     		ldr	r3, [r7, #4]
 1603 00e4 9B6A     		ldr	r3, [r3, #40]
 1604 00e6 1B68     		ldr	r3, [r3]
 1605 00e8 002B     		cmp	r3, #0
 1606 00ea 02DB     		blt	.L81
 870:Drivers/STM32F7xx_HAL_Driver/Src/stm32f7xx_hal_eth.c ****   {
 1607              		.loc 1 870 0 is_stmt 0 discriminator 1
 1608 00ec FB68     		ldr	r3, [r7, #12]
 1609 00ee 032B     		cmp	r3, #3
 1610 00f0 9CD9     		bls	.L82
 1611              	.L81:
 925:Drivers/STM32F7xx_HAL_Driver/Src/stm32f7xx_hal_eth.c ****     }
 926:Drivers/STM32F7xx_HAL_Driver/Src/stm32f7xx_hal_eth.c ****   }
 927:Drivers/STM32F7xx_HAL_Driver/Src/stm32f7xx_hal_eth.c **** 
 928:Drivers/STM32F7xx_HAL_Driver/Src/stm32f7xx_hal_eth.c ****   /* Set HAL State to Ready */
 929:Drivers/STM32F7xx_HAL_Driver/Src/stm32f7xx_hal_eth.c ****   heth->State = HAL_ETH_STATE_READY;
 1612              		.loc 1 929 0 is_stmt 1
 1613 00f2 7B68     		ldr	r3, [r7, #4]
 1614 00f4 0122     		movs	r2, #1
 1615 00f6 83F84420 		strb	r2, [r3, #68]
 930:Drivers/STM32F7xx_HAL_Driver/Src/stm32f7xx_hal_eth.c ****   
 931:Drivers/STM32F7xx_HAL_Driver/Src/stm32f7xx_hal_eth.c ****   /* Process Unlocked */
 932:Drivers/STM32F7xx_HAL_Driver/Src/stm32f7xx_hal_eth.c ****   __HAL_UNLOCK(heth);
 1616              		.loc 1 932 0
 1617 00fa 7B68     		ldr	r3, [r7, #4]
 1618 00fc 0022     		movs	r2, #0
 1619 00fe 83F84520 		strb	r2, [r3, #69]
 933:Drivers/STM32F7xx_HAL_Driver/Src/stm32f7xx_hal_eth.c ****   
 934:Drivers/STM32F7xx_HAL_Driver/Src/stm32f7xx_hal_eth.c ****   /* Return function status */
 935:Drivers/STM32F7xx_HAL_Driver/Src/stm32f7xx_hal_eth.c ****   return HAL_ERROR;
 1620              		.loc 1 935 0
 1621 0102 0123     		movs	r3, #1
 1622              	.L76:
 936:Drivers/STM32F7xx_HAL_Driver/Src/stm32f7xx_hal_eth.c **** }
 1623              		.loc 1 936 0
 1624 0104 1846     		mov	r0, r3
 1625 0106 1437     		adds	r7, r7, #20
 1626              	.LCFI49:
 1627              		.cfi_def_cfa_offset 4
 1628 0108 BD46     		mov	sp, r7
 1629              	.LCFI50:
 1630              		.cfi_def_cfa_register 13
 1631              		@ sp needed
 1632 010a 5DF8047B 		ldr	r7, [sp], #4
 1633              	.LCFI51:
 1634              		.cfi_restore 7
 1635              		.cfi_def_cfa_offset 0
ARM GAS  /tmp/ccJiNVdi.s 			page 46


 1636 010e 7047     		bx	lr
 1637              		.cfi_endproc
 1638              	.LFE144:
 1640              		.section	.text.HAL_ETH_IRQHandler,"ax",%progbits
 1641              		.align	1
 1642              		.global	HAL_ETH_IRQHandler
 1643              		.syntax unified
 1644              		.thumb
 1645              		.thumb_func
 1646              		.fpu fpv4-sp-d16
 1648              	HAL_ETH_IRQHandler:
 1649              	.LFB145:
 937:Drivers/STM32F7xx_HAL_Driver/Src/stm32f7xx_hal_eth.c **** 
 938:Drivers/STM32F7xx_HAL_Driver/Src/stm32f7xx_hal_eth.c **** /**
 939:Drivers/STM32F7xx_HAL_Driver/Src/stm32f7xx_hal_eth.c ****   * @brief  This function handles ETH interrupt request.
 940:Drivers/STM32F7xx_HAL_Driver/Src/stm32f7xx_hal_eth.c ****   * @param  heth pointer to a ETH_HandleTypeDef structure that contains
 941:Drivers/STM32F7xx_HAL_Driver/Src/stm32f7xx_hal_eth.c ****   *         the configuration information for ETHERNET module
 942:Drivers/STM32F7xx_HAL_Driver/Src/stm32f7xx_hal_eth.c ****   * @retval HAL status
 943:Drivers/STM32F7xx_HAL_Driver/Src/stm32f7xx_hal_eth.c ****   */
 944:Drivers/STM32F7xx_HAL_Driver/Src/stm32f7xx_hal_eth.c **** void HAL_ETH_IRQHandler(ETH_HandleTypeDef *heth)
 945:Drivers/STM32F7xx_HAL_Driver/Src/stm32f7xx_hal_eth.c **** {
 1650              		.loc 1 945 0
 1651              		.cfi_startproc
 1652              		@ args = 0, pretend = 0, frame = 8
 1653              		@ frame_needed = 1, uses_anonymous_args = 0
 1654 0000 80B5     		push	{r7, lr}
 1655              	.LCFI52:
 1656              		.cfi_def_cfa_offset 8
 1657              		.cfi_offset 7, -8
 1658              		.cfi_offset 14, -4
 1659 0002 82B0     		sub	sp, sp, #8
 1660              	.LCFI53:
 1661              		.cfi_def_cfa_offset 16
 1662 0004 00AF     		add	r7, sp, #0
 1663              	.LCFI54:
 1664              		.cfi_def_cfa_register 7
 1665 0006 7860     		str	r0, [r7, #4]
 946:Drivers/STM32F7xx_HAL_Driver/Src/stm32f7xx_hal_eth.c ****   /* Frame received */
 947:Drivers/STM32F7xx_HAL_Driver/Src/stm32f7xx_hal_eth.c ****   if (__HAL_ETH_DMA_GET_FLAG(heth, ETH_DMA_FLAG_R)) 
 1666              		.loc 1 947 0
 1667 0008 7B68     		ldr	r3, [r7, #4]
 1668 000a 1A68     		ldr	r2, [r3]
 1669 000c 41F21403 		movw	r3, #4116
 1670 0010 1344     		add	r3, r3, r2
 1671 0012 1B68     		ldr	r3, [r3]
 1672 0014 03F04003 		and	r3, r3, #64
 1673 0018 402B     		cmp	r3, #64
 1674 001a 12D1     		bne	.L84
 948:Drivers/STM32F7xx_HAL_Driver/Src/stm32f7xx_hal_eth.c ****   {
 949:Drivers/STM32F7xx_HAL_Driver/Src/stm32f7xx_hal_eth.c ****     /* Receive complete callback */
 950:Drivers/STM32F7xx_HAL_Driver/Src/stm32f7xx_hal_eth.c ****     HAL_ETH_RxCpltCallback(heth);
 1675              		.loc 1 950 0
 1676 001c 7868     		ldr	r0, [r7, #4]
 1677 001e FFF7FEFF 		bl	HAL_ETH_RxCpltCallback
 951:Drivers/STM32F7xx_HAL_Driver/Src/stm32f7xx_hal_eth.c ****     
 952:Drivers/STM32F7xx_HAL_Driver/Src/stm32f7xx_hal_eth.c ****      /* Clear the Eth DMA Rx IT pending bits */
 953:Drivers/STM32F7xx_HAL_Driver/Src/stm32f7xx_hal_eth.c ****     __HAL_ETH_DMA_CLEAR_IT(heth, ETH_DMA_IT_R);
ARM GAS  /tmp/ccJiNVdi.s 			page 47


 1678              		.loc 1 953 0
 1679 0022 7B68     		ldr	r3, [r7, #4]
 1680 0024 1A68     		ldr	r2, [r3]
 1681 0026 41F21403 		movw	r3, #4116
 1682 002a 1344     		add	r3, r3, r2
 1683 002c 4022     		movs	r2, #64
 1684 002e 1A60     		str	r2, [r3]
 954:Drivers/STM32F7xx_HAL_Driver/Src/stm32f7xx_hal_eth.c **** 
 955:Drivers/STM32F7xx_HAL_Driver/Src/stm32f7xx_hal_eth.c ****     /* Set HAL State to Ready */
 956:Drivers/STM32F7xx_HAL_Driver/Src/stm32f7xx_hal_eth.c ****     heth->State = HAL_ETH_STATE_READY;
 1685              		.loc 1 956 0
 1686 0030 7B68     		ldr	r3, [r7, #4]
 1687 0032 0122     		movs	r2, #1
 1688 0034 83F84420 		strb	r2, [r3, #68]
 957:Drivers/STM32F7xx_HAL_Driver/Src/stm32f7xx_hal_eth.c ****     
 958:Drivers/STM32F7xx_HAL_Driver/Src/stm32f7xx_hal_eth.c ****     /* Process Unlocked */
 959:Drivers/STM32F7xx_HAL_Driver/Src/stm32f7xx_hal_eth.c ****     __HAL_UNLOCK(heth);
 1689              		.loc 1 959 0
 1690 0038 7B68     		ldr	r3, [r7, #4]
 1691 003a 0022     		movs	r2, #0
 1692 003c 83F84520 		strb	r2, [r3, #69]
 1693 0040 1BE0     		b	.L85
 1694              	.L84:
 960:Drivers/STM32F7xx_HAL_Driver/Src/stm32f7xx_hal_eth.c **** 
 961:Drivers/STM32F7xx_HAL_Driver/Src/stm32f7xx_hal_eth.c ****   }
 962:Drivers/STM32F7xx_HAL_Driver/Src/stm32f7xx_hal_eth.c ****   /* Frame transmitted */
 963:Drivers/STM32F7xx_HAL_Driver/Src/stm32f7xx_hal_eth.c ****   else if (__HAL_ETH_DMA_GET_FLAG(heth, ETH_DMA_FLAG_T)) 
 1695              		.loc 1 963 0
 1696 0042 7B68     		ldr	r3, [r7, #4]
 1697 0044 1A68     		ldr	r2, [r3]
 1698 0046 41F21403 		movw	r3, #4116
 1699 004a 1344     		add	r3, r3, r2
 1700 004c 1B68     		ldr	r3, [r3]
 1701 004e 03F00103 		and	r3, r3, #1
 1702 0052 012B     		cmp	r3, #1
 1703 0054 11D1     		bne	.L85
 964:Drivers/STM32F7xx_HAL_Driver/Src/stm32f7xx_hal_eth.c ****   {
 965:Drivers/STM32F7xx_HAL_Driver/Src/stm32f7xx_hal_eth.c ****     /* Transfer complete callback */
 966:Drivers/STM32F7xx_HAL_Driver/Src/stm32f7xx_hal_eth.c ****     HAL_ETH_TxCpltCallback(heth);
 1704              		.loc 1 966 0
 1705 0056 7868     		ldr	r0, [r7, #4]
 1706 0058 FFF7FEFF 		bl	HAL_ETH_TxCpltCallback
 967:Drivers/STM32F7xx_HAL_Driver/Src/stm32f7xx_hal_eth.c ****     
 968:Drivers/STM32F7xx_HAL_Driver/Src/stm32f7xx_hal_eth.c ****     /* Clear the Eth DMA Tx IT pending bits */
 969:Drivers/STM32F7xx_HAL_Driver/Src/stm32f7xx_hal_eth.c ****     __HAL_ETH_DMA_CLEAR_IT(heth, ETH_DMA_IT_T);
 1707              		.loc 1 969 0
 1708 005c 7B68     		ldr	r3, [r7, #4]
 1709 005e 1A68     		ldr	r2, [r3]
 1710 0060 41F21403 		movw	r3, #4116
 1711 0064 1344     		add	r3, r3, r2
 1712 0066 0122     		movs	r2, #1
 1713 0068 1A60     		str	r2, [r3]
 970:Drivers/STM32F7xx_HAL_Driver/Src/stm32f7xx_hal_eth.c **** 
 971:Drivers/STM32F7xx_HAL_Driver/Src/stm32f7xx_hal_eth.c ****     /* Set HAL State to Ready */
 972:Drivers/STM32F7xx_HAL_Driver/Src/stm32f7xx_hal_eth.c ****     heth->State = HAL_ETH_STATE_READY;
 1714              		.loc 1 972 0
 1715 006a 7B68     		ldr	r3, [r7, #4]
ARM GAS  /tmp/ccJiNVdi.s 			page 48


 1716 006c 0122     		movs	r2, #1
 1717 006e 83F84420 		strb	r2, [r3, #68]
 973:Drivers/STM32F7xx_HAL_Driver/Src/stm32f7xx_hal_eth.c ****     
 974:Drivers/STM32F7xx_HAL_Driver/Src/stm32f7xx_hal_eth.c ****     /* Process Unlocked */
 975:Drivers/STM32F7xx_HAL_Driver/Src/stm32f7xx_hal_eth.c ****     __HAL_UNLOCK(heth);
 1718              		.loc 1 975 0
 1719 0072 7B68     		ldr	r3, [r7, #4]
 1720 0074 0022     		movs	r2, #0
 1721 0076 83F84520 		strb	r2, [r3, #69]
 1722              	.L85:
 976:Drivers/STM32F7xx_HAL_Driver/Src/stm32f7xx_hal_eth.c ****   }
 977:Drivers/STM32F7xx_HAL_Driver/Src/stm32f7xx_hal_eth.c ****   
 978:Drivers/STM32F7xx_HAL_Driver/Src/stm32f7xx_hal_eth.c ****   /* Clear the interrupt flags */
 979:Drivers/STM32F7xx_HAL_Driver/Src/stm32f7xx_hal_eth.c ****   __HAL_ETH_DMA_CLEAR_IT(heth, ETH_DMA_IT_NIS);
 1723              		.loc 1 979 0
 1724 007a 7B68     		ldr	r3, [r7, #4]
 1725 007c 1A68     		ldr	r2, [r3]
 1726 007e 41F21403 		movw	r3, #4116
 1727 0082 1344     		add	r3, r3, r2
 1728 0084 4FF48032 		mov	r2, #65536
 1729 0088 1A60     		str	r2, [r3]
 980:Drivers/STM32F7xx_HAL_Driver/Src/stm32f7xx_hal_eth.c ****   
 981:Drivers/STM32F7xx_HAL_Driver/Src/stm32f7xx_hal_eth.c ****   /* ETH DMA Error */
 982:Drivers/STM32F7xx_HAL_Driver/Src/stm32f7xx_hal_eth.c ****   if(__HAL_ETH_DMA_GET_FLAG(heth, ETH_DMA_FLAG_AIS))
 1730              		.loc 1 982 0
 1731 008a 7B68     		ldr	r3, [r7, #4]
 1732 008c 1A68     		ldr	r2, [r3]
 1733 008e 41F21403 		movw	r3, #4116
 1734 0092 1344     		add	r3, r3, r2
 1735 0094 1B68     		ldr	r3, [r3]
 1736 0096 03F40043 		and	r3, r3, #32768
 1737 009a B3F5004F 		cmp	r3, #32768
 1738 009e 12D1     		bne	.L87
 983:Drivers/STM32F7xx_HAL_Driver/Src/stm32f7xx_hal_eth.c ****   {
 984:Drivers/STM32F7xx_HAL_Driver/Src/stm32f7xx_hal_eth.c ****     /* Ethernet Error callback */
 985:Drivers/STM32F7xx_HAL_Driver/Src/stm32f7xx_hal_eth.c ****     HAL_ETH_ErrorCallback(heth);
 1739              		.loc 1 985 0
 1740 00a0 7868     		ldr	r0, [r7, #4]
 1741 00a2 FFF7FEFF 		bl	HAL_ETH_ErrorCallback
 986:Drivers/STM32F7xx_HAL_Driver/Src/stm32f7xx_hal_eth.c **** 
 987:Drivers/STM32F7xx_HAL_Driver/Src/stm32f7xx_hal_eth.c ****     /* Clear the interrupt flags */
 988:Drivers/STM32F7xx_HAL_Driver/Src/stm32f7xx_hal_eth.c ****     __HAL_ETH_DMA_CLEAR_IT(heth, ETH_DMA_FLAG_AIS);
 1742              		.loc 1 988 0
 1743 00a6 7B68     		ldr	r3, [r7, #4]
 1744 00a8 1A68     		ldr	r2, [r3]
 1745 00aa 41F21403 		movw	r3, #4116
 1746 00ae 1344     		add	r3, r3, r2
 1747 00b0 4FF40042 		mov	r2, #32768
 1748 00b4 1A60     		str	r2, [r3]
 989:Drivers/STM32F7xx_HAL_Driver/Src/stm32f7xx_hal_eth.c ****   
 990:Drivers/STM32F7xx_HAL_Driver/Src/stm32f7xx_hal_eth.c ****     /* Set HAL State to Ready */
 991:Drivers/STM32F7xx_HAL_Driver/Src/stm32f7xx_hal_eth.c ****     heth->State = HAL_ETH_STATE_READY;
 1749              		.loc 1 991 0
 1750 00b6 7B68     		ldr	r3, [r7, #4]
 1751 00b8 0122     		movs	r2, #1
 1752 00ba 83F84420 		strb	r2, [r3, #68]
 992:Drivers/STM32F7xx_HAL_Driver/Src/stm32f7xx_hal_eth.c ****     
ARM GAS  /tmp/ccJiNVdi.s 			page 49


 993:Drivers/STM32F7xx_HAL_Driver/Src/stm32f7xx_hal_eth.c ****     /* Process Unlocked */
 994:Drivers/STM32F7xx_HAL_Driver/Src/stm32f7xx_hal_eth.c ****     __HAL_UNLOCK(heth);
 1753              		.loc 1 994 0
 1754 00be 7B68     		ldr	r3, [r7, #4]
 1755 00c0 0022     		movs	r2, #0
 1756 00c2 83F84520 		strb	r2, [r3, #69]
 1757              	.L87:
 995:Drivers/STM32F7xx_HAL_Driver/Src/stm32f7xx_hal_eth.c ****   }
 996:Drivers/STM32F7xx_HAL_Driver/Src/stm32f7xx_hal_eth.c **** }
 1758              		.loc 1 996 0
 1759 00c6 00BF     		nop
 1760 00c8 0837     		adds	r7, r7, #8
 1761              	.LCFI55:
 1762              		.cfi_def_cfa_offset 8
 1763 00ca BD46     		mov	sp, r7
 1764              	.LCFI56:
 1765              		.cfi_def_cfa_register 13
 1766              		@ sp needed
 1767 00cc 80BD     		pop	{r7, pc}
 1768              		.cfi_endproc
 1769              	.LFE145:
 1771              		.section	.text.HAL_ETH_TxCpltCallback,"ax",%progbits
 1772              		.align	1
 1773              		.weak	HAL_ETH_TxCpltCallback
 1774              		.syntax unified
 1775              		.thumb
 1776              		.thumb_func
 1777              		.fpu fpv4-sp-d16
 1779              	HAL_ETH_TxCpltCallback:
 1780              	.LFB146:
 997:Drivers/STM32F7xx_HAL_Driver/Src/stm32f7xx_hal_eth.c **** 
 998:Drivers/STM32F7xx_HAL_Driver/Src/stm32f7xx_hal_eth.c **** /**
 999:Drivers/STM32F7xx_HAL_Driver/Src/stm32f7xx_hal_eth.c ****   * @brief  Tx Transfer completed callbacks.
1000:Drivers/STM32F7xx_HAL_Driver/Src/stm32f7xx_hal_eth.c ****   * @param  heth pointer to a ETH_HandleTypeDef structure that contains
1001:Drivers/STM32F7xx_HAL_Driver/Src/stm32f7xx_hal_eth.c ****   *         the configuration information for ETHERNET module
1002:Drivers/STM32F7xx_HAL_Driver/Src/stm32f7xx_hal_eth.c ****   * @retval None
1003:Drivers/STM32F7xx_HAL_Driver/Src/stm32f7xx_hal_eth.c ****   */
1004:Drivers/STM32F7xx_HAL_Driver/Src/stm32f7xx_hal_eth.c **** __weak void HAL_ETH_TxCpltCallback(ETH_HandleTypeDef *heth)
1005:Drivers/STM32F7xx_HAL_Driver/Src/stm32f7xx_hal_eth.c **** {
 1781              		.loc 1 1005 0
 1782              		.cfi_startproc
 1783              		@ args = 0, pretend = 0, frame = 8
 1784              		@ frame_needed = 1, uses_anonymous_args = 0
 1785              		@ link register save eliminated.
 1786 0000 80B4     		push	{r7}
 1787              	.LCFI57:
 1788              		.cfi_def_cfa_offset 4
 1789              		.cfi_offset 7, -4
 1790 0002 83B0     		sub	sp, sp, #12
 1791              	.LCFI58:
 1792              		.cfi_def_cfa_offset 16
 1793 0004 00AF     		add	r7, sp, #0
 1794              	.LCFI59:
 1795              		.cfi_def_cfa_register 7
 1796 0006 7860     		str	r0, [r7, #4]
1006:Drivers/STM32F7xx_HAL_Driver/Src/stm32f7xx_hal_eth.c ****   /* Prevent unused argument(s) compilation warning */
1007:Drivers/STM32F7xx_HAL_Driver/Src/stm32f7xx_hal_eth.c ****   UNUSED(heth);
ARM GAS  /tmp/ccJiNVdi.s 			page 50


1008:Drivers/STM32F7xx_HAL_Driver/Src/stm32f7xx_hal_eth.c ****  
1009:Drivers/STM32F7xx_HAL_Driver/Src/stm32f7xx_hal_eth.c ****   /* NOTE : This function Should not be modified, when the callback is needed,
1010:Drivers/STM32F7xx_HAL_Driver/Src/stm32f7xx_hal_eth.c ****   the HAL_ETH_TxCpltCallback could be implemented in the user file
1011:Drivers/STM32F7xx_HAL_Driver/Src/stm32f7xx_hal_eth.c ****   */ 
1012:Drivers/STM32F7xx_HAL_Driver/Src/stm32f7xx_hal_eth.c **** }
 1797              		.loc 1 1012 0
 1798 0008 00BF     		nop
 1799 000a 0C37     		adds	r7, r7, #12
 1800              	.LCFI60:
 1801              		.cfi_def_cfa_offset 4
 1802 000c BD46     		mov	sp, r7
 1803              	.LCFI61:
 1804              		.cfi_def_cfa_register 13
 1805              		@ sp needed
 1806 000e 5DF8047B 		ldr	r7, [sp], #4
 1807              	.LCFI62:
 1808              		.cfi_restore 7
 1809              		.cfi_def_cfa_offset 0
 1810 0012 7047     		bx	lr
 1811              		.cfi_endproc
 1812              	.LFE146:
 1814              		.section	.text.HAL_ETH_RxCpltCallback,"ax",%progbits
 1815              		.align	1
 1816              		.weak	HAL_ETH_RxCpltCallback
 1817              		.syntax unified
 1818              		.thumb
 1819              		.thumb_func
 1820              		.fpu fpv4-sp-d16
 1822              	HAL_ETH_RxCpltCallback:
 1823              	.LFB147:
1013:Drivers/STM32F7xx_HAL_Driver/Src/stm32f7xx_hal_eth.c **** 
1014:Drivers/STM32F7xx_HAL_Driver/Src/stm32f7xx_hal_eth.c **** /**
1015:Drivers/STM32F7xx_HAL_Driver/Src/stm32f7xx_hal_eth.c ****   * @brief  Rx Transfer completed callbacks.
1016:Drivers/STM32F7xx_HAL_Driver/Src/stm32f7xx_hal_eth.c ****   * @param  heth pointer to a ETH_HandleTypeDef structure that contains
1017:Drivers/STM32F7xx_HAL_Driver/Src/stm32f7xx_hal_eth.c ****   *         the configuration information for ETHERNET module
1018:Drivers/STM32F7xx_HAL_Driver/Src/stm32f7xx_hal_eth.c ****   * @retval None
1019:Drivers/STM32F7xx_HAL_Driver/Src/stm32f7xx_hal_eth.c ****   */
1020:Drivers/STM32F7xx_HAL_Driver/Src/stm32f7xx_hal_eth.c **** __weak void HAL_ETH_RxCpltCallback(ETH_HandleTypeDef *heth)
1021:Drivers/STM32F7xx_HAL_Driver/Src/stm32f7xx_hal_eth.c **** {
 1824              		.loc 1 1021 0
 1825              		.cfi_startproc
 1826              		@ args = 0, pretend = 0, frame = 8
 1827              		@ frame_needed = 1, uses_anonymous_args = 0
 1828              		@ link register save eliminated.
 1829 0000 80B4     		push	{r7}
 1830              	.LCFI63:
 1831              		.cfi_def_cfa_offset 4
 1832              		.cfi_offset 7, -4
 1833 0002 83B0     		sub	sp, sp, #12
 1834              	.LCFI64:
 1835              		.cfi_def_cfa_offset 16
 1836 0004 00AF     		add	r7, sp, #0
 1837              	.LCFI65:
 1838              		.cfi_def_cfa_register 7
 1839 0006 7860     		str	r0, [r7, #4]
1022:Drivers/STM32F7xx_HAL_Driver/Src/stm32f7xx_hal_eth.c ****   /* Prevent unused argument(s) compilation warning */
1023:Drivers/STM32F7xx_HAL_Driver/Src/stm32f7xx_hal_eth.c ****   UNUSED(heth);
ARM GAS  /tmp/ccJiNVdi.s 			page 51


1024:Drivers/STM32F7xx_HAL_Driver/Src/stm32f7xx_hal_eth.c ****  
1025:Drivers/STM32F7xx_HAL_Driver/Src/stm32f7xx_hal_eth.c ****   /* NOTE : This function Should not be modified, when the callback is needed,
1026:Drivers/STM32F7xx_HAL_Driver/Src/stm32f7xx_hal_eth.c ****   the HAL_ETH_TxCpltCallback could be implemented in the user file
1027:Drivers/STM32F7xx_HAL_Driver/Src/stm32f7xx_hal_eth.c ****   */ 
1028:Drivers/STM32F7xx_HAL_Driver/Src/stm32f7xx_hal_eth.c **** }
 1840              		.loc 1 1028 0
 1841 0008 00BF     		nop
 1842 000a 0C37     		adds	r7, r7, #12
 1843              	.LCFI66:
 1844              		.cfi_def_cfa_offset 4
 1845 000c BD46     		mov	sp, r7
 1846              	.LCFI67:
 1847              		.cfi_def_cfa_register 13
 1848              		@ sp needed
 1849 000e 5DF8047B 		ldr	r7, [sp], #4
 1850              	.LCFI68:
 1851              		.cfi_restore 7
 1852              		.cfi_def_cfa_offset 0
 1853 0012 7047     		bx	lr
 1854              		.cfi_endproc
 1855              	.LFE147:
 1857              		.section	.text.HAL_ETH_ErrorCallback,"ax",%progbits
 1858              		.align	1
 1859              		.weak	HAL_ETH_ErrorCallback
 1860              		.syntax unified
 1861              		.thumb
 1862              		.thumb_func
 1863              		.fpu fpv4-sp-d16
 1865              	HAL_ETH_ErrorCallback:
 1866              	.LFB148:
1029:Drivers/STM32F7xx_HAL_Driver/Src/stm32f7xx_hal_eth.c **** 
1030:Drivers/STM32F7xx_HAL_Driver/Src/stm32f7xx_hal_eth.c **** /**
1031:Drivers/STM32F7xx_HAL_Driver/Src/stm32f7xx_hal_eth.c ****   * @brief  Ethernet transfer error callbacks
1032:Drivers/STM32F7xx_HAL_Driver/Src/stm32f7xx_hal_eth.c ****   * @param  heth pointer to a ETH_HandleTypeDef structure that contains
1033:Drivers/STM32F7xx_HAL_Driver/Src/stm32f7xx_hal_eth.c ****   *         the configuration information for ETHERNET module
1034:Drivers/STM32F7xx_HAL_Driver/Src/stm32f7xx_hal_eth.c ****   * @retval None
1035:Drivers/STM32F7xx_HAL_Driver/Src/stm32f7xx_hal_eth.c ****   */
1036:Drivers/STM32F7xx_HAL_Driver/Src/stm32f7xx_hal_eth.c **** __weak void HAL_ETH_ErrorCallback(ETH_HandleTypeDef *heth)
1037:Drivers/STM32F7xx_HAL_Driver/Src/stm32f7xx_hal_eth.c **** {
 1867              		.loc 1 1037 0
 1868              		.cfi_startproc
 1869              		@ args = 0, pretend = 0, frame = 8
 1870              		@ frame_needed = 1, uses_anonymous_args = 0
 1871              		@ link register save eliminated.
 1872 0000 80B4     		push	{r7}
 1873              	.LCFI69:
 1874              		.cfi_def_cfa_offset 4
 1875              		.cfi_offset 7, -4
 1876 0002 83B0     		sub	sp, sp, #12
 1877              	.LCFI70:
 1878              		.cfi_def_cfa_offset 16
 1879 0004 00AF     		add	r7, sp, #0
 1880              	.LCFI71:
 1881              		.cfi_def_cfa_register 7
 1882 0006 7860     		str	r0, [r7, #4]
1038:Drivers/STM32F7xx_HAL_Driver/Src/stm32f7xx_hal_eth.c ****   /* Prevent unused argument(s) compilation warning */
1039:Drivers/STM32F7xx_HAL_Driver/Src/stm32f7xx_hal_eth.c ****   UNUSED(heth);
ARM GAS  /tmp/ccJiNVdi.s 			page 52


1040:Drivers/STM32F7xx_HAL_Driver/Src/stm32f7xx_hal_eth.c ****  
1041:Drivers/STM32F7xx_HAL_Driver/Src/stm32f7xx_hal_eth.c ****   /* NOTE : This function Should not be modified, when the callback is needed,
1042:Drivers/STM32F7xx_HAL_Driver/Src/stm32f7xx_hal_eth.c ****   the HAL_ETH_TxCpltCallback could be implemented in the user file
1043:Drivers/STM32F7xx_HAL_Driver/Src/stm32f7xx_hal_eth.c ****   */ 
1044:Drivers/STM32F7xx_HAL_Driver/Src/stm32f7xx_hal_eth.c **** }
 1883              		.loc 1 1044 0
 1884 0008 00BF     		nop
 1885 000a 0C37     		adds	r7, r7, #12
 1886              	.LCFI72:
 1887              		.cfi_def_cfa_offset 4
 1888 000c BD46     		mov	sp, r7
 1889              	.LCFI73:
 1890              		.cfi_def_cfa_register 13
 1891              		@ sp needed
 1892 000e 5DF8047B 		ldr	r7, [sp], #4
 1893              	.LCFI74:
 1894              		.cfi_restore 7
 1895              		.cfi_def_cfa_offset 0
 1896 0012 7047     		bx	lr
 1897              		.cfi_endproc
 1898              	.LFE148:
 1900              		.section	.text.HAL_ETH_ReadPHYRegister,"ax",%progbits
 1901              		.align	1
 1902              		.global	HAL_ETH_ReadPHYRegister
 1903              		.syntax unified
 1904              		.thumb
 1905              		.thumb_func
 1906              		.fpu fpv4-sp-d16
 1908              	HAL_ETH_ReadPHYRegister:
 1909              	.LFB149:
1045:Drivers/STM32F7xx_HAL_Driver/Src/stm32f7xx_hal_eth.c **** 
1046:Drivers/STM32F7xx_HAL_Driver/Src/stm32f7xx_hal_eth.c **** /**
1047:Drivers/STM32F7xx_HAL_Driver/Src/stm32f7xx_hal_eth.c ****   * @brief  Reads a PHY register
1048:Drivers/STM32F7xx_HAL_Driver/Src/stm32f7xx_hal_eth.c ****   * @param  heth pointer to a ETH_HandleTypeDef structure that contains
1049:Drivers/STM32F7xx_HAL_Driver/Src/stm32f7xx_hal_eth.c ****   *         the configuration information for ETHERNET module                  
1050:Drivers/STM32F7xx_HAL_Driver/Src/stm32f7xx_hal_eth.c ****   * @param PHYReg PHY register address, is the index of one of the 32 PHY register. 
1051:Drivers/STM32F7xx_HAL_Driver/Src/stm32f7xx_hal_eth.c ****   *                This parameter can be one of the following values: 
1052:Drivers/STM32F7xx_HAL_Driver/Src/stm32f7xx_hal_eth.c ****   *                   PHY_BCR: Transceiver Basic Control Register, 
1053:Drivers/STM32F7xx_HAL_Driver/Src/stm32f7xx_hal_eth.c ****   *                   PHY_BSR: Transceiver Basic Status Register.   
1054:Drivers/STM32F7xx_HAL_Driver/Src/stm32f7xx_hal_eth.c ****   *                   More PHY register could be read depending on the used PHY
1055:Drivers/STM32F7xx_HAL_Driver/Src/stm32f7xx_hal_eth.c ****   * @param RegValue PHY register value                  
1056:Drivers/STM32F7xx_HAL_Driver/Src/stm32f7xx_hal_eth.c ****   * @retval HAL status
1057:Drivers/STM32F7xx_HAL_Driver/Src/stm32f7xx_hal_eth.c ****   */
1058:Drivers/STM32F7xx_HAL_Driver/Src/stm32f7xx_hal_eth.c **** HAL_StatusTypeDef HAL_ETH_ReadPHYRegister(ETH_HandleTypeDef *heth, uint16_t PHYReg, uint32_t *RegVa
1059:Drivers/STM32F7xx_HAL_Driver/Src/stm32f7xx_hal_eth.c **** {
 1910              		.loc 1 1059 0
 1911              		.cfi_startproc
 1912              		@ args = 0, pretend = 0, frame = 24
 1913              		@ frame_needed = 1, uses_anonymous_args = 0
 1914 0000 80B5     		push	{r7, lr}
 1915              	.LCFI75:
 1916              		.cfi_def_cfa_offset 8
 1917              		.cfi_offset 7, -8
 1918              		.cfi_offset 14, -4
 1919 0002 86B0     		sub	sp, sp, #24
 1920              	.LCFI76:
 1921              		.cfi_def_cfa_offset 32
ARM GAS  /tmp/ccJiNVdi.s 			page 53


 1922 0004 00AF     		add	r7, sp, #0
 1923              	.LCFI77:
 1924              		.cfi_def_cfa_register 7
 1925 0006 F860     		str	r0, [r7, #12]
 1926 0008 0B46     		mov	r3, r1
 1927 000a 7A60     		str	r2, [r7, #4]
 1928 000c 7B81     		strh	r3, [r7, #10]	@ movhi
1060:Drivers/STM32F7xx_HAL_Driver/Src/stm32f7xx_hal_eth.c ****   uint32_t tmpreg = 0;     
 1929              		.loc 1 1060 0
 1930 000e 0023     		movs	r3, #0
 1931 0010 7B61     		str	r3, [r7, #20]
1061:Drivers/STM32F7xx_HAL_Driver/Src/stm32f7xx_hal_eth.c ****   uint32_t tickstart = 0;
 1932              		.loc 1 1061 0
 1933 0012 0023     		movs	r3, #0
 1934 0014 3B61     		str	r3, [r7, #16]
1062:Drivers/STM32F7xx_HAL_Driver/Src/stm32f7xx_hal_eth.c ****   
1063:Drivers/STM32F7xx_HAL_Driver/Src/stm32f7xx_hal_eth.c ****   /* Check parameters */
1064:Drivers/STM32F7xx_HAL_Driver/Src/stm32f7xx_hal_eth.c ****   assert_param(IS_ETH_PHY_ADDRESS(heth->Init.PhyAddress));
1065:Drivers/STM32F7xx_HAL_Driver/Src/stm32f7xx_hal_eth.c ****   
1066:Drivers/STM32F7xx_HAL_Driver/Src/stm32f7xx_hal_eth.c ****   /* Check the ETH peripheral state */
1067:Drivers/STM32F7xx_HAL_Driver/Src/stm32f7xx_hal_eth.c ****   if(heth->State == HAL_ETH_STATE_BUSY_RD)
 1935              		.loc 1 1067 0
 1936 0016 FB68     		ldr	r3, [r7, #12]
 1937 0018 93F84430 		ldrb	r3, [r3, #68]
 1938 001c DBB2     		uxtb	r3, r3
 1939 001e 822B     		cmp	r3, #130
 1940 0020 01D1     		bne	.L92
1068:Drivers/STM32F7xx_HAL_Driver/Src/stm32f7xx_hal_eth.c ****   {
1069:Drivers/STM32F7xx_HAL_Driver/Src/stm32f7xx_hal_eth.c ****     return HAL_BUSY;
 1941              		.loc 1 1069 0
 1942 0022 0223     		movs	r3, #2
 1943 0024 50E0     		b	.L93
 1944              	.L92:
1070:Drivers/STM32F7xx_HAL_Driver/Src/stm32f7xx_hal_eth.c ****   }
1071:Drivers/STM32F7xx_HAL_Driver/Src/stm32f7xx_hal_eth.c ****   /* Set ETH HAL State to BUSY_RD */
1072:Drivers/STM32F7xx_HAL_Driver/Src/stm32f7xx_hal_eth.c ****   heth->State = HAL_ETH_STATE_BUSY_RD;
 1945              		.loc 1 1072 0
 1946 0026 FB68     		ldr	r3, [r7, #12]
 1947 0028 8222     		movs	r2, #130
 1948 002a 83F84420 		strb	r2, [r3, #68]
1073:Drivers/STM32F7xx_HAL_Driver/Src/stm32f7xx_hal_eth.c ****   
1074:Drivers/STM32F7xx_HAL_Driver/Src/stm32f7xx_hal_eth.c ****   /* Get the ETHERNET MACMIIAR value */
1075:Drivers/STM32F7xx_HAL_Driver/Src/stm32f7xx_hal_eth.c ****   tmpreg = heth->Instance->MACMIIAR;
 1949              		.loc 1 1075 0
 1950 002e FB68     		ldr	r3, [r7, #12]
 1951 0030 1B68     		ldr	r3, [r3]
 1952 0032 1B69     		ldr	r3, [r3, #16]
 1953 0034 7B61     		str	r3, [r7, #20]
1076:Drivers/STM32F7xx_HAL_Driver/Src/stm32f7xx_hal_eth.c ****   
1077:Drivers/STM32F7xx_HAL_Driver/Src/stm32f7xx_hal_eth.c ****   /* Keep only the CSR Clock Range CR[2:0] bits value */
1078:Drivers/STM32F7xx_HAL_Driver/Src/stm32f7xx_hal_eth.c ****   tmpreg &= ~ETH_MACMIIAR_CR_MASK;
 1954              		.loc 1 1078 0
 1955 0036 7B69     		ldr	r3, [r7, #20]
 1956 0038 03F01C03 		and	r3, r3, #28
 1957 003c 7B61     		str	r3, [r7, #20]
1079:Drivers/STM32F7xx_HAL_Driver/Src/stm32f7xx_hal_eth.c ****   
1080:Drivers/STM32F7xx_HAL_Driver/Src/stm32f7xx_hal_eth.c ****   /* Prepare the MII address register value */
ARM GAS  /tmp/ccJiNVdi.s 			page 54


1081:Drivers/STM32F7xx_HAL_Driver/Src/stm32f7xx_hal_eth.c ****   tmpreg |=(((uint32_t)heth->Init.PhyAddress << 11) & ETH_MACMIIAR_PA); /* Set the PHY device addre
 1958              		.loc 1 1081 0
 1959 003e FB68     		ldr	r3, [r7, #12]
 1960 0040 1B8A     		ldrh	r3, [r3, #16]
 1961 0042 DB02     		lsls	r3, r3, #11
 1962 0044 9BB2     		uxth	r3, r3
 1963 0046 7A69     		ldr	r2, [r7, #20]
 1964 0048 1343     		orrs	r3, r3, r2
 1965 004a 7B61     		str	r3, [r7, #20]
1082:Drivers/STM32F7xx_HAL_Driver/Src/stm32f7xx_hal_eth.c ****   tmpreg |=(((uint32_t)PHYReg<<6) & ETH_MACMIIAR_MR);                   /* Set the PHY register add
 1966              		.loc 1 1082 0
 1967 004c 7B89     		ldrh	r3, [r7, #10]
 1968 004e 9B01     		lsls	r3, r3, #6
 1969 0050 03F4F863 		and	r3, r3, #1984
 1970 0054 7A69     		ldr	r2, [r7, #20]
 1971 0056 1343     		orrs	r3, r3, r2
 1972 0058 7B61     		str	r3, [r7, #20]
1083:Drivers/STM32F7xx_HAL_Driver/Src/stm32f7xx_hal_eth.c ****   tmpreg &= ~ETH_MACMIIAR_MW;                                           /* Set the read mode       
 1973              		.loc 1 1083 0
 1974 005a 7B69     		ldr	r3, [r7, #20]
 1975 005c 23F00203 		bic	r3, r3, #2
 1976 0060 7B61     		str	r3, [r7, #20]
1084:Drivers/STM32F7xx_HAL_Driver/Src/stm32f7xx_hal_eth.c ****   tmpreg |= ETH_MACMIIAR_MB;                                            /* Set the MII Busy bit    
 1977              		.loc 1 1084 0
 1978 0062 7B69     		ldr	r3, [r7, #20]
 1979 0064 43F00103 		orr	r3, r3, #1
 1980 0068 7B61     		str	r3, [r7, #20]
1085:Drivers/STM32F7xx_HAL_Driver/Src/stm32f7xx_hal_eth.c ****   
1086:Drivers/STM32F7xx_HAL_Driver/Src/stm32f7xx_hal_eth.c ****   /* Write the result value into the MII Address register */
1087:Drivers/STM32F7xx_HAL_Driver/Src/stm32f7xx_hal_eth.c ****   heth->Instance->MACMIIAR = tmpreg;
 1981              		.loc 1 1087 0
 1982 006a FB68     		ldr	r3, [r7, #12]
 1983 006c 1B68     		ldr	r3, [r3]
 1984 006e 7A69     		ldr	r2, [r7, #20]
 1985 0070 1A61     		str	r2, [r3, #16]
1088:Drivers/STM32F7xx_HAL_Driver/Src/stm32f7xx_hal_eth.c ****   
1089:Drivers/STM32F7xx_HAL_Driver/Src/stm32f7xx_hal_eth.c ****   /* Get tick */
1090:Drivers/STM32F7xx_HAL_Driver/Src/stm32f7xx_hal_eth.c ****   tickstart = HAL_GetTick();
 1986              		.loc 1 1090 0
 1987 0072 FFF7FEFF 		bl	HAL_GetTick
 1988 0076 3861     		str	r0, [r7, #16]
1091:Drivers/STM32F7xx_HAL_Driver/Src/stm32f7xx_hal_eth.c ****   
1092:Drivers/STM32F7xx_HAL_Driver/Src/stm32f7xx_hal_eth.c ****   /* Check for the Busy flag */
1093:Drivers/STM32F7xx_HAL_Driver/Src/stm32f7xx_hal_eth.c ****   while((tmpreg & ETH_MACMIIAR_MB) == ETH_MACMIIAR_MB)
 1989              		.loc 1 1093 0
 1990 0078 15E0     		b	.L94
 1991              	.L96:
1094:Drivers/STM32F7xx_HAL_Driver/Src/stm32f7xx_hal_eth.c ****   {
1095:Drivers/STM32F7xx_HAL_Driver/Src/stm32f7xx_hal_eth.c ****     /* Check for the Timeout */
1096:Drivers/STM32F7xx_HAL_Driver/Src/stm32f7xx_hal_eth.c ****     if((HAL_GetTick() - tickstart ) > PHY_READ_TO)
 1992              		.loc 1 1096 0
 1993 007a FFF7FEFF 		bl	HAL_GetTick
 1994 007e 0246     		mov	r2, r0
 1995 0080 3B69     		ldr	r3, [r7, #16]
 1996 0082 D31A     		subs	r3, r2, r3
 1997 0084 B3F5803F 		cmp	r3, #65536
 1998 0088 09D3     		bcc	.L95
ARM GAS  /tmp/ccJiNVdi.s 			page 55


1097:Drivers/STM32F7xx_HAL_Driver/Src/stm32f7xx_hal_eth.c ****     {
1098:Drivers/STM32F7xx_HAL_Driver/Src/stm32f7xx_hal_eth.c ****       heth->State= HAL_ETH_STATE_READY;
 1999              		.loc 1 1098 0
 2000 008a FB68     		ldr	r3, [r7, #12]
 2001 008c 0122     		movs	r2, #1
 2002 008e 83F84420 		strb	r2, [r3, #68]
1099:Drivers/STM32F7xx_HAL_Driver/Src/stm32f7xx_hal_eth.c ****   
1100:Drivers/STM32F7xx_HAL_Driver/Src/stm32f7xx_hal_eth.c ****       /* Process Unlocked */
1101:Drivers/STM32F7xx_HAL_Driver/Src/stm32f7xx_hal_eth.c ****       __HAL_UNLOCK(heth);
 2003              		.loc 1 1101 0
 2004 0092 FB68     		ldr	r3, [r7, #12]
 2005 0094 0022     		movs	r2, #0
 2006 0096 83F84520 		strb	r2, [r3, #69]
1102:Drivers/STM32F7xx_HAL_Driver/Src/stm32f7xx_hal_eth.c ****     
1103:Drivers/STM32F7xx_HAL_Driver/Src/stm32f7xx_hal_eth.c ****       return HAL_TIMEOUT;
 2007              		.loc 1 1103 0
 2008 009a 0323     		movs	r3, #3
 2009 009c 14E0     		b	.L93
 2010              	.L95:
1104:Drivers/STM32F7xx_HAL_Driver/Src/stm32f7xx_hal_eth.c ****     }
1105:Drivers/STM32F7xx_HAL_Driver/Src/stm32f7xx_hal_eth.c ****     
1106:Drivers/STM32F7xx_HAL_Driver/Src/stm32f7xx_hal_eth.c ****     tmpreg = heth->Instance->MACMIIAR;
 2011              		.loc 1 1106 0
 2012 009e FB68     		ldr	r3, [r7, #12]
 2013 00a0 1B68     		ldr	r3, [r3]
 2014 00a2 1B69     		ldr	r3, [r3, #16]
 2015 00a4 7B61     		str	r3, [r7, #20]
 2016              	.L94:
1093:Drivers/STM32F7xx_HAL_Driver/Src/stm32f7xx_hal_eth.c ****   {
 2017              		.loc 1 1093 0
 2018 00a6 7B69     		ldr	r3, [r7, #20]
 2019 00a8 03F00103 		and	r3, r3, #1
 2020 00ac 002B     		cmp	r3, #0
 2021 00ae E4D1     		bne	.L96
1107:Drivers/STM32F7xx_HAL_Driver/Src/stm32f7xx_hal_eth.c ****   }
1108:Drivers/STM32F7xx_HAL_Driver/Src/stm32f7xx_hal_eth.c ****   
1109:Drivers/STM32F7xx_HAL_Driver/Src/stm32f7xx_hal_eth.c ****   /* Get MACMIIDR value */
1110:Drivers/STM32F7xx_HAL_Driver/Src/stm32f7xx_hal_eth.c ****   *RegValue = (uint16_t)(heth->Instance->MACMIIDR);
 2022              		.loc 1 1110 0
 2023 00b0 FB68     		ldr	r3, [r7, #12]
 2024 00b2 1B68     		ldr	r3, [r3]
 2025 00b4 5B69     		ldr	r3, [r3, #20]
 2026 00b6 9BB2     		uxth	r3, r3
 2027 00b8 1A46     		mov	r2, r3
 2028 00ba 7B68     		ldr	r3, [r7, #4]
 2029 00bc 1A60     		str	r2, [r3]
1111:Drivers/STM32F7xx_HAL_Driver/Src/stm32f7xx_hal_eth.c ****   
1112:Drivers/STM32F7xx_HAL_Driver/Src/stm32f7xx_hal_eth.c ****   /* Set ETH HAL State to READY */
1113:Drivers/STM32F7xx_HAL_Driver/Src/stm32f7xx_hal_eth.c ****   heth->State = HAL_ETH_STATE_READY;
 2030              		.loc 1 1113 0
 2031 00be FB68     		ldr	r3, [r7, #12]
 2032 00c0 0122     		movs	r2, #1
 2033 00c2 83F84420 		strb	r2, [r3, #68]
1114:Drivers/STM32F7xx_HAL_Driver/Src/stm32f7xx_hal_eth.c ****   
1115:Drivers/STM32F7xx_HAL_Driver/Src/stm32f7xx_hal_eth.c ****   /* Return function status */
1116:Drivers/STM32F7xx_HAL_Driver/Src/stm32f7xx_hal_eth.c ****   return HAL_OK;
 2034              		.loc 1 1116 0
ARM GAS  /tmp/ccJiNVdi.s 			page 56


 2035 00c6 0023     		movs	r3, #0
 2036              	.L93:
1117:Drivers/STM32F7xx_HAL_Driver/Src/stm32f7xx_hal_eth.c **** }
 2037              		.loc 1 1117 0
 2038 00c8 1846     		mov	r0, r3
 2039 00ca 1837     		adds	r7, r7, #24
 2040              	.LCFI78:
 2041              		.cfi_def_cfa_offset 8
 2042 00cc BD46     		mov	sp, r7
 2043              	.LCFI79:
 2044              		.cfi_def_cfa_register 13
 2045              		@ sp needed
 2046 00ce 80BD     		pop	{r7, pc}
 2047              		.cfi_endproc
 2048              	.LFE149:
 2050              		.section	.text.HAL_ETH_WritePHYRegister,"ax",%progbits
 2051              		.align	1
 2052              		.global	HAL_ETH_WritePHYRegister
 2053              		.syntax unified
 2054              		.thumb
 2055              		.thumb_func
 2056              		.fpu fpv4-sp-d16
 2058              	HAL_ETH_WritePHYRegister:
 2059              	.LFB150:
1118:Drivers/STM32F7xx_HAL_Driver/Src/stm32f7xx_hal_eth.c **** 
1119:Drivers/STM32F7xx_HAL_Driver/Src/stm32f7xx_hal_eth.c **** /**
1120:Drivers/STM32F7xx_HAL_Driver/Src/stm32f7xx_hal_eth.c ****   * @brief  Writes to a PHY register.
1121:Drivers/STM32F7xx_HAL_Driver/Src/stm32f7xx_hal_eth.c ****   * @param  heth pointer to a ETH_HandleTypeDef structure that contains
1122:Drivers/STM32F7xx_HAL_Driver/Src/stm32f7xx_hal_eth.c ****   *         the configuration information for ETHERNET module  
1123:Drivers/STM32F7xx_HAL_Driver/Src/stm32f7xx_hal_eth.c ****   * @param  PHYReg PHY register address, is the index of one of the 32 PHY register. 
1124:Drivers/STM32F7xx_HAL_Driver/Src/stm32f7xx_hal_eth.c ****   *          This parameter can be one of the following values: 
1125:Drivers/STM32F7xx_HAL_Driver/Src/stm32f7xx_hal_eth.c ****   *             PHY_BCR: Transceiver Control Register.  
1126:Drivers/STM32F7xx_HAL_Driver/Src/stm32f7xx_hal_eth.c ****   *             More PHY register could be written depending on the used PHY
1127:Drivers/STM32F7xx_HAL_Driver/Src/stm32f7xx_hal_eth.c ****   * @param  RegValue the value to write
1128:Drivers/STM32F7xx_HAL_Driver/Src/stm32f7xx_hal_eth.c ****   * @retval HAL status
1129:Drivers/STM32F7xx_HAL_Driver/Src/stm32f7xx_hal_eth.c ****   */
1130:Drivers/STM32F7xx_HAL_Driver/Src/stm32f7xx_hal_eth.c **** HAL_StatusTypeDef HAL_ETH_WritePHYRegister(ETH_HandleTypeDef *heth, uint16_t PHYReg, uint32_t RegVa
1131:Drivers/STM32F7xx_HAL_Driver/Src/stm32f7xx_hal_eth.c **** {
 2060              		.loc 1 1131 0
 2061              		.cfi_startproc
 2062              		@ args = 0, pretend = 0, frame = 24
 2063              		@ frame_needed = 1, uses_anonymous_args = 0
 2064 0000 80B5     		push	{r7, lr}
 2065              	.LCFI80:
 2066              		.cfi_def_cfa_offset 8
 2067              		.cfi_offset 7, -8
 2068              		.cfi_offset 14, -4
 2069 0002 86B0     		sub	sp, sp, #24
 2070              	.LCFI81:
 2071              		.cfi_def_cfa_offset 32
 2072 0004 00AF     		add	r7, sp, #0
 2073              	.LCFI82:
 2074              		.cfi_def_cfa_register 7
 2075 0006 F860     		str	r0, [r7, #12]
 2076 0008 0B46     		mov	r3, r1
 2077 000a 7A60     		str	r2, [r7, #4]
 2078 000c 7B81     		strh	r3, [r7, #10]	@ movhi
ARM GAS  /tmp/ccJiNVdi.s 			page 57


1132:Drivers/STM32F7xx_HAL_Driver/Src/stm32f7xx_hal_eth.c ****   uint32_t tmpreg = 0;
 2079              		.loc 1 1132 0
 2080 000e 0023     		movs	r3, #0
 2081 0010 7B61     		str	r3, [r7, #20]
1133:Drivers/STM32F7xx_HAL_Driver/Src/stm32f7xx_hal_eth.c ****   uint32_t tickstart = 0;
 2082              		.loc 1 1133 0
 2083 0012 0023     		movs	r3, #0
 2084 0014 3B61     		str	r3, [r7, #16]
1134:Drivers/STM32F7xx_HAL_Driver/Src/stm32f7xx_hal_eth.c ****   
1135:Drivers/STM32F7xx_HAL_Driver/Src/stm32f7xx_hal_eth.c ****   /* Check parameters */
1136:Drivers/STM32F7xx_HAL_Driver/Src/stm32f7xx_hal_eth.c ****   assert_param(IS_ETH_PHY_ADDRESS(heth->Init.PhyAddress));
1137:Drivers/STM32F7xx_HAL_Driver/Src/stm32f7xx_hal_eth.c ****   
1138:Drivers/STM32F7xx_HAL_Driver/Src/stm32f7xx_hal_eth.c ****   /* Check the ETH peripheral state */
1139:Drivers/STM32F7xx_HAL_Driver/Src/stm32f7xx_hal_eth.c ****   if(heth->State == HAL_ETH_STATE_BUSY_WR)
 2085              		.loc 1 1139 0
 2086 0016 FB68     		ldr	r3, [r7, #12]
 2087 0018 93F84430 		ldrb	r3, [r3, #68]
 2088 001c DBB2     		uxtb	r3, r3
 2089 001e 422B     		cmp	r3, #66
 2090 0020 01D1     		bne	.L98
1140:Drivers/STM32F7xx_HAL_Driver/Src/stm32f7xx_hal_eth.c ****   {
1141:Drivers/STM32F7xx_HAL_Driver/Src/stm32f7xx_hal_eth.c ****     return HAL_BUSY;
 2091              		.loc 1 1141 0
 2092 0022 0223     		movs	r3, #2
 2093 0024 4EE0     		b	.L99
 2094              	.L98:
1142:Drivers/STM32F7xx_HAL_Driver/Src/stm32f7xx_hal_eth.c ****   }
1143:Drivers/STM32F7xx_HAL_Driver/Src/stm32f7xx_hal_eth.c ****   /* Set ETH HAL State to BUSY_WR */
1144:Drivers/STM32F7xx_HAL_Driver/Src/stm32f7xx_hal_eth.c ****   heth->State = HAL_ETH_STATE_BUSY_WR;
 2095              		.loc 1 1144 0
 2096 0026 FB68     		ldr	r3, [r7, #12]
 2097 0028 4222     		movs	r2, #66
 2098 002a 83F84420 		strb	r2, [r3, #68]
1145:Drivers/STM32F7xx_HAL_Driver/Src/stm32f7xx_hal_eth.c ****   
1146:Drivers/STM32F7xx_HAL_Driver/Src/stm32f7xx_hal_eth.c ****   /* Get the ETHERNET MACMIIAR value */
1147:Drivers/STM32F7xx_HAL_Driver/Src/stm32f7xx_hal_eth.c ****   tmpreg = heth->Instance->MACMIIAR;
 2099              		.loc 1 1147 0
 2100 002e FB68     		ldr	r3, [r7, #12]
 2101 0030 1B68     		ldr	r3, [r3]
 2102 0032 1B69     		ldr	r3, [r3, #16]
 2103 0034 7B61     		str	r3, [r7, #20]
1148:Drivers/STM32F7xx_HAL_Driver/Src/stm32f7xx_hal_eth.c ****   
1149:Drivers/STM32F7xx_HAL_Driver/Src/stm32f7xx_hal_eth.c ****   /* Keep only the CSR Clock Range CR[2:0] bits value */
1150:Drivers/STM32F7xx_HAL_Driver/Src/stm32f7xx_hal_eth.c ****   tmpreg &= ~ETH_MACMIIAR_CR_MASK;
 2104              		.loc 1 1150 0
 2105 0036 7B69     		ldr	r3, [r7, #20]
 2106 0038 03F01C03 		and	r3, r3, #28
 2107 003c 7B61     		str	r3, [r7, #20]
1151:Drivers/STM32F7xx_HAL_Driver/Src/stm32f7xx_hal_eth.c ****   
1152:Drivers/STM32F7xx_HAL_Driver/Src/stm32f7xx_hal_eth.c ****   /* Prepare the MII register address value */
1153:Drivers/STM32F7xx_HAL_Driver/Src/stm32f7xx_hal_eth.c ****   tmpreg |=(((uint32_t)heth->Init.PhyAddress<<11) & ETH_MACMIIAR_PA); /* Set the PHY device address
 2108              		.loc 1 1153 0
 2109 003e FB68     		ldr	r3, [r7, #12]
 2110 0040 1B8A     		ldrh	r3, [r3, #16]
 2111 0042 DB02     		lsls	r3, r3, #11
 2112 0044 9BB2     		uxth	r3, r3
 2113 0046 7A69     		ldr	r2, [r7, #20]
ARM GAS  /tmp/ccJiNVdi.s 			page 58


 2114 0048 1343     		orrs	r3, r3, r2
 2115 004a 7B61     		str	r3, [r7, #20]
1154:Drivers/STM32F7xx_HAL_Driver/Src/stm32f7xx_hal_eth.c ****   tmpreg |=(((uint32_t)PHYReg<<6) & ETH_MACMIIAR_MR);                 /* Set the PHY register addre
 2116              		.loc 1 1154 0
 2117 004c 7B89     		ldrh	r3, [r7, #10]
 2118 004e 9B01     		lsls	r3, r3, #6
 2119 0050 03F4F863 		and	r3, r3, #1984
 2120 0054 7A69     		ldr	r2, [r7, #20]
 2121 0056 1343     		orrs	r3, r3, r2
 2122 0058 7B61     		str	r3, [r7, #20]
1155:Drivers/STM32F7xx_HAL_Driver/Src/stm32f7xx_hal_eth.c ****   tmpreg |= ETH_MACMIIAR_MW;                                          /* Set the write mode */
 2123              		.loc 1 1155 0
 2124 005a 7B69     		ldr	r3, [r7, #20]
 2125 005c 43F00203 		orr	r3, r3, #2
 2126 0060 7B61     		str	r3, [r7, #20]
1156:Drivers/STM32F7xx_HAL_Driver/Src/stm32f7xx_hal_eth.c ****   tmpreg |= ETH_MACMIIAR_MB;                                          /* Set the MII Busy bit */
 2127              		.loc 1 1156 0
 2128 0062 7B69     		ldr	r3, [r7, #20]
 2129 0064 43F00103 		orr	r3, r3, #1
 2130 0068 7B61     		str	r3, [r7, #20]
1157:Drivers/STM32F7xx_HAL_Driver/Src/stm32f7xx_hal_eth.c ****   
1158:Drivers/STM32F7xx_HAL_Driver/Src/stm32f7xx_hal_eth.c ****   /* Give the value to the MII data register */
1159:Drivers/STM32F7xx_HAL_Driver/Src/stm32f7xx_hal_eth.c ****   heth->Instance->MACMIIDR = (uint16_t)RegValue;
 2131              		.loc 1 1159 0
 2132 006a FB68     		ldr	r3, [r7, #12]
 2133 006c 1B68     		ldr	r3, [r3]
 2134 006e 7A68     		ldr	r2, [r7, #4]
 2135 0070 92B2     		uxth	r2, r2
 2136 0072 5A61     		str	r2, [r3, #20]
1160:Drivers/STM32F7xx_HAL_Driver/Src/stm32f7xx_hal_eth.c ****   
1161:Drivers/STM32F7xx_HAL_Driver/Src/stm32f7xx_hal_eth.c ****   /* Write the result value into the MII Address register */
1162:Drivers/STM32F7xx_HAL_Driver/Src/stm32f7xx_hal_eth.c ****   heth->Instance->MACMIIAR = tmpreg;
 2137              		.loc 1 1162 0
 2138 0074 FB68     		ldr	r3, [r7, #12]
 2139 0076 1B68     		ldr	r3, [r3]
 2140 0078 7A69     		ldr	r2, [r7, #20]
 2141 007a 1A61     		str	r2, [r3, #16]
1163:Drivers/STM32F7xx_HAL_Driver/Src/stm32f7xx_hal_eth.c ****   
1164:Drivers/STM32F7xx_HAL_Driver/Src/stm32f7xx_hal_eth.c ****   /* Get tick */
1165:Drivers/STM32F7xx_HAL_Driver/Src/stm32f7xx_hal_eth.c ****   tickstart = HAL_GetTick();
 2142              		.loc 1 1165 0
 2143 007c FFF7FEFF 		bl	HAL_GetTick
 2144 0080 3861     		str	r0, [r7, #16]
1166:Drivers/STM32F7xx_HAL_Driver/Src/stm32f7xx_hal_eth.c ****   
1167:Drivers/STM32F7xx_HAL_Driver/Src/stm32f7xx_hal_eth.c ****   /* Check for the Busy flag */
1168:Drivers/STM32F7xx_HAL_Driver/Src/stm32f7xx_hal_eth.c ****   while((tmpreg & ETH_MACMIIAR_MB) == ETH_MACMIIAR_MB)
 2145              		.loc 1 1168 0
 2146 0082 15E0     		b	.L100
 2147              	.L102:
1169:Drivers/STM32F7xx_HAL_Driver/Src/stm32f7xx_hal_eth.c ****   {
1170:Drivers/STM32F7xx_HAL_Driver/Src/stm32f7xx_hal_eth.c ****     /* Check for the Timeout */
1171:Drivers/STM32F7xx_HAL_Driver/Src/stm32f7xx_hal_eth.c ****     if((HAL_GetTick() - tickstart ) > PHY_WRITE_TO)
 2148              		.loc 1 1171 0
 2149 0084 FFF7FEFF 		bl	HAL_GetTick
 2150 0088 0246     		mov	r2, r0
 2151 008a 3B69     		ldr	r3, [r7, #16]
 2152 008c D31A     		subs	r3, r2, r3
ARM GAS  /tmp/ccJiNVdi.s 			page 59


 2153 008e B3F5803F 		cmp	r3, #65536
 2154 0092 09D3     		bcc	.L101
1172:Drivers/STM32F7xx_HAL_Driver/Src/stm32f7xx_hal_eth.c ****     {
1173:Drivers/STM32F7xx_HAL_Driver/Src/stm32f7xx_hal_eth.c ****       heth->State= HAL_ETH_STATE_READY;
 2155              		.loc 1 1173 0
 2156 0094 FB68     		ldr	r3, [r7, #12]
 2157 0096 0122     		movs	r2, #1
 2158 0098 83F84420 		strb	r2, [r3, #68]
1174:Drivers/STM32F7xx_HAL_Driver/Src/stm32f7xx_hal_eth.c ****   
1175:Drivers/STM32F7xx_HAL_Driver/Src/stm32f7xx_hal_eth.c ****       /* Process Unlocked */
1176:Drivers/STM32F7xx_HAL_Driver/Src/stm32f7xx_hal_eth.c ****       __HAL_UNLOCK(heth);
 2159              		.loc 1 1176 0
 2160 009c FB68     		ldr	r3, [r7, #12]
 2161 009e 0022     		movs	r2, #0
 2162 00a0 83F84520 		strb	r2, [r3, #69]
1177:Drivers/STM32F7xx_HAL_Driver/Src/stm32f7xx_hal_eth.c ****     
1178:Drivers/STM32F7xx_HAL_Driver/Src/stm32f7xx_hal_eth.c ****       return HAL_TIMEOUT;
 2163              		.loc 1 1178 0
 2164 00a4 0323     		movs	r3, #3
 2165 00a6 0DE0     		b	.L99
 2166              	.L101:
1179:Drivers/STM32F7xx_HAL_Driver/Src/stm32f7xx_hal_eth.c ****     }
1180:Drivers/STM32F7xx_HAL_Driver/Src/stm32f7xx_hal_eth.c ****     
1181:Drivers/STM32F7xx_HAL_Driver/Src/stm32f7xx_hal_eth.c ****     tmpreg = heth->Instance->MACMIIAR;
 2167              		.loc 1 1181 0
 2168 00a8 FB68     		ldr	r3, [r7, #12]
 2169 00aa 1B68     		ldr	r3, [r3]
 2170 00ac 1B69     		ldr	r3, [r3, #16]
 2171 00ae 7B61     		str	r3, [r7, #20]
 2172              	.L100:
1168:Drivers/STM32F7xx_HAL_Driver/Src/stm32f7xx_hal_eth.c ****   {
 2173              		.loc 1 1168 0
 2174 00b0 7B69     		ldr	r3, [r7, #20]
 2175 00b2 03F00103 		and	r3, r3, #1
 2176 00b6 002B     		cmp	r3, #0
 2177 00b8 E4D1     		bne	.L102
1182:Drivers/STM32F7xx_HAL_Driver/Src/stm32f7xx_hal_eth.c ****   }
1183:Drivers/STM32F7xx_HAL_Driver/Src/stm32f7xx_hal_eth.c ****   
1184:Drivers/STM32F7xx_HAL_Driver/Src/stm32f7xx_hal_eth.c ****   /* Set ETH HAL State to READY */
1185:Drivers/STM32F7xx_HAL_Driver/Src/stm32f7xx_hal_eth.c ****   heth->State = HAL_ETH_STATE_READY;
 2178              		.loc 1 1185 0
 2179 00ba FB68     		ldr	r3, [r7, #12]
 2180 00bc 0122     		movs	r2, #1
 2181 00be 83F84420 		strb	r2, [r3, #68]
1186:Drivers/STM32F7xx_HAL_Driver/Src/stm32f7xx_hal_eth.c ****   
1187:Drivers/STM32F7xx_HAL_Driver/Src/stm32f7xx_hal_eth.c ****   /* Return function status */
1188:Drivers/STM32F7xx_HAL_Driver/Src/stm32f7xx_hal_eth.c ****   return HAL_OK; 
 2182              		.loc 1 1188 0
 2183 00c2 0023     		movs	r3, #0
 2184              	.L99:
1189:Drivers/STM32F7xx_HAL_Driver/Src/stm32f7xx_hal_eth.c **** }
 2185              		.loc 1 1189 0
 2186 00c4 1846     		mov	r0, r3
 2187 00c6 1837     		adds	r7, r7, #24
 2188              	.LCFI83:
 2189              		.cfi_def_cfa_offset 8
 2190 00c8 BD46     		mov	sp, r7
ARM GAS  /tmp/ccJiNVdi.s 			page 60


 2191              	.LCFI84:
 2192              		.cfi_def_cfa_register 13
 2193              		@ sp needed
 2194 00ca 80BD     		pop	{r7, pc}
 2195              		.cfi_endproc
 2196              	.LFE150:
 2198              		.section	.text.HAL_ETH_Start,"ax",%progbits
 2199              		.align	1
 2200              		.global	HAL_ETH_Start
 2201              		.syntax unified
 2202              		.thumb
 2203              		.thumb_func
 2204              		.fpu fpv4-sp-d16
 2206              	HAL_ETH_Start:
 2207              	.LFB151:
1190:Drivers/STM32F7xx_HAL_Driver/Src/stm32f7xx_hal_eth.c **** 
1191:Drivers/STM32F7xx_HAL_Driver/Src/stm32f7xx_hal_eth.c **** /**
1192:Drivers/STM32F7xx_HAL_Driver/Src/stm32f7xx_hal_eth.c ****   * @}
1193:Drivers/STM32F7xx_HAL_Driver/Src/stm32f7xx_hal_eth.c ****   */
1194:Drivers/STM32F7xx_HAL_Driver/Src/stm32f7xx_hal_eth.c **** 
1195:Drivers/STM32F7xx_HAL_Driver/Src/stm32f7xx_hal_eth.c **** /** @defgroup ETH_Exported_Functions_Group3 Peripheral Control functions
1196:Drivers/STM32F7xx_HAL_Driver/Src/stm32f7xx_hal_eth.c ****  *  @brief    Peripheral Control functions 
1197:Drivers/STM32F7xx_HAL_Driver/Src/stm32f7xx_hal_eth.c ****  *
1198:Drivers/STM32F7xx_HAL_Driver/Src/stm32f7xx_hal_eth.c **** @verbatim   
1199:Drivers/STM32F7xx_HAL_Driver/Src/stm32f7xx_hal_eth.c ****  ===============================================================================
1200:Drivers/STM32F7xx_HAL_Driver/Src/stm32f7xx_hal_eth.c ****                   ##### Peripheral Control functions #####
1201:Drivers/STM32F7xx_HAL_Driver/Src/stm32f7xx_hal_eth.c ****  ===============================================================================  
1202:Drivers/STM32F7xx_HAL_Driver/Src/stm32f7xx_hal_eth.c ****     [..]  This section provides functions allowing to:
1203:Drivers/STM32F7xx_HAL_Driver/Src/stm32f7xx_hal_eth.c ****       (+) Enable MAC and DMA transmission and reception.
1204:Drivers/STM32F7xx_HAL_Driver/Src/stm32f7xx_hal_eth.c ****           HAL_ETH_Start();
1205:Drivers/STM32F7xx_HAL_Driver/Src/stm32f7xx_hal_eth.c ****       (+) Disable MAC and DMA transmission and reception. 
1206:Drivers/STM32F7xx_HAL_Driver/Src/stm32f7xx_hal_eth.c ****           HAL_ETH_Stop();
1207:Drivers/STM32F7xx_HAL_Driver/Src/stm32f7xx_hal_eth.c ****       (+) Set the MAC configuration in runtime mode
1208:Drivers/STM32F7xx_HAL_Driver/Src/stm32f7xx_hal_eth.c ****           HAL_ETH_ConfigMAC();
1209:Drivers/STM32F7xx_HAL_Driver/Src/stm32f7xx_hal_eth.c ****       (+) Set the DMA configuration in runtime mode
1210:Drivers/STM32F7xx_HAL_Driver/Src/stm32f7xx_hal_eth.c ****           HAL_ETH_ConfigDMA();
1211:Drivers/STM32F7xx_HAL_Driver/Src/stm32f7xx_hal_eth.c **** 
1212:Drivers/STM32F7xx_HAL_Driver/Src/stm32f7xx_hal_eth.c **** @endverbatim
1213:Drivers/STM32F7xx_HAL_Driver/Src/stm32f7xx_hal_eth.c ****   * @{
1214:Drivers/STM32F7xx_HAL_Driver/Src/stm32f7xx_hal_eth.c ****   */ 
1215:Drivers/STM32F7xx_HAL_Driver/Src/stm32f7xx_hal_eth.c **** 
1216:Drivers/STM32F7xx_HAL_Driver/Src/stm32f7xx_hal_eth.c ****  /**
1217:Drivers/STM32F7xx_HAL_Driver/Src/stm32f7xx_hal_eth.c ****   * @brief  Enables Ethernet MAC and DMA reception/transmission 
1218:Drivers/STM32F7xx_HAL_Driver/Src/stm32f7xx_hal_eth.c ****   * @param  heth pointer to a ETH_HandleTypeDef structure that contains
1219:Drivers/STM32F7xx_HAL_Driver/Src/stm32f7xx_hal_eth.c ****   *         the configuration information for ETHERNET module
1220:Drivers/STM32F7xx_HAL_Driver/Src/stm32f7xx_hal_eth.c ****   * @retval HAL status
1221:Drivers/STM32F7xx_HAL_Driver/Src/stm32f7xx_hal_eth.c ****   */
1222:Drivers/STM32F7xx_HAL_Driver/Src/stm32f7xx_hal_eth.c **** HAL_StatusTypeDef HAL_ETH_Start(ETH_HandleTypeDef *heth)
1223:Drivers/STM32F7xx_HAL_Driver/Src/stm32f7xx_hal_eth.c **** {  
 2208              		.loc 1 1223 0
 2209              		.cfi_startproc
 2210              		@ args = 0, pretend = 0, frame = 8
 2211              		@ frame_needed = 1, uses_anonymous_args = 0
 2212 0000 80B5     		push	{r7, lr}
 2213              	.LCFI85:
 2214              		.cfi_def_cfa_offset 8
 2215              		.cfi_offset 7, -8
ARM GAS  /tmp/ccJiNVdi.s 			page 61


 2216              		.cfi_offset 14, -4
 2217 0002 82B0     		sub	sp, sp, #8
 2218              	.LCFI86:
 2219              		.cfi_def_cfa_offset 16
 2220 0004 00AF     		add	r7, sp, #0
 2221              	.LCFI87:
 2222              		.cfi_def_cfa_register 7
 2223 0006 7860     		str	r0, [r7, #4]
1224:Drivers/STM32F7xx_HAL_Driver/Src/stm32f7xx_hal_eth.c ****   /* Process Locked */
1225:Drivers/STM32F7xx_HAL_Driver/Src/stm32f7xx_hal_eth.c ****   __HAL_LOCK(heth);
 2224              		.loc 1 1225 0
 2225 0008 7B68     		ldr	r3, [r7, #4]
 2226 000a 93F84530 		ldrb	r3, [r3, #69]	@ zero_extendqisi2
 2227 000e 012B     		cmp	r3, #1
 2228 0010 01D1     		bne	.L104
 2229              		.loc 1 1225 0 is_stmt 0 discriminator 1
 2230 0012 0223     		movs	r3, #2
 2231 0014 1FE0     		b	.L105
 2232              	.L104:
 2233              		.loc 1 1225 0 discriminator 2
 2234 0016 7B68     		ldr	r3, [r7, #4]
 2235 0018 0122     		movs	r2, #1
 2236 001a 83F84520 		strb	r2, [r3, #69]
1226:Drivers/STM32F7xx_HAL_Driver/Src/stm32f7xx_hal_eth.c ****   
1227:Drivers/STM32F7xx_HAL_Driver/Src/stm32f7xx_hal_eth.c ****   /* Set the ETH peripheral state to BUSY */
1228:Drivers/STM32F7xx_HAL_Driver/Src/stm32f7xx_hal_eth.c ****   heth->State = HAL_ETH_STATE_BUSY;
 2237              		.loc 1 1228 0 is_stmt 1 discriminator 2
 2238 001e 7B68     		ldr	r3, [r7, #4]
 2239 0020 0222     		movs	r2, #2
 2240 0022 83F84420 		strb	r2, [r3, #68]
1229:Drivers/STM32F7xx_HAL_Driver/Src/stm32f7xx_hal_eth.c ****   
1230:Drivers/STM32F7xx_HAL_Driver/Src/stm32f7xx_hal_eth.c ****   /* Enable transmit state machine of the MAC for transmission on the MII */
1231:Drivers/STM32F7xx_HAL_Driver/Src/stm32f7xx_hal_eth.c ****   ETH_MACTransmissionEnable(heth);
 2241              		.loc 1 1231 0 discriminator 2
 2242 0026 7868     		ldr	r0, [r7, #4]
 2243 0028 FFF7FEFF 		bl	ETH_MACTransmissionEnable
1232:Drivers/STM32F7xx_HAL_Driver/Src/stm32f7xx_hal_eth.c ****   
1233:Drivers/STM32F7xx_HAL_Driver/Src/stm32f7xx_hal_eth.c ****   /* Enable receive state machine of the MAC for reception from the MII */
1234:Drivers/STM32F7xx_HAL_Driver/Src/stm32f7xx_hal_eth.c ****   ETH_MACReceptionEnable(heth);
 2244              		.loc 1 1234 0 discriminator 2
 2245 002c 7868     		ldr	r0, [r7, #4]
 2246 002e FFF7FEFF 		bl	ETH_MACReceptionEnable
1235:Drivers/STM32F7xx_HAL_Driver/Src/stm32f7xx_hal_eth.c ****   
1236:Drivers/STM32F7xx_HAL_Driver/Src/stm32f7xx_hal_eth.c ****   /* Flush Transmit FIFO */
1237:Drivers/STM32F7xx_HAL_Driver/Src/stm32f7xx_hal_eth.c ****   ETH_FlushTransmitFIFO(heth);
 2247              		.loc 1 1237 0 discriminator 2
 2248 0032 7868     		ldr	r0, [r7, #4]
 2249 0034 FFF7FEFF 		bl	ETH_FlushTransmitFIFO
1238:Drivers/STM32F7xx_HAL_Driver/Src/stm32f7xx_hal_eth.c ****   
1239:Drivers/STM32F7xx_HAL_Driver/Src/stm32f7xx_hal_eth.c ****   /* Start DMA transmission */
1240:Drivers/STM32F7xx_HAL_Driver/Src/stm32f7xx_hal_eth.c ****   ETH_DMATransmissionEnable(heth);
 2250              		.loc 1 1240 0 discriminator 2
 2251 0038 7868     		ldr	r0, [r7, #4]
 2252 003a FFF7FEFF 		bl	ETH_DMATransmissionEnable
1241:Drivers/STM32F7xx_HAL_Driver/Src/stm32f7xx_hal_eth.c ****   
1242:Drivers/STM32F7xx_HAL_Driver/Src/stm32f7xx_hal_eth.c ****   /* Start DMA reception */
1243:Drivers/STM32F7xx_HAL_Driver/Src/stm32f7xx_hal_eth.c ****   ETH_DMAReceptionEnable(heth);
ARM GAS  /tmp/ccJiNVdi.s 			page 62


 2253              		.loc 1 1243 0 discriminator 2
 2254 003e 7868     		ldr	r0, [r7, #4]
 2255 0040 FFF7FEFF 		bl	ETH_DMAReceptionEnable
1244:Drivers/STM32F7xx_HAL_Driver/Src/stm32f7xx_hal_eth.c ****   
1245:Drivers/STM32F7xx_HAL_Driver/Src/stm32f7xx_hal_eth.c ****   /* Set the ETH state to READY*/
1246:Drivers/STM32F7xx_HAL_Driver/Src/stm32f7xx_hal_eth.c ****   heth->State= HAL_ETH_STATE_READY;
 2256              		.loc 1 1246 0 discriminator 2
 2257 0044 7B68     		ldr	r3, [r7, #4]
 2258 0046 0122     		movs	r2, #1
 2259 0048 83F84420 		strb	r2, [r3, #68]
1247:Drivers/STM32F7xx_HAL_Driver/Src/stm32f7xx_hal_eth.c ****   
1248:Drivers/STM32F7xx_HAL_Driver/Src/stm32f7xx_hal_eth.c ****   /* Process Unlocked */
1249:Drivers/STM32F7xx_HAL_Driver/Src/stm32f7xx_hal_eth.c ****   __HAL_UNLOCK(heth);
 2260              		.loc 1 1249 0 discriminator 2
 2261 004c 7B68     		ldr	r3, [r7, #4]
 2262 004e 0022     		movs	r2, #0
 2263 0050 83F84520 		strb	r2, [r3, #69]
1250:Drivers/STM32F7xx_HAL_Driver/Src/stm32f7xx_hal_eth.c ****   
1251:Drivers/STM32F7xx_HAL_Driver/Src/stm32f7xx_hal_eth.c ****   /* Return function status */
1252:Drivers/STM32F7xx_HAL_Driver/Src/stm32f7xx_hal_eth.c ****   return HAL_OK;
 2264              		.loc 1 1252 0 discriminator 2
 2265 0054 0023     		movs	r3, #0
 2266              	.L105:
1253:Drivers/STM32F7xx_HAL_Driver/Src/stm32f7xx_hal_eth.c **** }
 2267              		.loc 1 1253 0
 2268 0056 1846     		mov	r0, r3
 2269 0058 0837     		adds	r7, r7, #8
 2270              	.LCFI88:
 2271              		.cfi_def_cfa_offset 8
 2272 005a BD46     		mov	sp, r7
 2273              	.LCFI89:
 2274              		.cfi_def_cfa_register 13
 2275              		@ sp needed
 2276 005c 80BD     		pop	{r7, pc}
 2277              		.cfi_endproc
 2278              	.LFE151:
 2280              		.section	.text.HAL_ETH_Stop,"ax",%progbits
 2281              		.align	1
 2282              		.global	HAL_ETH_Stop
 2283              		.syntax unified
 2284              		.thumb
 2285              		.thumb_func
 2286              		.fpu fpv4-sp-d16
 2288              	HAL_ETH_Stop:
 2289              	.LFB152:
1254:Drivers/STM32F7xx_HAL_Driver/Src/stm32f7xx_hal_eth.c **** 
1255:Drivers/STM32F7xx_HAL_Driver/Src/stm32f7xx_hal_eth.c **** /**
1256:Drivers/STM32F7xx_HAL_Driver/Src/stm32f7xx_hal_eth.c ****   * @brief  Stop Ethernet MAC and DMA reception/transmission 
1257:Drivers/STM32F7xx_HAL_Driver/Src/stm32f7xx_hal_eth.c ****   * @param  heth pointer to a ETH_HandleTypeDef structure that contains
1258:Drivers/STM32F7xx_HAL_Driver/Src/stm32f7xx_hal_eth.c ****   *         the configuration information for ETHERNET module
1259:Drivers/STM32F7xx_HAL_Driver/Src/stm32f7xx_hal_eth.c ****   * @retval HAL status
1260:Drivers/STM32F7xx_HAL_Driver/Src/stm32f7xx_hal_eth.c ****   */
1261:Drivers/STM32F7xx_HAL_Driver/Src/stm32f7xx_hal_eth.c **** HAL_StatusTypeDef HAL_ETH_Stop(ETH_HandleTypeDef *heth)
1262:Drivers/STM32F7xx_HAL_Driver/Src/stm32f7xx_hal_eth.c **** {  
 2290              		.loc 1 1262 0
 2291              		.cfi_startproc
 2292              		@ args = 0, pretend = 0, frame = 8
ARM GAS  /tmp/ccJiNVdi.s 			page 63


 2293              		@ frame_needed = 1, uses_anonymous_args = 0
 2294 0000 80B5     		push	{r7, lr}
 2295              	.LCFI90:
 2296              		.cfi_def_cfa_offset 8
 2297              		.cfi_offset 7, -8
 2298              		.cfi_offset 14, -4
 2299 0002 82B0     		sub	sp, sp, #8
 2300              	.LCFI91:
 2301              		.cfi_def_cfa_offset 16
 2302 0004 00AF     		add	r7, sp, #0
 2303              	.LCFI92:
 2304              		.cfi_def_cfa_register 7
 2305 0006 7860     		str	r0, [r7, #4]
1263:Drivers/STM32F7xx_HAL_Driver/Src/stm32f7xx_hal_eth.c ****   /* Process Locked */
1264:Drivers/STM32F7xx_HAL_Driver/Src/stm32f7xx_hal_eth.c ****   __HAL_LOCK(heth);
 2306              		.loc 1 1264 0
 2307 0008 7B68     		ldr	r3, [r7, #4]
 2308 000a 93F84530 		ldrb	r3, [r3, #69]	@ zero_extendqisi2
 2309 000e 012B     		cmp	r3, #1
 2310 0010 01D1     		bne	.L107
 2311              		.loc 1 1264 0 is_stmt 0 discriminator 1
 2312 0012 0223     		movs	r3, #2
 2313 0014 1FE0     		b	.L108
 2314              	.L107:
 2315              		.loc 1 1264 0 discriminator 2
 2316 0016 7B68     		ldr	r3, [r7, #4]
 2317 0018 0122     		movs	r2, #1
 2318 001a 83F84520 		strb	r2, [r3, #69]
1265:Drivers/STM32F7xx_HAL_Driver/Src/stm32f7xx_hal_eth.c ****   
1266:Drivers/STM32F7xx_HAL_Driver/Src/stm32f7xx_hal_eth.c ****   /* Set the ETH peripheral state to BUSY */
1267:Drivers/STM32F7xx_HAL_Driver/Src/stm32f7xx_hal_eth.c ****   heth->State = HAL_ETH_STATE_BUSY;
 2319              		.loc 1 1267 0 is_stmt 1 discriminator 2
 2320 001e 7B68     		ldr	r3, [r7, #4]
 2321 0020 0222     		movs	r2, #2
 2322 0022 83F84420 		strb	r2, [r3, #68]
1268:Drivers/STM32F7xx_HAL_Driver/Src/stm32f7xx_hal_eth.c ****   
1269:Drivers/STM32F7xx_HAL_Driver/Src/stm32f7xx_hal_eth.c ****   /* Stop DMA transmission */
1270:Drivers/STM32F7xx_HAL_Driver/Src/stm32f7xx_hal_eth.c ****   ETH_DMATransmissionDisable(heth);
 2323              		.loc 1 1270 0 discriminator 2
 2324 0026 7868     		ldr	r0, [r7, #4]
 2325 0028 FFF7FEFF 		bl	ETH_DMATransmissionDisable
1271:Drivers/STM32F7xx_HAL_Driver/Src/stm32f7xx_hal_eth.c ****   
1272:Drivers/STM32F7xx_HAL_Driver/Src/stm32f7xx_hal_eth.c ****   /* Stop DMA reception */
1273:Drivers/STM32F7xx_HAL_Driver/Src/stm32f7xx_hal_eth.c ****   ETH_DMAReceptionDisable(heth);
 2326              		.loc 1 1273 0 discriminator 2
 2327 002c 7868     		ldr	r0, [r7, #4]
 2328 002e FFF7FEFF 		bl	ETH_DMAReceptionDisable
1274:Drivers/STM32F7xx_HAL_Driver/Src/stm32f7xx_hal_eth.c ****   
1275:Drivers/STM32F7xx_HAL_Driver/Src/stm32f7xx_hal_eth.c ****   /* Disable receive state machine of the MAC for reception from the MII */
1276:Drivers/STM32F7xx_HAL_Driver/Src/stm32f7xx_hal_eth.c ****   ETH_MACReceptionDisable(heth);
 2329              		.loc 1 1276 0 discriminator 2
 2330 0032 7868     		ldr	r0, [r7, #4]
 2331 0034 FFF7FEFF 		bl	ETH_MACReceptionDisable
1277:Drivers/STM32F7xx_HAL_Driver/Src/stm32f7xx_hal_eth.c ****   
1278:Drivers/STM32F7xx_HAL_Driver/Src/stm32f7xx_hal_eth.c ****   /* Flush Transmit FIFO */
1279:Drivers/STM32F7xx_HAL_Driver/Src/stm32f7xx_hal_eth.c ****   ETH_FlushTransmitFIFO(heth);
 2332              		.loc 1 1279 0 discriminator 2
ARM GAS  /tmp/ccJiNVdi.s 			page 64


 2333 0038 7868     		ldr	r0, [r7, #4]
 2334 003a FFF7FEFF 		bl	ETH_FlushTransmitFIFO
1280:Drivers/STM32F7xx_HAL_Driver/Src/stm32f7xx_hal_eth.c ****   
1281:Drivers/STM32F7xx_HAL_Driver/Src/stm32f7xx_hal_eth.c ****   /* Disable transmit state machine of the MAC for transmission on the MII */
1282:Drivers/STM32F7xx_HAL_Driver/Src/stm32f7xx_hal_eth.c ****   ETH_MACTransmissionDisable(heth);
 2335              		.loc 1 1282 0 discriminator 2
 2336 003e 7868     		ldr	r0, [r7, #4]
 2337 0040 FFF7FEFF 		bl	ETH_MACTransmissionDisable
1283:Drivers/STM32F7xx_HAL_Driver/Src/stm32f7xx_hal_eth.c ****   
1284:Drivers/STM32F7xx_HAL_Driver/Src/stm32f7xx_hal_eth.c ****   /* Set the ETH state*/
1285:Drivers/STM32F7xx_HAL_Driver/Src/stm32f7xx_hal_eth.c ****   heth->State = HAL_ETH_STATE_READY;
 2338              		.loc 1 1285 0 discriminator 2
 2339 0044 7B68     		ldr	r3, [r7, #4]
 2340 0046 0122     		movs	r2, #1
 2341 0048 83F84420 		strb	r2, [r3, #68]
1286:Drivers/STM32F7xx_HAL_Driver/Src/stm32f7xx_hal_eth.c ****   
1287:Drivers/STM32F7xx_HAL_Driver/Src/stm32f7xx_hal_eth.c ****   /* Process Unlocked */
1288:Drivers/STM32F7xx_HAL_Driver/Src/stm32f7xx_hal_eth.c ****   __HAL_UNLOCK(heth);
 2342              		.loc 1 1288 0 discriminator 2
 2343 004c 7B68     		ldr	r3, [r7, #4]
 2344 004e 0022     		movs	r2, #0
 2345 0050 83F84520 		strb	r2, [r3, #69]
1289:Drivers/STM32F7xx_HAL_Driver/Src/stm32f7xx_hal_eth.c ****   
1290:Drivers/STM32F7xx_HAL_Driver/Src/stm32f7xx_hal_eth.c ****   /* Return function status */
1291:Drivers/STM32F7xx_HAL_Driver/Src/stm32f7xx_hal_eth.c ****   return HAL_OK;
 2346              		.loc 1 1291 0 discriminator 2
 2347 0054 0023     		movs	r3, #0
 2348              	.L108:
1292:Drivers/STM32F7xx_HAL_Driver/Src/stm32f7xx_hal_eth.c **** }
 2349              		.loc 1 1292 0
 2350 0056 1846     		mov	r0, r3
 2351 0058 0837     		adds	r7, r7, #8
 2352              	.LCFI93:
 2353              		.cfi_def_cfa_offset 8
 2354 005a BD46     		mov	sp, r7
 2355              	.LCFI94:
 2356              		.cfi_def_cfa_register 13
 2357              		@ sp needed
 2358 005c 80BD     		pop	{r7, pc}
 2359              		.cfi_endproc
 2360              	.LFE152:
 2362              		.section	.text.HAL_ETH_ConfigMAC,"ax",%progbits
 2363              		.align	1
 2364              		.global	HAL_ETH_ConfigMAC
 2365              		.syntax unified
 2366              		.thumb
 2367              		.thumb_func
 2368              		.fpu fpv4-sp-d16
 2370              	HAL_ETH_ConfigMAC:
 2371              	.LFB153:
1293:Drivers/STM32F7xx_HAL_Driver/Src/stm32f7xx_hal_eth.c **** 
1294:Drivers/STM32F7xx_HAL_Driver/Src/stm32f7xx_hal_eth.c **** /**
1295:Drivers/STM32F7xx_HAL_Driver/Src/stm32f7xx_hal_eth.c ****   * @brief  Set ETH MAC Configuration.
1296:Drivers/STM32F7xx_HAL_Driver/Src/stm32f7xx_hal_eth.c ****   * @param  heth pointer to a ETH_HandleTypeDef structure that contains
1297:Drivers/STM32F7xx_HAL_Driver/Src/stm32f7xx_hal_eth.c ****   *         the configuration information for ETHERNET module
1298:Drivers/STM32F7xx_HAL_Driver/Src/stm32f7xx_hal_eth.c ****   * @param  macconf MAC Configuration structure  
1299:Drivers/STM32F7xx_HAL_Driver/Src/stm32f7xx_hal_eth.c ****   * @retval HAL status
ARM GAS  /tmp/ccJiNVdi.s 			page 65


1300:Drivers/STM32F7xx_HAL_Driver/Src/stm32f7xx_hal_eth.c ****   */
1301:Drivers/STM32F7xx_HAL_Driver/Src/stm32f7xx_hal_eth.c **** HAL_StatusTypeDef HAL_ETH_ConfigMAC(ETH_HandleTypeDef *heth, ETH_MACInitTypeDef *macconf)
1302:Drivers/STM32F7xx_HAL_Driver/Src/stm32f7xx_hal_eth.c **** {
 2372              		.loc 1 1302 0
 2373              		.cfi_startproc
 2374              		@ args = 0, pretend = 0, frame = 16
 2375              		@ frame_needed = 1, uses_anonymous_args = 0
 2376 0000 80B5     		push	{r7, lr}
 2377              	.LCFI95:
 2378              		.cfi_def_cfa_offset 8
 2379              		.cfi_offset 7, -8
 2380              		.cfi_offset 14, -4
 2381 0002 84B0     		sub	sp, sp, #16
 2382              	.LCFI96:
 2383              		.cfi_def_cfa_offset 24
 2384 0004 00AF     		add	r7, sp, #0
 2385              	.LCFI97:
 2386              		.cfi_def_cfa_register 7
 2387 0006 7860     		str	r0, [r7, #4]
 2388 0008 3960     		str	r1, [r7]
1303:Drivers/STM32F7xx_HAL_Driver/Src/stm32f7xx_hal_eth.c ****   uint32_t tmpreg = 0;
 2389              		.loc 1 1303 0
 2390 000a 0023     		movs	r3, #0
 2391 000c FB60     		str	r3, [r7, #12]
1304:Drivers/STM32F7xx_HAL_Driver/Src/stm32f7xx_hal_eth.c ****   
1305:Drivers/STM32F7xx_HAL_Driver/Src/stm32f7xx_hal_eth.c ****   /* Process Locked */
1306:Drivers/STM32F7xx_HAL_Driver/Src/stm32f7xx_hal_eth.c ****   __HAL_LOCK(heth);
 2392              		.loc 1 1306 0
 2393 000e 7B68     		ldr	r3, [r7, #4]
 2394 0010 93F84530 		ldrb	r3, [r3, #69]	@ zero_extendqisi2
 2395 0014 012B     		cmp	r3, #1
 2396 0016 01D1     		bne	.L110
 2397              		.loc 1 1306 0 is_stmt 0 discriminator 1
 2398 0018 0223     		movs	r3, #2
 2399 001a E3E0     		b	.L111
 2400              	.L110:
 2401              		.loc 1 1306 0 discriminator 2
 2402 001c 7B68     		ldr	r3, [r7, #4]
 2403 001e 0122     		movs	r2, #1
 2404 0020 83F84520 		strb	r2, [r3, #69]
1307:Drivers/STM32F7xx_HAL_Driver/Src/stm32f7xx_hal_eth.c ****   
1308:Drivers/STM32F7xx_HAL_Driver/Src/stm32f7xx_hal_eth.c ****   /* Set the ETH peripheral state to BUSY */
1309:Drivers/STM32F7xx_HAL_Driver/Src/stm32f7xx_hal_eth.c ****   heth->State= HAL_ETH_STATE_BUSY;
 2405              		.loc 1 1309 0 is_stmt 1 discriminator 2
 2406 0024 7B68     		ldr	r3, [r7, #4]
 2407 0026 0222     		movs	r2, #2
 2408 0028 83F84420 		strb	r2, [r3, #68]
1310:Drivers/STM32F7xx_HAL_Driver/Src/stm32f7xx_hal_eth.c ****   
1311:Drivers/STM32F7xx_HAL_Driver/Src/stm32f7xx_hal_eth.c ****   assert_param(IS_ETH_SPEED(heth->Init.Speed));
1312:Drivers/STM32F7xx_HAL_Driver/Src/stm32f7xx_hal_eth.c ****   assert_param(IS_ETH_DUPLEX_MODE(heth->Init.DuplexMode)); 
1313:Drivers/STM32F7xx_HAL_Driver/Src/stm32f7xx_hal_eth.c ****   
1314:Drivers/STM32F7xx_HAL_Driver/Src/stm32f7xx_hal_eth.c ****   if (macconf != NULL)
 2409              		.loc 1 1314 0 discriminator 2
 2410 002c 3B68     		ldr	r3, [r7]
 2411 002e 002B     		cmp	r3, #0
 2412 0030 00F0B080 		beq	.L112
1315:Drivers/STM32F7xx_HAL_Driver/Src/stm32f7xx_hal_eth.c ****   {
ARM GAS  /tmp/ccJiNVdi.s 			page 66


1316:Drivers/STM32F7xx_HAL_Driver/Src/stm32f7xx_hal_eth.c ****     /* Check the parameters */
1317:Drivers/STM32F7xx_HAL_Driver/Src/stm32f7xx_hal_eth.c ****     assert_param(IS_ETH_WATCHDOG(macconf->Watchdog));
1318:Drivers/STM32F7xx_HAL_Driver/Src/stm32f7xx_hal_eth.c ****     assert_param(IS_ETH_JABBER(macconf->Jabber));
1319:Drivers/STM32F7xx_HAL_Driver/Src/stm32f7xx_hal_eth.c ****     assert_param(IS_ETH_INTER_FRAME_GAP(macconf->InterFrameGap));
1320:Drivers/STM32F7xx_HAL_Driver/Src/stm32f7xx_hal_eth.c ****     assert_param(IS_ETH_CARRIER_SENSE(macconf->CarrierSense));
1321:Drivers/STM32F7xx_HAL_Driver/Src/stm32f7xx_hal_eth.c ****     assert_param(IS_ETH_RECEIVE_OWN(macconf->ReceiveOwn));
1322:Drivers/STM32F7xx_HAL_Driver/Src/stm32f7xx_hal_eth.c ****     assert_param(IS_ETH_LOOPBACK_MODE(macconf->LoopbackMode));
1323:Drivers/STM32F7xx_HAL_Driver/Src/stm32f7xx_hal_eth.c ****     assert_param(IS_ETH_CHECKSUM_OFFLOAD(macconf->ChecksumOffload));
1324:Drivers/STM32F7xx_HAL_Driver/Src/stm32f7xx_hal_eth.c ****     assert_param(IS_ETH_RETRY_TRANSMISSION(macconf->RetryTransmission));
1325:Drivers/STM32F7xx_HAL_Driver/Src/stm32f7xx_hal_eth.c ****     assert_param(IS_ETH_AUTOMATIC_PADCRC_STRIP(macconf->AutomaticPadCRCStrip));
1326:Drivers/STM32F7xx_HAL_Driver/Src/stm32f7xx_hal_eth.c ****     assert_param(IS_ETH_BACKOFF_LIMIT(macconf->BackOffLimit));
1327:Drivers/STM32F7xx_HAL_Driver/Src/stm32f7xx_hal_eth.c ****     assert_param(IS_ETH_DEFERRAL_CHECK(macconf->DeferralCheck));
1328:Drivers/STM32F7xx_HAL_Driver/Src/stm32f7xx_hal_eth.c ****     assert_param(IS_ETH_RECEIVE_ALL(macconf->ReceiveAll));
1329:Drivers/STM32F7xx_HAL_Driver/Src/stm32f7xx_hal_eth.c ****     assert_param(IS_ETH_SOURCE_ADDR_FILTER(macconf->SourceAddrFilter));
1330:Drivers/STM32F7xx_HAL_Driver/Src/stm32f7xx_hal_eth.c ****     assert_param(IS_ETH_CONTROL_FRAMES(macconf->PassControlFrames));
1331:Drivers/STM32F7xx_HAL_Driver/Src/stm32f7xx_hal_eth.c ****     assert_param(IS_ETH_BROADCAST_FRAMES_RECEPTION(macconf->BroadcastFramesReception));
1332:Drivers/STM32F7xx_HAL_Driver/Src/stm32f7xx_hal_eth.c ****     assert_param(IS_ETH_DESTINATION_ADDR_FILTER(macconf->DestinationAddrFilter));
1333:Drivers/STM32F7xx_HAL_Driver/Src/stm32f7xx_hal_eth.c ****     assert_param(IS_ETH_PROMISCUOUS_MODE(macconf->PromiscuousMode));
1334:Drivers/STM32F7xx_HAL_Driver/Src/stm32f7xx_hal_eth.c ****     assert_param(IS_ETH_MULTICAST_FRAMES_FILTER(macconf->MulticastFramesFilter));
1335:Drivers/STM32F7xx_HAL_Driver/Src/stm32f7xx_hal_eth.c ****     assert_param(IS_ETH_UNICAST_FRAMES_FILTER(macconf->UnicastFramesFilter));
1336:Drivers/STM32F7xx_HAL_Driver/Src/stm32f7xx_hal_eth.c ****     assert_param(IS_ETH_PAUSE_TIME(macconf->PauseTime));
1337:Drivers/STM32F7xx_HAL_Driver/Src/stm32f7xx_hal_eth.c ****     assert_param(IS_ETH_ZEROQUANTA_PAUSE(macconf->ZeroQuantaPause));
1338:Drivers/STM32F7xx_HAL_Driver/Src/stm32f7xx_hal_eth.c ****     assert_param(IS_ETH_PAUSE_LOW_THRESHOLD(macconf->PauseLowThreshold));
1339:Drivers/STM32F7xx_HAL_Driver/Src/stm32f7xx_hal_eth.c ****     assert_param(IS_ETH_UNICAST_PAUSE_FRAME_DETECT(macconf->UnicastPauseFrameDetect));
1340:Drivers/STM32F7xx_HAL_Driver/Src/stm32f7xx_hal_eth.c ****     assert_param(IS_ETH_RECEIVE_FLOWCONTROL(macconf->ReceiveFlowControl));
1341:Drivers/STM32F7xx_HAL_Driver/Src/stm32f7xx_hal_eth.c ****     assert_param(IS_ETH_TRANSMIT_FLOWCONTROL(macconf->TransmitFlowControl));
1342:Drivers/STM32F7xx_HAL_Driver/Src/stm32f7xx_hal_eth.c ****     assert_param(IS_ETH_VLAN_TAG_COMPARISON(macconf->VLANTagComparison));
1343:Drivers/STM32F7xx_HAL_Driver/Src/stm32f7xx_hal_eth.c ****     assert_param(IS_ETH_VLAN_TAG_IDENTIFIER(macconf->VLANTagIdentifier));
1344:Drivers/STM32F7xx_HAL_Driver/Src/stm32f7xx_hal_eth.c ****     
1345:Drivers/STM32F7xx_HAL_Driver/Src/stm32f7xx_hal_eth.c ****     /*------------------------ ETHERNET MACCR Configuration --------------------*/
1346:Drivers/STM32F7xx_HAL_Driver/Src/stm32f7xx_hal_eth.c ****     /* Get the ETHERNET MACCR value */
1347:Drivers/STM32F7xx_HAL_Driver/Src/stm32f7xx_hal_eth.c ****     tmpreg = (heth->Instance)->MACCR;
 2413              		.loc 1 1347 0
 2414 0034 7B68     		ldr	r3, [r7, #4]
 2415 0036 1B68     		ldr	r3, [r3]
 2416 0038 1B68     		ldr	r3, [r3]
 2417 003a FB60     		str	r3, [r7, #12]
1348:Drivers/STM32F7xx_HAL_Driver/Src/stm32f7xx_hal_eth.c ****     /* Clear WD, PCE, PS, TE and RE bits */
1349:Drivers/STM32F7xx_HAL_Driver/Src/stm32f7xx_hal_eth.c ****     tmpreg &= ETH_MACCR_CLEAR_MASK;
 2418              		.loc 1 1349 0
 2419 003c FA68     		ldr	r2, [r7, #12]
 2420 003e 6B4B     		ldr	r3, .L114
 2421 0040 1340     		ands	r3, r3, r2
 2422 0042 FB60     		str	r3, [r7, #12]
1350:Drivers/STM32F7xx_HAL_Driver/Src/stm32f7xx_hal_eth.c ****     
1351:Drivers/STM32F7xx_HAL_Driver/Src/stm32f7xx_hal_eth.c ****     tmpreg |= (uint32_t)(macconf->Watchdog | 
 2423              		.loc 1 1351 0
 2424 0044 3B68     		ldr	r3, [r7]
 2425 0046 1A68     		ldr	r2, [r3]
1352:Drivers/STM32F7xx_HAL_Driver/Src/stm32f7xx_hal_eth.c ****                          macconf->Jabber | 
 2426              		.loc 1 1352 0
 2427 0048 3B68     		ldr	r3, [r7]
 2428 004a 5B68     		ldr	r3, [r3, #4]
1351:Drivers/STM32F7xx_HAL_Driver/Src/stm32f7xx_hal_eth.c ****                          macconf->Jabber | 
 2429              		.loc 1 1351 0
 2430 004c 1A43     		orrs	r2, r2, r3
1353:Drivers/STM32F7xx_HAL_Driver/Src/stm32f7xx_hal_eth.c ****                          macconf->InterFrameGap |
ARM GAS  /tmp/ccJiNVdi.s 			page 67


 2431              		.loc 1 1353 0
 2432 004e 3B68     		ldr	r3, [r7]
 2433 0050 9B68     		ldr	r3, [r3, #8]
1352:Drivers/STM32F7xx_HAL_Driver/Src/stm32f7xx_hal_eth.c ****                          macconf->Jabber | 
 2434              		.loc 1 1352 0
 2435 0052 1A43     		orrs	r2, r2, r3
1354:Drivers/STM32F7xx_HAL_Driver/Src/stm32f7xx_hal_eth.c ****                          macconf->CarrierSense |
 2436              		.loc 1 1354 0
 2437 0054 3B68     		ldr	r3, [r7]
 2438 0056 DB68     		ldr	r3, [r3, #12]
1353:Drivers/STM32F7xx_HAL_Driver/Src/stm32f7xx_hal_eth.c ****                          macconf->InterFrameGap |
 2439              		.loc 1 1353 0
 2440 0058 1A43     		orrs	r2, r2, r3
1355:Drivers/STM32F7xx_HAL_Driver/Src/stm32f7xx_hal_eth.c ****                          (heth->Init).Speed | 
 2441              		.loc 1 1355 0
 2442 005a 7B68     		ldr	r3, [r7, #4]
 2443 005c 9B68     		ldr	r3, [r3, #8]
1354:Drivers/STM32F7xx_HAL_Driver/Src/stm32f7xx_hal_eth.c ****                          macconf->CarrierSense |
 2444              		.loc 1 1354 0
 2445 005e 1A43     		orrs	r2, r2, r3
1356:Drivers/STM32F7xx_HAL_Driver/Src/stm32f7xx_hal_eth.c ****                          macconf->ReceiveOwn |
 2446              		.loc 1 1356 0
 2447 0060 3B68     		ldr	r3, [r7]
 2448 0062 1B69     		ldr	r3, [r3, #16]
1355:Drivers/STM32F7xx_HAL_Driver/Src/stm32f7xx_hal_eth.c ****                          (heth->Init).Speed | 
 2449              		.loc 1 1355 0
 2450 0064 1A43     		orrs	r2, r2, r3
1357:Drivers/STM32F7xx_HAL_Driver/Src/stm32f7xx_hal_eth.c ****                          macconf->LoopbackMode |
 2451              		.loc 1 1357 0
 2452 0066 3B68     		ldr	r3, [r7]
 2453 0068 5B69     		ldr	r3, [r3, #20]
1356:Drivers/STM32F7xx_HAL_Driver/Src/stm32f7xx_hal_eth.c ****                          macconf->ReceiveOwn |
 2454              		.loc 1 1356 0
 2455 006a 1A43     		orrs	r2, r2, r3
1358:Drivers/STM32F7xx_HAL_Driver/Src/stm32f7xx_hal_eth.c ****                          (heth->Init).DuplexMode | 
 2456              		.loc 1 1358 0
 2457 006c 7B68     		ldr	r3, [r7, #4]
 2458 006e DB68     		ldr	r3, [r3, #12]
1357:Drivers/STM32F7xx_HAL_Driver/Src/stm32f7xx_hal_eth.c ****                          macconf->LoopbackMode |
 2459              		.loc 1 1357 0
 2460 0070 1A43     		orrs	r2, r2, r3
1359:Drivers/STM32F7xx_HAL_Driver/Src/stm32f7xx_hal_eth.c ****                          macconf->ChecksumOffload |    
 2461              		.loc 1 1359 0
 2462 0072 3B68     		ldr	r3, [r7]
 2463 0074 9B69     		ldr	r3, [r3, #24]
1358:Drivers/STM32F7xx_HAL_Driver/Src/stm32f7xx_hal_eth.c ****                          (heth->Init).DuplexMode | 
 2464              		.loc 1 1358 0
 2465 0076 1A43     		orrs	r2, r2, r3
1360:Drivers/STM32F7xx_HAL_Driver/Src/stm32f7xx_hal_eth.c ****                          macconf->RetryTransmission | 
 2466              		.loc 1 1360 0
 2467 0078 3B68     		ldr	r3, [r7]
 2468 007a DB69     		ldr	r3, [r3, #28]
1359:Drivers/STM32F7xx_HAL_Driver/Src/stm32f7xx_hal_eth.c ****                          macconf->ChecksumOffload |    
 2469              		.loc 1 1359 0
 2470 007c 1A43     		orrs	r2, r2, r3
1361:Drivers/STM32F7xx_HAL_Driver/Src/stm32f7xx_hal_eth.c ****                          macconf->AutomaticPadCRCStrip | 
 2471              		.loc 1 1361 0
ARM GAS  /tmp/ccJiNVdi.s 			page 68


 2472 007e 3B68     		ldr	r3, [r7]
 2473 0080 1B6A     		ldr	r3, [r3, #32]
1360:Drivers/STM32F7xx_HAL_Driver/Src/stm32f7xx_hal_eth.c ****                          macconf->RetryTransmission | 
 2474              		.loc 1 1360 0
 2475 0082 1A43     		orrs	r2, r2, r3
1362:Drivers/STM32F7xx_HAL_Driver/Src/stm32f7xx_hal_eth.c ****                          macconf->BackOffLimit | 
 2476              		.loc 1 1362 0
 2477 0084 3B68     		ldr	r3, [r7]
 2478 0086 5B6A     		ldr	r3, [r3, #36]
1361:Drivers/STM32F7xx_HAL_Driver/Src/stm32f7xx_hal_eth.c ****                          macconf->AutomaticPadCRCStrip | 
 2479              		.loc 1 1361 0
 2480 0088 1A43     		orrs	r2, r2, r3
1363:Drivers/STM32F7xx_HAL_Driver/Src/stm32f7xx_hal_eth.c ****                          macconf->DeferralCheck);
 2481              		.loc 1 1363 0
 2482 008a 3B68     		ldr	r3, [r7]
 2483 008c 9B6A     		ldr	r3, [r3, #40]
1362:Drivers/STM32F7xx_HAL_Driver/Src/stm32f7xx_hal_eth.c ****                          macconf->BackOffLimit | 
 2484              		.loc 1 1362 0
 2485 008e 1343     		orrs	r3, r3, r2
1351:Drivers/STM32F7xx_HAL_Driver/Src/stm32f7xx_hal_eth.c ****                          macconf->Jabber | 
 2486              		.loc 1 1351 0
 2487 0090 FA68     		ldr	r2, [r7, #12]
 2488 0092 1343     		orrs	r3, r3, r2
 2489 0094 FB60     		str	r3, [r7, #12]
1364:Drivers/STM32F7xx_HAL_Driver/Src/stm32f7xx_hal_eth.c ****     
1365:Drivers/STM32F7xx_HAL_Driver/Src/stm32f7xx_hal_eth.c ****     /* Write to ETHERNET MACCR */
1366:Drivers/STM32F7xx_HAL_Driver/Src/stm32f7xx_hal_eth.c ****     (heth->Instance)->MACCR = (uint32_t)tmpreg;
 2490              		.loc 1 1366 0
 2491 0096 7B68     		ldr	r3, [r7, #4]
 2492 0098 1B68     		ldr	r3, [r3]
 2493 009a FA68     		ldr	r2, [r7, #12]
 2494 009c 1A60     		str	r2, [r3]
1367:Drivers/STM32F7xx_HAL_Driver/Src/stm32f7xx_hal_eth.c ****     
1368:Drivers/STM32F7xx_HAL_Driver/Src/stm32f7xx_hal_eth.c ****     /* Wait until the write operation will be taken into account :
1369:Drivers/STM32F7xx_HAL_Driver/Src/stm32f7xx_hal_eth.c ****     at least four TX_CLK/RX_CLK clock cycles */
1370:Drivers/STM32F7xx_HAL_Driver/Src/stm32f7xx_hal_eth.c ****     tmpreg = (heth->Instance)->MACCR;
 2495              		.loc 1 1370 0
 2496 009e 7B68     		ldr	r3, [r7, #4]
 2497 00a0 1B68     		ldr	r3, [r3]
 2498 00a2 1B68     		ldr	r3, [r3]
 2499 00a4 FB60     		str	r3, [r7, #12]
1371:Drivers/STM32F7xx_HAL_Driver/Src/stm32f7xx_hal_eth.c ****     HAL_Delay(ETH_REG_WRITE_DELAY);
 2500              		.loc 1 1371 0
 2501 00a6 0120     		movs	r0, #1
 2502 00a8 FFF7FEFF 		bl	HAL_Delay
1372:Drivers/STM32F7xx_HAL_Driver/Src/stm32f7xx_hal_eth.c ****     (heth->Instance)->MACCR = tmpreg; 
 2503              		.loc 1 1372 0
 2504 00ac 7B68     		ldr	r3, [r7, #4]
 2505 00ae 1B68     		ldr	r3, [r3]
 2506 00b0 FA68     		ldr	r2, [r7, #12]
 2507 00b2 1A60     		str	r2, [r3]
1373:Drivers/STM32F7xx_HAL_Driver/Src/stm32f7xx_hal_eth.c ****     
1374:Drivers/STM32F7xx_HAL_Driver/Src/stm32f7xx_hal_eth.c ****     /*----------------------- ETHERNET MACFFR Configuration --------------------*/ 
1375:Drivers/STM32F7xx_HAL_Driver/Src/stm32f7xx_hal_eth.c ****     /* Write to ETHERNET MACFFR */  
1376:Drivers/STM32F7xx_HAL_Driver/Src/stm32f7xx_hal_eth.c ****     (heth->Instance)->MACFFR = (uint32_t)(macconf->ReceiveAll | 
 2508              		.loc 1 1376 0
 2509 00b4 7B68     		ldr	r3, [r7, #4]
ARM GAS  /tmp/ccJiNVdi.s 			page 69


 2510 00b6 1B68     		ldr	r3, [r3]
 2511 00b8 3A68     		ldr	r2, [r7]
 2512 00ba D16A     		ldr	r1, [r2, #44]
1377:Drivers/STM32F7xx_HAL_Driver/Src/stm32f7xx_hal_eth.c ****                                           macconf->SourceAddrFilter |
 2513              		.loc 1 1377 0
 2514 00bc 3A68     		ldr	r2, [r7]
 2515 00be 126B     		ldr	r2, [r2, #48]
1376:Drivers/STM32F7xx_HAL_Driver/Src/stm32f7xx_hal_eth.c ****                                           macconf->SourceAddrFilter |
 2516              		.loc 1 1376 0
 2517 00c0 1143     		orrs	r1, r1, r2
1378:Drivers/STM32F7xx_HAL_Driver/Src/stm32f7xx_hal_eth.c ****                                           macconf->PassControlFrames |
 2518              		.loc 1 1378 0
 2519 00c2 3A68     		ldr	r2, [r7]
 2520 00c4 526B     		ldr	r2, [r2, #52]
1377:Drivers/STM32F7xx_HAL_Driver/Src/stm32f7xx_hal_eth.c ****                                           macconf->SourceAddrFilter |
 2521              		.loc 1 1377 0
 2522 00c6 1143     		orrs	r1, r1, r2
1379:Drivers/STM32F7xx_HAL_Driver/Src/stm32f7xx_hal_eth.c ****                                           macconf->BroadcastFramesReception | 
 2523              		.loc 1 1379 0
 2524 00c8 3A68     		ldr	r2, [r7]
 2525 00ca 926B     		ldr	r2, [r2, #56]
1378:Drivers/STM32F7xx_HAL_Driver/Src/stm32f7xx_hal_eth.c ****                                           macconf->PassControlFrames |
 2526              		.loc 1 1378 0
 2527 00cc 1143     		orrs	r1, r1, r2
1380:Drivers/STM32F7xx_HAL_Driver/Src/stm32f7xx_hal_eth.c ****                                           macconf->DestinationAddrFilter |
 2528              		.loc 1 1380 0
 2529 00ce 3A68     		ldr	r2, [r7]
 2530 00d0 D26B     		ldr	r2, [r2, #60]
1379:Drivers/STM32F7xx_HAL_Driver/Src/stm32f7xx_hal_eth.c ****                                           macconf->BroadcastFramesReception | 
 2531              		.loc 1 1379 0
 2532 00d2 1143     		orrs	r1, r1, r2
1381:Drivers/STM32F7xx_HAL_Driver/Src/stm32f7xx_hal_eth.c ****                                           macconf->PromiscuousMode |
 2533              		.loc 1 1381 0
 2534 00d4 3A68     		ldr	r2, [r7]
 2535 00d6 126C     		ldr	r2, [r2, #64]
1380:Drivers/STM32F7xx_HAL_Driver/Src/stm32f7xx_hal_eth.c ****                                           macconf->DestinationAddrFilter |
 2536              		.loc 1 1380 0
 2537 00d8 1143     		orrs	r1, r1, r2
1382:Drivers/STM32F7xx_HAL_Driver/Src/stm32f7xx_hal_eth.c ****                                           macconf->MulticastFramesFilter |
 2538              		.loc 1 1382 0
 2539 00da 3A68     		ldr	r2, [r7]
 2540 00dc 526C     		ldr	r2, [r2, #68]
1381:Drivers/STM32F7xx_HAL_Driver/Src/stm32f7xx_hal_eth.c ****                                           macconf->PromiscuousMode |
 2541              		.loc 1 1381 0
 2542 00de 1143     		orrs	r1, r1, r2
1383:Drivers/STM32F7xx_HAL_Driver/Src/stm32f7xx_hal_eth.c ****                                           macconf->UnicastFramesFilter);
 2543              		.loc 1 1383 0
 2544 00e0 3A68     		ldr	r2, [r7]
 2545 00e2 926C     		ldr	r2, [r2, #72]
1382:Drivers/STM32F7xx_HAL_Driver/Src/stm32f7xx_hal_eth.c ****                                           macconf->MulticastFramesFilter |
 2546              		.loc 1 1382 0
 2547 00e4 0A43     		orrs	r2, r2, r1
1376:Drivers/STM32F7xx_HAL_Driver/Src/stm32f7xx_hal_eth.c ****                                           macconf->SourceAddrFilter |
 2548              		.loc 1 1376 0
 2549 00e6 5A60     		str	r2, [r3, #4]
1384:Drivers/STM32F7xx_HAL_Driver/Src/stm32f7xx_hal_eth.c ****      
1385:Drivers/STM32F7xx_HAL_Driver/Src/stm32f7xx_hal_eth.c ****      /* Wait until the write operation will be taken into account :
ARM GAS  /tmp/ccJiNVdi.s 			page 70


1386:Drivers/STM32F7xx_HAL_Driver/Src/stm32f7xx_hal_eth.c ****      at least four TX_CLK/RX_CLK clock cycles */
1387:Drivers/STM32F7xx_HAL_Driver/Src/stm32f7xx_hal_eth.c ****      tmpreg = (heth->Instance)->MACFFR;
 2550              		.loc 1 1387 0
 2551 00e8 7B68     		ldr	r3, [r7, #4]
 2552 00ea 1B68     		ldr	r3, [r3]
 2553 00ec 5B68     		ldr	r3, [r3, #4]
 2554 00ee FB60     		str	r3, [r7, #12]
1388:Drivers/STM32F7xx_HAL_Driver/Src/stm32f7xx_hal_eth.c ****      HAL_Delay(ETH_REG_WRITE_DELAY);
 2555              		.loc 1 1388 0
 2556 00f0 0120     		movs	r0, #1
 2557 00f2 FFF7FEFF 		bl	HAL_Delay
1389:Drivers/STM32F7xx_HAL_Driver/Src/stm32f7xx_hal_eth.c ****      (heth->Instance)->MACFFR = tmpreg;
 2558              		.loc 1 1389 0
 2559 00f6 7B68     		ldr	r3, [r7, #4]
 2560 00f8 1B68     		ldr	r3, [r3]
 2561 00fa FA68     		ldr	r2, [r7, #12]
 2562 00fc 5A60     		str	r2, [r3, #4]
1390:Drivers/STM32F7xx_HAL_Driver/Src/stm32f7xx_hal_eth.c ****      
1391:Drivers/STM32F7xx_HAL_Driver/Src/stm32f7xx_hal_eth.c ****      /*--------------- ETHERNET MACHTHR and MACHTLR Configuration ---------------*/
1392:Drivers/STM32F7xx_HAL_Driver/Src/stm32f7xx_hal_eth.c ****      /* Write to ETHERNET MACHTHR */
1393:Drivers/STM32F7xx_HAL_Driver/Src/stm32f7xx_hal_eth.c ****      (heth->Instance)->MACHTHR = (uint32_t)macconf->HashTableHigh;
 2563              		.loc 1 1393 0
 2564 00fe 7B68     		ldr	r3, [r7, #4]
 2565 0100 1B68     		ldr	r3, [r3]
 2566 0102 3A68     		ldr	r2, [r7]
 2567 0104 D26C     		ldr	r2, [r2, #76]
 2568 0106 9A60     		str	r2, [r3, #8]
1394:Drivers/STM32F7xx_HAL_Driver/Src/stm32f7xx_hal_eth.c ****      
1395:Drivers/STM32F7xx_HAL_Driver/Src/stm32f7xx_hal_eth.c ****      /* Write to ETHERNET MACHTLR */
1396:Drivers/STM32F7xx_HAL_Driver/Src/stm32f7xx_hal_eth.c ****      (heth->Instance)->MACHTLR = (uint32_t)macconf->HashTableLow;
 2569              		.loc 1 1396 0
 2570 0108 7B68     		ldr	r3, [r7, #4]
 2571 010a 1B68     		ldr	r3, [r3]
 2572 010c 3A68     		ldr	r2, [r7]
 2573 010e 126D     		ldr	r2, [r2, #80]
 2574 0110 DA60     		str	r2, [r3, #12]
1397:Drivers/STM32F7xx_HAL_Driver/Src/stm32f7xx_hal_eth.c ****      /*----------------------- ETHERNET MACFCR Configuration --------------------*/
1398:Drivers/STM32F7xx_HAL_Driver/Src/stm32f7xx_hal_eth.c ****      
1399:Drivers/STM32F7xx_HAL_Driver/Src/stm32f7xx_hal_eth.c ****      /* Get the ETHERNET MACFCR value */  
1400:Drivers/STM32F7xx_HAL_Driver/Src/stm32f7xx_hal_eth.c ****      tmpreg = (heth->Instance)->MACFCR;
 2575              		.loc 1 1400 0
 2576 0112 7B68     		ldr	r3, [r7, #4]
 2577 0114 1B68     		ldr	r3, [r3]
 2578 0116 9B69     		ldr	r3, [r3, #24]
 2579 0118 FB60     		str	r3, [r7, #12]
1401:Drivers/STM32F7xx_HAL_Driver/Src/stm32f7xx_hal_eth.c ****      /* Clear xx bits */
1402:Drivers/STM32F7xx_HAL_Driver/Src/stm32f7xx_hal_eth.c ****      tmpreg &= ETH_MACFCR_CLEAR_MASK;
 2580              		.loc 1 1402 0
 2581 011a FA68     		ldr	r2, [r7, #12]
 2582 011c 4FF64173 		movw	r3, #65345
 2583 0120 1340     		ands	r3, r3, r2
 2584 0122 FB60     		str	r3, [r7, #12]
1403:Drivers/STM32F7xx_HAL_Driver/Src/stm32f7xx_hal_eth.c ****      
1404:Drivers/STM32F7xx_HAL_Driver/Src/stm32f7xx_hal_eth.c ****      tmpreg |= (uint32_t)((macconf->PauseTime << 16) | 
 2585              		.loc 1 1404 0
 2586 0124 3B68     		ldr	r3, [r7]
 2587 0126 5B6D     		ldr	r3, [r3, #84]
ARM GAS  /tmp/ccJiNVdi.s 			page 71


 2588 0128 1A04     		lsls	r2, r3, #16
1405:Drivers/STM32F7xx_HAL_Driver/Src/stm32f7xx_hal_eth.c ****                           macconf->ZeroQuantaPause |
 2589              		.loc 1 1405 0
 2590 012a 3B68     		ldr	r3, [r7]
 2591 012c 9B6D     		ldr	r3, [r3, #88]
1404:Drivers/STM32F7xx_HAL_Driver/Src/stm32f7xx_hal_eth.c ****                           macconf->ZeroQuantaPause |
 2592              		.loc 1 1404 0
 2593 012e 1A43     		orrs	r2, r2, r3
1406:Drivers/STM32F7xx_HAL_Driver/Src/stm32f7xx_hal_eth.c ****                           macconf->PauseLowThreshold |
 2594              		.loc 1 1406 0
 2595 0130 3B68     		ldr	r3, [r7]
 2596 0132 DB6D     		ldr	r3, [r3, #92]
1405:Drivers/STM32F7xx_HAL_Driver/Src/stm32f7xx_hal_eth.c ****                           macconf->ZeroQuantaPause |
 2597              		.loc 1 1405 0
 2598 0134 1A43     		orrs	r2, r2, r3
1407:Drivers/STM32F7xx_HAL_Driver/Src/stm32f7xx_hal_eth.c ****                           macconf->UnicastPauseFrameDetect | 
 2599              		.loc 1 1407 0
 2600 0136 3B68     		ldr	r3, [r7]
 2601 0138 1B6E     		ldr	r3, [r3, #96]
1406:Drivers/STM32F7xx_HAL_Driver/Src/stm32f7xx_hal_eth.c ****                           macconf->PauseLowThreshold |
 2602              		.loc 1 1406 0
 2603 013a 1A43     		orrs	r2, r2, r3
1408:Drivers/STM32F7xx_HAL_Driver/Src/stm32f7xx_hal_eth.c ****                           macconf->ReceiveFlowControl |
 2604              		.loc 1 1408 0
 2605 013c 3B68     		ldr	r3, [r7]
 2606 013e 5B6E     		ldr	r3, [r3, #100]
1407:Drivers/STM32F7xx_HAL_Driver/Src/stm32f7xx_hal_eth.c ****                           macconf->UnicastPauseFrameDetect | 
 2607              		.loc 1 1407 0
 2608 0140 1A43     		orrs	r2, r2, r3
1409:Drivers/STM32F7xx_HAL_Driver/Src/stm32f7xx_hal_eth.c ****                           macconf->TransmitFlowControl); 
 2609              		.loc 1 1409 0
 2610 0142 3B68     		ldr	r3, [r7]
 2611 0144 9B6E     		ldr	r3, [r3, #104]
1408:Drivers/STM32F7xx_HAL_Driver/Src/stm32f7xx_hal_eth.c ****                           macconf->ReceiveFlowControl |
 2612              		.loc 1 1408 0
 2613 0146 1343     		orrs	r3, r3, r2
1404:Drivers/STM32F7xx_HAL_Driver/Src/stm32f7xx_hal_eth.c ****                           macconf->ZeroQuantaPause |
 2614              		.loc 1 1404 0
 2615 0148 FA68     		ldr	r2, [r7, #12]
 2616 014a 1343     		orrs	r3, r3, r2
 2617 014c FB60     		str	r3, [r7, #12]
1410:Drivers/STM32F7xx_HAL_Driver/Src/stm32f7xx_hal_eth.c ****      
1411:Drivers/STM32F7xx_HAL_Driver/Src/stm32f7xx_hal_eth.c ****      /* Write to ETHERNET MACFCR */
1412:Drivers/STM32F7xx_HAL_Driver/Src/stm32f7xx_hal_eth.c ****      (heth->Instance)->MACFCR = (uint32_t)tmpreg;
 2618              		.loc 1 1412 0
 2619 014e 7B68     		ldr	r3, [r7, #4]
 2620 0150 1B68     		ldr	r3, [r3]
 2621 0152 FA68     		ldr	r2, [r7, #12]
 2622 0154 9A61     		str	r2, [r3, #24]
1413:Drivers/STM32F7xx_HAL_Driver/Src/stm32f7xx_hal_eth.c ****      
1414:Drivers/STM32F7xx_HAL_Driver/Src/stm32f7xx_hal_eth.c ****      /* Wait until the write operation will be taken into account :
1415:Drivers/STM32F7xx_HAL_Driver/Src/stm32f7xx_hal_eth.c ****      at least four TX_CLK/RX_CLK clock cycles */
1416:Drivers/STM32F7xx_HAL_Driver/Src/stm32f7xx_hal_eth.c ****      tmpreg = (heth->Instance)->MACFCR;
 2623              		.loc 1 1416 0
 2624 0156 7B68     		ldr	r3, [r7, #4]
 2625 0158 1B68     		ldr	r3, [r3]
 2626 015a 9B69     		ldr	r3, [r3, #24]
ARM GAS  /tmp/ccJiNVdi.s 			page 72


 2627 015c FB60     		str	r3, [r7, #12]
1417:Drivers/STM32F7xx_HAL_Driver/Src/stm32f7xx_hal_eth.c ****      HAL_Delay(ETH_REG_WRITE_DELAY);
 2628              		.loc 1 1417 0
 2629 015e 0120     		movs	r0, #1
 2630 0160 FFF7FEFF 		bl	HAL_Delay
1418:Drivers/STM32F7xx_HAL_Driver/Src/stm32f7xx_hal_eth.c ****      (heth->Instance)->MACFCR = tmpreg;
 2631              		.loc 1 1418 0
 2632 0164 7B68     		ldr	r3, [r7, #4]
 2633 0166 1B68     		ldr	r3, [r3]
 2634 0168 FA68     		ldr	r2, [r7, #12]
 2635 016a 9A61     		str	r2, [r3, #24]
1419:Drivers/STM32F7xx_HAL_Driver/Src/stm32f7xx_hal_eth.c ****      
1420:Drivers/STM32F7xx_HAL_Driver/Src/stm32f7xx_hal_eth.c ****      /*----------------------- ETHERNET MACVLANTR Configuration -----------------*/
1421:Drivers/STM32F7xx_HAL_Driver/Src/stm32f7xx_hal_eth.c ****      (heth->Instance)->MACVLANTR = (uint32_t)(macconf->VLANTagComparison | 
 2636              		.loc 1 1421 0
 2637 016c 7B68     		ldr	r3, [r7, #4]
 2638 016e 1B68     		ldr	r3, [r3]
 2639 0170 3A68     		ldr	r2, [r7]
 2640 0172 D16E     		ldr	r1, [r2, #108]
1422:Drivers/STM32F7xx_HAL_Driver/Src/stm32f7xx_hal_eth.c ****                                               macconf->VLANTagIdentifier);
 2641              		.loc 1 1422 0
 2642 0174 3A68     		ldr	r2, [r7]
 2643 0176 126F     		ldr	r2, [r2, #112]
1421:Drivers/STM32F7xx_HAL_Driver/Src/stm32f7xx_hal_eth.c ****                                               macconf->VLANTagIdentifier);
 2644              		.loc 1 1421 0
 2645 0178 0A43     		orrs	r2, r2, r1
 2646 017a DA61     		str	r2, [r3, #28]
1423:Drivers/STM32F7xx_HAL_Driver/Src/stm32f7xx_hal_eth.c ****       
1424:Drivers/STM32F7xx_HAL_Driver/Src/stm32f7xx_hal_eth.c ****       /* Wait until the write operation will be taken into account :
1425:Drivers/STM32F7xx_HAL_Driver/Src/stm32f7xx_hal_eth.c ****       at least four TX_CLK/RX_CLK clock cycles */
1426:Drivers/STM32F7xx_HAL_Driver/Src/stm32f7xx_hal_eth.c ****       tmpreg = (heth->Instance)->MACVLANTR;
 2647              		.loc 1 1426 0
 2648 017c 7B68     		ldr	r3, [r7, #4]
 2649 017e 1B68     		ldr	r3, [r3]
 2650 0180 DB69     		ldr	r3, [r3, #28]
 2651 0182 FB60     		str	r3, [r7, #12]
1427:Drivers/STM32F7xx_HAL_Driver/Src/stm32f7xx_hal_eth.c ****       HAL_Delay(ETH_REG_WRITE_DELAY);
 2652              		.loc 1 1427 0
 2653 0184 0120     		movs	r0, #1
 2654 0186 FFF7FEFF 		bl	HAL_Delay
1428:Drivers/STM32F7xx_HAL_Driver/Src/stm32f7xx_hal_eth.c ****       (heth->Instance)->MACVLANTR = tmpreg;
 2655              		.loc 1 1428 0
 2656 018a 7B68     		ldr	r3, [r7, #4]
 2657 018c 1B68     		ldr	r3, [r3]
 2658 018e FA68     		ldr	r2, [r7, #12]
 2659 0190 DA61     		str	r2, [r3, #28]
 2660 0192 1EE0     		b	.L113
 2661              	.L112:
1429:Drivers/STM32F7xx_HAL_Driver/Src/stm32f7xx_hal_eth.c ****   }
1430:Drivers/STM32F7xx_HAL_Driver/Src/stm32f7xx_hal_eth.c ****   else /* macconf == NULL : here we just configure Speed and Duplex mode */
1431:Drivers/STM32F7xx_HAL_Driver/Src/stm32f7xx_hal_eth.c ****   {
1432:Drivers/STM32F7xx_HAL_Driver/Src/stm32f7xx_hal_eth.c ****     /*------------------------ ETHERNET MACCR Configuration --------------------*/
1433:Drivers/STM32F7xx_HAL_Driver/Src/stm32f7xx_hal_eth.c ****     /* Get the ETHERNET MACCR value */
1434:Drivers/STM32F7xx_HAL_Driver/Src/stm32f7xx_hal_eth.c ****     tmpreg = (heth->Instance)->MACCR;
 2662              		.loc 1 1434 0
 2663 0194 7B68     		ldr	r3, [r7, #4]
 2664 0196 1B68     		ldr	r3, [r3]
ARM GAS  /tmp/ccJiNVdi.s 			page 73


 2665 0198 1B68     		ldr	r3, [r3]
 2666 019a FB60     		str	r3, [r7, #12]
1435:Drivers/STM32F7xx_HAL_Driver/Src/stm32f7xx_hal_eth.c ****     
1436:Drivers/STM32F7xx_HAL_Driver/Src/stm32f7xx_hal_eth.c ****     /* Clear FES and DM bits */
1437:Drivers/STM32F7xx_HAL_Driver/Src/stm32f7xx_hal_eth.c ****     tmpreg &= ~((uint32_t)0x00004800);
 2667              		.loc 1 1437 0
 2668 019c FB68     		ldr	r3, [r7, #12]
 2669 019e 23F49043 		bic	r3, r3, #18432
 2670 01a2 FB60     		str	r3, [r7, #12]
1438:Drivers/STM32F7xx_HAL_Driver/Src/stm32f7xx_hal_eth.c ****     
1439:Drivers/STM32F7xx_HAL_Driver/Src/stm32f7xx_hal_eth.c ****     tmpreg |= (uint32_t)(heth->Init.Speed | heth->Init.DuplexMode);
 2671              		.loc 1 1439 0
 2672 01a4 7B68     		ldr	r3, [r7, #4]
 2673 01a6 9A68     		ldr	r2, [r3, #8]
 2674 01a8 7B68     		ldr	r3, [r7, #4]
 2675 01aa DB68     		ldr	r3, [r3, #12]
 2676 01ac 1343     		orrs	r3, r3, r2
 2677 01ae FA68     		ldr	r2, [r7, #12]
 2678 01b0 1343     		orrs	r3, r3, r2
 2679 01b2 FB60     		str	r3, [r7, #12]
1440:Drivers/STM32F7xx_HAL_Driver/Src/stm32f7xx_hal_eth.c ****     
1441:Drivers/STM32F7xx_HAL_Driver/Src/stm32f7xx_hal_eth.c ****     /* Write to ETHERNET MACCR */
1442:Drivers/STM32F7xx_HAL_Driver/Src/stm32f7xx_hal_eth.c ****     (heth->Instance)->MACCR = (uint32_t)tmpreg;
 2680              		.loc 1 1442 0
 2681 01b4 7B68     		ldr	r3, [r7, #4]
 2682 01b6 1B68     		ldr	r3, [r3]
 2683 01b8 FA68     		ldr	r2, [r7, #12]
 2684 01ba 1A60     		str	r2, [r3]
1443:Drivers/STM32F7xx_HAL_Driver/Src/stm32f7xx_hal_eth.c ****     
1444:Drivers/STM32F7xx_HAL_Driver/Src/stm32f7xx_hal_eth.c ****     /* Wait until the write operation will be taken into account:
1445:Drivers/STM32F7xx_HAL_Driver/Src/stm32f7xx_hal_eth.c ****     at least four TX_CLK/RX_CLK clock cycles */
1446:Drivers/STM32F7xx_HAL_Driver/Src/stm32f7xx_hal_eth.c ****     tmpreg = (heth->Instance)->MACCR;
 2685              		.loc 1 1446 0
 2686 01bc 7B68     		ldr	r3, [r7, #4]
 2687 01be 1B68     		ldr	r3, [r3]
 2688 01c0 1B68     		ldr	r3, [r3]
 2689 01c2 FB60     		str	r3, [r7, #12]
1447:Drivers/STM32F7xx_HAL_Driver/Src/stm32f7xx_hal_eth.c ****     HAL_Delay(ETH_REG_WRITE_DELAY);
 2690              		.loc 1 1447 0
 2691 01c4 0120     		movs	r0, #1
 2692 01c6 FFF7FEFF 		bl	HAL_Delay
1448:Drivers/STM32F7xx_HAL_Driver/Src/stm32f7xx_hal_eth.c ****     (heth->Instance)->MACCR = tmpreg;
 2693              		.loc 1 1448 0
 2694 01ca 7B68     		ldr	r3, [r7, #4]
 2695 01cc 1B68     		ldr	r3, [r3]
 2696 01ce FA68     		ldr	r2, [r7, #12]
 2697 01d0 1A60     		str	r2, [r3]
 2698              	.L113:
1449:Drivers/STM32F7xx_HAL_Driver/Src/stm32f7xx_hal_eth.c ****   }
1450:Drivers/STM32F7xx_HAL_Driver/Src/stm32f7xx_hal_eth.c ****   
1451:Drivers/STM32F7xx_HAL_Driver/Src/stm32f7xx_hal_eth.c ****   /* Set the ETH state to Ready */
1452:Drivers/STM32F7xx_HAL_Driver/Src/stm32f7xx_hal_eth.c ****   heth->State= HAL_ETH_STATE_READY;
 2699              		.loc 1 1452 0
 2700 01d2 7B68     		ldr	r3, [r7, #4]
 2701 01d4 0122     		movs	r2, #1
 2702 01d6 83F84420 		strb	r2, [r3, #68]
1453:Drivers/STM32F7xx_HAL_Driver/Src/stm32f7xx_hal_eth.c ****   
ARM GAS  /tmp/ccJiNVdi.s 			page 74


1454:Drivers/STM32F7xx_HAL_Driver/Src/stm32f7xx_hal_eth.c ****   /* Process Unlocked */
1455:Drivers/STM32F7xx_HAL_Driver/Src/stm32f7xx_hal_eth.c ****   __HAL_UNLOCK(heth);
 2703              		.loc 1 1455 0
 2704 01da 7B68     		ldr	r3, [r7, #4]
 2705 01dc 0022     		movs	r2, #0
 2706 01de 83F84520 		strb	r2, [r3, #69]
1456:Drivers/STM32F7xx_HAL_Driver/Src/stm32f7xx_hal_eth.c ****   
1457:Drivers/STM32F7xx_HAL_Driver/Src/stm32f7xx_hal_eth.c ****   /* Return function status */
1458:Drivers/STM32F7xx_HAL_Driver/Src/stm32f7xx_hal_eth.c ****   return HAL_OK;  
 2707              		.loc 1 1458 0
 2708 01e2 0023     		movs	r3, #0
 2709              	.L111:
1459:Drivers/STM32F7xx_HAL_Driver/Src/stm32f7xx_hal_eth.c **** }
 2710              		.loc 1 1459 0
 2711 01e4 1846     		mov	r0, r3
 2712 01e6 1037     		adds	r7, r7, #16
 2713              	.LCFI98:
 2714              		.cfi_def_cfa_offset 8
 2715 01e8 BD46     		mov	sp, r7
 2716              	.LCFI99:
 2717              		.cfi_def_cfa_register 13
 2718              		@ sp needed
 2719 01ea 80BD     		pop	{r7, pc}
 2720              	.L115:
 2721              		.align	2
 2722              	.L114:
 2723 01ec 0F8120FF 		.word	-14647025
 2724              		.cfi_endproc
 2725              	.LFE153:
 2727              		.section	.text.HAL_ETH_ConfigDMA,"ax",%progbits
 2728              		.align	1
 2729              		.global	HAL_ETH_ConfigDMA
 2730              		.syntax unified
 2731              		.thumb
 2732              		.thumb_func
 2733              		.fpu fpv4-sp-d16
 2735              	HAL_ETH_ConfigDMA:
 2736              	.LFB154:
1460:Drivers/STM32F7xx_HAL_Driver/Src/stm32f7xx_hal_eth.c **** 
1461:Drivers/STM32F7xx_HAL_Driver/Src/stm32f7xx_hal_eth.c **** /**
1462:Drivers/STM32F7xx_HAL_Driver/Src/stm32f7xx_hal_eth.c ****   * @brief  Sets ETH DMA Configuration.
1463:Drivers/STM32F7xx_HAL_Driver/Src/stm32f7xx_hal_eth.c ****   * @param  heth pointer to a ETH_HandleTypeDef structure that contains
1464:Drivers/STM32F7xx_HAL_Driver/Src/stm32f7xx_hal_eth.c ****   *         the configuration information for ETHERNET module
1465:Drivers/STM32F7xx_HAL_Driver/Src/stm32f7xx_hal_eth.c ****   * @param  dmaconf DMA Configuration structure  
1466:Drivers/STM32F7xx_HAL_Driver/Src/stm32f7xx_hal_eth.c ****   * @retval HAL status
1467:Drivers/STM32F7xx_HAL_Driver/Src/stm32f7xx_hal_eth.c ****   */
1468:Drivers/STM32F7xx_HAL_Driver/Src/stm32f7xx_hal_eth.c **** HAL_StatusTypeDef HAL_ETH_ConfigDMA(ETH_HandleTypeDef *heth, ETH_DMAInitTypeDef *dmaconf)
1469:Drivers/STM32F7xx_HAL_Driver/Src/stm32f7xx_hal_eth.c **** {
 2737              		.loc 1 1469 0
 2738              		.cfi_startproc
 2739              		@ args = 0, pretend = 0, frame = 16
 2740              		@ frame_needed = 1, uses_anonymous_args = 0
 2741 0000 80B5     		push	{r7, lr}
 2742              	.LCFI100:
 2743              		.cfi_def_cfa_offset 8
 2744              		.cfi_offset 7, -8
 2745              		.cfi_offset 14, -4
ARM GAS  /tmp/ccJiNVdi.s 			page 75


 2746 0002 84B0     		sub	sp, sp, #16
 2747              	.LCFI101:
 2748              		.cfi_def_cfa_offset 24
 2749 0004 00AF     		add	r7, sp, #0
 2750              	.LCFI102:
 2751              		.cfi_def_cfa_register 7
 2752 0006 7860     		str	r0, [r7, #4]
 2753 0008 3960     		str	r1, [r7]
1470:Drivers/STM32F7xx_HAL_Driver/Src/stm32f7xx_hal_eth.c ****   uint32_t tmpreg = 0;
 2754              		.loc 1 1470 0
 2755 000a 0023     		movs	r3, #0
 2756 000c FB60     		str	r3, [r7, #12]
1471:Drivers/STM32F7xx_HAL_Driver/Src/stm32f7xx_hal_eth.c **** 
1472:Drivers/STM32F7xx_HAL_Driver/Src/stm32f7xx_hal_eth.c ****   /* Process Locked */
1473:Drivers/STM32F7xx_HAL_Driver/Src/stm32f7xx_hal_eth.c ****   __HAL_LOCK(heth);
 2757              		.loc 1 1473 0
 2758 000e 7B68     		ldr	r3, [r7, #4]
 2759 0010 93F84530 		ldrb	r3, [r3, #69]	@ zero_extendqisi2
 2760 0014 012B     		cmp	r3, #1
 2761 0016 01D1     		bne	.L117
 2762              		.loc 1 1473 0 is_stmt 0 discriminator 1
 2763 0018 0223     		movs	r3, #2
 2764 001a 7BE0     		b	.L118
 2765              	.L117:
 2766              		.loc 1 1473 0 discriminator 2
 2767 001c 7B68     		ldr	r3, [r7, #4]
 2768 001e 0122     		movs	r2, #1
